   1              		.syntax unified
   2              		.cpu cortex-m3
   3              		.fpu softvfp
   4              		.eabi_attribute 20, 1
   5              		.eabi_attribute 21, 1
   6              		.eabi_attribute 23, 3
   7              		.eabi_attribute 24, 1
   8              		.eabi_attribute 25, 1
   9              		.eabi_attribute 26, 1
  10              		.eabi_attribute 30, 6
  11              		.eabi_attribute 34, 1
  12              		.eabi_attribute 18, 4
  13              		.thumb
  14              		.file	"stm32f10x_cec.c"
  15              		.text
  16              	.Ltext0:
  17              		.cfi_sections	.debug_frame
  18              		.section	.text.CEC_DeInit,"ax",%progbits
  19              		.align	2
  20              		.global	CEC_DeInit
  21              		.thumb
  22              		.thumb_func
  24              	CEC_DeInit:
  25              	.LFB29:
  26              		.file 1 "../libs/StdPeripheralDriver/src/stm32f10x_cec.c"
   1:../libs/StdPeripheralDriver/src/stm32f10x_cec.c **** /**
   2:../libs/StdPeripheralDriver/src/stm32f10x_cec.c ****   ******************************************************************************
   3:../libs/StdPeripheralDriver/src/stm32f10x_cec.c ****   * @file    stm32f10x_cec.c
   4:../libs/StdPeripheralDriver/src/stm32f10x_cec.c ****   * @author  MCD Application Team
   5:../libs/StdPeripheralDriver/src/stm32f10x_cec.c ****   * @version V3.5.0
   6:../libs/StdPeripheralDriver/src/stm32f10x_cec.c ****   * @date    11-March-2011
   7:../libs/StdPeripheralDriver/src/stm32f10x_cec.c ****   * @brief   This file provides all the CEC firmware functions.
   8:../libs/StdPeripheralDriver/src/stm32f10x_cec.c ****   ******************************************************************************
   9:../libs/StdPeripheralDriver/src/stm32f10x_cec.c ****   * @attention
  10:../libs/StdPeripheralDriver/src/stm32f10x_cec.c ****   *
  11:../libs/StdPeripheralDriver/src/stm32f10x_cec.c ****   * THE PRESENT FIRMWARE WHICH IS FOR GUIDANCE ONLY AIMS AT PROVIDING CUSTOMERS
  12:../libs/StdPeripheralDriver/src/stm32f10x_cec.c ****   * WITH CODING INFORMATION REGARDING THEIR PRODUCTS IN ORDER FOR THEM TO SAVE
  13:../libs/StdPeripheralDriver/src/stm32f10x_cec.c ****   * TIME. AS A RESULT, STMICROELECTRONICS SHALL NOT BE HELD LIABLE FOR ANY
  14:../libs/StdPeripheralDriver/src/stm32f10x_cec.c ****   * DIRECT, INDIRECT OR CONSEQUENTIAL DAMAGES WITH RESPECT TO ANY CLAIMS ARISING
  15:../libs/StdPeripheralDriver/src/stm32f10x_cec.c ****   * FROM THE CONTENT OF SUCH FIRMWARE AND/OR THE USE MADE BY CUSTOMERS OF THE
  16:../libs/StdPeripheralDriver/src/stm32f10x_cec.c ****   * CODING INFORMATION CONTAINED HEREIN IN CONNECTION WITH THEIR PRODUCTS.
  17:../libs/StdPeripheralDriver/src/stm32f10x_cec.c ****   *
  18:../libs/StdPeripheralDriver/src/stm32f10x_cec.c ****   * <h2><center>&copy; COPYRIGHT 2011 STMicroelectronics</center></h2>
  19:../libs/StdPeripheralDriver/src/stm32f10x_cec.c ****   ******************************************************************************
  20:../libs/StdPeripheralDriver/src/stm32f10x_cec.c ****   */
  21:../libs/StdPeripheralDriver/src/stm32f10x_cec.c **** 
  22:../libs/StdPeripheralDriver/src/stm32f10x_cec.c **** /* Includes ------------------------------------------------------------------*/
  23:../libs/StdPeripheralDriver/src/stm32f10x_cec.c **** #include "stm32f10x_cec.h"
  24:../libs/StdPeripheralDriver/src/stm32f10x_cec.c **** #include "stm32f10x_rcc.h"
  25:../libs/StdPeripheralDriver/src/stm32f10x_cec.c **** 
  26:../libs/StdPeripheralDriver/src/stm32f10x_cec.c **** /** @addtogroup STM32F10x_StdPeriph_Driver
  27:../libs/StdPeripheralDriver/src/stm32f10x_cec.c ****   * @{
  28:../libs/StdPeripheralDriver/src/stm32f10x_cec.c ****   */
  29:../libs/StdPeripheralDriver/src/stm32f10x_cec.c **** 
  30:../libs/StdPeripheralDriver/src/stm32f10x_cec.c **** /** @defgroup CEC 
  31:../libs/StdPeripheralDriver/src/stm32f10x_cec.c ****   * @brief CEC driver modules
  32:../libs/StdPeripheralDriver/src/stm32f10x_cec.c ****   * @{
  33:../libs/StdPeripheralDriver/src/stm32f10x_cec.c ****   */
  34:../libs/StdPeripheralDriver/src/stm32f10x_cec.c **** 
  35:../libs/StdPeripheralDriver/src/stm32f10x_cec.c **** /** @defgroup CEC_Private_TypesDefinitions
  36:../libs/StdPeripheralDriver/src/stm32f10x_cec.c ****   * @{
  37:../libs/StdPeripheralDriver/src/stm32f10x_cec.c ****   */
  38:../libs/StdPeripheralDriver/src/stm32f10x_cec.c **** 
  39:../libs/StdPeripheralDriver/src/stm32f10x_cec.c **** /**
  40:../libs/StdPeripheralDriver/src/stm32f10x_cec.c ****   * @}
  41:../libs/StdPeripheralDriver/src/stm32f10x_cec.c ****   */
  42:../libs/StdPeripheralDriver/src/stm32f10x_cec.c **** 
  43:../libs/StdPeripheralDriver/src/stm32f10x_cec.c **** 
  44:../libs/StdPeripheralDriver/src/stm32f10x_cec.c **** /** @defgroup CEC_Private_Defines
  45:../libs/StdPeripheralDriver/src/stm32f10x_cec.c ****   * @{
  46:../libs/StdPeripheralDriver/src/stm32f10x_cec.c ****   */ 
  47:../libs/StdPeripheralDriver/src/stm32f10x_cec.c **** 
  48:../libs/StdPeripheralDriver/src/stm32f10x_cec.c **** /* ------------ CEC registers bit address in the alias region ----------- */
  49:../libs/StdPeripheralDriver/src/stm32f10x_cec.c **** #define CEC_OFFSET                (CEC_BASE - PERIPH_BASE)
  50:../libs/StdPeripheralDriver/src/stm32f10x_cec.c **** 
  51:../libs/StdPeripheralDriver/src/stm32f10x_cec.c **** /* --- CFGR Register ---*/
  52:../libs/StdPeripheralDriver/src/stm32f10x_cec.c **** 
  53:../libs/StdPeripheralDriver/src/stm32f10x_cec.c **** /* Alias word address of PE bit */
  54:../libs/StdPeripheralDriver/src/stm32f10x_cec.c **** #define CFGR_OFFSET                 (CEC_OFFSET + 0x00)
  55:../libs/StdPeripheralDriver/src/stm32f10x_cec.c **** #define PE_BitNumber                0x00
  56:../libs/StdPeripheralDriver/src/stm32f10x_cec.c **** #define CFGR_PE_BB                  (PERIPH_BB_BASE + (CFGR_OFFSET * 32) + (PE_BitNumber * 4))
  57:../libs/StdPeripheralDriver/src/stm32f10x_cec.c **** 
  58:../libs/StdPeripheralDriver/src/stm32f10x_cec.c **** /* Alias word address of IE bit */
  59:../libs/StdPeripheralDriver/src/stm32f10x_cec.c **** #define IE_BitNumber                0x01
  60:../libs/StdPeripheralDriver/src/stm32f10x_cec.c **** #define CFGR_IE_BB                  (PERIPH_BB_BASE + (CFGR_OFFSET * 32) + (IE_BitNumber * 4))
  61:../libs/StdPeripheralDriver/src/stm32f10x_cec.c **** 
  62:../libs/StdPeripheralDriver/src/stm32f10x_cec.c **** /* --- CSR Register ---*/
  63:../libs/StdPeripheralDriver/src/stm32f10x_cec.c **** 
  64:../libs/StdPeripheralDriver/src/stm32f10x_cec.c **** /* Alias word address of TSOM bit */
  65:../libs/StdPeripheralDriver/src/stm32f10x_cec.c **** #define CSR_OFFSET                  (CEC_OFFSET + 0x10)
  66:../libs/StdPeripheralDriver/src/stm32f10x_cec.c **** #define TSOM_BitNumber              0x00
  67:../libs/StdPeripheralDriver/src/stm32f10x_cec.c **** #define CSR_TSOM_BB                 (PERIPH_BB_BASE + (CSR_OFFSET * 32) + (TSOM_BitNumber * 4))
  68:../libs/StdPeripheralDriver/src/stm32f10x_cec.c **** 
  69:../libs/StdPeripheralDriver/src/stm32f10x_cec.c **** /* Alias word address of TEOM bit */
  70:../libs/StdPeripheralDriver/src/stm32f10x_cec.c **** #define TEOM_BitNumber              0x01
  71:../libs/StdPeripheralDriver/src/stm32f10x_cec.c **** #define CSR_TEOM_BB                 (PERIPH_BB_BASE + (CSR_OFFSET * 32) + (TEOM_BitNumber * 4))
  72:../libs/StdPeripheralDriver/src/stm32f10x_cec.c ****   
  73:../libs/StdPeripheralDriver/src/stm32f10x_cec.c **** #define CFGR_CLEAR_Mask            (uint8_t)(0xF3)        /* CFGR register Mask */
  74:../libs/StdPeripheralDriver/src/stm32f10x_cec.c **** #define FLAG_Mask                  ((uint32_t)0x00FFFFFF) /* CEC FLAG mask */
  75:../libs/StdPeripheralDriver/src/stm32f10x_cec.c ****  
  76:../libs/StdPeripheralDriver/src/stm32f10x_cec.c **** /**
  77:../libs/StdPeripheralDriver/src/stm32f10x_cec.c ****   * @}
  78:../libs/StdPeripheralDriver/src/stm32f10x_cec.c ****   */ 
  79:../libs/StdPeripheralDriver/src/stm32f10x_cec.c **** 
  80:../libs/StdPeripheralDriver/src/stm32f10x_cec.c **** 
  81:../libs/StdPeripheralDriver/src/stm32f10x_cec.c **** /** @defgroup CEC_Private_Macros
  82:../libs/StdPeripheralDriver/src/stm32f10x_cec.c ****   * @{
  83:../libs/StdPeripheralDriver/src/stm32f10x_cec.c ****   */ 
  84:../libs/StdPeripheralDriver/src/stm32f10x_cec.c **** 
  85:../libs/StdPeripheralDriver/src/stm32f10x_cec.c **** /**
  86:../libs/StdPeripheralDriver/src/stm32f10x_cec.c ****   * @}
  87:../libs/StdPeripheralDriver/src/stm32f10x_cec.c ****   */ 
  88:../libs/StdPeripheralDriver/src/stm32f10x_cec.c **** 
  89:../libs/StdPeripheralDriver/src/stm32f10x_cec.c **** 
  90:../libs/StdPeripheralDriver/src/stm32f10x_cec.c **** /** @defgroup CEC_Private_Variables
  91:../libs/StdPeripheralDriver/src/stm32f10x_cec.c ****   * @{
  92:../libs/StdPeripheralDriver/src/stm32f10x_cec.c ****   */ 
  93:../libs/StdPeripheralDriver/src/stm32f10x_cec.c **** 
  94:../libs/StdPeripheralDriver/src/stm32f10x_cec.c **** /**
  95:../libs/StdPeripheralDriver/src/stm32f10x_cec.c ****   * @}
  96:../libs/StdPeripheralDriver/src/stm32f10x_cec.c ****   */ 
  97:../libs/StdPeripheralDriver/src/stm32f10x_cec.c **** 
  98:../libs/StdPeripheralDriver/src/stm32f10x_cec.c **** 
  99:../libs/StdPeripheralDriver/src/stm32f10x_cec.c **** /** @defgroup CEC_Private_FunctionPrototypes
 100:../libs/StdPeripheralDriver/src/stm32f10x_cec.c ****   * @{
 101:../libs/StdPeripheralDriver/src/stm32f10x_cec.c ****   */
 102:../libs/StdPeripheralDriver/src/stm32f10x_cec.c ****  
 103:../libs/StdPeripheralDriver/src/stm32f10x_cec.c **** /**
 104:../libs/StdPeripheralDriver/src/stm32f10x_cec.c ****   * @}
 105:../libs/StdPeripheralDriver/src/stm32f10x_cec.c ****   */ 
 106:../libs/StdPeripheralDriver/src/stm32f10x_cec.c **** 
 107:../libs/StdPeripheralDriver/src/stm32f10x_cec.c **** 
 108:../libs/StdPeripheralDriver/src/stm32f10x_cec.c **** /** @defgroup CEC_Private_Functions
 109:../libs/StdPeripheralDriver/src/stm32f10x_cec.c ****   * @{
 110:../libs/StdPeripheralDriver/src/stm32f10x_cec.c ****   */ 
 111:../libs/StdPeripheralDriver/src/stm32f10x_cec.c **** 
 112:../libs/StdPeripheralDriver/src/stm32f10x_cec.c **** /**
 113:../libs/StdPeripheralDriver/src/stm32f10x_cec.c ****   * @brief  Deinitializes the CEC peripheral registers to their default reset 
 114:../libs/StdPeripheralDriver/src/stm32f10x_cec.c ****   *         values.
 115:../libs/StdPeripheralDriver/src/stm32f10x_cec.c ****   * @param  None
 116:../libs/StdPeripheralDriver/src/stm32f10x_cec.c ****   * @retval None
 117:../libs/StdPeripheralDriver/src/stm32f10x_cec.c ****   */
 118:../libs/StdPeripheralDriver/src/stm32f10x_cec.c **** void CEC_DeInit(void)
 119:../libs/StdPeripheralDriver/src/stm32f10x_cec.c **** {
  27              		.loc 1 119 0
  28              		.cfi_startproc
  29              		@ args = 0, pretend = 0, frame = 0
  30              		@ frame_needed = 1, uses_anonymous_args = 0
  31 0000 80B5     		push	{r7, lr}
  32              	.LCFI0:
  33              		.cfi_def_cfa_offset 8
  34              		.cfi_offset 7, -8
  35              		.cfi_offset 14, -4
  36 0002 00AF     		add	r7, sp, #0
  37              	.LCFI1:
  38              		.cfi_def_cfa_register 7
 120:../libs/StdPeripheralDriver/src/stm32f10x_cec.c ****   /* Enable CEC reset state */
 121:../libs/StdPeripheralDriver/src/stm32f10x_cec.c ****   RCC_APB1PeriphResetCmd(RCC_APB1Periph_CEC, ENABLE);  
  39              		.loc 1 121 0
  40 0004 4FF08040 		mov	r0, #1073741824
  41 0008 4FF00101 		mov	r1, #1
  42 000c FFF7FEFF 		bl	RCC_APB1PeriphResetCmd
 122:../libs/StdPeripheralDriver/src/stm32f10x_cec.c ****   /* Release CEC from reset state */
 123:../libs/StdPeripheralDriver/src/stm32f10x_cec.c ****   RCC_APB1PeriphResetCmd(RCC_APB1Periph_CEC, DISABLE); 
  43              		.loc 1 123 0
  44 0010 4FF08040 		mov	r0, #1073741824
  45 0014 4FF00001 		mov	r1, #0
  46 0018 FFF7FEFF 		bl	RCC_APB1PeriphResetCmd
 124:../libs/StdPeripheralDriver/src/stm32f10x_cec.c **** }
  47              		.loc 1 124 0
  48 001c 80BD     		pop	{r7, pc}
  49              		.cfi_endproc
  50              	.LFE29:
  52 001e 00BF     		.section	.text.CEC_Init,"ax",%progbits
  53              		.align	2
  54              		.global	CEC_Init
  55              		.thumb
  56              		.thumb_func
  58              	CEC_Init:
  59              	.LFB30:
 125:../libs/StdPeripheralDriver/src/stm32f10x_cec.c **** 
 126:../libs/StdPeripheralDriver/src/stm32f10x_cec.c **** 
 127:../libs/StdPeripheralDriver/src/stm32f10x_cec.c **** /**
 128:../libs/StdPeripheralDriver/src/stm32f10x_cec.c ****   * @brief  Initializes the CEC peripheral according to the specified 
 129:../libs/StdPeripheralDriver/src/stm32f10x_cec.c ****   *         parameters in the CEC_InitStruct.
 130:../libs/StdPeripheralDriver/src/stm32f10x_cec.c ****   * @param  CEC_InitStruct: pointer to an CEC_InitTypeDef structure that
 131:../libs/StdPeripheralDriver/src/stm32f10x_cec.c ****   *         contains the configuration information for the specified
 132:../libs/StdPeripheralDriver/src/stm32f10x_cec.c ****   *         CEC peripheral.
 133:../libs/StdPeripheralDriver/src/stm32f10x_cec.c ****   * @retval None
 134:../libs/StdPeripheralDriver/src/stm32f10x_cec.c ****   */
 135:../libs/StdPeripheralDriver/src/stm32f10x_cec.c **** void CEC_Init(CEC_InitTypeDef* CEC_InitStruct)
 136:../libs/StdPeripheralDriver/src/stm32f10x_cec.c **** {
  60              		.loc 1 136 0
  61              		.cfi_startproc
  62              		@ args = 0, pretend = 0, frame = 16
  63              		@ frame_needed = 1, uses_anonymous_args = 0
  64 0000 80B5     		push	{r7, lr}
  65              	.LCFI2:
  66              		.cfi_def_cfa_offset 8
  67              		.cfi_offset 7, -8
  68              		.cfi_offset 14, -4
  69 0002 84B0     		sub	sp, sp, #16
  70              	.LCFI3:
  71              		.cfi_def_cfa_offset 24
  72 0004 00AF     		add	r7, sp, #0
  73              	.LCFI4:
  74              		.cfi_def_cfa_register 7
  75 0006 7860     		str	r0, [r7, #4]
 137:../libs/StdPeripheralDriver/src/stm32f10x_cec.c ****   uint16_t tmpreg = 0;
  76              		.loc 1 137 0
  77 0008 4FF00003 		mov	r3, #0
  78 000c FB81     		strh	r3, [r7, #14]	@ movhi
 138:../libs/StdPeripheralDriver/src/stm32f10x_cec.c ****  
 139:../libs/StdPeripheralDriver/src/stm32f10x_cec.c ****   /* Check the parameters */
 140:../libs/StdPeripheralDriver/src/stm32f10x_cec.c ****   assert_param(IS_CEC_BIT_TIMING_ERROR_MODE(CEC_InitStruct->CEC_BitTimingMode)); 
  79              		.loc 1 140 0
  80 000e 7B68     		ldr	r3, [r7, #4]
  81 0010 1B88     		ldrh	r3, [r3, #0]
  82 0012 002B     		cmp	r3, #0
  83 0014 03D0     		beq	.L3
  84              		.loc 1 140 0 is_stmt 0 discriminator 2
  85 0016 7B68     		ldr	r3, [r7, #4]
  86 0018 1B88     		ldrh	r3, [r3, #0]
  87 001a 042B     		cmp	r3, #4
  88 001c 02D1     		bne	.L4
  89              	.L3:
  90              		.loc 1 140 0 discriminator 1
  91 001e 4FF00103 		mov	r3, #1
  92 0022 01E0     		b	.L5
  93              	.L4:
  94              		.loc 1 140 0 discriminator 3
  95 0024 4FF00003 		mov	r3, #0
  96              	.L5:
  97              		.loc 1 140 0 discriminator 4
  98 0028 1846     		mov	r0, r3
  99 002a FFF7FEFF 		bl	assert_param
 141:../libs/StdPeripheralDriver/src/stm32f10x_cec.c ****   assert_param(IS_CEC_BIT_PERIOD_ERROR_MODE(CEC_InitStruct->CEC_BitPeriodMode));
 100              		.loc 1 141 0 is_stmt 1 discriminator 4
 101 002e 7B68     		ldr	r3, [r7, #4]
 102 0030 5B88     		ldrh	r3, [r3, #2]
 103 0032 002B     		cmp	r3, #0
 104 0034 03D0     		beq	.L6
 105              		.loc 1 141 0 is_stmt 0 discriminator 2
 106 0036 7B68     		ldr	r3, [r7, #4]
 107 0038 5B88     		ldrh	r3, [r3, #2]
 108 003a 082B     		cmp	r3, #8
 109 003c 02D1     		bne	.L7
 110              	.L6:
 111              		.loc 1 141 0 discriminator 1
 112 003e 4FF00103 		mov	r3, #1
 113 0042 01E0     		b	.L8
 114              	.L7:
 115              		.loc 1 141 0 discriminator 3
 116 0044 4FF00003 		mov	r3, #0
 117              	.L8:
 118              		.loc 1 141 0 discriminator 4
 119 0048 1846     		mov	r0, r3
 120 004a FFF7FEFF 		bl	assert_param
 142:../libs/StdPeripheralDriver/src/stm32f10x_cec.c ****      
 143:../libs/StdPeripheralDriver/src/stm32f10x_cec.c ****   /*---------------------------- CEC CFGR Configuration -----------------*/
 144:../libs/StdPeripheralDriver/src/stm32f10x_cec.c ****   /* Get the CEC CFGR value */
 145:../libs/StdPeripheralDriver/src/stm32f10x_cec.c ****   tmpreg = CEC->CFGR;
 121              		.loc 1 145 0 is_stmt 1 discriminator 4
 122 004e 0B4B     		ldr	r3, .L9
 123 0050 1B68     		ldr	r3, [r3, #0]
 124 0052 FB81     		strh	r3, [r7, #14]	@ movhi
 146:../libs/StdPeripheralDriver/src/stm32f10x_cec.c ****   
 147:../libs/StdPeripheralDriver/src/stm32f10x_cec.c ****   /* Clear BTEM and BPEM bits */
 148:../libs/StdPeripheralDriver/src/stm32f10x_cec.c ****   tmpreg &= CFGR_CLEAR_Mask;
 125              		.loc 1 148 0 discriminator 4
 126 0054 FB89     		ldrh	r3, [r7, #14]	@ movhi
 127 0056 03F0F303 		and	r3, r3, #243
 128 005a FB81     		strh	r3, [r7, #14]	@ movhi
 149:../libs/StdPeripheralDriver/src/stm32f10x_cec.c ****   
 150:../libs/StdPeripheralDriver/src/stm32f10x_cec.c ****   /* Configure CEC: Bit Timing Error and Bit Period Error */
 151:../libs/StdPeripheralDriver/src/stm32f10x_cec.c ****   tmpreg |= (uint16_t)(CEC_InitStruct->CEC_BitTimingMode | CEC_InitStruct->CEC_BitPeriodMode);
 129              		.loc 1 151 0 discriminator 4
 130 005c 7B68     		ldr	r3, [r7, #4]
 131 005e 1A88     		ldrh	r2, [r3, #0]
 132 0060 7B68     		ldr	r3, [r7, #4]
 133 0062 5B88     		ldrh	r3, [r3, #2]
 134 0064 1343     		orrs	r3, r3, r2
 135 0066 9AB2     		uxth	r2, r3
 136 0068 FB89     		ldrh	r3, [r7, #14]	@ movhi
 137 006a 1343     		orrs	r3, r3, r2
 138 006c FB81     		strh	r3, [r7, #14]	@ movhi
 152:../libs/StdPeripheralDriver/src/stm32f10x_cec.c **** 
 153:../libs/StdPeripheralDriver/src/stm32f10x_cec.c ****   /* Write to CEC CFGR  register*/
 154:../libs/StdPeripheralDriver/src/stm32f10x_cec.c ****   CEC->CFGR = tmpreg;
 139              		.loc 1 154 0 discriminator 4
 140 006e 034B     		ldr	r3, .L9
 141 0070 FA89     		ldrh	r2, [r7, #14]
 142 0072 1A60     		str	r2, [r3, #0]
 155:../libs/StdPeripheralDriver/src/stm32f10x_cec.c ****   
 156:../libs/StdPeripheralDriver/src/stm32f10x_cec.c **** }
 143              		.loc 1 156 0 discriminator 4
 144 0074 07F11007 		add	r7, r7, #16
 145 0078 BD46     		mov	sp, r7
 146 007a 80BD     		pop	{r7, pc}
 147              	.L10:
 148              		.align	2
 149              	.L9:
 150 007c 00780040 		.word	1073772544
 151              		.cfi_endproc
 152              	.LFE30:
 154              		.section	.text.CEC_Cmd,"ax",%progbits
 155              		.align	2
 156              		.global	CEC_Cmd
 157              		.thumb
 158              		.thumb_func
 160              	CEC_Cmd:
 161              	.LFB31:
 157:../libs/StdPeripheralDriver/src/stm32f10x_cec.c **** 
 158:../libs/StdPeripheralDriver/src/stm32f10x_cec.c **** /**
 159:../libs/StdPeripheralDriver/src/stm32f10x_cec.c ****   * @brief  Enables or disables the specified CEC peripheral.
 160:../libs/StdPeripheralDriver/src/stm32f10x_cec.c ****   * @param  NewState: new state of the CEC peripheral. 
 161:../libs/StdPeripheralDriver/src/stm32f10x_cec.c ****   *     This parameter can be: ENABLE or DISABLE.
 162:../libs/StdPeripheralDriver/src/stm32f10x_cec.c ****   * @retval None
 163:../libs/StdPeripheralDriver/src/stm32f10x_cec.c ****   */
 164:../libs/StdPeripheralDriver/src/stm32f10x_cec.c **** void CEC_Cmd(FunctionalState NewState)
 165:../libs/StdPeripheralDriver/src/stm32f10x_cec.c **** {
 162              		.loc 1 165 0
 163              		.cfi_startproc
 164              		@ args = 0, pretend = 0, frame = 8
 165              		@ frame_needed = 1, uses_anonymous_args = 0
 166 0000 80B5     		push	{r7, lr}
 167              	.LCFI5:
 168              		.cfi_def_cfa_offset 8
 169              		.cfi_offset 7, -8
 170              		.cfi_offset 14, -4
 171 0002 82B0     		sub	sp, sp, #8
 172              	.LCFI6:
 173              		.cfi_def_cfa_offset 16
 174 0004 00AF     		add	r7, sp, #0
 175              	.LCFI7:
 176              		.cfi_def_cfa_register 7
 177 0006 0346     		mov	r3, r0
 178 0008 FB71     		strb	r3, [r7, #7]
 166:../libs/StdPeripheralDriver/src/stm32f10x_cec.c ****   /* Check the parameters */
 167:../libs/StdPeripheralDriver/src/stm32f10x_cec.c ****   assert_param(IS_FUNCTIONAL_STATE(NewState));
 179              		.loc 1 167 0
 180 000a FB79     		ldrb	r3, [r7, #7]	@ zero_extendqisi2
 181 000c 002B     		cmp	r3, #0
 182 000e 02D0     		beq	.L12
 183              		.loc 1 167 0 is_stmt 0 discriminator 2
 184 0010 FB79     		ldrb	r3, [r7, #7]	@ zero_extendqisi2
 185 0012 012B     		cmp	r3, #1
 186 0014 02D1     		bne	.L13
 187              	.L12:
 188              		.loc 1 167 0 discriminator 1
 189 0016 4FF00103 		mov	r3, #1
 190 001a 01E0     		b	.L14
 191              	.L13:
 192              		.loc 1 167 0 discriminator 3
 193 001c 4FF00003 		mov	r3, #0
 194              	.L14:
 195              		.loc 1 167 0 discriminator 4
 196 0020 1846     		mov	r0, r3
 197 0022 FFF7FEFF 		bl	assert_param
 168:../libs/StdPeripheralDriver/src/stm32f10x_cec.c **** 
 169:../libs/StdPeripheralDriver/src/stm32f10x_cec.c ****   *(__IO uint32_t *) CFGR_PE_BB = (uint32_t)NewState;
 198              		.loc 1 169 0 is_stmt 1 discriminator 4
 199 0026 084B     		ldr	r3, .L17
 200 0028 FA79     		ldrb	r2, [r7, #7]	@ zero_extendqisi2
 201 002a 1A60     		str	r2, [r3, #0]
 170:../libs/StdPeripheralDriver/src/stm32f10x_cec.c **** 
 171:../libs/StdPeripheralDriver/src/stm32f10x_cec.c ****   if(NewState == DISABLE)
 202              		.loc 1 171 0 discriminator 4
 203 002c FB79     		ldrb	r3, [r7, #7]	@ zero_extendqisi2
 204 002e 002B     		cmp	r3, #0
 205 0030 06D1     		bne	.L11
 172:../libs/StdPeripheralDriver/src/stm32f10x_cec.c ****   {
 173:../libs/StdPeripheralDriver/src/stm32f10x_cec.c ****     /* Wait until the PE bit is cleared by hardware (Idle Line detected) */
 174:../libs/StdPeripheralDriver/src/stm32f10x_cec.c ****     while((CEC->CFGR & CEC_CFGR_PE) != (uint32_t)RESET)
 206              		.loc 1 174 0
 207 0032 00BF     		nop
 208              	.L16:
 209              		.loc 1 174 0 is_stmt 0 discriminator 1
 210 0034 054B     		ldr	r3, .L17+4
 211 0036 1B68     		ldr	r3, [r3, #0]
 212 0038 03F00103 		and	r3, r3, #1
 213 003c 002B     		cmp	r3, #0
 214 003e F9D1     		bne	.L16
 215              	.L11:
 175:../libs/StdPeripheralDriver/src/stm32f10x_cec.c ****     {
 176:../libs/StdPeripheralDriver/src/stm32f10x_cec.c ****     }  
 177:../libs/StdPeripheralDriver/src/stm32f10x_cec.c ****   }  
 178:../libs/StdPeripheralDriver/src/stm32f10x_cec.c **** }
 216              		.loc 1 178 0 is_stmt 1
 217 0040 07F10807 		add	r7, r7, #8
 218 0044 BD46     		mov	sp, r7
 219 0046 80BD     		pop	{r7, pc}
 220              	.L18:
 221              		.align	2
 222              	.L17:
 223 0048 00000F42 		.word	1108279296
 224 004c 00780040 		.word	1073772544
 225              		.cfi_endproc
 226              	.LFE31:
 228              		.section	.text.CEC_ITConfig,"ax",%progbits
 229              		.align	2
 230              		.global	CEC_ITConfig
 231              		.thumb
 232              		.thumb_func
 234              	CEC_ITConfig:
 235              	.LFB32:
 179:../libs/StdPeripheralDriver/src/stm32f10x_cec.c **** 
 180:../libs/StdPeripheralDriver/src/stm32f10x_cec.c **** /**
 181:../libs/StdPeripheralDriver/src/stm32f10x_cec.c ****   * @brief  Enables or disables the CEC interrupt.
 182:../libs/StdPeripheralDriver/src/stm32f10x_cec.c ****   * @param  NewState: new state of the CEC interrupt.
 183:../libs/StdPeripheralDriver/src/stm32f10x_cec.c ****   *   This parameter can be: ENABLE or DISABLE.
 184:../libs/StdPeripheralDriver/src/stm32f10x_cec.c ****   * @retval None
 185:../libs/StdPeripheralDriver/src/stm32f10x_cec.c ****   */
 186:../libs/StdPeripheralDriver/src/stm32f10x_cec.c **** void CEC_ITConfig(FunctionalState NewState)
 187:../libs/StdPeripheralDriver/src/stm32f10x_cec.c **** {
 236              		.loc 1 187 0
 237              		.cfi_startproc
 238              		@ args = 0, pretend = 0, frame = 8
 239              		@ frame_needed = 1, uses_anonymous_args = 0
 240 0000 80B5     		push	{r7, lr}
 241              	.LCFI8:
 242              		.cfi_def_cfa_offset 8
 243              		.cfi_offset 7, -8
 244              		.cfi_offset 14, -4
 245 0002 82B0     		sub	sp, sp, #8
 246              	.LCFI9:
 247              		.cfi_def_cfa_offset 16
 248 0004 00AF     		add	r7, sp, #0
 249              	.LCFI10:
 250              		.cfi_def_cfa_register 7
 251 0006 0346     		mov	r3, r0
 252 0008 FB71     		strb	r3, [r7, #7]
 188:../libs/StdPeripheralDriver/src/stm32f10x_cec.c ****   /* Check the parameters */
 189:../libs/StdPeripheralDriver/src/stm32f10x_cec.c ****   assert_param(IS_FUNCTIONAL_STATE(NewState));
 253              		.loc 1 189 0
 254 000a FB79     		ldrb	r3, [r7, #7]	@ zero_extendqisi2
 255 000c 002B     		cmp	r3, #0
 256 000e 02D0     		beq	.L20
 257              		.loc 1 189 0 is_stmt 0 discriminator 2
 258 0010 FB79     		ldrb	r3, [r7, #7]	@ zero_extendqisi2
 259 0012 012B     		cmp	r3, #1
 260 0014 02D1     		bne	.L21
 261              	.L20:
 262              		.loc 1 189 0 discriminator 1
 263 0016 4FF00103 		mov	r3, #1
 264 001a 01E0     		b	.L22
 265              	.L21:
 266              		.loc 1 189 0 discriminator 3
 267 001c 4FF00003 		mov	r3, #0
 268              	.L22:
 269              		.loc 1 189 0 discriminator 4
 270 0020 1846     		mov	r0, r3
 271 0022 FFF7FEFF 		bl	assert_param
 190:../libs/StdPeripheralDriver/src/stm32f10x_cec.c **** 
 191:../libs/StdPeripheralDriver/src/stm32f10x_cec.c ****   *(__IO uint32_t *) CFGR_IE_BB = (uint32_t)NewState;
 272              		.loc 1 191 0 is_stmt 1 discriminator 4
 273 0026 034B     		ldr	r3, .L23
 274 0028 FA79     		ldrb	r2, [r7, #7]	@ zero_extendqisi2
 275 002a 1A60     		str	r2, [r3, #0]
 192:../libs/StdPeripheralDriver/src/stm32f10x_cec.c **** }
 276              		.loc 1 192 0 discriminator 4
 277 002c 07F10807 		add	r7, r7, #8
 278 0030 BD46     		mov	sp, r7
 279 0032 80BD     		pop	{r7, pc}
 280              	.L24:
 281              		.align	2
 282              	.L23:
 283 0034 04000F42 		.word	1108279300
 284              		.cfi_endproc
 285              	.LFE32:
 287              		.section	.text.CEC_OwnAddressConfig,"ax",%progbits
 288              		.align	2
 289              		.global	CEC_OwnAddressConfig
 290              		.thumb
 291              		.thumb_func
 293              	CEC_OwnAddressConfig:
 294              	.LFB33:
 193:../libs/StdPeripheralDriver/src/stm32f10x_cec.c **** 
 194:../libs/StdPeripheralDriver/src/stm32f10x_cec.c **** /**
 195:../libs/StdPeripheralDriver/src/stm32f10x_cec.c ****   * @brief  Defines the Own Address of the CEC device.
 196:../libs/StdPeripheralDriver/src/stm32f10x_cec.c ****   * @param  CEC_OwnAddress: The CEC own address
 197:../libs/StdPeripheralDriver/src/stm32f10x_cec.c ****   * @retval None
 198:../libs/StdPeripheralDriver/src/stm32f10x_cec.c ****   */
 199:../libs/StdPeripheralDriver/src/stm32f10x_cec.c **** void CEC_OwnAddressConfig(uint8_t CEC_OwnAddress)
 200:../libs/StdPeripheralDriver/src/stm32f10x_cec.c **** {
 295              		.loc 1 200 0
 296              		.cfi_startproc
 297              		@ args = 0, pretend = 0, frame = 8
 298              		@ frame_needed = 1, uses_anonymous_args = 0
 299 0000 80B5     		push	{r7, lr}
 300              	.LCFI11:
 301              		.cfi_def_cfa_offset 8
 302              		.cfi_offset 7, -8
 303              		.cfi_offset 14, -4
 304 0002 82B0     		sub	sp, sp, #8
 305              	.LCFI12:
 306              		.cfi_def_cfa_offset 16
 307 0004 00AF     		add	r7, sp, #0
 308              	.LCFI13:
 309              		.cfi_def_cfa_register 7
 310 0006 0346     		mov	r3, r0
 311 0008 FB71     		strb	r3, [r7, #7]
 201:../libs/StdPeripheralDriver/src/stm32f10x_cec.c ****   /* Check the parameters */
 202:../libs/StdPeripheralDriver/src/stm32f10x_cec.c ****   assert_param(IS_CEC_ADDRESS(CEC_OwnAddress));
 312              		.loc 1 202 0
 313 000a FB79     		ldrb	r3, [r7, #7]	@ zero_extendqisi2
 314 000c 0F2B     		cmp	r3, #15
 315 000e 8CBF     		ite	hi
 316 0010 0023     		movhi	r3, #0
 317 0012 0123     		movls	r3, #1
 318 0014 DBB2     		uxtb	r3, r3
 319 0016 1846     		mov	r0, r3
 320 0018 FFF7FEFF 		bl	assert_param
 203:../libs/StdPeripheralDriver/src/stm32f10x_cec.c **** 
 204:../libs/StdPeripheralDriver/src/stm32f10x_cec.c ****   /* Set the CEC own address */
 205:../libs/StdPeripheralDriver/src/stm32f10x_cec.c ****   CEC->OAR = CEC_OwnAddress;
 321              		.loc 1 205 0
 322 001c 034B     		ldr	r3, .L26
 323 001e FA79     		ldrb	r2, [r7, #7]	@ zero_extendqisi2
 324 0020 5A60     		str	r2, [r3, #4]
 206:../libs/StdPeripheralDriver/src/stm32f10x_cec.c **** }
 325              		.loc 1 206 0
 326 0022 07F10807 		add	r7, r7, #8
 327 0026 BD46     		mov	sp, r7
 328 0028 80BD     		pop	{r7, pc}
 329              	.L27:
 330 002a 00BF     		.align	2
 331              	.L26:
 332 002c 00780040 		.word	1073772544
 333              		.cfi_endproc
 334              	.LFE33:
 336              		.section	.text.CEC_SetPrescaler,"ax",%progbits
 337              		.align	2
 338              		.global	CEC_SetPrescaler
 339              		.thumb
 340              		.thumb_func
 342              	CEC_SetPrescaler:
 343              	.LFB34:
 207:../libs/StdPeripheralDriver/src/stm32f10x_cec.c **** 
 208:../libs/StdPeripheralDriver/src/stm32f10x_cec.c **** /**
 209:../libs/StdPeripheralDriver/src/stm32f10x_cec.c ****   * @brief  Sets the CEC prescaler value.
 210:../libs/StdPeripheralDriver/src/stm32f10x_cec.c ****   * @param  CEC_Prescaler: CEC prescaler new value
 211:../libs/StdPeripheralDriver/src/stm32f10x_cec.c ****   * @retval None
 212:../libs/StdPeripheralDriver/src/stm32f10x_cec.c ****   */
 213:../libs/StdPeripheralDriver/src/stm32f10x_cec.c **** void CEC_SetPrescaler(uint16_t CEC_Prescaler)
 214:../libs/StdPeripheralDriver/src/stm32f10x_cec.c **** {
 344              		.loc 1 214 0
 345              		.cfi_startproc
 346              		@ args = 0, pretend = 0, frame = 8
 347              		@ frame_needed = 1, uses_anonymous_args = 0
 348 0000 80B5     		push	{r7, lr}
 349              	.LCFI14:
 350              		.cfi_def_cfa_offset 8
 351              		.cfi_offset 7, -8
 352              		.cfi_offset 14, -4
 353 0002 82B0     		sub	sp, sp, #8
 354              	.LCFI15:
 355              		.cfi_def_cfa_offset 16
 356 0004 00AF     		add	r7, sp, #0
 357              	.LCFI16:
 358              		.cfi_def_cfa_register 7
 359 0006 0346     		mov	r3, r0
 360 0008 FB80     		strh	r3, [r7, #6]	@ movhi
 215:../libs/StdPeripheralDriver/src/stm32f10x_cec.c ****   /* Check the parameters */
 216:../libs/StdPeripheralDriver/src/stm32f10x_cec.c ****   assert_param(IS_CEC_PRESCALER(CEC_Prescaler));
 361              		.loc 1 216 0
 362 000a FA88     		ldrh	r2, [r7, #6]
 363 000c 43F6FF73 		movw	r3, #16383
 364 0010 9A42     		cmp	r2, r3
 365 0012 8CBF     		ite	hi
 366 0014 0023     		movhi	r3, #0
 367 0016 0123     		movls	r3, #1
 368 0018 DBB2     		uxtb	r3, r3
 369 001a 1846     		mov	r0, r3
 370 001c FFF7FEFF 		bl	assert_param
 217:../libs/StdPeripheralDriver/src/stm32f10x_cec.c **** 
 218:../libs/StdPeripheralDriver/src/stm32f10x_cec.c ****   /* Set the  Prescaler value*/
 219:../libs/StdPeripheralDriver/src/stm32f10x_cec.c ****   CEC->PRES = CEC_Prescaler;
 371              		.loc 1 219 0
 372 0020 034B     		ldr	r3, .L29
 373 0022 FA88     		ldrh	r2, [r7, #6]
 374 0024 9A60     		str	r2, [r3, #8]
 220:../libs/StdPeripheralDriver/src/stm32f10x_cec.c **** }
 375              		.loc 1 220 0
 376 0026 07F10807 		add	r7, r7, #8
 377 002a BD46     		mov	sp, r7
 378 002c 80BD     		pop	{r7, pc}
 379              	.L30:
 380 002e 00BF     		.align	2
 381              	.L29:
 382 0030 00780040 		.word	1073772544
 383              		.cfi_endproc
 384              	.LFE34:
 386              		.section	.text.CEC_SendDataByte,"ax",%progbits
 387              		.align	2
 388              		.global	CEC_SendDataByte
 389              		.thumb
 390              		.thumb_func
 392              	CEC_SendDataByte:
 393              	.LFB35:
 221:../libs/StdPeripheralDriver/src/stm32f10x_cec.c **** 
 222:../libs/StdPeripheralDriver/src/stm32f10x_cec.c **** /**
 223:../libs/StdPeripheralDriver/src/stm32f10x_cec.c ****   * @brief  Transmits single data through the CEC peripheral.
 224:../libs/StdPeripheralDriver/src/stm32f10x_cec.c ****   * @param  Data: the data to transmit.
 225:../libs/StdPeripheralDriver/src/stm32f10x_cec.c ****   * @retval None
 226:../libs/StdPeripheralDriver/src/stm32f10x_cec.c ****   */
 227:../libs/StdPeripheralDriver/src/stm32f10x_cec.c **** void CEC_SendDataByte(uint8_t Data)
 228:../libs/StdPeripheralDriver/src/stm32f10x_cec.c **** {  
 394              		.loc 1 228 0
 395              		.cfi_startproc
 396              		@ args = 0, pretend = 0, frame = 8
 397              		@ frame_needed = 1, uses_anonymous_args = 0
 398              		@ link register save eliminated.
 399 0000 80B4     		push	{r7}
 400              	.LCFI17:
 401              		.cfi_def_cfa_offset 4
 402              		.cfi_offset 7, -4
 403 0002 83B0     		sub	sp, sp, #12
 404              	.LCFI18:
 405              		.cfi_def_cfa_offset 16
 406 0004 00AF     		add	r7, sp, #0
 407              	.LCFI19:
 408              		.cfi_def_cfa_register 7
 409 0006 0346     		mov	r3, r0
 410 0008 FB71     		strb	r3, [r7, #7]
 229:../libs/StdPeripheralDriver/src/stm32f10x_cec.c ****   /* Transmit Data */
 230:../libs/StdPeripheralDriver/src/stm32f10x_cec.c ****   CEC->TXD = Data ;
 411              		.loc 1 230 0
 412 000a 044B     		ldr	r3, .L32
 413 000c FA79     		ldrb	r2, [r7, #7]	@ zero_extendqisi2
 414 000e 5A61     		str	r2, [r3, #20]
 231:../libs/StdPeripheralDriver/src/stm32f10x_cec.c **** }
 415              		.loc 1 231 0
 416 0010 07F10C07 		add	r7, r7, #12
 417 0014 BD46     		mov	sp, r7
 418 0016 80BC     		pop	{r7}
 419 0018 7047     		bx	lr
 420              	.L33:
 421 001a 00BF     		.align	2
 422              	.L32:
 423 001c 00780040 		.word	1073772544
 424              		.cfi_endproc
 425              	.LFE35:
 427              		.section	.text.CEC_ReceiveDataByte,"ax",%progbits
 428              		.align	2
 429              		.global	CEC_ReceiveDataByte
 430              		.thumb
 431              		.thumb_func
 433              	CEC_ReceiveDataByte:
 434              	.LFB36:
 232:../libs/StdPeripheralDriver/src/stm32f10x_cec.c **** 
 233:../libs/StdPeripheralDriver/src/stm32f10x_cec.c **** 
 234:../libs/StdPeripheralDriver/src/stm32f10x_cec.c **** /**
 235:../libs/StdPeripheralDriver/src/stm32f10x_cec.c ****   * @brief  Returns the most recent received data by the CEC peripheral.
 236:../libs/StdPeripheralDriver/src/stm32f10x_cec.c ****   * @param  None
 237:../libs/StdPeripheralDriver/src/stm32f10x_cec.c ****   * @retval The received data.
 238:../libs/StdPeripheralDriver/src/stm32f10x_cec.c ****   */
 239:../libs/StdPeripheralDriver/src/stm32f10x_cec.c **** uint8_t CEC_ReceiveDataByte(void)
 240:../libs/StdPeripheralDriver/src/stm32f10x_cec.c **** {
 435              		.loc 1 240 0
 436              		.cfi_startproc
 437              		@ args = 0, pretend = 0, frame = 0
 438              		@ frame_needed = 1, uses_anonymous_args = 0
 439              		@ link register save eliminated.
 440 0000 80B4     		push	{r7}
 441              	.LCFI20:
 442              		.cfi_def_cfa_offset 4
 443              		.cfi_offset 7, -4
 444 0002 00AF     		add	r7, sp, #0
 445              	.LCFI21:
 446              		.cfi_def_cfa_register 7
 241:../libs/StdPeripheralDriver/src/stm32f10x_cec.c ****   /* Receive Data */
 242:../libs/StdPeripheralDriver/src/stm32f10x_cec.c ****   return (uint8_t)(CEC->RXD);
 447              		.loc 1 242 0
 448 0004 034B     		ldr	r3, .L36
 449 0006 9B69     		ldr	r3, [r3, #24]
 450 0008 DBB2     		uxtb	r3, r3
 243:../libs/StdPeripheralDriver/src/stm32f10x_cec.c **** }
 451              		.loc 1 243 0
 452 000a 1846     		mov	r0, r3
 453 000c BD46     		mov	sp, r7
 454 000e 80BC     		pop	{r7}
 455 0010 7047     		bx	lr
 456              	.L37:
 457 0012 00BF     		.align	2
 458              	.L36:
 459 0014 00780040 		.word	1073772544
 460              		.cfi_endproc
 461              	.LFE36:
 463              		.section	.text.CEC_StartOfMessage,"ax",%progbits
 464              		.align	2
 465              		.global	CEC_StartOfMessage
 466              		.thumb
 467              		.thumb_func
 469              	CEC_StartOfMessage:
 470              	.LFB37:
 244:../libs/StdPeripheralDriver/src/stm32f10x_cec.c **** 
 245:../libs/StdPeripheralDriver/src/stm32f10x_cec.c **** /**
 246:../libs/StdPeripheralDriver/src/stm32f10x_cec.c ****   * @brief  Starts a new message.
 247:../libs/StdPeripheralDriver/src/stm32f10x_cec.c ****   * @param  None
 248:../libs/StdPeripheralDriver/src/stm32f10x_cec.c ****   * @retval None
 249:../libs/StdPeripheralDriver/src/stm32f10x_cec.c ****   */
 250:../libs/StdPeripheralDriver/src/stm32f10x_cec.c **** void CEC_StartOfMessage(void)
 251:../libs/StdPeripheralDriver/src/stm32f10x_cec.c **** {  
 471              		.loc 1 251 0
 472              		.cfi_startproc
 473              		@ args = 0, pretend = 0, frame = 0
 474              		@ frame_needed = 1, uses_anonymous_args = 0
 475              		@ link register save eliminated.
 476 0000 80B4     		push	{r7}
 477              	.LCFI22:
 478              		.cfi_def_cfa_offset 4
 479              		.cfi_offset 7, -4
 480 0002 00AF     		add	r7, sp, #0
 481              	.LCFI23:
 482              		.cfi_def_cfa_register 7
 252:../libs/StdPeripheralDriver/src/stm32f10x_cec.c ****   /* Starts of new message */
 253:../libs/StdPeripheralDriver/src/stm32f10x_cec.c ****   *(__IO uint32_t *) CSR_TSOM_BB = (uint32_t)0x1;
 483              		.loc 1 253 0
 484 0004 034B     		ldr	r3, .L39
 485 0006 4FF00102 		mov	r2, #1
 486 000a 1A60     		str	r2, [r3, #0]
 254:../libs/StdPeripheralDriver/src/stm32f10x_cec.c **** }
 487              		.loc 1 254 0
 488 000c BD46     		mov	sp, r7
 489 000e 80BC     		pop	{r7}
 490 0010 7047     		bx	lr
 491              	.L40:
 492 0012 00BF     		.align	2
 493              	.L39:
 494 0014 00020F42 		.word	1108279808
 495              		.cfi_endproc
 496              	.LFE37:
 498              		.section	.text.CEC_EndOfMessageCmd,"ax",%progbits
 499              		.align	2
 500              		.global	CEC_EndOfMessageCmd
 501              		.thumb
 502              		.thumb_func
 504              	CEC_EndOfMessageCmd:
 505              	.LFB38:
 255:../libs/StdPeripheralDriver/src/stm32f10x_cec.c **** 
 256:../libs/StdPeripheralDriver/src/stm32f10x_cec.c **** /**
 257:../libs/StdPeripheralDriver/src/stm32f10x_cec.c ****   * @brief  Transmits message with or without an EOM bit.
 258:../libs/StdPeripheralDriver/src/stm32f10x_cec.c ****   * @param  NewState: new state of the CEC Tx End Of Message. 
 259:../libs/StdPeripheralDriver/src/stm32f10x_cec.c ****   *     This parameter can be: ENABLE or DISABLE.
 260:../libs/StdPeripheralDriver/src/stm32f10x_cec.c ****   * @retval None
 261:../libs/StdPeripheralDriver/src/stm32f10x_cec.c ****   */
 262:../libs/StdPeripheralDriver/src/stm32f10x_cec.c **** void CEC_EndOfMessageCmd(FunctionalState NewState)
 263:../libs/StdPeripheralDriver/src/stm32f10x_cec.c **** {   
 506              		.loc 1 263 0
 507              		.cfi_startproc
 508              		@ args = 0, pretend = 0, frame = 8
 509              		@ frame_needed = 1, uses_anonymous_args = 0
 510 0000 80B5     		push	{r7, lr}
 511              	.LCFI24:
 512              		.cfi_def_cfa_offset 8
 513              		.cfi_offset 7, -8
 514              		.cfi_offset 14, -4
 515 0002 82B0     		sub	sp, sp, #8
 516              	.LCFI25:
 517              		.cfi_def_cfa_offset 16
 518 0004 00AF     		add	r7, sp, #0
 519              	.LCFI26:
 520              		.cfi_def_cfa_register 7
 521 0006 0346     		mov	r3, r0
 522 0008 FB71     		strb	r3, [r7, #7]
 264:../libs/StdPeripheralDriver/src/stm32f10x_cec.c ****   /* Check the parameters */
 265:../libs/StdPeripheralDriver/src/stm32f10x_cec.c ****   assert_param(IS_FUNCTIONAL_STATE(NewState));
 523              		.loc 1 265 0
 524 000a FB79     		ldrb	r3, [r7, #7]	@ zero_extendqisi2
 525 000c 002B     		cmp	r3, #0
 526 000e 02D0     		beq	.L42
 527              		.loc 1 265 0 is_stmt 0 discriminator 2
 528 0010 FB79     		ldrb	r3, [r7, #7]	@ zero_extendqisi2
 529 0012 012B     		cmp	r3, #1
 530 0014 02D1     		bne	.L43
 531              	.L42:
 532              		.loc 1 265 0 discriminator 1
 533 0016 4FF00103 		mov	r3, #1
 534 001a 01E0     		b	.L44
 535              	.L43:
 536              		.loc 1 265 0 discriminator 3
 537 001c 4FF00003 		mov	r3, #0
 538              	.L44:
 539              		.loc 1 265 0 discriminator 4
 540 0020 1846     		mov	r0, r3
 541 0022 FFF7FEFF 		bl	assert_param
 266:../libs/StdPeripheralDriver/src/stm32f10x_cec.c ****   
 267:../libs/StdPeripheralDriver/src/stm32f10x_cec.c ****   /* The data byte will be transmitted with or without an EOM bit*/
 268:../libs/StdPeripheralDriver/src/stm32f10x_cec.c ****   *(__IO uint32_t *) CSR_TEOM_BB = (uint32_t)NewState;
 542              		.loc 1 268 0 is_stmt 1 discriminator 4
 543 0026 034B     		ldr	r3, .L45
 544 0028 FA79     		ldrb	r2, [r7, #7]	@ zero_extendqisi2
 545 002a 1A60     		str	r2, [r3, #0]
 269:../libs/StdPeripheralDriver/src/stm32f10x_cec.c **** }
 546              		.loc 1 269 0 discriminator 4
 547 002c 07F10807 		add	r7, r7, #8
 548 0030 BD46     		mov	sp, r7
 549 0032 80BD     		pop	{r7, pc}
 550              	.L46:
 551              		.align	2
 552              	.L45:
 553 0034 04020F42 		.word	1108279812
 554              		.cfi_endproc
 555              	.LFE38:
 557              		.section	.text.CEC_GetFlagStatus,"ax",%progbits
 558              		.align	2
 559              		.global	CEC_GetFlagStatus
 560              		.thumb
 561              		.thumb_func
 563              	CEC_GetFlagStatus:
 564              	.LFB39:
 270:../libs/StdPeripheralDriver/src/stm32f10x_cec.c **** 
 271:../libs/StdPeripheralDriver/src/stm32f10x_cec.c **** /**
 272:../libs/StdPeripheralDriver/src/stm32f10x_cec.c ****   * @brief  Gets the CEC flag status
 273:../libs/StdPeripheralDriver/src/stm32f10x_cec.c ****   * @param  CEC_FLAG: specifies the CEC flag to check. 
 274:../libs/StdPeripheralDriver/src/stm32f10x_cec.c ****   *   This parameter can be one of the following values:
 275:../libs/StdPeripheralDriver/src/stm32f10x_cec.c ****   *     @arg CEC_FLAG_BTE: Bit Timing Error
 276:../libs/StdPeripheralDriver/src/stm32f10x_cec.c ****   *     @arg CEC_FLAG_BPE: Bit Period Error
 277:../libs/StdPeripheralDriver/src/stm32f10x_cec.c ****   *     @arg CEC_FLAG_RBTFE: Rx Block Transfer Finished Error
 278:../libs/StdPeripheralDriver/src/stm32f10x_cec.c ****   *     @arg CEC_FLAG_SBE: Start Bit Error
 279:../libs/StdPeripheralDriver/src/stm32f10x_cec.c ****   *     @arg CEC_FLAG_ACKE: Block Acknowledge Error
 280:../libs/StdPeripheralDriver/src/stm32f10x_cec.c ****   *     @arg CEC_FLAG_LINE: Line Error
 281:../libs/StdPeripheralDriver/src/stm32f10x_cec.c ****   *     @arg CEC_FLAG_TBTFE: Tx Block Transfer Finished Error
 282:../libs/StdPeripheralDriver/src/stm32f10x_cec.c ****   *     @arg CEC_FLAG_TEOM: Tx End Of Message 
 283:../libs/StdPeripheralDriver/src/stm32f10x_cec.c ****   *     @arg CEC_FLAG_TERR: Tx Error
 284:../libs/StdPeripheralDriver/src/stm32f10x_cec.c ****   *     @arg CEC_FLAG_TBTRF: Tx Byte Transfer Request or Block Transfer Finished
 285:../libs/StdPeripheralDriver/src/stm32f10x_cec.c ****   *     @arg CEC_FLAG_RSOM: Rx Start Of Message
 286:../libs/StdPeripheralDriver/src/stm32f10x_cec.c ****   *     @arg CEC_FLAG_REOM: Rx End Of Message
 287:../libs/StdPeripheralDriver/src/stm32f10x_cec.c ****   *     @arg CEC_FLAG_RERR: Rx Error
 288:../libs/StdPeripheralDriver/src/stm32f10x_cec.c ****   *     @arg CEC_FLAG_RBTF: Rx Byte/Block Transfer Finished
 289:../libs/StdPeripheralDriver/src/stm32f10x_cec.c ****   * @retval The new state of CEC_FLAG (SET or RESET)
 290:../libs/StdPeripheralDriver/src/stm32f10x_cec.c ****   */
 291:../libs/StdPeripheralDriver/src/stm32f10x_cec.c **** FlagStatus CEC_GetFlagStatus(uint32_t CEC_FLAG) 
 292:../libs/StdPeripheralDriver/src/stm32f10x_cec.c **** {
 565              		.loc 1 292 0
 566              		.cfi_startproc
 567              		@ args = 0, pretend = 0, frame = 24
 568              		@ frame_needed = 1, uses_anonymous_args = 0
 569 0000 80B5     		push	{r7, lr}
 570              	.LCFI27:
 571              		.cfi_def_cfa_offset 8
 572              		.cfi_offset 7, -8
 573              		.cfi_offset 14, -4
 574 0002 86B0     		sub	sp, sp, #24
 575              	.LCFI28:
 576              		.cfi_def_cfa_offset 32
 577 0004 00AF     		add	r7, sp, #0
 578              	.LCFI29:
 579              		.cfi_def_cfa_register 7
 580 0006 7860     		str	r0, [r7, #4]
 293:../libs/StdPeripheralDriver/src/stm32f10x_cec.c ****   FlagStatus bitstatus = RESET;
 581              		.loc 1 293 0
 582 0008 4FF00003 		mov	r3, #0
 583 000c FB75     		strb	r3, [r7, #23]
 294:../libs/StdPeripheralDriver/src/stm32f10x_cec.c ****   uint32_t cecreg = 0, cecbase = 0;
 584              		.loc 1 294 0
 585 000e 4FF00003 		mov	r3, #0
 586 0012 FB60     		str	r3, [r7, #12]
 587 0014 4FF00003 		mov	r3, #0
 588 0018 3B61     		str	r3, [r7, #16]
 295:../libs/StdPeripheralDriver/src/stm32f10x_cec.c ****   
 296:../libs/StdPeripheralDriver/src/stm32f10x_cec.c ****   /* Check the parameters */
 297:../libs/StdPeripheralDriver/src/stm32f10x_cec.c ****   assert_param(IS_CEC_GET_FLAG(CEC_FLAG));
 589              		.loc 1 297 0
 590 001a 7A68     		ldr	r2, [r7, #4]
 591 001c 324B     		ldr	r3, .L56
 592 001e 9A42     		cmp	r2, r3
 593 0020 2CD0     		beq	.L48
 594              		.loc 1 297 0 is_stmt 0 discriminator 2
 595 0022 7A68     		ldr	r2, [r7, #4]
 596 0024 314B     		ldr	r3, .L56+4
 597 0026 9A42     		cmp	r2, r3
 598 0028 28D0     		beq	.L48
 599              		.loc 1 297 0 discriminator 1
 600 002a 7A68     		ldr	r2, [r7, #4]
 601 002c 304B     		ldr	r3, .L56+8
 602 002e 9A42     		cmp	r2, r3
 603 0030 24D0     		beq	.L48
 604              		.loc 1 297 0 discriminator 2
 605 0032 7A68     		ldr	r2, [r7, #4]
 606 0034 2F4B     		ldr	r3, .L56+12
 607 0036 9A42     		cmp	r2, r3
 608 0038 20D0     		beq	.L48
 609              		.loc 1 297 0 discriminator 3
 610 003a 7A68     		ldr	r2, [r7, #4]
 611 003c 2E4B     		ldr	r3, .L56+16
 612 003e 9A42     		cmp	r2, r3
 613 0040 1CD0     		beq	.L48
 614              		.loc 1 297 0 discriminator 4
 615 0042 7B68     		ldr	r3, [r7, #4]
 616 0044 B3F1815F 		cmp	r3, #270532608
 617 0048 18D0     		beq	.L48
 618              		.loc 1 297 0 discriminator 5
 619 004a 7B68     		ldr	r3, [r7, #4]
 620 004c B3F1825F 		cmp	r3, #272629760
 621 0050 14D0     		beq	.L48
 622              		.loc 1 297 0 discriminator 6
 623 0052 7B68     		ldr	r3, [r7, #4]
 624 0054 022B     		cmp	r3, #2
 625 0056 11D0     		beq	.L48
 626              		.loc 1 297 0 discriminator 7
 627 0058 7B68     		ldr	r3, [r7, #4]
 628 005a 042B     		cmp	r3, #4
 629 005c 0ED0     		beq	.L48
 630              		.loc 1 297 0 discriminator 8
 631 005e 7B68     		ldr	r3, [r7, #4]
 632 0060 082B     		cmp	r3, #8
 633 0062 0BD0     		beq	.L48
 634              		.loc 1 297 0 discriminator 9
 635 0064 7B68     		ldr	r3, [r7, #4]
 636 0066 102B     		cmp	r3, #16
 637 0068 08D0     		beq	.L48
 638              		.loc 1 297 0 discriminator 10
 639 006a 7B68     		ldr	r3, [r7, #4]
 640 006c 202B     		cmp	r3, #32
 641 006e 05D0     		beq	.L48
 642              		.loc 1 297 0 discriminator 11
 643 0070 7B68     		ldr	r3, [r7, #4]
 644 0072 402B     		cmp	r3, #64
 645 0074 02D0     		beq	.L48
 646              		.loc 1 297 0 discriminator 12
 647 0076 7B68     		ldr	r3, [r7, #4]
 648 0078 802B     		cmp	r3, #128
 649 007a 02D1     		bne	.L49
 650              	.L48:
 651              		.loc 1 297 0 discriminator 1
 652 007c 4FF00103 		mov	r3, #1
 653 0080 01E0     		b	.L50
 654              	.L49:
 655              		.loc 1 297 0 discriminator 3
 656 0082 4FF00003 		mov	r3, #0
 657              	.L50:
 658              		.loc 1 297 0 discriminator 4
 659 0086 1846     		mov	r0, r3
 660 0088 FFF7FEFF 		bl	assert_param
 298:../libs/StdPeripheralDriver/src/stm32f10x_cec.c ****  
 299:../libs/StdPeripheralDriver/src/stm32f10x_cec.c ****   /* Get the CEC peripheral base address */
 300:../libs/StdPeripheralDriver/src/stm32f10x_cec.c ****   cecbase = (uint32_t)(CEC_BASE);
 661              		.loc 1 300 0 is_stmt 1 discriminator 4
 662 008c 1B4B     		ldr	r3, .L56+20
 663 008e 3B61     		str	r3, [r7, #16]
 301:../libs/StdPeripheralDriver/src/stm32f10x_cec.c ****   
 302:../libs/StdPeripheralDriver/src/stm32f10x_cec.c ****   /* Read flag register index */
 303:../libs/StdPeripheralDriver/src/stm32f10x_cec.c ****   cecreg = CEC_FLAG >> 28;
 664              		.loc 1 303 0 discriminator 4
 665 0090 7B68     		ldr	r3, [r7, #4]
 666 0092 4FEA1373 		lsr	r3, r3, #28
 667 0096 FB60     		str	r3, [r7, #12]
 304:../libs/StdPeripheralDriver/src/stm32f10x_cec.c ****   
 305:../libs/StdPeripheralDriver/src/stm32f10x_cec.c ****   /* Get bit[23:0] of the flag */
 306:../libs/StdPeripheralDriver/src/stm32f10x_cec.c ****   CEC_FLAG &= FLAG_Mask;
 668              		.loc 1 306 0 discriminator 4
 669 0098 7B68     		ldr	r3, [r7, #4]
 670 009a 23F07F43 		bic	r3, r3, #-16777216
 671 009e 7B60     		str	r3, [r7, #4]
 307:../libs/StdPeripheralDriver/src/stm32f10x_cec.c ****   
 308:../libs/StdPeripheralDriver/src/stm32f10x_cec.c ****   if(cecreg != 0)
 672              		.loc 1 308 0 discriminator 4
 673 00a0 FB68     		ldr	r3, [r7, #12]
 674 00a2 002B     		cmp	r3, #0
 675 00a4 08D0     		beq	.L51
 309:../libs/StdPeripheralDriver/src/stm32f10x_cec.c ****   {
 310:../libs/StdPeripheralDriver/src/stm32f10x_cec.c ****     /* Flag in CEC ESR Register */
 311:../libs/StdPeripheralDriver/src/stm32f10x_cec.c ****     CEC_FLAG = (uint32_t)(CEC_FLAG >> 16);
 676              		.loc 1 311 0
 677 00a6 7B68     		ldr	r3, [r7, #4]
 678 00a8 4FEA1343 		lsr	r3, r3, #16
 679 00ac 7B60     		str	r3, [r7, #4]
 312:../libs/StdPeripheralDriver/src/stm32f10x_cec.c ****     
 313:../libs/StdPeripheralDriver/src/stm32f10x_cec.c ****     /* Get the CEC ESR register address */
 314:../libs/StdPeripheralDriver/src/stm32f10x_cec.c ****     cecbase += 0xC;
 680              		.loc 1 314 0
 681 00ae 3B69     		ldr	r3, [r7, #16]
 682 00b0 03F10C03 		add	r3, r3, #12
 683 00b4 3B61     		str	r3, [r7, #16]
 684 00b6 03E0     		b	.L52
 685              	.L51:
 315:../libs/StdPeripheralDriver/src/stm32f10x_cec.c ****   }
 316:../libs/StdPeripheralDriver/src/stm32f10x_cec.c ****   else
 317:../libs/StdPeripheralDriver/src/stm32f10x_cec.c ****   {
 318:../libs/StdPeripheralDriver/src/stm32f10x_cec.c ****     /* Get the CEC CSR register address */
 319:../libs/StdPeripheralDriver/src/stm32f10x_cec.c ****     cecbase += 0x10;
 686              		.loc 1 319 0
 687 00b8 3B69     		ldr	r3, [r7, #16]
 688 00ba 03F11003 		add	r3, r3, #16
 689 00be 3B61     		str	r3, [r7, #16]
 690              	.L52:
 320:../libs/StdPeripheralDriver/src/stm32f10x_cec.c ****   }
 321:../libs/StdPeripheralDriver/src/stm32f10x_cec.c ****   
 322:../libs/StdPeripheralDriver/src/stm32f10x_cec.c ****   if(((*(__IO uint32_t *)cecbase) & CEC_FLAG) != (uint32_t)RESET)
 691              		.loc 1 322 0
 692 00c0 3B69     		ldr	r3, [r7, #16]
 693 00c2 1A68     		ldr	r2, [r3, #0]
 694 00c4 7B68     		ldr	r3, [r7, #4]
 695 00c6 1340     		ands	r3, r3, r2
 696 00c8 002B     		cmp	r3, #0
 697 00ca 03D0     		beq	.L53
 323:../libs/StdPeripheralDriver/src/stm32f10x_cec.c ****   {
 324:../libs/StdPeripheralDriver/src/stm32f10x_cec.c ****     /* CEC_FLAG is set */
 325:../libs/StdPeripheralDriver/src/stm32f10x_cec.c ****     bitstatus = SET;
 698              		.loc 1 325 0
 699 00cc 4FF00103 		mov	r3, #1
 700 00d0 FB75     		strb	r3, [r7, #23]
 701 00d2 02E0     		b	.L54
 702              	.L53:
 326:../libs/StdPeripheralDriver/src/stm32f10x_cec.c ****   }
 327:../libs/StdPeripheralDriver/src/stm32f10x_cec.c ****   else
 328:../libs/StdPeripheralDriver/src/stm32f10x_cec.c ****   {
 329:../libs/StdPeripheralDriver/src/stm32f10x_cec.c ****     /* CEC_FLAG is reset */
 330:../libs/StdPeripheralDriver/src/stm32f10x_cec.c ****     bitstatus = RESET;
 703              		.loc 1 330 0
 704 00d4 4FF00003 		mov	r3, #0
 705 00d8 FB75     		strb	r3, [r7, #23]
 706              	.L54:
 331:../libs/StdPeripheralDriver/src/stm32f10x_cec.c ****   }
 332:../libs/StdPeripheralDriver/src/stm32f10x_cec.c ****   
 333:../libs/StdPeripheralDriver/src/stm32f10x_cec.c ****   /* Return the CEC_FLAG status */
 334:../libs/StdPeripheralDriver/src/stm32f10x_cec.c ****   return  bitstatus;
 707              		.loc 1 334 0
 708 00da FB7D     		ldrb	r3, [r7, #23]	@ zero_extendqisi2
 335:../libs/StdPeripheralDriver/src/stm32f10x_cec.c **** }
 709              		.loc 1 335 0
 710 00dc 1846     		mov	r0, r3
 711 00de 07F11807 		add	r7, r7, #24
 712 00e2 BD46     		mov	sp, r7
 713 00e4 80BD     		pop	{r7, pc}
 714              	.L57:
 715 00e6 00BF     		.align	2
 716              	.L56:
 717 00e8 00000110 		.word	268500992
 718 00ec 00000210 		.word	268566528
 719 00f0 00000410 		.word	268697600
 720 00f4 00000810 		.word	268959744
 721 00f8 00001010 		.word	269484032
 722 00fc 00780040 		.word	1073772544
 723              		.cfi_endproc
 724              	.LFE39:
 726              		.section	.text.CEC_ClearFlag,"ax",%progbits
 727              		.align	2
 728              		.global	CEC_ClearFlag
 729              		.thumb
 730              		.thumb_func
 732              	CEC_ClearFlag:
 733              	.LFB40:
 336:../libs/StdPeripheralDriver/src/stm32f10x_cec.c **** 
 337:../libs/StdPeripheralDriver/src/stm32f10x_cec.c **** /**
 338:../libs/StdPeripheralDriver/src/stm32f10x_cec.c ****   * @brief  Clears the CEC's pending flags.
 339:../libs/StdPeripheralDriver/src/stm32f10x_cec.c ****   * @param  CEC_FLAG: specifies the flag to clear. 
 340:../libs/StdPeripheralDriver/src/stm32f10x_cec.c ****   *   This parameter can be any combination of the following values:
 341:../libs/StdPeripheralDriver/src/stm32f10x_cec.c ****   *     @arg CEC_FLAG_TERR: Tx Error
 342:../libs/StdPeripheralDriver/src/stm32f10x_cec.c ****   *     @arg CEC_FLAG_TBTRF: Tx Byte Transfer Request or Block Transfer Finished
 343:../libs/StdPeripheralDriver/src/stm32f10x_cec.c ****   *     @arg CEC_FLAG_RSOM: Rx Start Of Message
 344:../libs/StdPeripheralDriver/src/stm32f10x_cec.c ****   *     @arg CEC_FLAG_REOM: Rx End Of Message
 345:../libs/StdPeripheralDriver/src/stm32f10x_cec.c ****   *     @arg CEC_FLAG_RERR: Rx Error
 346:../libs/StdPeripheralDriver/src/stm32f10x_cec.c ****   *     @arg CEC_FLAG_RBTF: Rx Byte/Block Transfer Finished
 347:../libs/StdPeripheralDriver/src/stm32f10x_cec.c ****   * @retval None
 348:../libs/StdPeripheralDriver/src/stm32f10x_cec.c ****   */
 349:../libs/StdPeripheralDriver/src/stm32f10x_cec.c **** void CEC_ClearFlag(uint32_t CEC_FLAG)
 350:../libs/StdPeripheralDriver/src/stm32f10x_cec.c **** { 
 734              		.loc 1 350 0
 735              		.cfi_startproc
 736              		@ args = 0, pretend = 0, frame = 16
 737              		@ frame_needed = 1, uses_anonymous_args = 0
 738 0000 80B5     		push	{r7, lr}
 739              	.LCFI30:
 740              		.cfi_def_cfa_offset 8
 741              		.cfi_offset 7, -8
 742              		.cfi_offset 14, -4
 743 0002 84B0     		sub	sp, sp, #16
 744              	.LCFI31:
 745              		.cfi_def_cfa_offset 24
 746 0004 00AF     		add	r7, sp, #0
 747              	.LCFI32:
 748              		.cfi_def_cfa_register 7
 749 0006 7860     		str	r0, [r7, #4]
 351:../libs/StdPeripheralDriver/src/stm32f10x_cec.c ****   uint32_t tmp = 0x0;
 750              		.loc 1 351 0
 751 0008 4FF00003 		mov	r3, #0
 752 000c FB60     		str	r3, [r7, #12]
 352:../libs/StdPeripheralDriver/src/stm32f10x_cec.c ****   
 353:../libs/StdPeripheralDriver/src/stm32f10x_cec.c ****   /* Check the parameters */
 354:../libs/StdPeripheralDriver/src/stm32f10x_cec.c ****   assert_param(IS_CEC_CLEAR_FLAG(CEC_FLAG));
 753              		.loc 1 354 0
 754 000e 7B68     		ldr	r3, [r7, #4]
 755 0010 23F0FC03 		bic	r3, r3, #252
 756 0014 002B     		cmp	r3, #0
 757 0016 05D1     		bne	.L59
 758              		.loc 1 354 0 is_stmt 0 discriminator 1
 759 0018 7B68     		ldr	r3, [r7, #4]
 760 001a 002B     		cmp	r3, #0
 761 001c 02D0     		beq	.L59
 762              		.loc 1 354 0 discriminator 3
 763 001e 4FF00103 		mov	r3, #1
 764 0022 01E0     		b	.L60
 765              	.L59:
 766              		.loc 1 354 0 discriminator 2
 767 0024 4FF00003 		mov	r3, #0
 768              	.L60:
 769              		.loc 1 354 0 discriminator 4
 770 0028 1846     		mov	r0, r3
 771 002a FFF7FEFF 		bl	assert_param
 355:../libs/StdPeripheralDriver/src/stm32f10x_cec.c **** 
 356:../libs/StdPeripheralDriver/src/stm32f10x_cec.c ****   tmp = CEC->CSR & 0x2;
 772              		.loc 1 356 0 is_stmt 1 discriminator 4
 773 002e 0A4B     		ldr	r3, .L61
 774 0030 1B69     		ldr	r3, [r3, #16]
 775 0032 03F00203 		and	r3, r3, #2
 776 0036 FB60     		str	r3, [r7, #12]
 357:../libs/StdPeripheralDriver/src/stm32f10x_cec.c ****        
 358:../libs/StdPeripheralDriver/src/stm32f10x_cec.c ****   /* Clear the selected CEC flags */
 359:../libs/StdPeripheralDriver/src/stm32f10x_cec.c ****   CEC->CSR &= (uint32_t)(((~(uint32_t)CEC_FLAG) & 0xFFFFFFFC) | tmp);
 777              		.loc 1 359 0 discriminator 4
 778 0038 074B     		ldr	r3, .L61
 779 003a 074A     		ldr	r2, .L61
 780 003c 1169     		ldr	r1, [r2, #16]
 781 003e 7A68     		ldr	r2, [r7, #4]
 782 0040 6FEA0202 		mvn	r2, r2
 783 0044 22F00300 		bic	r0, r2, #3
 784 0048 FA68     		ldr	r2, [r7, #12]
 785 004a 0243     		orrs	r2, r2, r0
 786 004c 0A40     		ands	r2, r2, r1
 787 004e 1A61     		str	r2, [r3, #16]
 360:../libs/StdPeripheralDriver/src/stm32f10x_cec.c **** }
 788              		.loc 1 360 0 discriminator 4
 789 0050 07F11007 		add	r7, r7, #16
 790 0054 BD46     		mov	sp, r7
 791 0056 80BD     		pop	{r7, pc}
 792              	.L62:
 793              		.align	2
 794              	.L61:
 795 0058 00780040 		.word	1073772544
 796              		.cfi_endproc
 797              	.LFE40:
 799              		.section	.text.CEC_GetITStatus,"ax",%progbits
 800              		.align	2
 801              		.global	CEC_GetITStatus
 802              		.thumb
 803              		.thumb_func
 805              	CEC_GetITStatus:
 806              	.LFB41:
 361:../libs/StdPeripheralDriver/src/stm32f10x_cec.c **** 
 362:../libs/StdPeripheralDriver/src/stm32f10x_cec.c **** /**
 363:../libs/StdPeripheralDriver/src/stm32f10x_cec.c ****   * @brief  Checks whether the specified CEC interrupt has occurred or not.
 364:../libs/StdPeripheralDriver/src/stm32f10x_cec.c ****   * @param  CEC_IT: specifies the CEC interrupt source to check. 
 365:../libs/StdPeripheralDriver/src/stm32f10x_cec.c ****   *   This parameter can be one of the following values:
 366:../libs/StdPeripheralDriver/src/stm32f10x_cec.c ****   *     @arg CEC_IT_TERR: Tx Error
 367:../libs/StdPeripheralDriver/src/stm32f10x_cec.c ****   *     @arg CEC_IT_TBTF: Tx Block Transfer Finished
 368:../libs/StdPeripheralDriver/src/stm32f10x_cec.c ****   *     @arg CEC_IT_RERR: Rx Error
 369:../libs/StdPeripheralDriver/src/stm32f10x_cec.c ****   *     @arg CEC_IT_RBTF: Rx Block Transfer Finished
 370:../libs/StdPeripheralDriver/src/stm32f10x_cec.c ****   * @retval The new state of CEC_IT (SET or RESET).
 371:../libs/StdPeripheralDriver/src/stm32f10x_cec.c ****   */
 372:../libs/StdPeripheralDriver/src/stm32f10x_cec.c **** ITStatus CEC_GetITStatus(uint8_t CEC_IT)
 373:../libs/StdPeripheralDriver/src/stm32f10x_cec.c **** {
 807              		.loc 1 373 0
 808              		.cfi_startproc
 809              		@ args = 0, pretend = 0, frame = 16
 810              		@ frame_needed = 1, uses_anonymous_args = 0
 811 0000 80B5     		push	{r7, lr}
 812              	.LCFI33:
 813              		.cfi_def_cfa_offset 8
 814              		.cfi_offset 7, -8
 815              		.cfi_offset 14, -4
 816 0002 84B0     		sub	sp, sp, #16
 817              	.LCFI34:
 818              		.cfi_def_cfa_offset 24
 819 0004 00AF     		add	r7, sp, #0
 820              	.LCFI35:
 821              		.cfi_def_cfa_register 7
 822 0006 0346     		mov	r3, r0
 823 0008 FB71     		strb	r3, [r7, #7]
 374:../libs/StdPeripheralDriver/src/stm32f10x_cec.c ****   ITStatus bitstatus = RESET;
 824              		.loc 1 374 0
 825 000a 4FF00003 		mov	r3, #0
 826 000e FB73     		strb	r3, [r7, #15]
 375:../libs/StdPeripheralDriver/src/stm32f10x_cec.c ****   uint32_t enablestatus = 0;
 827              		.loc 1 375 0
 828 0010 4FF00003 		mov	r3, #0
 829 0014 BB60     		str	r3, [r7, #8]
 376:../libs/StdPeripheralDriver/src/stm32f10x_cec.c ****   
 377:../libs/StdPeripheralDriver/src/stm32f10x_cec.c ****   /* Check the parameters */
 378:../libs/StdPeripheralDriver/src/stm32f10x_cec.c ****    assert_param(IS_CEC_GET_IT(CEC_IT));
 830              		.loc 1 378 0
 831 0016 FB79     		ldrb	r3, [r7, #7]	@ zero_extendqisi2
 832 0018 042B     		cmp	r3, #4
 833 001a 08D0     		beq	.L64
 834              		.loc 1 378 0 is_stmt 0 discriminator 2
 835 001c FB79     		ldrb	r3, [r7, #7]	@ zero_extendqisi2
 836 001e 082B     		cmp	r3, #8
 837 0020 05D0     		beq	.L64
 838              		.loc 1 378 0 discriminator 1
 839 0022 FB79     		ldrb	r3, [r7, #7]	@ zero_extendqisi2
 840 0024 402B     		cmp	r3, #64
 841 0026 02D0     		beq	.L64
 842              		.loc 1 378 0 discriminator 2
 843 0028 FB79     		ldrb	r3, [r7, #7]	@ zero_extendqisi2
 844 002a 802B     		cmp	r3, #128
 845 002c 02D1     		bne	.L65
 846              	.L64:
 847              		.loc 1 378 0 discriminator 1
 848 002e 4FF00103 		mov	r3, #1
 849 0032 01E0     		b	.L66
 850              	.L65:
 851              		.loc 1 378 0 discriminator 3
 852 0034 4FF00003 		mov	r3, #0
 853              	.L66:
 854              		.loc 1 378 0 discriminator 4
 855 0038 1846     		mov	r0, r3
 856 003a FFF7FEFF 		bl	assert_param
 379:../libs/StdPeripheralDriver/src/stm32f10x_cec.c ****    
 380:../libs/StdPeripheralDriver/src/stm32f10x_cec.c ****   /* Get the CEC IT enable bit status */
 381:../libs/StdPeripheralDriver/src/stm32f10x_cec.c ****   enablestatus = (CEC->CFGR & (uint8_t)CEC_CFGR_IE) ;
 857              		.loc 1 381 0 is_stmt 1 discriminator 4
 858 003e 0D4B     		ldr	r3, .L70
 859 0040 1B68     		ldr	r3, [r3, #0]
 860 0042 03F00203 		and	r3, r3, #2
 861 0046 BB60     		str	r3, [r7, #8]
 382:../libs/StdPeripheralDriver/src/stm32f10x_cec.c ****   
 383:../libs/StdPeripheralDriver/src/stm32f10x_cec.c ****   /* Check the status of the specified CEC interrupt */
 384:../libs/StdPeripheralDriver/src/stm32f10x_cec.c ****   if (((CEC->CSR & CEC_IT) != (uint32_t)RESET) && enablestatus)
 862              		.loc 1 384 0 discriminator 4
 863 0048 0A4B     		ldr	r3, .L70
 864 004a 1A69     		ldr	r2, [r3, #16]
 865 004c FB79     		ldrb	r3, [r7, #7]	@ zero_extendqisi2
 866 004e 1340     		ands	r3, r3, r2
 867 0050 002B     		cmp	r3, #0
 868 0052 06D0     		beq	.L67
 869              		.loc 1 384 0 is_stmt 0 discriminator 1
 870 0054 BB68     		ldr	r3, [r7, #8]
 871 0056 002B     		cmp	r3, #0
 872 0058 03D0     		beq	.L67
 385:../libs/StdPeripheralDriver/src/stm32f10x_cec.c ****   {
 386:../libs/StdPeripheralDriver/src/stm32f10x_cec.c ****     /* CEC_IT is set */
 387:../libs/StdPeripheralDriver/src/stm32f10x_cec.c ****     bitstatus = SET;
 873              		.loc 1 387 0 is_stmt 1
 874 005a 4FF00103 		mov	r3, #1
 875 005e FB73     		strb	r3, [r7, #15]
 876 0060 02E0     		b	.L68
 877              	.L67:
 388:../libs/StdPeripheralDriver/src/stm32f10x_cec.c ****   }
 389:../libs/StdPeripheralDriver/src/stm32f10x_cec.c ****   else
 390:../libs/StdPeripheralDriver/src/stm32f10x_cec.c ****   {
 391:../libs/StdPeripheralDriver/src/stm32f10x_cec.c ****     /* CEC_IT is reset */
 392:../libs/StdPeripheralDriver/src/stm32f10x_cec.c ****     bitstatus = RESET;
 878              		.loc 1 392 0
 879 0062 4FF00003 		mov	r3, #0
 880 0066 FB73     		strb	r3, [r7, #15]
 881              	.L68:
 393:../libs/StdPeripheralDriver/src/stm32f10x_cec.c ****   }
 394:../libs/StdPeripheralDriver/src/stm32f10x_cec.c ****   /* Return the CEC_IT status */
 395:../libs/StdPeripheralDriver/src/stm32f10x_cec.c ****   return  bitstatus;
 882              		.loc 1 395 0
 883 0068 FB7B     		ldrb	r3, [r7, #15]	@ zero_extendqisi2
 396:../libs/StdPeripheralDriver/src/stm32f10x_cec.c **** }
 884              		.loc 1 396 0
 885 006a 1846     		mov	r0, r3
 886 006c 07F11007 		add	r7, r7, #16
 887 0070 BD46     		mov	sp, r7
 888 0072 80BD     		pop	{r7, pc}
 889              	.L71:
 890              		.align	2
 891              	.L70:
 892 0074 00780040 		.word	1073772544
 893              		.cfi_endproc
 894              	.LFE41:
 896              		.section	.text.CEC_ClearITPendingBit,"ax",%progbits
 897              		.align	2
 898              		.global	CEC_ClearITPendingBit
 899              		.thumb
 900              		.thumb_func
 902              	CEC_ClearITPendingBit:
 903              	.LFB42:
 397:../libs/StdPeripheralDriver/src/stm32f10x_cec.c **** 
 398:../libs/StdPeripheralDriver/src/stm32f10x_cec.c **** /**
 399:../libs/StdPeripheralDriver/src/stm32f10x_cec.c ****   * @brief  Clears the CEC's interrupt pending bits.
 400:../libs/StdPeripheralDriver/src/stm32f10x_cec.c ****   * @param  CEC_IT: specifies the CEC interrupt pending bit to clear.
 401:../libs/StdPeripheralDriver/src/stm32f10x_cec.c ****   *   This parameter can be any combination of the following values:
 402:../libs/StdPeripheralDriver/src/stm32f10x_cec.c ****   *     @arg CEC_IT_TERR: Tx Error
 403:../libs/StdPeripheralDriver/src/stm32f10x_cec.c ****   *     @arg CEC_IT_TBTF: Tx Block Transfer Finished
 404:../libs/StdPeripheralDriver/src/stm32f10x_cec.c ****   *     @arg CEC_IT_RERR: Rx Error
 405:../libs/StdPeripheralDriver/src/stm32f10x_cec.c ****   *     @arg CEC_IT_RBTF: Rx Block Transfer Finished
 406:../libs/StdPeripheralDriver/src/stm32f10x_cec.c ****   * @retval None
 407:../libs/StdPeripheralDriver/src/stm32f10x_cec.c ****   */
 408:../libs/StdPeripheralDriver/src/stm32f10x_cec.c **** void CEC_ClearITPendingBit(uint16_t CEC_IT)
 409:../libs/StdPeripheralDriver/src/stm32f10x_cec.c **** {
 904              		.loc 1 409 0
 905              		.cfi_startproc
 906              		@ args = 0, pretend = 0, frame = 16
 907              		@ frame_needed = 1, uses_anonymous_args = 0
 908 0000 80B5     		push	{r7, lr}
 909              	.LCFI36:
 910              		.cfi_def_cfa_offset 8
 911              		.cfi_offset 7, -8
 912              		.cfi_offset 14, -4
 913 0002 84B0     		sub	sp, sp, #16
 914              	.LCFI37:
 915              		.cfi_def_cfa_offset 24
 916 0004 00AF     		add	r7, sp, #0
 917              	.LCFI38:
 918              		.cfi_def_cfa_register 7
 919 0006 0346     		mov	r3, r0
 920 0008 FB80     		strh	r3, [r7, #6]	@ movhi
 410:../libs/StdPeripheralDriver/src/stm32f10x_cec.c ****   uint32_t tmp = 0x0;
 921              		.loc 1 410 0
 922 000a 4FF00003 		mov	r3, #0
 923 000e FB60     		str	r3, [r7, #12]
 411:../libs/StdPeripheralDriver/src/stm32f10x_cec.c ****   
 412:../libs/StdPeripheralDriver/src/stm32f10x_cec.c ****   /* Check the parameters */
 413:../libs/StdPeripheralDriver/src/stm32f10x_cec.c ****   assert_param(IS_CEC_GET_IT(CEC_IT));
 924              		.loc 1 413 0
 925 0010 FB88     		ldrh	r3, [r7, #6]
 926 0012 042B     		cmp	r3, #4
 927 0014 08D0     		beq	.L73
 928              		.loc 1 413 0 is_stmt 0 discriminator 2
 929 0016 FB88     		ldrh	r3, [r7, #6]
 930 0018 082B     		cmp	r3, #8
 931 001a 05D0     		beq	.L73
 932              		.loc 1 413 0 discriminator 1
 933 001c FB88     		ldrh	r3, [r7, #6]
 934 001e 402B     		cmp	r3, #64
 935 0020 02D0     		beq	.L73
 936              		.loc 1 413 0 discriminator 2
 937 0022 FB88     		ldrh	r3, [r7, #6]
 938 0024 802B     		cmp	r3, #128
 939 0026 02D1     		bne	.L74
 940              	.L73:
 941              		.loc 1 413 0 discriminator 1
 942 0028 4FF00103 		mov	r3, #1
 943 002c 01E0     		b	.L75
 944              	.L74:
 945              		.loc 1 413 0 discriminator 3
 946 002e 4FF00003 		mov	r3, #0
 947              	.L75:
 948              		.loc 1 413 0 discriminator 4
 949 0032 1846     		mov	r0, r3
 950 0034 FFF7FEFF 		bl	assert_param
 414:../libs/StdPeripheralDriver/src/stm32f10x_cec.c ****   
 415:../libs/StdPeripheralDriver/src/stm32f10x_cec.c ****   tmp = CEC->CSR & 0x2;
 951              		.loc 1 415 0 is_stmt 1 discriminator 4
 952 0038 0A4B     		ldr	r3, .L76
 953 003a 1B69     		ldr	r3, [r3, #16]
 954 003c 03F00203 		and	r3, r3, #2
 955 0040 FB60     		str	r3, [r7, #12]
 416:../libs/StdPeripheralDriver/src/stm32f10x_cec.c ****   
 417:../libs/StdPeripheralDriver/src/stm32f10x_cec.c ****   /* Clear the selected CEC interrupt pending bits */
 418:../libs/StdPeripheralDriver/src/stm32f10x_cec.c ****   CEC->CSR &= (uint32_t)(((~(uint32_t)CEC_IT) & 0xFFFFFFFC) | tmp);
 956              		.loc 1 418 0 discriminator 4
 957 0042 084B     		ldr	r3, .L76
 958 0044 074A     		ldr	r2, .L76
 959 0046 1169     		ldr	r1, [r2, #16]
 960 0048 FA88     		ldrh	r2, [r7, #6]
 961 004a 6FEA0202 		mvn	r2, r2
 962 004e 22F00300 		bic	r0, r2, #3
 963 0052 FA68     		ldr	r2, [r7, #12]
 964 0054 0243     		orrs	r2, r2, r0
 965 0056 0A40     		ands	r2, r2, r1
 966 0058 1A61     		str	r2, [r3, #16]
 419:../libs/StdPeripheralDriver/src/stm32f10x_cec.c **** }
 967              		.loc 1 419 0 discriminator 4
 968 005a 07F11007 		add	r7, r7, #16
 969 005e BD46     		mov	sp, r7
 970 0060 80BD     		pop	{r7, pc}
 971              	.L77:
 972 0062 00BF     		.align	2
 973              	.L76:
 974 0064 00780040 		.word	1073772544
 975              		.cfi_endproc
 976              	.LFE42:
 978              		.text
 979              	.Letext0:
 980              		.file 2 "d:\\programs\\stm programs\\codebench\\bin\\../lib/gcc/arm-none-eabi/4.7.3/../../../../ar
 981              		.file 3 "D:\\PROGRAMMING\\stm\\stm-discovery_test_project\\libs\\CMSIS/stm32f10x.h"
 982              		.file 4 "D:\\PROGRAMMING\\stm\\stm-discovery_test_project\\libs\\StdPeripheralDriver\\inc/stm32f10
 983              		.file 5 "D:\\PROGRAMMING\\stm\\stm-discovery_test_project\\libs\\CMSIS/core_cm3.h"
DEFINED SYMBOLS
                            *ABS*:00000000 stm32f10x_cec.c
C:\Users\6262~1\AppData\Local\Temp\ccDf0EFI.s:19     .text.CEC_DeInit:00000000 $t
C:\Users\6262~1\AppData\Local\Temp\ccDf0EFI.s:24     .text.CEC_DeInit:00000000 CEC_DeInit
C:\Users\6262~1\AppData\Local\Temp\ccDf0EFI.s:53     .text.CEC_Init:00000000 $t
C:\Users\6262~1\AppData\Local\Temp\ccDf0EFI.s:58     .text.CEC_Init:00000000 CEC_Init
C:\Users\6262~1\AppData\Local\Temp\ccDf0EFI.s:150    .text.CEC_Init:0000007c $d
C:\Users\6262~1\AppData\Local\Temp\ccDf0EFI.s:155    .text.CEC_Cmd:00000000 $t
C:\Users\6262~1\AppData\Local\Temp\ccDf0EFI.s:160    .text.CEC_Cmd:00000000 CEC_Cmd
C:\Users\6262~1\AppData\Local\Temp\ccDf0EFI.s:223    .text.CEC_Cmd:00000048 $d
C:\Users\6262~1\AppData\Local\Temp\ccDf0EFI.s:229    .text.CEC_ITConfig:00000000 $t
C:\Users\6262~1\AppData\Local\Temp\ccDf0EFI.s:234    .text.CEC_ITConfig:00000000 CEC_ITConfig
C:\Users\6262~1\AppData\Local\Temp\ccDf0EFI.s:283    .text.CEC_ITConfig:00000034 $d
C:\Users\6262~1\AppData\Local\Temp\ccDf0EFI.s:288    .text.CEC_OwnAddressConfig:00000000 $t
C:\Users\6262~1\AppData\Local\Temp\ccDf0EFI.s:293    .text.CEC_OwnAddressConfig:00000000 CEC_OwnAddressConfig
C:\Users\6262~1\AppData\Local\Temp\ccDf0EFI.s:332    .text.CEC_OwnAddressConfig:0000002c $d
C:\Users\6262~1\AppData\Local\Temp\ccDf0EFI.s:337    .text.CEC_SetPrescaler:00000000 $t
C:\Users\6262~1\AppData\Local\Temp\ccDf0EFI.s:342    .text.CEC_SetPrescaler:00000000 CEC_SetPrescaler
C:\Users\6262~1\AppData\Local\Temp\ccDf0EFI.s:382    .text.CEC_SetPrescaler:00000030 $d
C:\Users\6262~1\AppData\Local\Temp\ccDf0EFI.s:387    .text.CEC_SendDataByte:00000000 $t
C:\Users\6262~1\AppData\Local\Temp\ccDf0EFI.s:392    .text.CEC_SendDataByte:00000000 CEC_SendDataByte
C:\Users\6262~1\AppData\Local\Temp\ccDf0EFI.s:423    .text.CEC_SendDataByte:0000001c $d
C:\Users\6262~1\AppData\Local\Temp\ccDf0EFI.s:428    .text.CEC_ReceiveDataByte:00000000 $t
C:\Users\6262~1\AppData\Local\Temp\ccDf0EFI.s:433    .text.CEC_ReceiveDataByte:00000000 CEC_ReceiveDataByte
C:\Users\6262~1\AppData\Local\Temp\ccDf0EFI.s:459    .text.CEC_ReceiveDataByte:00000014 $d
C:\Users\6262~1\AppData\Local\Temp\ccDf0EFI.s:464    .text.CEC_StartOfMessage:00000000 $t
C:\Users\6262~1\AppData\Local\Temp\ccDf0EFI.s:469    .text.CEC_StartOfMessage:00000000 CEC_StartOfMessage
C:\Users\6262~1\AppData\Local\Temp\ccDf0EFI.s:494    .text.CEC_StartOfMessage:00000014 $d
C:\Users\6262~1\AppData\Local\Temp\ccDf0EFI.s:499    .text.CEC_EndOfMessageCmd:00000000 $t
C:\Users\6262~1\AppData\Local\Temp\ccDf0EFI.s:504    .text.CEC_EndOfMessageCmd:00000000 CEC_EndOfMessageCmd
C:\Users\6262~1\AppData\Local\Temp\ccDf0EFI.s:553    .text.CEC_EndOfMessageCmd:00000034 $d
C:\Users\6262~1\AppData\Local\Temp\ccDf0EFI.s:558    .text.CEC_GetFlagStatus:00000000 $t
C:\Users\6262~1\AppData\Local\Temp\ccDf0EFI.s:563    .text.CEC_GetFlagStatus:00000000 CEC_GetFlagStatus
C:\Users\6262~1\AppData\Local\Temp\ccDf0EFI.s:717    .text.CEC_GetFlagStatus:000000e8 $d
C:\Users\6262~1\AppData\Local\Temp\ccDf0EFI.s:727    .text.CEC_ClearFlag:00000000 $t
C:\Users\6262~1\AppData\Local\Temp\ccDf0EFI.s:732    .text.CEC_ClearFlag:00000000 CEC_ClearFlag
C:\Users\6262~1\AppData\Local\Temp\ccDf0EFI.s:795    .text.CEC_ClearFlag:00000058 $d
C:\Users\6262~1\AppData\Local\Temp\ccDf0EFI.s:800    .text.CEC_GetITStatus:00000000 $t
C:\Users\6262~1\AppData\Local\Temp\ccDf0EFI.s:805    .text.CEC_GetITStatus:00000000 CEC_GetITStatus
C:\Users\6262~1\AppData\Local\Temp\ccDf0EFI.s:892    .text.CEC_GetITStatus:00000074 $d
C:\Users\6262~1\AppData\Local\Temp\ccDf0EFI.s:897    .text.CEC_ClearITPendingBit:00000000 $t
C:\Users\6262~1\AppData\Local\Temp\ccDf0EFI.s:902    .text.CEC_ClearITPendingBit:00000000 CEC_ClearITPendingBit
C:\Users\6262~1\AppData\Local\Temp\ccDf0EFI.s:974    .text.CEC_ClearITPendingBit:00000064 $d
                     .debug_frame:00000010 $d
                           .group:00000000 wm4.1.a89c7a2b9e0955e95368adfe2cbc52f6
                           .group:00000000 wm4.stm32f10x.h.51.b859cb68ed44ee02c916b41cb8c68f1c
                           .group:00000000 wm4.core_cm3.h.25.d35e9a9b04ec4aaebae9bf79fff061f9
                           .group:00000000 wm4.stdint.h.10.90b695f550ca6cc3fb08fa83baf01e05
                           .group:00000000 wm4.core_cm3.h.113.b286929a54d33b4c8909a7132437b244
                           .group:00000000 wm4.stm32f10x.h.522.a925aafc848b1f088438cf0e9b167b78
                           .group:00000000 wm4.stm32f10x.h.8304.f7d8ad90959e99679b3257267c3aadfe
                           .group:00000000 wm4.stm32f10x_cec.h.69.3b05352e3d7007a358a8fce991202354
                           .group:00000000 wm4.stm32f10x_rcc.h.25.fe8897e7491f2eb0cff54551d08eb765

UNDEFINED SYMBOLS
RCC_APB1PeriphResetCmd
assert_param
