   1              		.syntax unified
   2              		.cpu cortex-m3
   3              		.fpu softvfp
   4              		.eabi_attribute 20, 1
   5              		.eabi_attribute 21, 1
   6              		.eabi_attribute 23, 3
   7              		.eabi_attribute 24, 1
   8              		.eabi_attribute 25, 1
   9              		.eabi_attribute 26, 1
  10              		.eabi_attribute 30, 6
  11              		.eabi_attribute 34, 1
  12              		.eabi_attribute 18, 4
  13              		.thumb
  14              		.file	"stm32f10x_tim.c"
  15              		.text
  16              	.Ltext0:
  17              		.cfi_sections	.debug_frame
  18              		.section	.text.TIM_DeInit,"ax",%progbits
  19              		.align	2
  20              		.global	TIM_DeInit
  21              		.thumb
  22              		.thumb_func
  24              	TIM_DeInit:
  25              	.LFB29:
  26              		.file 1 "../libs/StdPeripheralDriver/src/stm32f10x_tim.c"
   1:../libs/StdPeripheralDriver/src/stm32f10x_tim.c **** /**
   2:../libs/StdPeripheralDriver/src/stm32f10x_tim.c ****   ******************************************************************************
   3:../libs/StdPeripheralDriver/src/stm32f10x_tim.c ****   * @file    stm32f10x_tim.c
   4:../libs/StdPeripheralDriver/src/stm32f10x_tim.c ****   * @author  MCD Application Team
   5:../libs/StdPeripheralDriver/src/stm32f10x_tim.c ****   * @version V3.5.0
   6:../libs/StdPeripheralDriver/src/stm32f10x_tim.c ****   * @date    11-March-2011
   7:../libs/StdPeripheralDriver/src/stm32f10x_tim.c ****   * @brief   This file provides all the TIM firmware functions.
   8:../libs/StdPeripheralDriver/src/stm32f10x_tim.c ****   ******************************************************************************
   9:../libs/StdPeripheralDriver/src/stm32f10x_tim.c ****   * @attention
  10:../libs/StdPeripheralDriver/src/stm32f10x_tim.c ****   *
  11:../libs/StdPeripheralDriver/src/stm32f10x_tim.c ****   * THE PRESENT FIRMWARE WHICH IS FOR GUIDANCE ONLY AIMS AT PROVIDING CUSTOMERS
  12:../libs/StdPeripheralDriver/src/stm32f10x_tim.c ****   * WITH CODING INFORMATION REGARDING THEIR PRODUCTS IN ORDER FOR THEM TO SAVE
  13:../libs/StdPeripheralDriver/src/stm32f10x_tim.c ****   * TIME. AS A RESULT, STMICROELECTRONICS SHALL NOT BE HELD LIABLE FOR ANY
  14:../libs/StdPeripheralDriver/src/stm32f10x_tim.c ****   * DIRECT, INDIRECT OR CONSEQUENTIAL DAMAGES WITH RESPECT TO ANY CLAIMS ARISING
  15:../libs/StdPeripheralDriver/src/stm32f10x_tim.c ****   * FROM THE CONTENT OF SUCH FIRMWARE AND/OR THE USE MADE BY CUSTOMERS OF THE
  16:../libs/StdPeripheralDriver/src/stm32f10x_tim.c ****   * CODING INFORMATION CONTAINED HEREIN IN CONNECTION WITH THEIR PRODUCTS.
  17:../libs/StdPeripheralDriver/src/stm32f10x_tim.c ****   *
  18:../libs/StdPeripheralDriver/src/stm32f10x_tim.c ****   * <h2><center>&copy; COPYRIGHT 2011 STMicroelectronics</center></h2>
  19:../libs/StdPeripheralDriver/src/stm32f10x_tim.c ****   ******************************************************************************
  20:../libs/StdPeripheralDriver/src/stm32f10x_tim.c ****   */
  21:../libs/StdPeripheralDriver/src/stm32f10x_tim.c **** 
  22:../libs/StdPeripheralDriver/src/stm32f10x_tim.c **** /* Includes ------------------------------------------------------------------*/
  23:../libs/StdPeripheralDriver/src/stm32f10x_tim.c **** #include "stm32f10x_tim.h"
  24:../libs/StdPeripheralDriver/src/stm32f10x_tim.c **** #include "stm32f10x_rcc.h"
  25:../libs/StdPeripheralDriver/src/stm32f10x_tim.c **** 
  26:../libs/StdPeripheralDriver/src/stm32f10x_tim.c **** /** @addtogroup STM32F10x_StdPeriph_Driver
  27:../libs/StdPeripheralDriver/src/stm32f10x_tim.c ****   * @{
  28:../libs/StdPeripheralDriver/src/stm32f10x_tim.c ****   */
  29:../libs/StdPeripheralDriver/src/stm32f10x_tim.c **** 
  30:../libs/StdPeripheralDriver/src/stm32f10x_tim.c **** /** @defgroup TIM 
  31:../libs/StdPeripheralDriver/src/stm32f10x_tim.c ****   * @brief TIM driver modules
  32:../libs/StdPeripheralDriver/src/stm32f10x_tim.c ****   * @{
  33:../libs/StdPeripheralDriver/src/stm32f10x_tim.c ****   */
  34:../libs/StdPeripheralDriver/src/stm32f10x_tim.c **** 
  35:../libs/StdPeripheralDriver/src/stm32f10x_tim.c **** /** @defgroup TIM_Private_TypesDefinitions
  36:../libs/StdPeripheralDriver/src/stm32f10x_tim.c ****   * @{
  37:../libs/StdPeripheralDriver/src/stm32f10x_tim.c ****   */
  38:../libs/StdPeripheralDriver/src/stm32f10x_tim.c **** 
  39:../libs/StdPeripheralDriver/src/stm32f10x_tim.c **** /**
  40:../libs/StdPeripheralDriver/src/stm32f10x_tim.c ****   * @}
  41:../libs/StdPeripheralDriver/src/stm32f10x_tim.c ****   */
  42:../libs/StdPeripheralDriver/src/stm32f10x_tim.c **** 
  43:../libs/StdPeripheralDriver/src/stm32f10x_tim.c **** /** @defgroup TIM_Private_Defines
  44:../libs/StdPeripheralDriver/src/stm32f10x_tim.c ****   * @{
  45:../libs/StdPeripheralDriver/src/stm32f10x_tim.c ****   */
  46:../libs/StdPeripheralDriver/src/stm32f10x_tim.c **** 
  47:../libs/StdPeripheralDriver/src/stm32f10x_tim.c **** /* ---------------------- TIM registers bit mask ------------------------ */
  48:../libs/StdPeripheralDriver/src/stm32f10x_tim.c **** #define SMCR_ETR_Mask               ((uint16_t)0x00FF) 
  49:../libs/StdPeripheralDriver/src/stm32f10x_tim.c **** #define CCMR_Offset                 ((uint16_t)0x0018)
  50:../libs/StdPeripheralDriver/src/stm32f10x_tim.c **** #define CCER_CCE_Set                ((uint16_t)0x0001)  
  51:../libs/StdPeripheralDriver/src/stm32f10x_tim.c **** #define	CCER_CCNE_Set               ((uint16_t)0x0004) 
  52:../libs/StdPeripheralDriver/src/stm32f10x_tim.c **** 
  53:../libs/StdPeripheralDriver/src/stm32f10x_tim.c **** /**
  54:../libs/StdPeripheralDriver/src/stm32f10x_tim.c ****   * @}
  55:../libs/StdPeripheralDriver/src/stm32f10x_tim.c ****   */
  56:../libs/StdPeripheralDriver/src/stm32f10x_tim.c **** 
  57:../libs/StdPeripheralDriver/src/stm32f10x_tim.c **** /** @defgroup TIM_Private_Macros
  58:../libs/StdPeripheralDriver/src/stm32f10x_tim.c ****   * @{
  59:../libs/StdPeripheralDriver/src/stm32f10x_tim.c ****   */
  60:../libs/StdPeripheralDriver/src/stm32f10x_tim.c **** 
  61:../libs/StdPeripheralDriver/src/stm32f10x_tim.c **** /**
  62:../libs/StdPeripheralDriver/src/stm32f10x_tim.c ****   * @}
  63:../libs/StdPeripheralDriver/src/stm32f10x_tim.c ****   */
  64:../libs/StdPeripheralDriver/src/stm32f10x_tim.c **** 
  65:../libs/StdPeripheralDriver/src/stm32f10x_tim.c **** /** @defgroup TIM_Private_Variables
  66:../libs/StdPeripheralDriver/src/stm32f10x_tim.c ****   * @{
  67:../libs/StdPeripheralDriver/src/stm32f10x_tim.c ****   */
  68:../libs/StdPeripheralDriver/src/stm32f10x_tim.c **** 
  69:../libs/StdPeripheralDriver/src/stm32f10x_tim.c **** /**
  70:../libs/StdPeripheralDriver/src/stm32f10x_tim.c ****   * @}
  71:../libs/StdPeripheralDriver/src/stm32f10x_tim.c ****   */
  72:../libs/StdPeripheralDriver/src/stm32f10x_tim.c **** 
  73:../libs/StdPeripheralDriver/src/stm32f10x_tim.c **** /** @defgroup TIM_Private_FunctionPrototypes
  74:../libs/StdPeripheralDriver/src/stm32f10x_tim.c ****   * @{
  75:../libs/StdPeripheralDriver/src/stm32f10x_tim.c ****   */
  76:../libs/StdPeripheralDriver/src/stm32f10x_tim.c **** 
  77:../libs/StdPeripheralDriver/src/stm32f10x_tim.c **** static void TI1_Config(TIM_TypeDef* TIMx, uint16_t TIM_ICPolarity, uint16_t TIM_ICSelection,
  78:../libs/StdPeripheralDriver/src/stm32f10x_tim.c ****                        uint16_t TIM_ICFilter);
  79:../libs/StdPeripheralDriver/src/stm32f10x_tim.c **** static void TI2_Config(TIM_TypeDef* TIMx, uint16_t TIM_ICPolarity, uint16_t TIM_ICSelection,
  80:../libs/StdPeripheralDriver/src/stm32f10x_tim.c ****                        uint16_t TIM_ICFilter);
  81:../libs/StdPeripheralDriver/src/stm32f10x_tim.c **** static void TI3_Config(TIM_TypeDef* TIMx, uint16_t TIM_ICPolarity, uint16_t TIM_ICSelection,
  82:../libs/StdPeripheralDriver/src/stm32f10x_tim.c ****                        uint16_t TIM_ICFilter);
  83:../libs/StdPeripheralDriver/src/stm32f10x_tim.c **** static void TI4_Config(TIM_TypeDef* TIMx, uint16_t TIM_ICPolarity, uint16_t TIM_ICSelection,
  84:../libs/StdPeripheralDriver/src/stm32f10x_tim.c ****                        uint16_t TIM_ICFilter);
  85:../libs/StdPeripheralDriver/src/stm32f10x_tim.c **** /**
  86:../libs/StdPeripheralDriver/src/stm32f10x_tim.c ****   * @}
  87:../libs/StdPeripheralDriver/src/stm32f10x_tim.c ****   */
  88:../libs/StdPeripheralDriver/src/stm32f10x_tim.c **** 
  89:../libs/StdPeripheralDriver/src/stm32f10x_tim.c **** /** @defgroup TIM_Private_Macros
  90:../libs/StdPeripheralDriver/src/stm32f10x_tim.c ****   * @{
  91:../libs/StdPeripheralDriver/src/stm32f10x_tim.c ****   */
  92:../libs/StdPeripheralDriver/src/stm32f10x_tim.c **** 
  93:../libs/StdPeripheralDriver/src/stm32f10x_tim.c **** /**
  94:../libs/StdPeripheralDriver/src/stm32f10x_tim.c ****   * @}
  95:../libs/StdPeripheralDriver/src/stm32f10x_tim.c ****   */
  96:../libs/StdPeripheralDriver/src/stm32f10x_tim.c **** 
  97:../libs/StdPeripheralDriver/src/stm32f10x_tim.c **** /** @defgroup TIM_Private_Variables
  98:../libs/StdPeripheralDriver/src/stm32f10x_tim.c ****   * @{
  99:../libs/StdPeripheralDriver/src/stm32f10x_tim.c ****   */
 100:../libs/StdPeripheralDriver/src/stm32f10x_tim.c **** 
 101:../libs/StdPeripheralDriver/src/stm32f10x_tim.c **** /**
 102:../libs/StdPeripheralDriver/src/stm32f10x_tim.c ****   * @}
 103:../libs/StdPeripheralDriver/src/stm32f10x_tim.c ****   */
 104:../libs/StdPeripheralDriver/src/stm32f10x_tim.c **** 
 105:../libs/StdPeripheralDriver/src/stm32f10x_tim.c **** /** @defgroup TIM_Private_FunctionPrototypes
 106:../libs/StdPeripheralDriver/src/stm32f10x_tim.c ****   * @{
 107:../libs/StdPeripheralDriver/src/stm32f10x_tim.c ****   */
 108:../libs/StdPeripheralDriver/src/stm32f10x_tim.c **** 
 109:../libs/StdPeripheralDriver/src/stm32f10x_tim.c **** /**
 110:../libs/StdPeripheralDriver/src/stm32f10x_tim.c ****   * @}
 111:../libs/StdPeripheralDriver/src/stm32f10x_tim.c ****   */
 112:../libs/StdPeripheralDriver/src/stm32f10x_tim.c **** 
 113:../libs/StdPeripheralDriver/src/stm32f10x_tim.c **** /** @defgroup TIM_Private_Functions
 114:../libs/StdPeripheralDriver/src/stm32f10x_tim.c ****   * @{
 115:../libs/StdPeripheralDriver/src/stm32f10x_tim.c ****   */
 116:../libs/StdPeripheralDriver/src/stm32f10x_tim.c **** 
 117:../libs/StdPeripheralDriver/src/stm32f10x_tim.c **** /**
 118:../libs/StdPeripheralDriver/src/stm32f10x_tim.c ****   * @brief  Deinitializes the TIMx peripheral registers to their default reset values.
 119:../libs/StdPeripheralDriver/src/stm32f10x_tim.c ****   * @param  TIMx: where x can be 1 to 17 to select the TIM peripheral.
 120:../libs/StdPeripheralDriver/src/stm32f10x_tim.c ****   * @retval None
 121:../libs/StdPeripheralDriver/src/stm32f10x_tim.c ****   */
 122:../libs/StdPeripheralDriver/src/stm32f10x_tim.c **** void TIM_DeInit(TIM_TypeDef* TIMx)
 123:../libs/StdPeripheralDriver/src/stm32f10x_tim.c **** {
  27              		.loc 1 123 0
  28              		.cfi_startproc
  29              		@ args = 0, pretend = 0, frame = 8
  30              		@ frame_needed = 1, uses_anonymous_args = 0
  31 0000 80B5     		push	{r7, lr}
  32              	.LCFI0:
  33              		.cfi_def_cfa_offset 8
  34              		.cfi_offset 7, -8
  35              		.cfi_offset 14, -4
  36 0002 82B0     		sub	sp, sp, #8
  37              	.LCFI1:
  38              		.cfi_def_cfa_offset 16
  39 0004 00AF     		add	r7, sp, #0
  40              	.LCFI2:
  41              		.cfi_def_cfa_register 7
  42 0006 7860     		str	r0, [r7, #4]
 124:../libs/StdPeripheralDriver/src/stm32f10x_tim.c ****   /* Check the parameters */
 125:../libs/StdPeripheralDriver/src/stm32f10x_tim.c ****   assert_param(IS_TIM_ALL_PERIPH(TIMx)); 
  43              		.loc 1 125 0
  44 0008 7A68     		ldr	r2, [r7, #4]
  45 000a B74B     		ldr	r3, .L22
  46 000c 9A42     		cmp	r2, r3
  47 000e 3FD0     		beq	.L2
  48              		.loc 1 125 0 is_stmt 0 discriminator 2
  49 0010 7B68     		ldr	r3, [r7, #4]
  50 0012 B3F1804F 		cmp	r3, #1073741824
  51 0016 3BD0     		beq	.L2
  52              		.loc 1 125 0 discriminator 1
  53 0018 7A68     		ldr	r2, [r7, #4]
  54 001a B44B     		ldr	r3, .L22+4
  55 001c 9A42     		cmp	r2, r3
  56 001e 37D0     		beq	.L2
  57              		.loc 1 125 0 discriminator 2
  58 0020 7A68     		ldr	r2, [r7, #4]
  59 0022 B34B     		ldr	r3, .L22+8
  60 0024 9A42     		cmp	r2, r3
  61 0026 33D0     		beq	.L2
  62              		.loc 1 125 0 discriminator 3
  63 0028 7A68     		ldr	r2, [r7, #4]
  64 002a B24B     		ldr	r3, .L22+12
  65 002c 9A42     		cmp	r2, r3
  66 002e 2FD0     		beq	.L2
  67              		.loc 1 125 0 discriminator 4
  68 0030 7A68     		ldr	r2, [r7, #4]
  69 0032 B14B     		ldr	r3, .L22+16
  70 0034 9A42     		cmp	r2, r3
  71 0036 2BD0     		beq	.L2
  72              		.loc 1 125 0 discriminator 5
  73 0038 7A68     		ldr	r2, [r7, #4]
  74 003a B04B     		ldr	r3, .L22+20
  75 003c 9A42     		cmp	r2, r3
  76 003e 27D0     		beq	.L2
  77              		.loc 1 125 0 discriminator 6
  78 0040 7A68     		ldr	r2, [r7, #4]
  79 0042 AF4B     		ldr	r3, .L22+24
  80 0044 9A42     		cmp	r2, r3
  81 0046 23D0     		beq	.L2
  82              		.loc 1 125 0 discriminator 7
  83 0048 7A68     		ldr	r2, [r7, #4]
  84 004a AE4B     		ldr	r3, .L22+28
  85 004c 9A42     		cmp	r2, r3
  86 004e 1FD0     		beq	.L2
  87              		.loc 1 125 0 discriminator 8
  88 0050 7A68     		ldr	r2, [r7, #4]
  89 0052 AD4B     		ldr	r3, .L22+32
  90 0054 9A42     		cmp	r2, r3
  91 0056 1BD0     		beq	.L2
  92              		.loc 1 125 0 discriminator 9
  93 0058 7A68     		ldr	r2, [r7, #4]
  94 005a AC4B     		ldr	r3, .L22+36
  95 005c 9A42     		cmp	r2, r3
  96 005e 17D0     		beq	.L2
  97              		.loc 1 125 0 discriminator 10
  98 0060 7A68     		ldr	r2, [r7, #4]
  99 0062 AB4B     		ldr	r3, .L22+40
 100 0064 9A42     		cmp	r2, r3
 101 0066 13D0     		beq	.L2
 102              		.loc 1 125 0 discriminator 11
 103 0068 7A68     		ldr	r2, [r7, #4]
 104 006a AA4B     		ldr	r3, .L22+44
 105 006c 9A42     		cmp	r2, r3
 106 006e 0FD0     		beq	.L2
 107              		.loc 1 125 0 discriminator 12
 108 0070 7A68     		ldr	r2, [r7, #4]
 109 0072 A94B     		ldr	r3, .L22+48
 110 0074 9A42     		cmp	r2, r3
 111 0076 0BD0     		beq	.L2
 112              		.loc 1 125 0 discriminator 13
 113 0078 7A68     		ldr	r2, [r7, #4]
 114 007a A84B     		ldr	r3, .L22+52
 115 007c 9A42     		cmp	r2, r3
 116 007e 07D0     		beq	.L2
 117              		.loc 1 125 0 discriminator 14
 118 0080 7A68     		ldr	r2, [r7, #4]
 119 0082 A74B     		ldr	r3, .L22+56
 120 0084 9A42     		cmp	r2, r3
 121 0086 03D0     		beq	.L2
 122              		.loc 1 125 0 discriminator 15
 123 0088 7A68     		ldr	r2, [r7, #4]
 124 008a A64B     		ldr	r3, .L22+60
 125 008c 9A42     		cmp	r2, r3
 126 008e 02D1     		bne	.L3
 127              	.L2:
 128              		.loc 1 125 0 discriminator 1
 129 0090 4FF00103 		mov	r3, #1
 130 0094 01E0     		b	.L4
 131              	.L3:
 132              		.loc 1 125 0 discriminator 3
 133 0096 4FF00003 		mov	r3, #0
 134              	.L4:
 135              		.loc 1 125 0 discriminator 4
 136 009a 1846     		mov	r0, r3
 137 009c FFF7FEFF 		bl	assert_param
 126:../libs/StdPeripheralDriver/src/stm32f10x_tim.c ****  
 127:../libs/StdPeripheralDriver/src/stm32f10x_tim.c ****   if (TIMx == TIM1)
 138              		.loc 1 127 0 is_stmt 1 discriminator 4
 139 00a0 7A68     		ldr	r2, [r7, #4]
 140 00a2 914B     		ldr	r3, .L22
 141 00a4 9A42     		cmp	r2, r3
 142 00a6 0CD1     		bne	.L5
 128:../libs/StdPeripheralDriver/src/stm32f10x_tim.c ****   {
 129:../libs/StdPeripheralDriver/src/stm32f10x_tim.c ****     RCC_APB2PeriphResetCmd(RCC_APB2Periph_TIM1, ENABLE);
 143              		.loc 1 129 0
 144 00a8 4FF40060 		mov	r0, #2048
 145 00ac 4FF00101 		mov	r1, #1
 146 00b0 FFF7FEFF 		bl	RCC_APB2PeriphResetCmd
 130:../libs/StdPeripheralDriver/src/stm32f10x_tim.c ****     RCC_APB2PeriphResetCmd(RCC_APB2Periph_TIM1, DISABLE);  
 147              		.loc 1 130 0
 148 00b4 4FF40060 		mov	r0, #2048
 149 00b8 4FF00001 		mov	r1, #0
 150 00bc FFF7FEFF 		bl	RCC_APB2PeriphResetCmd
 151 00c0 0EE1     		b	.L1
 152              	.L5:
 131:../libs/StdPeripheralDriver/src/stm32f10x_tim.c ****   }     
 132:../libs/StdPeripheralDriver/src/stm32f10x_tim.c ****   else if (TIMx == TIM2)
 153              		.loc 1 132 0
 154 00c2 7B68     		ldr	r3, [r7, #4]
 155 00c4 B3F1804F 		cmp	r3, #1073741824
 156 00c8 0CD1     		bne	.L7
 133:../libs/StdPeripheralDriver/src/stm32f10x_tim.c ****   {
 134:../libs/StdPeripheralDriver/src/stm32f10x_tim.c ****     RCC_APB1PeriphResetCmd(RCC_APB1Periph_TIM2, ENABLE);
 157              		.loc 1 134 0
 158 00ca 4FF00100 		mov	r0, #1
 159 00ce 4FF00101 		mov	r1, #1
 160 00d2 FFF7FEFF 		bl	RCC_APB1PeriphResetCmd
 135:../libs/StdPeripheralDriver/src/stm32f10x_tim.c ****     RCC_APB1PeriphResetCmd(RCC_APB1Periph_TIM2, DISABLE);
 161              		.loc 1 135 0
 162 00d6 4FF00100 		mov	r0, #1
 163 00da 4FF00001 		mov	r1, #0
 164 00de FFF7FEFF 		bl	RCC_APB1PeriphResetCmd
 165 00e2 FDE0     		b	.L1
 166              	.L7:
 136:../libs/StdPeripheralDriver/src/stm32f10x_tim.c ****   }
 137:../libs/StdPeripheralDriver/src/stm32f10x_tim.c ****   else if (TIMx == TIM3)
 167              		.loc 1 137 0
 168 00e4 7A68     		ldr	r2, [r7, #4]
 169 00e6 814B     		ldr	r3, .L22+4
 170 00e8 9A42     		cmp	r2, r3
 171 00ea 0CD1     		bne	.L8
 138:../libs/StdPeripheralDriver/src/stm32f10x_tim.c ****   {
 139:../libs/StdPeripheralDriver/src/stm32f10x_tim.c ****     RCC_APB1PeriphResetCmd(RCC_APB1Periph_TIM3, ENABLE);
 172              		.loc 1 139 0
 173 00ec 4FF00200 		mov	r0, #2
 174 00f0 4FF00101 		mov	r1, #1
 175 00f4 FFF7FEFF 		bl	RCC_APB1PeriphResetCmd
 140:../libs/StdPeripheralDriver/src/stm32f10x_tim.c ****     RCC_APB1PeriphResetCmd(RCC_APB1Periph_TIM3, DISABLE);
 176              		.loc 1 140 0
 177 00f8 4FF00200 		mov	r0, #2
 178 00fc 4FF00001 		mov	r1, #0
 179 0100 FFF7FEFF 		bl	RCC_APB1PeriphResetCmd
 180 0104 ECE0     		b	.L1
 181              	.L8:
 141:../libs/StdPeripheralDriver/src/stm32f10x_tim.c ****   }
 142:../libs/StdPeripheralDriver/src/stm32f10x_tim.c ****   else if (TIMx == TIM4)
 182              		.loc 1 142 0
 183 0106 7A68     		ldr	r2, [r7, #4]
 184 0108 794B     		ldr	r3, .L22+8
 185 010a 9A42     		cmp	r2, r3
 186 010c 0CD1     		bne	.L9
 143:../libs/StdPeripheralDriver/src/stm32f10x_tim.c ****   {
 144:../libs/StdPeripheralDriver/src/stm32f10x_tim.c ****     RCC_APB1PeriphResetCmd(RCC_APB1Periph_TIM4, ENABLE);
 187              		.loc 1 144 0
 188 010e 4FF00400 		mov	r0, #4
 189 0112 4FF00101 		mov	r1, #1
 190 0116 FFF7FEFF 		bl	RCC_APB1PeriphResetCmd
 145:../libs/StdPeripheralDriver/src/stm32f10x_tim.c ****     RCC_APB1PeriphResetCmd(RCC_APB1Periph_TIM4, DISABLE);
 191              		.loc 1 145 0
 192 011a 4FF00400 		mov	r0, #4
 193 011e 4FF00001 		mov	r1, #0
 194 0122 FFF7FEFF 		bl	RCC_APB1PeriphResetCmd
 195 0126 DBE0     		b	.L1
 196              	.L9:
 146:../libs/StdPeripheralDriver/src/stm32f10x_tim.c ****   } 
 147:../libs/StdPeripheralDriver/src/stm32f10x_tim.c ****   else if (TIMx == TIM5)
 197              		.loc 1 147 0
 198 0128 7A68     		ldr	r2, [r7, #4]
 199 012a 724B     		ldr	r3, .L22+12
 200 012c 9A42     		cmp	r2, r3
 201 012e 0CD1     		bne	.L10
 148:../libs/StdPeripheralDriver/src/stm32f10x_tim.c ****   {
 149:../libs/StdPeripheralDriver/src/stm32f10x_tim.c ****     RCC_APB1PeriphResetCmd(RCC_APB1Periph_TIM5, ENABLE);
 202              		.loc 1 149 0
 203 0130 4FF00800 		mov	r0, #8
 204 0134 4FF00101 		mov	r1, #1
 205 0138 FFF7FEFF 		bl	RCC_APB1PeriphResetCmd
 150:../libs/StdPeripheralDriver/src/stm32f10x_tim.c ****     RCC_APB1PeriphResetCmd(RCC_APB1Periph_TIM5, DISABLE);
 206              		.loc 1 150 0
 207 013c 4FF00800 		mov	r0, #8
 208 0140 4FF00001 		mov	r1, #0
 209 0144 FFF7FEFF 		bl	RCC_APB1PeriphResetCmd
 210 0148 CAE0     		b	.L1
 211              	.L10:
 151:../libs/StdPeripheralDriver/src/stm32f10x_tim.c ****   } 
 152:../libs/StdPeripheralDriver/src/stm32f10x_tim.c ****   else if (TIMx == TIM6)
 212              		.loc 1 152 0
 213 014a 7A68     		ldr	r2, [r7, #4]
 214 014c 6A4B     		ldr	r3, .L22+16
 215 014e 9A42     		cmp	r2, r3
 216 0150 0CD1     		bne	.L11
 153:../libs/StdPeripheralDriver/src/stm32f10x_tim.c ****   {
 154:../libs/StdPeripheralDriver/src/stm32f10x_tim.c ****     RCC_APB1PeriphResetCmd(RCC_APB1Periph_TIM6, ENABLE);
 217              		.loc 1 154 0
 218 0152 4FF01000 		mov	r0, #16
 219 0156 4FF00101 		mov	r1, #1
 220 015a FFF7FEFF 		bl	RCC_APB1PeriphResetCmd
 155:../libs/StdPeripheralDriver/src/stm32f10x_tim.c ****     RCC_APB1PeriphResetCmd(RCC_APB1Periph_TIM6, DISABLE);
 221              		.loc 1 155 0
 222 015e 4FF01000 		mov	r0, #16
 223 0162 4FF00001 		mov	r1, #0
 224 0166 FFF7FEFF 		bl	RCC_APB1PeriphResetCmd
 225 016a B9E0     		b	.L1
 226              	.L11:
 156:../libs/StdPeripheralDriver/src/stm32f10x_tim.c ****   } 
 157:../libs/StdPeripheralDriver/src/stm32f10x_tim.c ****   else if (TIMx == TIM7)
 227              		.loc 1 157 0
 228 016c 7A68     		ldr	r2, [r7, #4]
 229 016e 634B     		ldr	r3, .L22+20
 230 0170 9A42     		cmp	r2, r3
 231 0172 0CD1     		bne	.L12
 158:../libs/StdPeripheralDriver/src/stm32f10x_tim.c ****   {
 159:../libs/StdPeripheralDriver/src/stm32f10x_tim.c ****     RCC_APB1PeriphResetCmd(RCC_APB1Periph_TIM7, ENABLE);
 232              		.loc 1 159 0
 233 0174 4FF02000 		mov	r0, #32
 234 0178 4FF00101 		mov	r1, #1
 235 017c FFF7FEFF 		bl	RCC_APB1PeriphResetCmd
 160:../libs/StdPeripheralDriver/src/stm32f10x_tim.c ****     RCC_APB1PeriphResetCmd(RCC_APB1Periph_TIM7, DISABLE);
 236              		.loc 1 160 0
 237 0180 4FF02000 		mov	r0, #32
 238 0184 4FF00001 		mov	r1, #0
 239 0188 FFF7FEFF 		bl	RCC_APB1PeriphResetCmd
 240 018c A8E0     		b	.L1
 241              	.L12:
 161:../libs/StdPeripheralDriver/src/stm32f10x_tim.c ****   } 
 162:../libs/StdPeripheralDriver/src/stm32f10x_tim.c ****   else if (TIMx == TIM8)
 242              		.loc 1 162 0
 243 018e 7A68     		ldr	r2, [r7, #4]
 244 0190 5B4B     		ldr	r3, .L22+24
 245 0192 9A42     		cmp	r2, r3
 246 0194 0CD1     		bne	.L13
 163:../libs/StdPeripheralDriver/src/stm32f10x_tim.c ****   {
 164:../libs/StdPeripheralDriver/src/stm32f10x_tim.c ****     RCC_APB2PeriphResetCmd(RCC_APB2Periph_TIM8, ENABLE);
 247              		.loc 1 164 0
 248 0196 4FF40050 		mov	r0, #8192
 249 019a 4FF00101 		mov	r1, #1
 250 019e FFF7FEFF 		bl	RCC_APB2PeriphResetCmd
 165:../libs/StdPeripheralDriver/src/stm32f10x_tim.c ****     RCC_APB2PeriphResetCmd(RCC_APB2Periph_TIM8, DISABLE);
 251              		.loc 1 165 0
 252 01a2 4FF40050 		mov	r0, #8192
 253 01a6 4FF00001 		mov	r1, #0
 254 01aa FFF7FEFF 		bl	RCC_APB2PeriphResetCmd
 255 01ae 97E0     		b	.L1
 256              	.L13:
 166:../libs/StdPeripheralDriver/src/stm32f10x_tim.c ****   }
 167:../libs/StdPeripheralDriver/src/stm32f10x_tim.c ****   else if (TIMx == TIM9)
 257              		.loc 1 167 0
 258 01b0 7A68     		ldr	r2, [r7, #4]
 259 01b2 544B     		ldr	r3, .L22+28
 260 01b4 9A42     		cmp	r2, r3
 261 01b6 0CD1     		bne	.L14
 168:../libs/StdPeripheralDriver/src/stm32f10x_tim.c ****   {      
 169:../libs/StdPeripheralDriver/src/stm32f10x_tim.c ****     RCC_APB2PeriphResetCmd(RCC_APB2Periph_TIM9, ENABLE);
 262              		.loc 1 169 0
 263 01b8 4FF40020 		mov	r0, #524288
 264 01bc 4FF00101 		mov	r1, #1
 265 01c0 FFF7FEFF 		bl	RCC_APB2PeriphResetCmd
 170:../libs/StdPeripheralDriver/src/stm32f10x_tim.c ****     RCC_APB2PeriphResetCmd(RCC_APB2Periph_TIM9, DISABLE);  
 266              		.loc 1 170 0
 267 01c4 4FF40020 		mov	r0, #524288
 268 01c8 4FF00001 		mov	r1, #0
 269 01cc FFF7FEFF 		bl	RCC_APB2PeriphResetCmd
 270 01d0 86E0     		b	.L1
 271              	.L14:
 171:../libs/StdPeripheralDriver/src/stm32f10x_tim.c ****    }  
 172:../libs/StdPeripheralDriver/src/stm32f10x_tim.c ****   else if (TIMx == TIM10)
 272              		.loc 1 172 0
 273 01d2 7A68     		ldr	r2, [r7, #4]
 274 01d4 4C4B     		ldr	r3, .L22+32
 275 01d6 9A42     		cmp	r2, r3
 276 01d8 0CD1     		bne	.L15
 173:../libs/StdPeripheralDriver/src/stm32f10x_tim.c ****   {      
 174:../libs/StdPeripheralDriver/src/stm32f10x_tim.c ****     RCC_APB2PeriphResetCmd(RCC_APB2Periph_TIM10, ENABLE);
 277              		.loc 1 174 0
 278 01da 4FF48010 		mov	r0, #1048576
 279 01de 4FF00101 		mov	r1, #1
 280 01e2 FFF7FEFF 		bl	RCC_APB2PeriphResetCmd
 175:../libs/StdPeripheralDriver/src/stm32f10x_tim.c ****     RCC_APB2PeriphResetCmd(RCC_APB2Periph_TIM10, DISABLE);  
 281              		.loc 1 175 0
 282 01e6 4FF48010 		mov	r0, #1048576
 283 01ea 4FF00001 		mov	r1, #0
 284 01ee FFF7FEFF 		bl	RCC_APB2PeriphResetCmd
 285 01f2 75E0     		b	.L1
 286              	.L15:
 176:../libs/StdPeripheralDriver/src/stm32f10x_tim.c ****   }  
 177:../libs/StdPeripheralDriver/src/stm32f10x_tim.c ****   else if (TIMx == TIM11) 
 287              		.loc 1 177 0
 288 01f4 7A68     		ldr	r2, [r7, #4]
 289 01f6 454B     		ldr	r3, .L22+36
 290 01f8 9A42     		cmp	r2, r3
 291 01fa 0CD1     		bne	.L16
 178:../libs/StdPeripheralDriver/src/stm32f10x_tim.c ****   {     
 179:../libs/StdPeripheralDriver/src/stm32f10x_tim.c ****     RCC_APB2PeriphResetCmd(RCC_APB2Periph_TIM11, ENABLE);
 292              		.loc 1 179 0
 293 01fc 4FF40010 		mov	r0, #2097152
 294 0200 4FF00101 		mov	r1, #1
 295 0204 FFF7FEFF 		bl	RCC_APB2PeriphResetCmd
 180:../libs/StdPeripheralDriver/src/stm32f10x_tim.c ****     RCC_APB2PeriphResetCmd(RCC_APB2Periph_TIM11, DISABLE);  
 296              		.loc 1 180 0
 297 0208 4FF40010 		mov	r0, #2097152
 298 020c 4FF00001 		mov	r1, #0
 299 0210 FFF7FEFF 		bl	RCC_APB2PeriphResetCmd
 300 0214 64E0     		b	.L1
 301              	.L16:
 181:../libs/StdPeripheralDriver/src/stm32f10x_tim.c ****   }  
 182:../libs/StdPeripheralDriver/src/stm32f10x_tim.c ****   else if (TIMx == TIM12)
 302              		.loc 1 182 0
 303 0216 7A68     		ldr	r2, [r7, #4]
 304 0218 3D4B     		ldr	r3, .L22+40
 305 021a 9A42     		cmp	r2, r3
 306 021c 0CD1     		bne	.L17
 183:../libs/StdPeripheralDriver/src/stm32f10x_tim.c ****   {      
 184:../libs/StdPeripheralDriver/src/stm32f10x_tim.c ****     RCC_APB1PeriphResetCmd(RCC_APB1Periph_TIM12, ENABLE);
 307              		.loc 1 184 0
 308 021e 4FF04000 		mov	r0, #64
 309 0222 4FF00101 		mov	r1, #1
 310 0226 FFF7FEFF 		bl	RCC_APB1PeriphResetCmd
 185:../libs/StdPeripheralDriver/src/stm32f10x_tim.c ****     RCC_APB1PeriphResetCmd(RCC_APB1Periph_TIM12, DISABLE);  
 311              		.loc 1 185 0
 312 022a 4FF04000 		mov	r0, #64
 313 022e 4FF00001 		mov	r1, #0
 314 0232 FFF7FEFF 		bl	RCC_APB1PeriphResetCmd
 315 0236 53E0     		b	.L1
 316              	.L17:
 186:../libs/StdPeripheralDriver/src/stm32f10x_tim.c ****   }  
 187:../libs/StdPeripheralDriver/src/stm32f10x_tim.c ****   else if (TIMx == TIM13) 
 317              		.loc 1 187 0
 318 0238 7A68     		ldr	r2, [r7, #4]
 319 023a 364B     		ldr	r3, .L22+44
 320 023c 9A42     		cmp	r2, r3
 321 023e 0CD1     		bne	.L18
 188:../libs/StdPeripheralDriver/src/stm32f10x_tim.c ****   {       
 189:../libs/StdPeripheralDriver/src/stm32f10x_tim.c ****     RCC_APB1PeriphResetCmd(RCC_APB1Periph_TIM13, ENABLE);
 322              		.loc 1 189 0
 323 0240 4FF08000 		mov	r0, #128
 324 0244 4FF00101 		mov	r1, #1
 325 0248 FFF7FEFF 		bl	RCC_APB1PeriphResetCmd
 190:../libs/StdPeripheralDriver/src/stm32f10x_tim.c ****     RCC_APB1PeriphResetCmd(RCC_APB1Periph_TIM13, DISABLE);  
 326              		.loc 1 190 0
 327 024c 4FF08000 		mov	r0, #128
 328 0250 4FF00001 		mov	r1, #0
 329 0254 FFF7FEFF 		bl	RCC_APB1PeriphResetCmd
 330 0258 42E0     		b	.L1
 331              	.L18:
 191:../libs/StdPeripheralDriver/src/stm32f10x_tim.c ****   }
 192:../libs/StdPeripheralDriver/src/stm32f10x_tim.c ****   else if (TIMx == TIM14) 
 332              		.loc 1 192 0
 333 025a 7A68     		ldr	r2, [r7, #4]
 334 025c 2E4B     		ldr	r3, .L22+48
 335 025e 9A42     		cmp	r2, r3
 336 0260 0CD1     		bne	.L19
 193:../libs/StdPeripheralDriver/src/stm32f10x_tim.c ****   {       
 194:../libs/StdPeripheralDriver/src/stm32f10x_tim.c ****     RCC_APB1PeriphResetCmd(RCC_APB1Periph_TIM14, ENABLE);
 337              		.loc 1 194 0
 338 0262 4FF48070 		mov	r0, #256
 339 0266 4FF00101 		mov	r1, #1
 340 026a FFF7FEFF 		bl	RCC_APB1PeriphResetCmd
 195:../libs/StdPeripheralDriver/src/stm32f10x_tim.c ****     RCC_APB1PeriphResetCmd(RCC_APB1Periph_TIM14, DISABLE);  
 341              		.loc 1 195 0
 342 026e 4FF48070 		mov	r0, #256
 343 0272 4FF00001 		mov	r1, #0
 344 0276 FFF7FEFF 		bl	RCC_APB1PeriphResetCmd
 345 027a 31E0     		b	.L1
 346              	.L19:
 196:../libs/StdPeripheralDriver/src/stm32f10x_tim.c ****   }        
 197:../libs/StdPeripheralDriver/src/stm32f10x_tim.c ****   else if (TIMx == TIM15)
 347              		.loc 1 197 0
 348 027c 7A68     		ldr	r2, [r7, #4]
 349 027e 274B     		ldr	r3, .L22+52
 350 0280 9A42     		cmp	r2, r3
 351 0282 0CD1     		bne	.L20
 198:../libs/StdPeripheralDriver/src/stm32f10x_tim.c ****   {
 199:../libs/StdPeripheralDriver/src/stm32f10x_tim.c ****     RCC_APB2PeriphResetCmd(RCC_APB2Periph_TIM15, ENABLE);
 352              		.loc 1 199 0
 353 0284 4FF48030 		mov	r0, #65536
 354 0288 4FF00101 		mov	r1, #1
 355 028c FFF7FEFF 		bl	RCC_APB2PeriphResetCmd
 200:../libs/StdPeripheralDriver/src/stm32f10x_tim.c ****     RCC_APB2PeriphResetCmd(RCC_APB2Periph_TIM15, DISABLE);
 356              		.loc 1 200 0
 357 0290 4FF48030 		mov	r0, #65536
 358 0294 4FF00001 		mov	r1, #0
 359 0298 FFF7FEFF 		bl	RCC_APB2PeriphResetCmd
 360 029c 20E0     		b	.L1
 361              	.L20:
 201:../libs/StdPeripheralDriver/src/stm32f10x_tim.c ****   } 
 202:../libs/StdPeripheralDriver/src/stm32f10x_tim.c ****   else if (TIMx == TIM16)
 362              		.loc 1 202 0
 363 029e 7A68     		ldr	r2, [r7, #4]
 364 02a0 1F4B     		ldr	r3, .L22+56
 365 02a2 9A42     		cmp	r2, r3
 366 02a4 0CD1     		bne	.L21
 203:../libs/StdPeripheralDriver/src/stm32f10x_tim.c ****   {
 204:../libs/StdPeripheralDriver/src/stm32f10x_tim.c ****     RCC_APB2PeriphResetCmd(RCC_APB2Periph_TIM16, ENABLE);
 367              		.loc 1 204 0
 368 02a6 4FF40030 		mov	r0, #131072
 369 02aa 4FF00101 		mov	r1, #1
 370 02ae FFF7FEFF 		bl	RCC_APB2PeriphResetCmd
 205:../libs/StdPeripheralDriver/src/stm32f10x_tim.c ****     RCC_APB2PeriphResetCmd(RCC_APB2Periph_TIM16, DISABLE);
 371              		.loc 1 205 0
 372 02b2 4FF40030 		mov	r0, #131072
 373 02b6 4FF00001 		mov	r1, #0
 374 02ba FFF7FEFF 		bl	RCC_APB2PeriphResetCmd
 375 02be 0FE0     		b	.L1
 376              	.L21:
 206:../libs/StdPeripheralDriver/src/stm32f10x_tim.c ****   } 
 207:../libs/StdPeripheralDriver/src/stm32f10x_tim.c ****   else
 208:../libs/StdPeripheralDriver/src/stm32f10x_tim.c ****   {
 209:../libs/StdPeripheralDriver/src/stm32f10x_tim.c ****     if (TIMx == TIM17)
 377              		.loc 1 209 0
 378 02c0 7A68     		ldr	r2, [r7, #4]
 379 02c2 184B     		ldr	r3, .L22+60
 380 02c4 9A42     		cmp	r2, r3
 381 02c6 0BD1     		bne	.L1
 210:../libs/StdPeripheralDriver/src/stm32f10x_tim.c ****     {
 211:../libs/StdPeripheralDriver/src/stm32f10x_tim.c ****       RCC_APB2PeriphResetCmd(RCC_APB2Periph_TIM17, ENABLE);
 382              		.loc 1 211 0
 383 02c8 4FF48020 		mov	r0, #262144
 384 02cc 4FF00101 		mov	r1, #1
 385 02d0 FFF7FEFF 		bl	RCC_APB2PeriphResetCmd
 212:../libs/StdPeripheralDriver/src/stm32f10x_tim.c ****       RCC_APB2PeriphResetCmd(RCC_APB2Periph_TIM17, DISABLE);
 386              		.loc 1 212 0
 387 02d4 4FF48020 		mov	r0, #262144
 388 02d8 4FF00001 		mov	r1, #0
 389 02dc FFF7FEFF 		bl	RCC_APB2PeriphResetCmd
 390              	.L1:
 213:../libs/StdPeripheralDriver/src/stm32f10x_tim.c ****     }  
 214:../libs/StdPeripheralDriver/src/stm32f10x_tim.c ****   }
 215:../libs/StdPeripheralDriver/src/stm32f10x_tim.c **** }
 391              		.loc 1 215 0
 392 02e0 07F10807 		add	r7, r7, #8
 393 02e4 BD46     		mov	sp, r7
 394 02e6 80BD     		pop	{r7, pc}
 395              	.L23:
 396              		.align	2
 397              	.L22:
 398 02e8 002C0140 		.word	1073818624
 399 02ec 00040040 		.word	1073742848
 400 02f0 00080040 		.word	1073743872
 401 02f4 000C0040 		.word	1073744896
 402 02f8 00100040 		.word	1073745920
 403 02fc 00140040 		.word	1073746944
 404 0300 00340140 		.word	1073820672
 405 0304 004C0140 		.word	1073826816
 406 0308 00500140 		.word	1073827840
 407 030c 00540140 		.word	1073828864
 408 0310 00180040 		.word	1073747968
 409 0314 001C0040 		.word	1073748992
 410 0318 00200040 		.word	1073750016
 411 031c 00400140 		.word	1073823744
 412 0320 00440140 		.word	1073824768
 413 0324 00480140 		.word	1073825792
 414              		.cfi_endproc
 415              	.LFE29:
 417              		.section	.text.TIM_TimeBaseInit,"ax",%progbits
 418              		.align	2
 419              		.global	TIM_TimeBaseInit
 420              		.thumb
 421              		.thumb_func
 423              	TIM_TimeBaseInit:
 424              	.LFB30:
 216:../libs/StdPeripheralDriver/src/stm32f10x_tim.c **** 
 217:../libs/StdPeripheralDriver/src/stm32f10x_tim.c **** /**
 218:../libs/StdPeripheralDriver/src/stm32f10x_tim.c ****   * @brief  Initializes the TIMx Time Base Unit peripheral according to 
 219:../libs/StdPeripheralDriver/src/stm32f10x_tim.c ****   *         the specified parameters in the TIM_TimeBaseInitStruct.
 220:../libs/StdPeripheralDriver/src/stm32f10x_tim.c ****   * @param  TIMx: where x can be 1 to 17 to select the TIM peripheral.
 221:../libs/StdPeripheralDriver/src/stm32f10x_tim.c ****   * @param  TIM_TimeBaseInitStruct: pointer to a TIM_TimeBaseInitTypeDef
 222:../libs/StdPeripheralDriver/src/stm32f10x_tim.c ****   *         structure that contains the configuration information for the 
 223:../libs/StdPeripheralDriver/src/stm32f10x_tim.c ****   *         specified TIM peripheral.
 224:../libs/StdPeripheralDriver/src/stm32f10x_tim.c ****   * @retval None
 225:../libs/StdPeripheralDriver/src/stm32f10x_tim.c ****   */
 226:../libs/StdPeripheralDriver/src/stm32f10x_tim.c **** void TIM_TimeBaseInit(TIM_TypeDef* TIMx, TIM_TimeBaseInitTypeDef* TIM_TimeBaseInitStruct)
 227:../libs/StdPeripheralDriver/src/stm32f10x_tim.c **** {
 425              		.loc 1 227 0
 426              		.cfi_startproc
 427              		@ args = 0, pretend = 0, frame = 16
 428              		@ frame_needed = 1, uses_anonymous_args = 0
 429 0000 80B5     		push	{r7, lr}
 430              	.LCFI3:
 431              		.cfi_def_cfa_offset 8
 432              		.cfi_offset 7, -8
 433              		.cfi_offset 14, -4
 434 0002 84B0     		sub	sp, sp, #16
 435              	.LCFI4:
 436              		.cfi_def_cfa_offset 24
 437 0004 00AF     		add	r7, sp, #0
 438              	.LCFI5:
 439              		.cfi_def_cfa_register 7
 440 0006 7860     		str	r0, [r7, #4]
 441 0008 3960     		str	r1, [r7, #0]
 228:../libs/StdPeripheralDriver/src/stm32f10x_tim.c ****   uint16_t tmpcr1 = 0;
 442              		.loc 1 228 0
 443 000a 4FF00003 		mov	r3, #0
 444 000e FB81     		strh	r3, [r7, #14]	@ movhi
 229:../libs/StdPeripheralDriver/src/stm32f10x_tim.c **** 
 230:../libs/StdPeripheralDriver/src/stm32f10x_tim.c ****   /* Check the parameters */
 231:../libs/StdPeripheralDriver/src/stm32f10x_tim.c ****   assert_param(IS_TIM_ALL_PERIPH(TIMx)); 
 445              		.loc 1 231 0
 446 0010 7A68     		ldr	r2, [r7, #4]
 447 0012 6F4B     		ldr	r3, .L39
 448 0014 9A42     		cmp	r2, r3
 449 0016 3FD0     		beq	.L25
 450              		.loc 1 231 0 is_stmt 0 discriminator 2
 451 0018 7B68     		ldr	r3, [r7, #4]
 452 001a B3F1804F 		cmp	r3, #1073741824
 453 001e 3BD0     		beq	.L25
 454              		.loc 1 231 0 discriminator 1
 455 0020 7A68     		ldr	r2, [r7, #4]
 456 0022 6C4B     		ldr	r3, .L39+4
 457 0024 9A42     		cmp	r2, r3
 458 0026 37D0     		beq	.L25
 459              		.loc 1 231 0 discriminator 2
 460 0028 7A68     		ldr	r2, [r7, #4]
 461 002a 6B4B     		ldr	r3, .L39+8
 462 002c 9A42     		cmp	r2, r3
 463 002e 33D0     		beq	.L25
 464              		.loc 1 231 0 discriminator 3
 465 0030 7A68     		ldr	r2, [r7, #4]
 466 0032 6A4B     		ldr	r3, .L39+12
 467 0034 9A42     		cmp	r2, r3
 468 0036 2FD0     		beq	.L25
 469              		.loc 1 231 0 discriminator 4
 470 0038 7A68     		ldr	r2, [r7, #4]
 471 003a 694B     		ldr	r3, .L39+16
 472 003c 9A42     		cmp	r2, r3
 473 003e 2BD0     		beq	.L25
 474              		.loc 1 231 0 discriminator 5
 475 0040 7A68     		ldr	r2, [r7, #4]
 476 0042 684B     		ldr	r3, .L39+20
 477 0044 9A42     		cmp	r2, r3
 478 0046 27D0     		beq	.L25
 479              		.loc 1 231 0 discriminator 6
 480 0048 7A68     		ldr	r2, [r7, #4]
 481 004a 674B     		ldr	r3, .L39+24
 482 004c 9A42     		cmp	r2, r3
 483 004e 23D0     		beq	.L25
 484              		.loc 1 231 0 discriminator 7
 485 0050 7A68     		ldr	r2, [r7, #4]
 486 0052 664B     		ldr	r3, .L39+28
 487 0054 9A42     		cmp	r2, r3
 488 0056 1FD0     		beq	.L25
 489              		.loc 1 231 0 discriminator 8
 490 0058 7A68     		ldr	r2, [r7, #4]
 491 005a 654B     		ldr	r3, .L39+32
 492 005c 9A42     		cmp	r2, r3
 493 005e 1BD0     		beq	.L25
 494              		.loc 1 231 0 discriminator 9
 495 0060 7A68     		ldr	r2, [r7, #4]
 496 0062 644B     		ldr	r3, .L39+36
 497 0064 9A42     		cmp	r2, r3
 498 0066 17D0     		beq	.L25
 499              		.loc 1 231 0 discriminator 10
 500 0068 7A68     		ldr	r2, [r7, #4]
 501 006a 634B     		ldr	r3, .L39+40
 502 006c 9A42     		cmp	r2, r3
 503 006e 13D0     		beq	.L25
 504              		.loc 1 231 0 discriminator 11
 505 0070 7A68     		ldr	r2, [r7, #4]
 506 0072 624B     		ldr	r3, .L39+44
 507 0074 9A42     		cmp	r2, r3
 508 0076 0FD0     		beq	.L25
 509              		.loc 1 231 0 discriminator 12
 510 0078 7A68     		ldr	r2, [r7, #4]
 511 007a 614B     		ldr	r3, .L39+48
 512 007c 9A42     		cmp	r2, r3
 513 007e 0BD0     		beq	.L25
 514              		.loc 1 231 0 discriminator 13
 515 0080 7A68     		ldr	r2, [r7, #4]
 516 0082 604B     		ldr	r3, .L39+52
 517 0084 9A42     		cmp	r2, r3
 518 0086 07D0     		beq	.L25
 519              		.loc 1 231 0 discriminator 14
 520 0088 7A68     		ldr	r2, [r7, #4]
 521 008a 5F4B     		ldr	r3, .L39+56
 522 008c 9A42     		cmp	r2, r3
 523 008e 03D0     		beq	.L25
 524              		.loc 1 231 0 discriminator 15
 525 0090 7A68     		ldr	r2, [r7, #4]
 526 0092 5E4B     		ldr	r3, .L39+60
 527 0094 9A42     		cmp	r2, r3
 528 0096 02D1     		bne	.L26
 529              	.L25:
 530              		.loc 1 231 0 discriminator 1
 531 0098 4FF00103 		mov	r3, #1
 532 009c 01E0     		b	.L27
 533              	.L26:
 534              		.loc 1 231 0 discriminator 3
 535 009e 4FF00003 		mov	r3, #0
 536              	.L27:
 537              		.loc 1 231 0 discriminator 4
 538 00a2 1846     		mov	r0, r3
 539 00a4 FFF7FEFF 		bl	assert_param
 232:../libs/StdPeripheralDriver/src/stm32f10x_tim.c ****   assert_param(IS_TIM_COUNTER_MODE(TIM_TimeBaseInitStruct->TIM_CounterMode));
 540              		.loc 1 232 0 is_stmt 1 discriminator 4
 541 00a8 3B68     		ldr	r3, [r7, #0]
 542 00aa 5B88     		ldrh	r3, [r3, #2]
 543 00ac 002B     		cmp	r3, #0
 544 00ae 0FD0     		beq	.L28
 545              		.loc 1 232 0 is_stmt 0 discriminator 2
 546 00b0 3B68     		ldr	r3, [r7, #0]
 547 00b2 5B88     		ldrh	r3, [r3, #2]
 548 00b4 102B     		cmp	r3, #16
 549 00b6 0BD0     		beq	.L28
 550              		.loc 1 232 0 discriminator 1
 551 00b8 3B68     		ldr	r3, [r7, #0]
 552 00ba 5B88     		ldrh	r3, [r3, #2]
 553 00bc 202B     		cmp	r3, #32
 554 00be 07D0     		beq	.L28
 555              		.loc 1 232 0 discriminator 2
 556 00c0 3B68     		ldr	r3, [r7, #0]
 557 00c2 5B88     		ldrh	r3, [r3, #2]
 558 00c4 402B     		cmp	r3, #64
 559 00c6 03D0     		beq	.L28
 560              		.loc 1 232 0 discriminator 3
 561 00c8 3B68     		ldr	r3, [r7, #0]
 562 00ca 5B88     		ldrh	r3, [r3, #2]
 563 00cc 602B     		cmp	r3, #96
 564 00ce 02D1     		bne	.L29
 565              	.L28:
 566              		.loc 1 232 0 discriminator 1
 567 00d0 4FF00103 		mov	r3, #1
 568 00d4 01E0     		b	.L30
 569              	.L29:
 570              		.loc 1 232 0 discriminator 3
 571 00d6 4FF00003 		mov	r3, #0
 572              	.L30:
 573              		.loc 1 232 0 discriminator 4
 574 00da 1846     		mov	r0, r3
 575 00dc FFF7FEFF 		bl	assert_param
 233:../libs/StdPeripheralDriver/src/stm32f10x_tim.c ****   assert_param(IS_TIM_CKD_DIV(TIM_TimeBaseInitStruct->TIM_ClockDivision));
 576              		.loc 1 233 0 is_stmt 1 discriminator 4
 577 00e0 3B68     		ldr	r3, [r7, #0]
 578 00e2 DB88     		ldrh	r3, [r3, #6]
 579 00e4 002B     		cmp	r3, #0
 580 00e6 09D0     		beq	.L31
 581              		.loc 1 233 0 is_stmt 0 discriminator 2
 582 00e8 3B68     		ldr	r3, [r7, #0]
 583 00ea DB88     		ldrh	r3, [r3, #6]
 584 00ec B3F5807F 		cmp	r3, #256
 585 00f0 04D0     		beq	.L31
 586              		.loc 1 233 0 discriminator 1
 587 00f2 3B68     		ldr	r3, [r7, #0]
 588 00f4 DB88     		ldrh	r3, [r3, #6]
 589 00f6 B3F5007F 		cmp	r3, #512
 590 00fa 02D1     		bne	.L32
 591              	.L31:
 592 00fc 4FF00103 		mov	r3, #1
 593 0100 01E0     		b	.L33
 594              	.L32:
 595              		.loc 1 233 0 discriminator 3
 596 0102 4FF00003 		mov	r3, #0
 597              	.L33:
 598              		.loc 1 233 0 discriminator 4
 599 0106 1846     		mov	r0, r3
 600 0108 FFF7FEFF 		bl	assert_param
 234:../libs/StdPeripheralDriver/src/stm32f10x_tim.c **** 
 235:../libs/StdPeripheralDriver/src/stm32f10x_tim.c ****   tmpcr1 = TIMx->CR1;  
 601              		.loc 1 235 0 is_stmt 1 discriminator 4
 602 010c 7B68     		ldr	r3, [r7, #4]
 603 010e 1B88     		ldrh	r3, [r3, #0]	@ movhi
 604 0110 FB81     		strh	r3, [r7, #14]	@ movhi
 236:../libs/StdPeripheralDriver/src/stm32f10x_tim.c **** 
 237:../libs/StdPeripheralDriver/src/stm32f10x_tim.c ****   if((TIMx == TIM1) || (TIMx == TIM8)|| (TIMx == TIM2) || (TIMx == TIM3)||
 605              		.loc 1 237 0 discriminator 4
 606 0112 7A68     		ldr	r2, [r7, #4]
 607 0114 2E4B     		ldr	r3, .L39
 608 0116 9A42     		cmp	r2, r3
 609 0118 13D0     		beq	.L34
 610              		.loc 1 237 0 is_stmt 0 discriminator 1
 611 011a 7A68     		ldr	r2, [r7, #4]
 612 011c 324B     		ldr	r3, .L39+24
 613 011e 9A42     		cmp	r2, r3
 614 0120 0FD0     		beq	.L34
 615 0122 7B68     		ldr	r3, [r7, #4]
 616 0124 B3F1804F 		cmp	r3, #1073741824
 617 0128 0BD0     		beq	.L34
 618 012a 7A68     		ldr	r2, [r7, #4]
 619 012c 294B     		ldr	r3, .L39+4
 620 012e 9A42     		cmp	r2, r3
 621 0130 07D0     		beq	.L34
 622 0132 7A68     		ldr	r2, [r7, #4]
 623 0134 284B     		ldr	r3, .L39+8
 624 0136 9A42     		cmp	r2, r3
 625 0138 03D0     		beq	.L34
 238:../libs/StdPeripheralDriver/src/stm32f10x_tim.c ****      (TIMx == TIM4) || (TIMx == TIM5)) 
 626              		.loc 1 238 0 is_stmt 1
 627 013a 7A68     		ldr	r2, [r7, #4]
 628 013c 274B     		ldr	r3, .L39+12
 629 013e 9A42     		cmp	r2, r3
 630 0140 08D1     		bne	.L35
 631              	.L34:
 239:../libs/StdPeripheralDriver/src/stm32f10x_tim.c ****   {
 240:../libs/StdPeripheralDriver/src/stm32f10x_tim.c ****     /* Select the Counter Mode */
 241:../libs/StdPeripheralDriver/src/stm32f10x_tim.c ****     tmpcr1 &= (uint16_t)(~((uint16_t)(TIM_CR1_DIR | TIM_CR1_CMS)));
 632              		.loc 1 241 0
 633 0142 FB89     		ldrh	r3, [r7, #14]	@ movhi
 634 0144 23F07003 		bic	r3, r3, #112
 635 0148 FB81     		strh	r3, [r7, #14]	@ movhi
 242:../libs/StdPeripheralDriver/src/stm32f10x_tim.c ****     tmpcr1 |= (uint32_t)TIM_TimeBaseInitStruct->TIM_CounterMode;
 636              		.loc 1 242 0
 637 014a 3B68     		ldr	r3, [r7, #0]
 638 014c 5A88     		ldrh	r2, [r3, #2]
 639 014e FB89     		ldrh	r3, [r7, #14]	@ movhi
 640 0150 1343     		orrs	r3, r3, r2
 641 0152 FB81     		strh	r3, [r7, #14]	@ movhi
 642              	.L35:
 243:../libs/StdPeripheralDriver/src/stm32f10x_tim.c ****   }
 244:../libs/StdPeripheralDriver/src/stm32f10x_tim.c ****  
 245:../libs/StdPeripheralDriver/src/stm32f10x_tim.c ****   if((TIMx != TIM6) && (TIMx != TIM7))
 643              		.loc 1 245 0
 644 0154 7A68     		ldr	r2, [r7, #4]
 645 0156 224B     		ldr	r3, .L39+16
 646 0158 9A42     		cmp	r2, r3
 647 015a 0CD0     		beq	.L36
 648              		.loc 1 245 0 is_stmt 0 discriminator 1
 649 015c 7A68     		ldr	r2, [r7, #4]
 650 015e 214B     		ldr	r3, .L39+20
 651 0160 9A42     		cmp	r2, r3
 652 0162 08D0     		beq	.L36
 246:../libs/StdPeripheralDriver/src/stm32f10x_tim.c ****   {
 247:../libs/StdPeripheralDriver/src/stm32f10x_tim.c ****     /* Set the clock division */
 248:../libs/StdPeripheralDriver/src/stm32f10x_tim.c ****     tmpcr1 &= (uint16_t)(~((uint16_t)TIM_CR1_CKD));
 653              		.loc 1 248 0 is_stmt 1
 654 0164 FB89     		ldrh	r3, [r7, #14]	@ movhi
 655 0166 23F44073 		bic	r3, r3, #768
 656 016a FB81     		strh	r3, [r7, #14]	@ movhi
 249:../libs/StdPeripheralDriver/src/stm32f10x_tim.c ****     tmpcr1 |= (uint32_t)TIM_TimeBaseInitStruct->TIM_ClockDivision;
 657              		.loc 1 249 0
 658 016c 3B68     		ldr	r3, [r7, #0]
 659 016e DA88     		ldrh	r2, [r3, #6]
 660 0170 FB89     		ldrh	r3, [r7, #14]	@ movhi
 661 0172 1343     		orrs	r3, r3, r2
 662 0174 FB81     		strh	r3, [r7, #14]	@ movhi
 663              	.L36:
 250:../libs/StdPeripheralDriver/src/stm32f10x_tim.c ****   }
 251:../libs/StdPeripheralDriver/src/stm32f10x_tim.c **** 
 252:../libs/StdPeripheralDriver/src/stm32f10x_tim.c ****   TIMx->CR1 = tmpcr1;
 664              		.loc 1 252 0
 665 0176 7B68     		ldr	r3, [r7, #4]
 666 0178 FA89     		ldrh	r2, [r7, #14]	@ movhi
 667 017a 1A80     		strh	r2, [r3, #0]	@ movhi
 253:../libs/StdPeripheralDriver/src/stm32f10x_tim.c **** 
 254:../libs/StdPeripheralDriver/src/stm32f10x_tim.c ****   /* Set the Autoreload value */
 255:../libs/StdPeripheralDriver/src/stm32f10x_tim.c ****   TIMx->ARR = TIM_TimeBaseInitStruct->TIM_Period ;
 668              		.loc 1 255 0
 669 017c 3B68     		ldr	r3, [r7, #0]
 670 017e 9A88     		ldrh	r2, [r3, #4]
 671 0180 7B68     		ldr	r3, [r7, #4]
 672 0182 9A85     		strh	r2, [r3, #44]	@ movhi
 256:../libs/StdPeripheralDriver/src/stm32f10x_tim.c ****  
 257:../libs/StdPeripheralDriver/src/stm32f10x_tim.c ****   /* Set the Prescaler value */
 258:../libs/StdPeripheralDriver/src/stm32f10x_tim.c ****   TIMx->PSC = TIM_TimeBaseInitStruct->TIM_Prescaler;
 673              		.loc 1 258 0
 674 0184 3B68     		ldr	r3, [r7, #0]
 675 0186 1A88     		ldrh	r2, [r3, #0]
 676 0188 7B68     		ldr	r3, [r7, #4]
 677 018a 1A85     		strh	r2, [r3, #40]	@ movhi
 259:../libs/StdPeripheralDriver/src/stm32f10x_tim.c ****     
 260:../libs/StdPeripheralDriver/src/stm32f10x_tim.c ****   if ((TIMx == TIM1) || (TIMx == TIM8)|| (TIMx == TIM15)|| (TIMx == TIM16) || (TIMx == TIM17))  
 678              		.loc 1 260 0
 679 018c 7A68     		ldr	r2, [r7, #4]
 680 018e 104B     		ldr	r3, .L39
 681 0190 9A42     		cmp	r2, r3
 682 0192 0FD0     		beq	.L37
 683              		.loc 1 260 0 is_stmt 0 discriminator 1
 684 0194 7A68     		ldr	r2, [r7, #4]
 685 0196 144B     		ldr	r3, .L39+24
 686 0198 9A42     		cmp	r2, r3
 687 019a 0BD0     		beq	.L37
 688 019c 7A68     		ldr	r2, [r7, #4]
 689 019e 194B     		ldr	r3, .L39+52
 690 01a0 9A42     		cmp	r2, r3
 691 01a2 07D0     		beq	.L37
 692 01a4 7A68     		ldr	r2, [r7, #4]
 693 01a6 184B     		ldr	r3, .L39+56
 694 01a8 9A42     		cmp	r2, r3
 695 01aa 03D0     		beq	.L37
 696 01ac 7A68     		ldr	r2, [r7, #4]
 697 01ae 174B     		ldr	r3, .L39+60
 698 01b0 9A42     		cmp	r2, r3
 699 01b2 04D1     		bne	.L38
 700              	.L37:
 261:../libs/StdPeripheralDriver/src/stm32f10x_tim.c ****   {
 262:../libs/StdPeripheralDriver/src/stm32f10x_tim.c ****     /* Set the Repetition Counter value */
 263:../libs/StdPeripheralDriver/src/stm32f10x_tim.c ****     TIMx->RCR = TIM_TimeBaseInitStruct->TIM_RepetitionCounter;
 701              		.loc 1 263 0 is_stmt 1
 702 01b4 3B68     		ldr	r3, [r7, #0]
 703 01b6 1B7A     		ldrb	r3, [r3, #8]	@ zero_extendqisi2
 704 01b8 1A46     		mov	r2, r3
 705 01ba 7B68     		ldr	r3, [r7, #4]
 706 01bc 1A86     		strh	r2, [r3, #48]	@ movhi
 707              	.L38:
 264:../libs/StdPeripheralDriver/src/stm32f10x_tim.c ****   }
 265:../libs/StdPeripheralDriver/src/stm32f10x_tim.c **** 
 266:../libs/StdPeripheralDriver/src/stm32f10x_tim.c ****   /* Generate an update event to reload the Prescaler and the Repetition counter
 267:../libs/StdPeripheralDriver/src/stm32f10x_tim.c ****      values immediately */
 268:../libs/StdPeripheralDriver/src/stm32f10x_tim.c ****   TIMx->EGR = TIM_PSCReloadMode_Immediate;           
 708              		.loc 1 268 0
 709 01be 7B68     		ldr	r3, [r7, #4]
 710 01c0 4FF00102 		mov	r2, #1
 711 01c4 9A82     		strh	r2, [r3, #20]	@ movhi
 269:../libs/StdPeripheralDriver/src/stm32f10x_tim.c **** }
 712              		.loc 1 269 0
 713 01c6 07F11007 		add	r7, r7, #16
 714 01ca BD46     		mov	sp, r7
 715 01cc 80BD     		pop	{r7, pc}
 716              	.L40:
 717 01ce 00BF     		.align	2
 718              	.L39:
 719 01d0 002C0140 		.word	1073818624
 720 01d4 00040040 		.word	1073742848
 721 01d8 00080040 		.word	1073743872
 722 01dc 000C0040 		.word	1073744896
 723 01e0 00100040 		.word	1073745920
 724 01e4 00140040 		.word	1073746944
 725 01e8 00340140 		.word	1073820672
 726 01ec 004C0140 		.word	1073826816
 727 01f0 00500140 		.word	1073827840
 728 01f4 00540140 		.word	1073828864
 729 01f8 00180040 		.word	1073747968
 730 01fc 001C0040 		.word	1073748992
 731 0200 00200040 		.word	1073750016
 732 0204 00400140 		.word	1073823744
 733 0208 00440140 		.word	1073824768
 734 020c 00480140 		.word	1073825792
 735              		.cfi_endproc
 736              	.LFE30:
 738              		.section	.text.TIM_OC1Init,"ax",%progbits
 739              		.align	2
 740              		.global	TIM_OC1Init
 741              		.thumb
 742              		.thumb_func
 744              	TIM_OC1Init:
 745              	.LFB31:
 270:../libs/StdPeripheralDriver/src/stm32f10x_tim.c **** 
 271:../libs/StdPeripheralDriver/src/stm32f10x_tim.c **** /**
 272:../libs/StdPeripheralDriver/src/stm32f10x_tim.c ****   * @brief  Initializes the TIMx Channel1 according to the specified
 273:../libs/StdPeripheralDriver/src/stm32f10x_tim.c ****   *         parameters in the TIM_OCInitStruct.
 274:../libs/StdPeripheralDriver/src/stm32f10x_tim.c ****   * @param  TIMx: where x can be  1 to 17 except 6 and 7 to select the TIM peripheral.
 275:../libs/StdPeripheralDriver/src/stm32f10x_tim.c ****   * @param  TIM_OCInitStruct: pointer to a TIM_OCInitTypeDef structure
 276:../libs/StdPeripheralDriver/src/stm32f10x_tim.c ****   *         that contains the configuration information for the specified TIM peripheral.
 277:../libs/StdPeripheralDriver/src/stm32f10x_tim.c ****   * @retval None
 278:../libs/StdPeripheralDriver/src/stm32f10x_tim.c ****   */
 279:../libs/StdPeripheralDriver/src/stm32f10x_tim.c **** void TIM_OC1Init(TIM_TypeDef* TIMx, TIM_OCInitTypeDef* TIM_OCInitStruct)
 280:../libs/StdPeripheralDriver/src/stm32f10x_tim.c **** {
 746              		.loc 1 280 0
 747              		.cfi_startproc
 748              		@ args = 0, pretend = 0, frame = 16
 749              		@ frame_needed = 1, uses_anonymous_args = 0
 750 0000 80B5     		push	{r7, lr}
 751              	.LCFI6:
 752              		.cfi_def_cfa_offset 8
 753              		.cfi_offset 7, -8
 754              		.cfi_offset 14, -4
 755 0002 84B0     		sub	sp, sp, #16
 756              	.LCFI7:
 757              		.cfi_def_cfa_offset 24
 758 0004 00AF     		add	r7, sp, #0
 759              	.LCFI8:
 760              		.cfi_def_cfa_register 7
 761 0006 7860     		str	r0, [r7, #4]
 762 0008 3960     		str	r1, [r7, #0]
 281:../libs/StdPeripheralDriver/src/stm32f10x_tim.c ****   uint16_t tmpccmrx = 0, tmpccer = 0, tmpcr2 = 0;
 763              		.loc 1 281 0
 764 000a 4FF00003 		mov	r3, #0
 765 000e 7B81     		strh	r3, [r7, #10]	@ movhi
 766 0010 4FF00003 		mov	r3, #0
 767 0014 FB81     		strh	r3, [r7, #14]	@ movhi
 768 0016 4FF00003 		mov	r3, #0
 769 001a BB81     		strh	r3, [r7, #12]	@ movhi
 282:../libs/StdPeripheralDriver/src/stm32f10x_tim.c ****    
 283:../libs/StdPeripheralDriver/src/stm32f10x_tim.c ****   /* Check the parameters */
 284:../libs/StdPeripheralDriver/src/stm32f10x_tim.c ****   assert_param(IS_TIM_LIST8_PERIPH(TIMx));
 770              		.loc 1 284 0
 771 001c 7A68     		ldr	r2, [r7, #4]
 772 001e 804B     		ldr	r3, .L68
 773 0020 9A42     		cmp	r2, r3
 774 0022 37D0     		beq	.L42
 775              		.loc 1 284 0 is_stmt 0 discriminator 2
 776 0024 7B68     		ldr	r3, [r7, #4]
 777 0026 B3F1804F 		cmp	r3, #1073741824
 778 002a 33D0     		beq	.L42
 779              		.loc 1 284 0 discriminator 1
 780 002c 7A68     		ldr	r2, [r7, #4]
 781 002e 7D4B     		ldr	r3, .L68+4
 782 0030 9A42     		cmp	r2, r3
 783 0032 2FD0     		beq	.L42
 784              		.loc 1 284 0 discriminator 2
 785 0034 7A68     		ldr	r2, [r7, #4]
 786 0036 7C4B     		ldr	r3, .L68+8
 787 0038 9A42     		cmp	r2, r3
 788 003a 2BD0     		beq	.L42
 789              		.loc 1 284 0 discriminator 3
 790 003c 7A68     		ldr	r2, [r7, #4]
 791 003e 7B4B     		ldr	r3, .L68+12
 792 0040 9A42     		cmp	r2, r3
 793 0042 27D0     		beq	.L42
 794              		.loc 1 284 0 discriminator 4
 795 0044 7A68     		ldr	r2, [r7, #4]
 796 0046 7A4B     		ldr	r3, .L68+16
 797 0048 9A42     		cmp	r2, r3
 798 004a 23D0     		beq	.L42
 799              		.loc 1 284 0 discriminator 5
 800 004c 7A68     		ldr	r2, [r7, #4]
 801 004e 794B     		ldr	r3, .L68+20
 802 0050 9A42     		cmp	r2, r3
 803 0052 1FD0     		beq	.L42
 804              		.loc 1 284 0 discriminator 6
 805 0054 7A68     		ldr	r2, [r7, #4]
 806 0056 784B     		ldr	r3, .L68+24
 807 0058 9A42     		cmp	r2, r3
 808 005a 1BD0     		beq	.L42
 809              		.loc 1 284 0 discriminator 7
 810 005c 7A68     		ldr	r2, [r7, #4]
 811 005e 774B     		ldr	r3, .L68+28
 812 0060 9A42     		cmp	r2, r3
 813 0062 17D0     		beq	.L42
 814              		.loc 1 284 0 discriminator 8
 815 0064 7A68     		ldr	r2, [r7, #4]
 816 0066 764B     		ldr	r3, .L68+32
 817 0068 9A42     		cmp	r2, r3
 818 006a 13D0     		beq	.L42
 819              		.loc 1 284 0 discriminator 9
 820 006c 7A68     		ldr	r2, [r7, #4]
 821 006e 754B     		ldr	r3, .L68+36
 822 0070 9A42     		cmp	r2, r3
 823 0072 0FD0     		beq	.L42
 824              		.loc 1 284 0 discriminator 10
 825 0074 7A68     		ldr	r2, [r7, #4]
 826 0076 744B     		ldr	r3, .L68+40
 827 0078 9A42     		cmp	r2, r3
 828 007a 0BD0     		beq	.L42
 829              		.loc 1 284 0 discriminator 11
 830 007c 7A68     		ldr	r2, [r7, #4]
 831 007e 734B     		ldr	r3, .L68+44
 832 0080 9A42     		cmp	r2, r3
 833 0082 07D0     		beq	.L42
 834              		.loc 1 284 0 discriminator 12
 835 0084 7A68     		ldr	r2, [r7, #4]
 836 0086 724B     		ldr	r3, .L68+48
 837 0088 9A42     		cmp	r2, r3
 838 008a 03D0     		beq	.L42
 839              		.loc 1 284 0 discriminator 13
 840 008c 7A68     		ldr	r2, [r7, #4]
 841 008e 714B     		ldr	r3, .L68+52
 842 0090 9A42     		cmp	r2, r3
 843 0092 02D1     		bne	.L43
 844              	.L42:
 845              		.loc 1 284 0 discriminator 1
 846 0094 4FF00103 		mov	r3, #1
 847 0098 01E0     		b	.L44
 848              	.L43:
 849              		.loc 1 284 0 discriminator 3
 850 009a 4FF00003 		mov	r3, #0
 851              	.L44:
 852              		.loc 1 284 0 discriminator 4
 853 009e 1846     		mov	r0, r3
 854 00a0 FFF7FEFF 		bl	assert_param
 285:../libs/StdPeripheralDriver/src/stm32f10x_tim.c ****   assert_param(IS_TIM_OC_MODE(TIM_OCInitStruct->TIM_OCMode));
 855              		.loc 1 285 0 is_stmt 1 discriminator 4
 856 00a4 3B68     		ldr	r3, [r7, #0]
 857 00a6 1B88     		ldrh	r3, [r3, #0]
 858 00a8 002B     		cmp	r3, #0
 859 00aa 13D0     		beq	.L45
 860              		.loc 1 285 0 is_stmt 0 discriminator 2
 861 00ac 3B68     		ldr	r3, [r7, #0]
 862 00ae 1B88     		ldrh	r3, [r3, #0]
 863 00b0 102B     		cmp	r3, #16
 864 00b2 0FD0     		beq	.L45
 865              		.loc 1 285 0 discriminator 1
 866 00b4 3B68     		ldr	r3, [r7, #0]
 867 00b6 1B88     		ldrh	r3, [r3, #0]
 868 00b8 202B     		cmp	r3, #32
 869 00ba 0BD0     		beq	.L45
 870              		.loc 1 285 0 discriminator 2
 871 00bc 3B68     		ldr	r3, [r7, #0]
 872 00be 1B88     		ldrh	r3, [r3, #0]
 873 00c0 302B     		cmp	r3, #48
 874 00c2 07D0     		beq	.L45
 875              		.loc 1 285 0 discriminator 3
 876 00c4 3B68     		ldr	r3, [r7, #0]
 877 00c6 1B88     		ldrh	r3, [r3, #0]
 878 00c8 602B     		cmp	r3, #96
 879 00ca 03D0     		beq	.L45
 880              		.loc 1 285 0 discriminator 4
 881 00cc 3B68     		ldr	r3, [r7, #0]
 882 00ce 1B88     		ldrh	r3, [r3, #0]
 883 00d0 702B     		cmp	r3, #112
 884 00d2 02D1     		bne	.L46
 885              	.L45:
 886              		.loc 1 285 0 discriminator 1
 887 00d4 4FF00103 		mov	r3, #1
 888 00d8 01E0     		b	.L47
 889              	.L46:
 890              		.loc 1 285 0 discriminator 3
 891 00da 4FF00003 		mov	r3, #0
 892              	.L47:
 893              		.loc 1 285 0 discriminator 4
 894 00de 1846     		mov	r0, r3
 895 00e0 FFF7FEFF 		bl	assert_param
 286:../libs/StdPeripheralDriver/src/stm32f10x_tim.c ****   assert_param(IS_TIM_OUTPUT_STATE(TIM_OCInitStruct->TIM_OutputState));
 896              		.loc 1 286 0 is_stmt 1 discriminator 4
 897 00e4 3B68     		ldr	r3, [r7, #0]
 898 00e6 5B88     		ldrh	r3, [r3, #2]
 899 00e8 002B     		cmp	r3, #0
 900 00ea 03D0     		beq	.L48
 901              		.loc 1 286 0 is_stmt 0 discriminator 2
 902 00ec 3B68     		ldr	r3, [r7, #0]
 903 00ee 5B88     		ldrh	r3, [r3, #2]
 904 00f0 012B     		cmp	r3, #1
 905 00f2 02D1     		bne	.L49
 906              	.L48:
 907              		.loc 1 286 0 discriminator 1
 908 00f4 4FF00103 		mov	r3, #1
 909 00f8 01E0     		b	.L50
 910              	.L49:
 911              		.loc 1 286 0 discriminator 3
 912 00fa 4FF00003 		mov	r3, #0
 913              	.L50:
 914              		.loc 1 286 0 discriminator 4
 915 00fe 1846     		mov	r0, r3
 916 0100 FFF7FEFF 		bl	assert_param
 287:../libs/StdPeripheralDriver/src/stm32f10x_tim.c ****   assert_param(IS_TIM_OC_POLARITY(TIM_OCInitStruct->TIM_OCPolarity));   
 917              		.loc 1 287 0 is_stmt 1 discriminator 4
 918 0104 3B68     		ldr	r3, [r7, #0]
 919 0106 1B89     		ldrh	r3, [r3, #8]
 920 0108 002B     		cmp	r3, #0
 921 010a 03D0     		beq	.L51
 922              		.loc 1 287 0 is_stmt 0 discriminator 2
 923 010c 3B68     		ldr	r3, [r7, #0]
 924 010e 1B89     		ldrh	r3, [r3, #8]
 925 0110 022B     		cmp	r3, #2
 926 0112 02D1     		bne	.L52
 927              	.L51:
 928              		.loc 1 287 0 discriminator 1
 929 0114 4FF00103 		mov	r3, #1
 930 0118 01E0     		b	.L53
 931              	.L52:
 932              		.loc 1 287 0 discriminator 3
 933 011a 4FF00003 		mov	r3, #0
 934              	.L53:
 935              		.loc 1 287 0 discriminator 4
 936 011e 1846     		mov	r0, r3
 937 0120 FFF7FEFF 		bl	assert_param
 288:../libs/StdPeripheralDriver/src/stm32f10x_tim.c ****  /* Disable the Channel 1: Reset the CC1E Bit */
 289:../libs/StdPeripheralDriver/src/stm32f10x_tim.c ****   TIMx->CCER &= (uint16_t)(~(uint16_t)TIM_CCER_CC1E);
 938              		.loc 1 289 0 is_stmt 1 discriminator 4
 939 0124 7B68     		ldr	r3, [r7, #4]
 940 0126 1B8C     		ldrh	r3, [r3, #32]	@ movhi
 941 0128 9BB2     		uxth	r3, r3
 942 012a 23F00103 		bic	r3, r3, #1
 943 012e 9AB2     		uxth	r2, r3
 944 0130 7B68     		ldr	r3, [r7, #4]
 945 0132 1A84     		strh	r2, [r3, #32]	@ movhi
 290:../libs/StdPeripheralDriver/src/stm32f10x_tim.c ****   /* Get the TIMx CCER register value */
 291:../libs/StdPeripheralDriver/src/stm32f10x_tim.c ****   tmpccer = TIMx->CCER;
 946              		.loc 1 291 0 discriminator 4
 947 0134 7B68     		ldr	r3, [r7, #4]
 948 0136 1B8C     		ldrh	r3, [r3, #32]	@ movhi
 949 0138 FB81     		strh	r3, [r7, #14]	@ movhi
 292:../libs/StdPeripheralDriver/src/stm32f10x_tim.c ****   /* Get the TIMx CR2 register value */
 293:../libs/StdPeripheralDriver/src/stm32f10x_tim.c ****   tmpcr2 =  TIMx->CR2;
 950              		.loc 1 293 0 discriminator 4
 951 013a 7B68     		ldr	r3, [r7, #4]
 952 013c 9B88     		ldrh	r3, [r3, #4]	@ movhi
 953 013e BB81     		strh	r3, [r7, #12]	@ movhi
 294:../libs/StdPeripheralDriver/src/stm32f10x_tim.c ****   
 295:../libs/StdPeripheralDriver/src/stm32f10x_tim.c ****   /* Get the TIMx CCMR1 register value */
 296:../libs/StdPeripheralDriver/src/stm32f10x_tim.c ****   tmpccmrx = TIMx->CCMR1;
 954              		.loc 1 296 0 discriminator 4
 955 0140 7B68     		ldr	r3, [r7, #4]
 956 0142 1B8B     		ldrh	r3, [r3, #24]	@ movhi
 957 0144 7B81     		strh	r3, [r7, #10]	@ movhi
 297:../libs/StdPeripheralDriver/src/stm32f10x_tim.c ****     
 298:../libs/StdPeripheralDriver/src/stm32f10x_tim.c ****   /* Reset the Output Compare Mode Bits */
 299:../libs/StdPeripheralDriver/src/stm32f10x_tim.c ****   tmpccmrx &= (uint16_t)(~((uint16_t)TIM_CCMR1_OC1M));
 958              		.loc 1 299 0 discriminator 4
 959 0146 7B89     		ldrh	r3, [r7, #10]	@ movhi
 960 0148 23F07003 		bic	r3, r3, #112
 961 014c 7B81     		strh	r3, [r7, #10]	@ movhi
 300:../libs/StdPeripheralDriver/src/stm32f10x_tim.c ****   tmpccmrx &= (uint16_t)(~((uint16_t)TIM_CCMR1_CC1S));
 962              		.loc 1 300 0 discriminator 4
 963 014e 7B89     		ldrh	r3, [r7, #10]	@ movhi
 964 0150 23F00303 		bic	r3, r3, #3
 965 0154 7B81     		strh	r3, [r7, #10]	@ movhi
 301:../libs/StdPeripheralDriver/src/stm32f10x_tim.c **** 
 302:../libs/StdPeripheralDriver/src/stm32f10x_tim.c ****   /* Select the Output Compare Mode */
 303:../libs/StdPeripheralDriver/src/stm32f10x_tim.c ****   tmpccmrx |= TIM_OCInitStruct->TIM_OCMode;
 966              		.loc 1 303 0 discriminator 4
 967 0156 3B68     		ldr	r3, [r7, #0]
 968 0158 1A88     		ldrh	r2, [r3, #0]
 969 015a 7B89     		ldrh	r3, [r7, #10]	@ movhi
 970 015c 1343     		orrs	r3, r3, r2
 971 015e 7B81     		strh	r3, [r7, #10]	@ movhi
 304:../libs/StdPeripheralDriver/src/stm32f10x_tim.c ****   
 305:../libs/StdPeripheralDriver/src/stm32f10x_tim.c ****   /* Reset the Output Polarity level */
 306:../libs/StdPeripheralDriver/src/stm32f10x_tim.c ****   tmpccer &= (uint16_t)(~((uint16_t)TIM_CCER_CC1P));
 972              		.loc 1 306 0 discriminator 4
 973 0160 FB89     		ldrh	r3, [r7, #14]	@ movhi
 974 0162 23F00203 		bic	r3, r3, #2
 975 0166 FB81     		strh	r3, [r7, #14]	@ movhi
 307:../libs/StdPeripheralDriver/src/stm32f10x_tim.c ****   /* Set the Output Compare Polarity */
 308:../libs/StdPeripheralDriver/src/stm32f10x_tim.c ****   tmpccer |= TIM_OCInitStruct->TIM_OCPolarity;
 976              		.loc 1 308 0 discriminator 4
 977 0168 3B68     		ldr	r3, [r7, #0]
 978 016a 1A89     		ldrh	r2, [r3, #8]
 979 016c FB89     		ldrh	r3, [r7, #14]	@ movhi
 980 016e 1343     		orrs	r3, r3, r2
 981 0170 FB81     		strh	r3, [r7, #14]	@ movhi
 309:../libs/StdPeripheralDriver/src/stm32f10x_tim.c ****   
 310:../libs/StdPeripheralDriver/src/stm32f10x_tim.c ****   /* Set the Output State */
 311:../libs/StdPeripheralDriver/src/stm32f10x_tim.c ****   tmpccer |= TIM_OCInitStruct->TIM_OutputState;
 982              		.loc 1 311 0 discriminator 4
 983 0172 3B68     		ldr	r3, [r7, #0]
 984 0174 5A88     		ldrh	r2, [r3, #2]
 985 0176 FB89     		ldrh	r3, [r7, #14]	@ movhi
 986 0178 1343     		orrs	r3, r3, r2
 987 017a FB81     		strh	r3, [r7, #14]	@ movhi
 312:../libs/StdPeripheralDriver/src/stm32f10x_tim.c ****     
 313:../libs/StdPeripheralDriver/src/stm32f10x_tim.c ****   if((TIMx == TIM1) || (TIMx == TIM8)|| (TIMx == TIM15)||
 988              		.loc 1 313 0 discriminator 4
 989 017c 7A68     		ldr	r2, [r7, #4]
 990 017e 284B     		ldr	r3, .L68
 991 0180 9A42     		cmp	r2, r3
 992 0182 10D0     		beq	.L54
 993              		.loc 1 313 0 is_stmt 0 discriminator 1
 994 0184 7A68     		ldr	r2, [r7, #4]
 995 0186 2A4B     		ldr	r3, .L68+16
 996 0188 9A42     		cmp	r2, r3
 997 018a 0CD0     		beq	.L54
 998 018c 7A68     		ldr	r2, [r7, #4]
 999 018e 2F4B     		ldr	r3, .L68+44
 1000 0190 9A42     		cmp	r2, r3
 1001 0192 08D0     		beq	.L54
 1002 0194 7A68     		ldr	r2, [r7, #4]
 1003 0196 2E4B     		ldr	r3, .L68+48
 1004 0198 9A42     		cmp	r2, r3
 1005 019a 04D0     		beq	.L54
 314:../libs/StdPeripheralDriver/src/stm32f10x_tim.c ****      (TIMx == TIM16)|| (TIMx == TIM17))
 1006              		.loc 1 314 0 is_stmt 1
 1007 019c 7A68     		ldr	r2, [r7, #4]
 1008 019e 2D4B     		ldr	r3, .L68+52
 1009 01a0 9A42     		cmp	r2, r3
 1010 01a2 40F08280 		bne	.L55
 1011              	.L54:
 315:../libs/StdPeripheralDriver/src/stm32f10x_tim.c ****   {
 316:../libs/StdPeripheralDriver/src/stm32f10x_tim.c ****     assert_param(IS_TIM_OUTPUTN_STATE(TIM_OCInitStruct->TIM_OutputNState));
 1012              		.loc 1 316 0
 1013 01a6 3B68     		ldr	r3, [r7, #0]
 1014 01a8 9B88     		ldrh	r3, [r3, #4]
 1015 01aa 002B     		cmp	r3, #0
 1016 01ac 03D0     		beq	.L56
 1017              		.loc 1 316 0 is_stmt 0 discriminator 2
 1018 01ae 3B68     		ldr	r3, [r7, #0]
 1019 01b0 9B88     		ldrh	r3, [r3, #4]
 1020 01b2 042B     		cmp	r3, #4
 1021 01b4 02D1     		bne	.L57
 1022              	.L56:
 1023              		.loc 1 316 0 discriminator 1
 1024 01b6 4FF00103 		mov	r3, #1
 1025 01ba 01E0     		b	.L58
 1026              	.L57:
 1027              		.loc 1 316 0 discriminator 3
 1028 01bc 4FF00003 		mov	r3, #0
 1029              	.L58:
 1030              		.loc 1 316 0 discriminator 4
 1031 01c0 1846     		mov	r0, r3
 1032 01c2 FFF7FEFF 		bl	assert_param
 317:../libs/StdPeripheralDriver/src/stm32f10x_tim.c ****     assert_param(IS_TIM_OCN_POLARITY(TIM_OCInitStruct->TIM_OCNPolarity));
 1033              		.loc 1 317 0 is_stmt 1 discriminator 4
 1034 01c6 3B68     		ldr	r3, [r7, #0]
 1035 01c8 5B89     		ldrh	r3, [r3, #10]
 1036 01ca 002B     		cmp	r3, #0
 1037 01cc 03D0     		beq	.L59
 1038              		.loc 1 317 0 is_stmt 0 discriminator 2
 1039 01ce 3B68     		ldr	r3, [r7, #0]
 1040 01d0 5B89     		ldrh	r3, [r3, #10]
 1041 01d2 082B     		cmp	r3, #8
 1042 01d4 02D1     		bne	.L60
 1043              	.L59:
 1044              		.loc 1 317 0 discriminator 1
 1045 01d6 4FF00103 		mov	r3, #1
 1046 01da 01E0     		b	.L61
 1047              	.L60:
 1048              		.loc 1 317 0 discriminator 3
 1049 01dc 4FF00003 		mov	r3, #0
 1050              	.L61:
 1051              		.loc 1 317 0 discriminator 4
 1052 01e0 1846     		mov	r0, r3
 1053 01e2 FFF7FEFF 		bl	assert_param
 318:../libs/StdPeripheralDriver/src/stm32f10x_tim.c ****     assert_param(IS_TIM_OCNIDLE_STATE(TIM_OCInitStruct->TIM_OCNIdleState));
 1054              		.loc 1 318 0 is_stmt 1 discriminator 4
 1055 01e6 3B68     		ldr	r3, [r7, #0]
 1056 01e8 DB89     		ldrh	r3, [r3, #14]
 1057 01ea B3F5007F 		cmp	r3, #512
 1058 01ee 03D0     		beq	.L62
 1059              		.loc 1 318 0 is_stmt 0 discriminator 2
 1060 01f0 3B68     		ldr	r3, [r7, #0]
 1061 01f2 DB89     		ldrh	r3, [r3, #14]
 1062 01f4 002B     		cmp	r3, #0
 1063 01f6 02D1     		bne	.L63
 1064              	.L62:
 1065              		.loc 1 318 0 discriminator 1
 1066 01f8 4FF00103 		mov	r3, #1
 1067 01fc 01E0     		b	.L64
 1068              	.L63:
 1069              		.loc 1 318 0 discriminator 3
 1070 01fe 4FF00003 		mov	r3, #0
 1071              	.L64:
 1072              		.loc 1 318 0 discriminator 4
 1073 0202 1846     		mov	r0, r3
 1074 0204 FFF7FEFF 		bl	assert_param
 319:../libs/StdPeripheralDriver/src/stm32f10x_tim.c ****     assert_param(IS_TIM_OCIDLE_STATE(TIM_OCInitStruct->TIM_OCIdleState));
 1075              		.loc 1 319 0 is_stmt 1 discriminator 4
 1076 0208 3B68     		ldr	r3, [r7, #0]
 1077 020a 9B89     		ldrh	r3, [r3, #12]
 1078 020c B3F5807F 		cmp	r3, #256
 1079 0210 03D0     		beq	.L65
 1080              		.loc 1 319 0 is_stmt 0 discriminator 2
 1081 0212 3B68     		ldr	r3, [r7, #0]
 1082 0214 9B89     		ldrh	r3, [r3, #12]
 1083 0216 002B     		cmp	r3, #0
 1084 0218 1ED1     		bne	.L66
 1085              	.L65:
 1086              		.loc 1 319 0 discriminator 1
 1087 021a 4FF00103 		mov	r3, #1
 1088 021e 1DE0     		b	.L67
 1089              	.L69:
 1090              		.align	2
 1091              	.L68:
 1092 0220 002C0140 		.word	1073818624
 1093 0224 00040040 		.word	1073742848
 1094 0228 00080040 		.word	1073743872
 1095 022c 000C0040 		.word	1073744896
 1096 0230 00340140 		.word	1073820672
 1097 0234 004C0140 		.word	1073826816
 1098 0238 00500140 		.word	1073827840
 1099 023c 00540140 		.word	1073828864
 1100 0240 00180040 		.word	1073747968
 1101 0244 001C0040 		.word	1073748992
 1102 0248 00200040 		.word	1073750016
 1103 024c 00400140 		.word	1073823744
 1104 0250 00440140 		.word	1073824768
 1105 0254 00480140 		.word	1073825792
 1106              	.L66:
 1107              		.loc 1 319 0 discriminator 3
 1108 0258 4FF00003 		mov	r3, #0
 1109              	.L67:
 1110              		.loc 1 319 0 discriminator 4
 1111 025c 1846     		mov	r0, r3
 1112 025e FFF7FEFF 		bl	assert_param
 320:../libs/StdPeripheralDriver/src/stm32f10x_tim.c ****     
 321:../libs/StdPeripheralDriver/src/stm32f10x_tim.c ****     /* Reset the Output N Polarity level */
 322:../libs/StdPeripheralDriver/src/stm32f10x_tim.c ****     tmpccer &= (uint16_t)(~((uint16_t)TIM_CCER_CC1NP));
 1113              		.loc 1 322 0 is_stmt 1 discriminator 4
 1114 0262 FB89     		ldrh	r3, [r7, #14]	@ movhi
 1115 0264 23F00803 		bic	r3, r3, #8
 1116 0268 FB81     		strh	r3, [r7, #14]	@ movhi
 323:../libs/StdPeripheralDriver/src/stm32f10x_tim.c ****     /* Set the Output N Polarity */
 324:../libs/StdPeripheralDriver/src/stm32f10x_tim.c ****     tmpccer |= TIM_OCInitStruct->TIM_OCNPolarity;
 1117              		.loc 1 324 0 discriminator 4
 1118 026a 3B68     		ldr	r3, [r7, #0]
 1119 026c 5A89     		ldrh	r2, [r3, #10]
 1120 026e FB89     		ldrh	r3, [r7, #14]	@ movhi
 1121 0270 1343     		orrs	r3, r3, r2
 1122 0272 FB81     		strh	r3, [r7, #14]	@ movhi
 325:../libs/StdPeripheralDriver/src/stm32f10x_tim.c ****     
 326:../libs/StdPeripheralDriver/src/stm32f10x_tim.c ****     /* Reset the Output N State */
 327:../libs/StdPeripheralDriver/src/stm32f10x_tim.c ****     tmpccer &= (uint16_t)(~((uint16_t)TIM_CCER_CC1NE));    
 1123              		.loc 1 327 0 discriminator 4
 1124 0274 FB89     		ldrh	r3, [r7, #14]	@ movhi
 1125 0276 23F00403 		bic	r3, r3, #4
 1126 027a FB81     		strh	r3, [r7, #14]	@ movhi
 328:../libs/StdPeripheralDriver/src/stm32f10x_tim.c ****     /* Set the Output N State */
 329:../libs/StdPeripheralDriver/src/stm32f10x_tim.c ****     tmpccer |= TIM_OCInitStruct->TIM_OutputNState;
 1127              		.loc 1 329 0 discriminator 4
 1128 027c 3B68     		ldr	r3, [r7, #0]
 1129 027e 9A88     		ldrh	r2, [r3, #4]
 1130 0280 FB89     		ldrh	r3, [r7, #14]	@ movhi
 1131 0282 1343     		orrs	r3, r3, r2
 1132 0284 FB81     		strh	r3, [r7, #14]	@ movhi
 330:../libs/StdPeripheralDriver/src/stm32f10x_tim.c ****     
 331:../libs/StdPeripheralDriver/src/stm32f10x_tim.c ****     /* Reset the Output Compare and Output Compare N IDLE State */
 332:../libs/StdPeripheralDriver/src/stm32f10x_tim.c ****     tmpcr2 &= (uint16_t)(~((uint16_t)TIM_CR2_OIS1));
 1133              		.loc 1 332 0 discriminator 4
 1134 0286 BB89     		ldrh	r3, [r7, #12]	@ movhi
 1135 0288 23F48073 		bic	r3, r3, #256
 1136 028c BB81     		strh	r3, [r7, #12]	@ movhi
 333:../libs/StdPeripheralDriver/src/stm32f10x_tim.c ****     tmpcr2 &= (uint16_t)(~((uint16_t)TIM_CR2_OIS1N));
 1137              		.loc 1 333 0 discriminator 4
 1138 028e BB89     		ldrh	r3, [r7, #12]	@ movhi
 1139 0290 23F40073 		bic	r3, r3, #512
 1140 0294 BB81     		strh	r3, [r7, #12]	@ movhi
 334:../libs/StdPeripheralDriver/src/stm32f10x_tim.c ****     
 335:../libs/StdPeripheralDriver/src/stm32f10x_tim.c ****     /* Set the Output Idle state */
 336:../libs/StdPeripheralDriver/src/stm32f10x_tim.c ****     tmpcr2 |= TIM_OCInitStruct->TIM_OCIdleState;
 1141              		.loc 1 336 0 discriminator 4
 1142 0296 3B68     		ldr	r3, [r7, #0]
 1143 0298 9A89     		ldrh	r2, [r3, #12]
 1144 029a BB89     		ldrh	r3, [r7, #12]	@ movhi
 1145 029c 1343     		orrs	r3, r3, r2
 1146 029e BB81     		strh	r3, [r7, #12]	@ movhi
 337:../libs/StdPeripheralDriver/src/stm32f10x_tim.c ****     /* Set the Output N Idle state */
 338:../libs/StdPeripheralDriver/src/stm32f10x_tim.c ****     tmpcr2 |= TIM_OCInitStruct->TIM_OCNIdleState;
 1147              		.loc 1 338 0 discriminator 4
 1148 02a0 3B68     		ldr	r3, [r7, #0]
 1149 02a2 DA89     		ldrh	r2, [r3, #14]
 1150 02a4 BB89     		ldrh	r3, [r7, #12]	@ movhi
 1151 02a6 1343     		orrs	r3, r3, r2
 1152 02a8 BB81     		strh	r3, [r7, #12]	@ movhi
 1153              	.L55:
 339:../libs/StdPeripheralDriver/src/stm32f10x_tim.c ****   }
 340:../libs/StdPeripheralDriver/src/stm32f10x_tim.c ****   /* Write to TIMx CR2 */
 341:../libs/StdPeripheralDriver/src/stm32f10x_tim.c ****   TIMx->CR2 = tmpcr2;
 1154              		.loc 1 341 0
 1155 02aa 7B68     		ldr	r3, [r7, #4]
 1156 02ac BA89     		ldrh	r2, [r7, #12]	@ movhi
 1157 02ae 9A80     		strh	r2, [r3, #4]	@ movhi
 342:../libs/StdPeripheralDriver/src/stm32f10x_tim.c ****   
 343:../libs/StdPeripheralDriver/src/stm32f10x_tim.c ****   /* Write to TIMx CCMR1 */
 344:../libs/StdPeripheralDriver/src/stm32f10x_tim.c ****   TIMx->CCMR1 = tmpccmrx;
 1158              		.loc 1 344 0
 1159 02b0 7B68     		ldr	r3, [r7, #4]
 1160 02b2 7A89     		ldrh	r2, [r7, #10]	@ movhi
 1161 02b4 1A83     		strh	r2, [r3, #24]	@ movhi
 345:../libs/StdPeripheralDriver/src/stm32f10x_tim.c **** 
 346:../libs/StdPeripheralDriver/src/stm32f10x_tim.c ****   /* Set the Capture Compare Register value */
 347:../libs/StdPeripheralDriver/src/stm32f10x_tim.c ****   TIMx->CCR1 = TIM_OCInitStruct->TIM_Pulse; 
 1162              		.loc 1 347 0
 1163 02b6 3B68     		ldr	r3, [r7, #0]
 1164 02b8 DA88     		ldrh	r2, [r3, #6]
 1165 02ba 7B68     		ldr	r3, [r7, #4]
 1166 02bc 9A86     		strh	r2, [r3, #52]	@ movhi
 348:../libs/StdPeripheralDriver/src/stm32f10x_tim.c ****  
 349:../libs/StdPeripheralDriver/src/stm32f10x_tim.c ****   /* Write to TIMx CCER */
 350:../libs/StdPeripheralDriver/src/stm32f10x_tim.c ****   TIMx->CCER = tmpccer;
 1167              		.loc 1 350 0
 1168 02be 7B68     		ldr	r3, [r7, #4]
 1169 02c0 FA89     		ldrh	r2, [r7, #14]	@ movhi
 1170 02c2 1A84     		strh	r2, [r3, #32]	@ movhi
 351:../libs/StdPeripheralDriver/src/stm32f10x_tim.c **** }
 1171              		.loc 1 351 0
 1172 02c4 07F11007 		add	r7, r7, #16
 1173 02c8 BD46     		mov	sp, r7
 1174 02ca 80BD     		pop	{r7, pc}
 1175              		.cfi_endproc
 1176              	.LFE31:
 1178              		.section	.text.TIM_OC2Init,"ax",%progbits
 1179              		.align	2
 1180              		.global	TIM_OC2Init
 1181              		.thumb
 1182              		.thumb_func
 1184              	TIM_OC2Init:
 1185              	.LFB32:
 352:../libs/StdPeripheralDriver/src/stm32f10x_tim.c **** 
 353:../libs/StdPeripheralDriver/src/stm32f10x_tim.c **** /**
 354:../libs/StdPeripheralDriver/src/stm32f10x_tim.c ****   * @brief  Initializes the TIMx Channel2 according to the specified
 355:../libs/StdPeripheralDriver/src/stm32f10x_tim.c ****   *         parameters in the TIM_OCInitStruct.
 356:../libs/StdPeripheralDriver/src/stm32f10x_tim.c ****   * @param  TIMx: where x can be  1, 2, 3, 4, 5, 8, 9, 12 or 15 to select 
 357:../libs/StdPeripheralDriver/src/stm32f10x_tim.c ****   *         the TIM peripheral.
 358:../libs/StdPeripheralDriver/src/stm32f10x_tim.c ****   * @param  TIM_OCInitStruct: pointer to a TIM_OCInitTypeDef structure
 359:../libs/StdPeripheralDriver/src/stm32f10x_tim.c ****   *         that contains the configuration information for the specified TIM peripheral.
 360:../libs/StdPeripheralDriver/src/stm32f10x_tim.c ****   * @retval None
 361:../libs/StdPeripheralDriver/src/stm32f10x_tim.c ****   */
 362:../libs/StdPeripheralDriver/src/stm32f10x_tim.c **** void TIM_OC2Init(TIM_TypeDef* TIMx, TIM_OCInitTypeDef* TIM_OCInitStruct)
 363:../libs/StdPeripheralDriver/src/stm32f10x_tim.c **** {
 1186              		.loc 1 363 0
 1187              		.cfi_startproc
 1188              		@ args = 0, pretend = 0, frame = 16
 1189              		@ frame_needed = 1, uses_anonymous_args = 0
 1190 0000 80B5     		push	{r7, lr}
 1191              	.LCFI9:
 1192              		.cfi_def_cfa_offset 8
 1193              		.cfi_offset 7, -8
 1194              		.cfi_offset 14, -4
 1195 0002 84B0     		sub	sp, sp, #16
 1196              	.LCFI10:
 1197              		.cfi_def_cfa_offset 24
 1198 0004 00AF     		add	r7, sp, #0
 1199              	.LCFI11:
 1200              		.cfi_def_cfa_register 7
 1201 0006 7860     		str	r0, [r7, #4]
 1202 0008 3960     		str	r1, [r7, #0]
 364:../libs/StdPeripheralDriver/src/stm32f10x_tim.c ****   uint16_t tmpccmrx = 0, tmpccer = 0, tmpcr2 = 0;
 1203              		.loc 1 364 0
 1204 000a 4FF00003 		mov	r3, #0
 1205 000e 7B81     		strh	r3, [r7, #10]	@ movhi
 1206 0010 4FF00003 		mov	r3, #0
 1207 0014 FB81     		strh	r3, [r7, #14]	@ movhi
 1208 0016 4FF00003 		mov	r3, #0
 1209 001a BB81     		strh	r3, [r7, #12]	@ movhi
 365:../libs/StdPeripheralDriver/src/stm32f10x_tim.c ****    
 366:../libs/StdPeripheralDriver/src/stm32f10x_tim.c ****   /* Check the parameters */
 367:../libs/StdPeripheralDriver/src/stm32f10x_tim.c ****   assert_param(IS_TIM_LIST6_PERIPH(TIMx)); 
 1210              		.loc 1 367 0
 1211 001c 7A68     		ldr	r2, [r7, #4]
 1212 001e 954B     		ldr	r3, .L97
 1213 0020 9A42     		cmp	r2, r3
 1214 0022 1FD0     		beq	.L71
 1215              		.loc 1 367 0 is_stmt 0 discriminator 2
 1216 0024 7B68     		ldr	r3, [r7, #4]
 1217 0026 B3F1804F 		cmp	r3, #1073741824
 1218 002a 1BD0     		beq	.L71
 1219              		.loc 1 367 0 discriminator 1
 1220 002c 7A68     		ldr	r2, [r7, #4]
 1221 002e 924B     		ldr	r3, .L97+4
 1222 0030 9A42     		cmp	r2, r3
 1223 0032 17D0     		beq	.L71
 1224              		.loc 1 367 0 discriminator 2
 1225 0034 7A68     		ldr	r2, [r7, #4]
 1226 0036 914B     		ldr	r3, .L97+8
 1227 0038 9A42     		cmp	r2, r3
 1228 003a 13D0     		beq	.L71
 1229              		.loc 1 367 0 discriminator 3
 1230 003c 7A68     		ldr	r2, [r7, #4]
 1231 003e 904B     		ldr	r3, .L97+12
 1232 0040 9A42     		cmp	r2, r3
 1233 0042 0FD0     		beq	.L71
 1234              		.loc 1 367 0 discriminator 4
 1235 0044 7A68     		ldr	r2, [r7, #4]
 1236 0046 8F4B     		ldr	r3, .L97+16
 1237 0048 9A42     		cmp	r2, r3
 1238 004a 0BD0     		beq	.L71
 1239              		.loc 1 367 0 discriminator 5
 1240 004c 7A68     		ldr	r2, [r7, #4]
 1241 004e 8E4B     		ldr	r3, .L97+20
 1242 0050 9A42     		cmp	r2, r3
 1243 0052 07D0     		beq	.L71
 1244              		.loc 1 367 0 discriminator 6
 1245 0054 7A68     		ldr	r2, [r7, #4]
 1246 0056 8D4B     		ldr	r3, .L97+24
 1247 0058 9A42     		cmp	r2, r3
 1248 005a 03D0     		beq	.L71
 1249              		.loc 1 367 0 discriminator 7
 1250 005c 7A68     		ldr	r2, [r7, #4]
 1251 005e 8C4B     		ldr	r3, .L97+28
 1252 0060 9A42     		cmp	r2, r3
 1253 0062 02D1     		bne	.L72
 1254              	.L71:
 1255              		.loc 1 367 0 discriminator 1
 1256 0064 4FF00103 		mov	r3, #1
 1257 0068 01E0     		b	.L73
 1258              	.L72:
 1259              		.loc 1 367 0 discriminator 3
 1260 006a 4FF00003 		mov	r3, #0
 1261              	.L73:
 1262              		.loc 1 367 0 discriminator 4
 1263 006e 1846     		mov	r0, r3
 1264 0070 FFF7FEFF 		bl	assert_param
 368:../libs/StdPeripheralDriver/src/stm32f10x_tim.c ****   assert_param(IS_TIM_OC_MODE(TIM_OCInitStruct->TIM_OCMode));
 1265              		.loc 1 368 0 is_stmt 1 discriminator 4
 1266 0074 3B68     		ldr	r3, [r7, #0]
 1267 0076 1B88     		ldrh	r3, [r3, #0]
 1268 0078 002B     		cmp	r3, #0
 1269 007a 13D0     		beq	.L74
 1270              		.loc 1 368 0 is_stmt 0 discriminator 2
 1271 007c 3B68     		ldr	r3, [r7, #0]
 1272 007e 1B88     		ldrh	r3, [r3, #0]
 1273 0080 102B     		cmp	r3, #16
 1274 0082 0FD0     		beq	.L74
 1275              		.loc 1 368 0 discriminator 1
 1276 0084 3B68     		ldr	r3, [r7, #0]
 1277 0086 1B88     		ldrh	r3, [r3, #0]
 1278 0088 202B     		cmp	r3, #32
 1279 008a 0BD0     		beq	.L74
 1280              		.loc 1 368 0 discriminator 2
 1281 008c 3B68     		ldr	r3, [r7, #0]
 1282 008e 1B88     		ldrh	r3, [r3, #0]
 1283 0090 302B     		cmp	r3, #48
 1284 0092 07D0     		beq	.L74
 1285              		.loc 1 368 0 discriminator 3
 1286 0094 3B68     		ldr	r3, [r7, #0]
 1287 0096 1B88     		ldrh	r3, [r3, #0]
 1288 0098 602B     		cmp	r3, #96
 1289 009a 03D0     		beq	.L74
 1290              		.loc 1 368 0 discriminator 4
 1291 009c 3B68     		ldr	r3, [r7, #0]
 1292 009e 1B88     		ldrh	r3, [r3, #0]
 1293 00a0 702B     		cmp	r3, #112
 1294 00a2 02D1     		bne	.L75
 1295              	.L74:
 1296              		.loc 1 368 0 discriminator 1
 1297 00a4 4FF00103 		mov	r3, #1
 1298 00a8 01E0     		b	.L76
 1299              	.L75:
 1300              		.loc 1 368 0 discriminator 3
 1301 00aa 4FF00003 		mov	r3, #0
 1302              	.L76:
 1303              		.loc 1 368 0 discriminator 4
 1304 00ae 1846     		mov	r0, r3
 1305 00b0 FFF7FEFF 		bl	assert_param
 369:../libs/StdPeripheralDriver/src/stm32f10x_tim.c ****   assert_param(IS_TIM_OUTPUT_STATE(TIM_OCInitStruct->TIM_OutputState));
 1306              		.loc 1 369 0 is_stmt 1 discriminator 4
 1307 00b4 3B68     		ldr	r3, [r7, #0]
 1308 00b6 5B88     		ldrh	r3, [r3, #2]
 1309 00b8 002B     		cmp	r3, #0
 1310 00ba 03D0     		beq	.L77
 1311              		.loc 1 369 0 is_stmt 0 discriminator 2
 1312 00bc 3B68     		ldr	r3, [r7, #0]
 1313 00be 5B88     		ldrh	r3, [r3, #2]
 1314 00c0 012B     		cmp	r3, #1
 1315 00c2 02D1     		bne	.L78
 1316              	.L77:
 1317              		.loc 1 369 0 discriminator 1
 1318 00c4 4FF00103 		mov	r3, #1
 1319 00c8 01E0     		b	.L79
 1320              	.L78:
 1321              		.loc 1 369 0 discriminator 3
 1322 00ca 4FF00003 		mov	r3, #0
 1323              	.L79:
 1324              		.loc 1 369 0 discriminator 4
 1325 00ce 1846     		mov	r0, r3
 1326 00d0 FFF7FEFF 		bl	assert_param
 370:../libs/StdPeripheralDriver/src/stm32f10x_tim.c ****   assert_param(IS_TIM_OC_POLARITY(TIM_OCInitStruct->TIM_OCPolarity));   
 1327              		.loc 1 370 0 is_stmt 1 discriminator 4
 1328 00d4 3B68     		ldr	r3, [r7, #0]
 1329 00d6 1B89     		ldrh	r3, [r3, #8]
 1330 00d8 002B     		cmp	r3, #0
 1331 00da 03D0     		beq	.L80
 1332              		.loc 1 370 0 is_stmt 0 discriminator 2
 1333 00dc 3B68     		ldr	r3, [r7, #0]
 1334 00de 1B89     		ldrh	r3, [r3, #8]
 1335 00e0 022B     		cmp	r3, #2
 1336 00e2 02D1     		bne	.L81
 1337              	.L80:
 1338              		.loc 1 370 0 discriminator 1
 1339 00e4 4FF00103 		mov	r3, #1
 1340 00e8 01E0     		b	.L82
 1341              	.L81:
 1342              		.loc 1 370 0 discriminator 3
 1343 00ea 4FF00003 		mov	r3, #0
 1344              	.L82:
 1345              		.loc 1 370 0 discriminator 4
 1346 00ee 1846     		mov	r0, r3
 1347 00f0 FFF7FEFF 		bl	assert_param
 371:../libs/StdPeripheralDriver/src/stm32f10x_tim.c ****    /* Disable the Channel 2: Reset the CC2E Bit */
 372:../libs/StdPeripheralDriver/src/stm32f10x_tim.c ****   TIMx->CCER &= (uint16_t)(~((uint16_t)TIM_CCER_CC2E));
 1348              		.loc 1 372 0 is_stmt 1 discriminator 4
 1349 00f4 7B68     		ldr	r3, [r7, #4]
 1350 00f6 1B8C     		ldrh	r3, [r3, #32]	@ movhi
 1351 00f8 9BB2     		uxth	r3, r3
 1352 00fa 23F01003 		bic	r3, r3, #16
 1353 00fe 9AB2     		uxth	r2, r3
 1354 0100 7B68     		ldr	r3, [r7, #4]
 1355 0102 1A84     		strh	r2, [r3, #32]	@ movhi
 373:../libs/StdPeripheralDriver/src/stm32f10x_tim.c ****   
 374:../libs/StdPeripheralDriver/src/stm32f10x_tim.c ****   /* Get the TIMx CCER register value */  
 375:../libs/StdPeripheralDriver/src/stm32f10x_tim.c ****   tmpccer = TIMx->CCER;
 1356              		.loc 1 375 0 discriminator 4
 1357 0104 7B68     		ldr	r3, [r7, #4]
 1358 0106 1B8C     		ldrh	r3, [r3, #32]	@ movhi
 1359 0108 FB81     		strh	r3, [r7, #14]	@ movhi
 376:../libs/StdPeripheralDriver/src/stm32f10x_tim.c ****   /* Get the TIMx CR2 register value */
 377:../libs/StdPeripheralDriver/src/stm32f10x_tim.c ****   tmpcr2 =  TIMx->CR2;
 1360              		.loc 1 377 0 discriminator 4
 1361 010a 7B68     		ldr	r3, [r7, #4]
 1362 010c 9B88     		ldrh	r3, [r3, #4]	@ movhi
 1363 010e BB81     		strh	r3, [r7, #12]	@ movhi
 378:../libs/StdPeripheralDriver/src/stm32f10x_tim.c ****   
 379:../libs/StdPeripheralDriver/src/stm32f10x_tim.c ****   /* Get the TIMx CCMR1 register value */
 380:../libs/StdPeripheralDriver/src/stm32f10x_tim.c ****   tmpccmrx = TIMx->CCMR1;
 1364              		.loc 1 380 0 discriminator 4
 1365 0110 7B68     		ldr	r3, [r7, #4]
 1366 0112 1B8B     		ldrh	r3, [r3, #24]	@ movhi
 1367 0114 7B81     		strh	r3, [r7, #10]	@ movhi
 381:../libs/StdPeripheralDriver/src/stm32f10x_tim.c ****     
 382:../libs/StdPeripheralDriver/src/stm32f10x_tim.c ****   /* Reset the Output Compare mode and Capture/Compare selection Bits */
 383:../libs/StdPeripheralDriver/src/stm32f10x_tim.c ****   tmpccmrx &= (uint16_t)(~((uint16_t)TIM_CCMR1_OC2M));
 1368              		.loc 1 383 0 discriminator 4
 1369 0116 7B89     		ldrh	r3, [r7, #10]	@ movhi
 1370 0118 23F4E043 		bic	r3, r3, #28672
 1371 011c 7B81     		strh	r3, [r7, #10]	@ movhi
 384:../libs/StdPeripheralDriver/src/stm32f10x_tim.c ****   tmpccmrx &= (uint16_t)(~((uint16_t)TIM_CCMR1_CC2S));
 1372              		.loc 1 384 0 discriminator 4
 1373 011e 7B89     		ldrh	r3, [r7, #10]	@ movhi
 1374 0120 23F44073 		bic	r3, r3, #768
 1375 0124 7B81     		strh	r3, [r7, #10]	@ movhi
 385:../libs/StdPeripheralDriver/src/stm32f10x_tim.c ****   
 386:../libs/StdPeripheralDriver/src/stm32f10x_tim.c ****   /* Select the Output Compare Mode */
 387:../libs/StdPeripheralDriver/src/stm32f10x_tim.c ****   tmpccmrx |= (uint16_t)(TIM_OCInitStruct->TIM_OCMode << 8);
 1376              		.loc 1 387 0 discriminator 4
 1377 0126 3B68     		ldr	r3, [r7, #0]
 1378 0128 1B88     		ldrh	r3, [r3, #0]
 1379 012a 4FEA0323 		lsl	r3, r3, #8
 1380 012e 9AB2     		uxth	r2, r3
 1381 0130 7B89     		ldrh	r3, [r7, #10]	@ movhi
 1382 0132 1343     		orrs	r3, r3, r2
 1383 0134 7B81     		strh	r3, [r7, #10]	@ movhi
 388:../libs/StdPeripheralDriver/src/stm32f10x_tim.c ****   
 389:../libs/StdPeripheralDriver/src/stm32f10x_tim.c ****   /* Reset the Output Polarity level */
 390:../libs/StdPeripheralDriver/src/stm32f10x_tim.c ****   tmpccer &= (uint16_t)(~((uint16_t)TIM_CCER_CC2P));
 1384              		.loc 1 390 0 discriminator 4
 1385 0136 FB89     		ldrh	r3, [r7, #14]	@ movhi
 1386 0138 23F02003 		bic	r3, r3, #32
 1387 013c FB81     		strh	r3, [r7, #14]	@ movhi
 391:../libs/StdPeripheralDriver/src/stm32f10x_tim.c ****   /* Set the Output Compare Polarity */
 392:../libs/StdPeripheralDriver/src/stm32f10x_tim.c ****   tmpccer |= (uint16_t)(TIM_OCInitStruct->TIM_OCPolarity << 4);
 1388              		.loc 1 392 0 discriminator 4
 1389 013e 3B68     		ldr	r3, [r7, #0]
 1390 0140 1B89     		ldrh	r3, [r3, #8]
 1391 0142 4FEA0313 		lsl	r3, r3, #4
 1392 0146 9AB2     		uxth	r2, r3
 1393 0148 FB89     		ldrh	r3, [r7, #14]	@ movhi
 1394 014a 1343     		orrs	r3, r3, r2
 1395 014c FB81     		strh	r3, [r7, #14]	@ movhi
 393:../libs/StdPeripheralDriver/src/stm32f10x_tim.c ****   
 394:../libs/StdPeripheralDriver/src/stm32f10x_tim.c ****   /* Set the Output State */
 395:../libs/StdPeripheralDriver/src/stm32f10x_tim.c ****   tmpccer |= (uint16_t)(TIM_OCInitStruct->TIM_OutputState << 4);
 1396              		.loc 1 395 0 discriminator 4
 1397 014e 3B68     		ldr	r3, [r7, #0]
 1398 0150 5B88     		ldrh	r3, [r3, #2]
 1399 0152 4FEA0313 		lsl	r3, r3, #4
 1400 0156 9AB2     		uxth	r2, r3
 1401 0158 FB89     		ldrh	r3, [r7, #14]	@ movhi
 1402 015a 1343     		orrs	r3, r3, r2
 1403 015c FB81     		strh	r3, [r7, #14]	@ movhi
 396:../libs/StdPeripheralDriver/src/stm32f10x_tim.c ****     
 397:../libs/StdPeripheralDriver/src/stm32f10x_tim.c ****   if((TIMx == TIM1) || (TIMx == TIM8))
 1404              		.loc 1 397 0 discriminator 4
 1405 015e 7A68     		ldr	r2, [r7, #4]
 1406 0160 444B     		ldr	r3, .L97
 1407 0162 9A42     		cmp	r2, r3
 1408 0164 03D0     		beq	.L83
 1409              		.loc 1 397 0 is_stmt 0 discriminator 1
 1410 0166 7A68     		ldr	r2, [r7, #4]
 1411 0168 464B     		ldr	r3, .L97+16
 1412 016a 9A42     		cmp	r2, r3
 1413 016c 71D1     		bne	.L84
 1414              	.L83:
 398:../libs/StdPeripheralDriver/src/stm32f10x_tim.c ****   {
 399:../libs/StdPeripheralDriver/src/stm32f10x_tim.c ****     assert_param(IS_TIM_OUTPUTN_STATE(TIM_OCInitStruct->TIM_OutputNState));
 1415              		.loc 1 399 0 is_stmt 1
 1416 016e 3B68     		ldr	r3, [r7, #0]
 1417 0170 9B88     		ldrh	r3, [r3, #4]
 1418 0172 002B     		cmp	r3, #0
 1419 0174 03D0     		beq	.L85
 1420              		.loc 1 399 0 is_stmt 0 discriminator 2
 1421 0176 3B68     		ldr	r3, [r7, #0]
 1422 0178 9B88     		ldrh	r3, [r3, #4]
 1423 017a 042B     		cmp	r3, #4
 1424 017c 02D1     		bne	.L86
 1425              	.L85:
 1426              		.loc 1 399 0 discriminator 1
 1427 017e 4FF00103 		mov	r3, #1
 1428 0182 01E0     		b	.L87
 1429              	.L86:
 1430              		.loc 1 399 0 discriminator 3
 1431 0184 4FF00003 		mov	r3, #0
 1432              	.L87:
 1433              		.loc 1 399 0 discriminator 4
 1434 0188 1846     		mov	r0, r3
 1435 018a FFF7FEFF 		bl	assert_param
 400:../libs/StdPeripheralDriver/src/stm32f10x_tim.c ****     assert_param(IS_TIM_OCN_POLARITY(TIM_OCInitStruct->TIM_OCNPolarity));
 1436              		.loc 1 400 0 is_stmt 1 discriminator 4
 1437 018e 3B68     		ldr	r3, [r7, #0]
 1438 0190 5B89     		ldrh	r3, [r3, #10]
 1439 0192 002B     		cmp	r3, #0
 1440 0194 03D0     		beq	.L88
 1441              		.loc 1 400 0 is_stmt 0 discriminator 2
 1442 0196 3B68     		ldr	r3, [r7, #0]
 1443 0198 5B89     		ldrh	r3, [r3, #10]
 1444 019a 082B     		cmp	r3, #8
 1445 019c 02D1     		bne	.L89
 1446              	.L88:
 1447              		.loc 1 400 0 discriminator 1
 1448 019e 4FF00103 		mov	r3, #1
 1449 01a2 01E0     		b	.L90
 1450              	.L89:
 1451              		.loc 1 400 0 discriminator 3
 1452 01a4 4FF00003 		mov	r3, #0
 1453              	.L90:
 1454              		.loc 1 400 0 discriminator 4
 1455 01a8 1846     		mov	r0, r3
 1456 01aa FFF7FEFF 		bl	assert_param
 401:../libs/StdPeripheralDriver/src/stm32f10x_tim.c ****     assert_param(IS_TIM_OCNIDLE_STATE(TIM_OCInitStruct->TIM_OCNIdleState));
 1457              		.loc 1 401 0 is_stmt 1 discriminator 4
 1458 01ae 3B68     		ldr	r3, [r7, #0]
 1459 01b0 DB89     		ldrh	r3, [r3, #14]
 1460 01b2 B3F5007F 		cmp	r3, #512
 1461 01b6 03D0     		beq	.L91
 1462              		.loc 1 401 0 is_stmt 0 discriminator 2
 1463 01b8 3B68     		ldr	r3, [r7, #0]
 1464 01ba DB89     		ldrh	r3, [r3, #14]
 1465 01bc 002B     		cmp	r3, #0
 1466 01be 02D1     		bne	.L92
 1467              	.L91:
 1468              		.loc 1 401 0 discriminator 1
 1469 01c0 4FF00103 		mov	r3, #1
 1470 01c4 01E0     		b	.L93
 1471              	.L92:
 1472              		.loc 1 401 0 discriminator 3
 1473 01c6 4FF00003 		mov	r3, #0
 1474              	.L93:
 1475              		.loc 1 401 0 discriminator 4
 1476 01ca 1846     		mov	r0, r3
 1477 01cc FFF7FEFF 		bl	assert_param
 402:../libs/StdPeripheralDriver/src/stm32f10x_tim.c ****     assert_param(IS_TIM_OCIDLE_STATE(TIM_OCInitStruct->TIM_OCIdleState));
 1478              		.loc 1 402 0 is_stmt 1 discriminator 4
 1479 01d0 3B68     		ldr	r3, [r7, #0]
 1480 01d2 9B89     		ldrh	r3, [r3, #12]
 1481 01d4 B3F5807F 		cmp	r3, #256
 1482 01d8 03D0     		beq	.L94
 1483              		.loc 1 402 0 is_stmt 0 discriminator 2
 1484 01da 3B68     		ldr	r3, [r7, #0]
 1485 01dc 9B89     		ldrh	r3, [r3, #12]
 1486 01de 002B     		cmp	r3, #0
 1487 01e0 02D1     		bne	.L95
 1488              	.L94:
 1489              		.loc 1 402 0 discriminator 1
 1490 01e2 4FF00103 		mov	r3, #1
 1491 01e6 01E0     		b	.L96
 1492              	.L95:
 1493              		.loc 1 402 0 discriminator 3
 1494 01e8 4FF00003 		mov	r3, #0
 1495              	.L96:
 1496              		.loc 1 402 0 discriminator 4
 1497 01ec 1846     		mov	r0, r3
 1498 01ee FFF7FEFF 		bl	assert_param
 403:../libs/StdPeripheralDriver/src/stm32f10x_tim.c ****     
 404:../libs/StdPeripheralDriver/src/stm32f10x_tim.c ****     /* Reset the Output N Polarity level */
 405:../libs/StdPeripheralDriver/src/stm32f10x_tim.c ****     tmpccer &= (uint16_t)(~((uint16_t)TIM_CCER_CC2NP));
 1499              		.loc 1 405 0 is_stmt 1 discriminator 4
 1500 01f2 FB89     		ldrh	r3, [r7, #14]	@ movhi
 1501 01f4 23F08003 		bic	r3, r3, #128
 1502 01f8 FB81     		strh	r3, [r7, #14]	@ movhi
 406:../libs/StdPeripheralDriver/src/stm32f10x_tim.c ****     /* Set the Output N Polarity */
 407:../libs/StdPeripheralDriver/src/stm32f10x_tim.c ****     tmpccer |= (uint16_t)(TIM_OCInitStruct->TIM_OCNPolarity << 4);
 1503              		.loc 1 407 0 discriminator 4
 1504 01fa 3B68     		ldr	r3, [r7, #0]
 1505 01fc 5B89     		ldrh	r3, [r3, #10]
 1506 01fe 4FEA0313 		lsl	r3, r3, #4
 1507 0202 9AB2     		uxth	r2, r3
 1508 0204 FB89     		ldrh	r3, [r7, #14]	@ movhi
 1509 0206 1343     		orrs	r3, r3, r2
 1510 0208 FB81     		strh	r3, [r7, #14]	@ movhi
 408:../libs/StdPeripheralDriver/src/stm32f10x_tim.c ****     
 409:../libs/StdPeripheralDriver/src/stm32f10x_tim.c ****     /* Reset the Output N State */
 410:../libs/StdPeripheralDriver/src/stm32f10x_tim.c ****     tmpccer &= (uint16_t)(~((uint16_t)TIM_CCER_CC2NE));    
 1511              		.loc 1 410 0 discriminator 4
 1512 020a FB89     		ldrh	r3, [r7, #14]	@ movhi
 1513 020c 23F04003 		bic	r3, r3, #64
 1514 0210 FB81     		strh	r3, [r7, #14]	@ movhi
 411:../libs/StdPeripheralDriver/src/stm32f10x_tim.c ****     /* Set the Output N State */
 412:../libs/StdPeripheralDriver/src/stm32f10x_tim.c ****     tmpccer |= (uint16_t)(TIM_OCInitStruct->TIM_OutputNState << 4);
 1515              		.loc 1 412 0 discriminator 4
 1516 0212 3B68     		ldr	r3, [r7, #0]
 1517 0214 9B88     		ldrh	r3, [r3, #4]
 1518 0216 4FEA0313 		lsl	r3, r3, #4
 1519 021a 9AB2     		uxth	r2, r3
 1520 021c FB89     		ldrh	r3, [r7, #14]	@ movhi
 1521 021e 1343     		orrs	r3, r3, r2
 1522 0220 FB81     		strh	r3, [r7, #14]	@ movhi
 413:../libs/StdPeripheralDriver/src/stm32f10x_tim.c ****     
 414:../libs/StdPeripheralDriver/src/stm32f10x_tim.c ****     /* Reset the Output Compare and Output Compare N IDLE State */
 415:../libs/StdPeripheralDriver/src/stm32f10x_tim.c ****     tmpcr2 &= (uint16_t)(~((uint16_t)TIM_CR2_OIS2));
 1523              		.loc 1 415 0 discriminator 4
 1524 0222 BB89     		ldrh	r3, [r7, #12]	@ movhi
 1525 0224 23F48063 		bic	r3, r3, #1024
 1526 0228 BB81     		strh	r3, [r7, #12]	@ movhi
 416:../libs/StdPeripheralDriver/src/stm32f10x_tim.c ****     tmpcr2 &= (uint16_t)(~((uint16_t)TIM_CR2_OIS2N));
 1527              		.loc 1 416 0 discriminator 4
 1528 022a BB89     		ldrh	r3, [r7, #12]	@ movhi
 1529 022c 23F40063 		bic	r3, r3, #2048
 1530 0230 BB81     		strh	r3, [r7, #12]	@ movhi
 417:../libs/StdPeripheralDriver/src/stm32f10x_tim.c ****     
 418:../libs/StdPeripheralDriver/src/stm32f10x_tim.c ****     /* Set the Output Idle state */
 419:../libs/StdPeripheralDriver/src/stm32f10x_tim.c ****     tmpcr2 |= (uint16_t)(TIM_OCInitStruct->TIM_OCIdleState << 2);
 1531              		.loc 1 419 0 discriminator 4
 1532 0232 3B68     		ldr	r3, [r7, #0]
 1533 0234 9B89     		ldrh	r3, [r3, #12]
 1534 0236 4FEA8303 		lsl	r3, r3, #2
 1535 023a 9AB2     		uxth	r2, r3
 1536 023c BB89     		ldrh	r3, [r7, #12]	@ movhi
 1537 023e 1343     		orrs	r3, r3, r2
 1538 0240 BB81     		strh	r3, [r7, #12]	@ movhi
 420:../libs/StdPeripheralDriver/src/stm32f10x_tim.c ****     /* Set the Output N Idle state */
 421:../libs/StdPeripheralDriver/src/stm32f10x_tim.c ****     tmpcr2 |= (uint16_t)(TIM_OCInitStruct->TIM_OCNIdleState << 2);
 1539              		.loc 1 421 0 discriminator 4
 1540 0242 3B68     		ldr	r3, [r7, #0]
 1541 0244 DB89     		ldrh	r3, [r3, #14]
 1542 0246 4FEA8303 		lsl	r3, r3, #2
 1543 024a 9AB2     		uxth	r2, r3
 1544 024c BB89     		ldrh	r3, [r7, #12]	@ movhi
 1545 024e 1343     		orrs	r3, r3, r2
 1546 0250 BB81     		strh	r3, [r7, #12]	@ movhi
 1547              	.L84:
 422:../libs/StdPeripheralDriver/src/stm32f10x_tim.c ****   }
 423:../libs/StdPeripheralDriver/src/stm32f10x_tim.c ****   /* Write to TIMx CR2 */
 424:../libs/StdPeripheralDriver/src/stm32f10x_tim.c ****   TIMx->CR2 = tmpcr2;
 1548              		.loc 1 424 0
 1549 0252 7B68     		ldr	r3, [r7, #4]
 1550 0254 BA89     		ldrh	r2, [r7, #12]	@ movhi
 1551 0256 9A80     		strh	r2, [r3, #4]	@ movhi
 425:../libs/StdPeripheralDriver/src/stm32f10x_tim.c ****   
 426:../libs/StdPeripheralDriver/src/stm32f10x_tim.c ****   /* Write to TIMx CCMR1 */
 427:../libs/StdPeripheralDriver/src/stm32f10x_tim.c ****   TIMx->CCMR1 = tmpccmrx;
 1552              		.loc 1 427 0
 1553 0258 7B68     		ldr	r3, [r7, #4]
 1554 025a 7A89     		ldrh	r2, [r7, #10]	@ movhi
 1555 025c 1A83     		strh	r2, [r3, #24]	@ movhi
 428:../libs/StdPeripheralDriver/src/stm32f10x_tim.c **** 
 429:../libs/StdPeripheralDriver/src/stm32f10x_tim.c ****   /* Set the Capture Compare Register value */
 430:../libs/StdPeripheralDriver/src/stm32f10x_tim.c ****   TIMx->CCR2 = TIM_OCInitStruct->TIM_Pulse;
 1556              		.loc 1 430 0
 1557 025e 3B68     		ldr	r3, [r7, #0]
 1558 0260 DA88     		ldrh	r2, [r3, #6]
 1559 0262 7B68     		ldr	r3, [r7, #4]
 1560 0264 1A87     		strh	r2, [r3, #56]	@ movhi
 431:../libs/StdPeripheralDriver/src/stm32f10x_tim.c ****   
 432:../libs/StdPeripheralDriver/src/stm32f10x_tim.c ****   /* Write to TIMx CCER */
 433:../libs/StdPeripheralDriver/src/stm32f10x_tim.c ****   TIMx->CCER = tmpccer;
 1561              		.loc 1 433 0
 1562 0266 7B68     		ldr	r3, [r7, #4]
 1563 0268 FA89     		ldrh	r2, [r7, #14]	@ movhi
 1564 026a 1A84     		strh	r2, [r3, #32]	@ movhi
 434:../libs/StdPeripheralDriver/src/stm32f10x_tim.c **** }
 1565              		.loc 1 434 0
 1566 026c 07F11007 		add	r7, r7, #16
 1567 0270 BD46     		mov	sp, r7
 1568 0272 80BD     		pop	{r7, pc}
 1569              	.L98:
 1570              		.align	2
 1571              	.L97:
 1572 0274 002C0140 		.word	1073818624
 1573 0278 00040040 		.word	1073742848
 1574 027c 00080040 		.word	1073743872
 1575 0280 000C0040 		.word	1073744896
 1576 0284 00340140 		.word	1073820672
 1577 0288 004C0140 		.word	1073826816
 1578 028c 00180040 		.word	1073747968
 1579 0290 00400140 		.word	1073823744
 1580              		.cfi_endproc
 1581              	.LFE32:
 1583              		.section	.text.TIM_OC3Init,"ax",%progbits
 1584              		.align	2
 1585              		.global	TIM_OC3Init
 1586              		.thumb
 1587              		.thumb_func
 1589              	TIM_OC3Init:
 1590              	.LFB33:
 435:../libs/StdPeripheralDriver/src/stm32f10x_tim.c **** 
 436:../libs/StdPeripheralDriver/src/stm32f10x_tim.c **** /**
 437:../libs/StdPeripheralDriver/src/stm32f10x_tim.c ****   * @brief  Initializes the TIMx Channel3 according to the specified
 438:../libs/StdPeripheralDriver/src/stm32f10x_tim.c ****   *         parameters in the TIM_OCInitStruct.
 439:../libs/StdPeripheralDriver/src/stm32f10x_tim.c ****   * @param  TIMx: where x can be  1, 2, 3, 4, 5 or 8 to select the TIM peripheral.
 440:../libs/StdPeripheralDriver/src/stm32f10x_tim.c ****   * @param  TIM_OCInitStruct: pointer to a TIM_OCInitTypeDef structure
 441:../libs/StdPeripheralDriver/src/stm32f10x_tim.c ****   *         that contains the configuration information for the specified TIM peripheral.
 442:../libs/StdPeripheralDriver/src/stm32f10x_tim.c ****   * @retval None
 443:../libs/StdPeripheralDriver/src/stm32f10x_tim.c ****   */
 444:../libs/StdPeripheralDriver/src/stm32f10x_tim.c **** void TIM_OC3Init(TIM_TypeDef* TIMx, TIM_OCInitTypeDef* TIM_OCInitStruct)
 445:../libs/StdPeripheralDriver/src/stm32f10x_tim.c **** {
 1591              		.loc 1 445 0
 1592              		.cfi_startproc
 1593              		@ args = 0, pretend = 0, frame = 16
 1594              		@ frame_needed = 1, uses_anonymous_args = 0
 1595 0000 80B5     		push	{r7, lr}
 1596              	.LCFI12:
 1597              		.cfi_def_cfa_offset 8
 1598              		.cfi_offset 7, -8
 1599              		.cfi_offset 14, -4
 1600 0002 84B0     		sub	sp, sp, #16
 1601              	.LCFI13:
 1602              		.cfi_def_cfa_offset 24
 1603 0004 00AF     		add	r7, sp, #0
 1604              	.LCFI14:
 1605              		.cfi_def_cfa_register 7
 1606 0006 7860     		str	r0, [r7, #4]
 1607 0008 3960     		str	r1, [r7, #0]
 446:../libs/StdPeripheralDriver/src/stm32f10x_tim.c ****   uint16_t tmpccmrx = 0, tmpccer = 0, tmpcr2 = 0;
 1608              		.loc 1 446 0
 1609 000a 4FF00003 		mov	r3, #0
 1610 000e 7B81     		strh	r3, [r7, #10]	@ movhi
 1611 0010 4FF00003 		mov	r3, #0
 1612 0014 FB81     		strh	r3, [r7, #14]	@ movhi
 1613 0016 4FF00003 		mov	r3, #0
 1614 001a BB81     		strh	r3, [r7, #12]	@ movhi
 447:../libs/StdPeripheralDriver/src/stm32f10x_tim.c ****    
 448:../libs/StdPeripheralDriver/src/stm32f10x_tim.c ****   /* Check the parameters */
 449:../libs/StdPeripheralDriver/src/stm32f10x_tim.c ****   assert_param(IS_TIM_LIST3_PERIPH(TIMx)); 
 1615              		.loc 1 449 0
 1616 001c 7A68     		ldr	r2, [r7, #4]
 1617 001e 8E4B     		ldr	r3, .L126
 1618 0020 9A42     		cmp	r2, r3
 1619 0022 13D0     		beq	.L100
 1620              		.loc 1 449 0 is_stmt 0 discriminator 2
 1621 0024 7B68     		ldr	r3, [r7, #4]
 1622 0026 B3F1804F 		cmp	r3, #1073741824
 1623 002a 0FD0     		beq	.L100
 1624              		.loc 1 449 0 discriminator 1
 1625 002c 7A68     		ldr	r2, [r7, #4]
 1626 002e 8B4B     		ldr	r3, .L126+4
 1627 0030 9A42     		cmp	r2, r3
 1628 0032 0BD0     		beq	.L100
 1629              		.loc 1 449 0 discriminator 2
 1630 0034 7A68     		ldr	r2, [r7, #4]
 1631 0036 8A4B     		ldr	r3, .L126+8
 1632 0038 9A42     		cmp	r2, r3
 1633 003a 07D0     		beq	.L100
 1634              		.loc 1 449 0 discriminator 3
 1635 003c 7A68     		ldr	r2, [r7, #4]
 1636 003e 894B     		ldr	r3, .L126+12
 1637 0040 9A42     		cmp	r2, r3
 1638 0042 03D0     		beq	.L100
 1639              		.loc 1 449 0 discriminator 4
 1640 0044 7A68     		ldr	r2, [r7, #4]
 1641 0046 884B     		ldr	r3, .L126+16
 1642 0048 9A42     		cmp	r2, r3
 1643 004a 02D1     		bne	.L101
 1644              	.L100:
 1645              		.loc 1 449 0 discriminator 1
 1646 004c 4FF00103 		mov	r3, #1
 1647 0050 01E0     		b	.L102
 1648              	.L101:
 1649              		.loc 1 449 0 discriminator 3
 1650 0052 4FF00003 		mov	r3, #0
 1651              	.L102:
 1652              		.loc 1 449 0 discriminator 4
 1653 0056 1846     		mov	r0, r3
 1654 0058 FFF7FEFF 		bl	assert_param
 450:../libs/StdPeripheralDriver/src/stm32f10x_tim.c ****   assert_param(IS_TIM_OC_MODE(TIM_OCInitStruct->TIM_OCMode));
 1655              		.loc 1 450 0 is_stmt 1 discriminator 4
 1656 005c 3B68     		ldr	r3, [r7, #0]
 1657 005e 1B88     		ldrh	r3, [r3, #0]
 1658 0060 002B     		cmp	r3, #0
 1659 0062 13D0     		beq	.L103
 1660              		.loc 1 450 0 is_stmt 0 discriminator 2
 1661 0064 3B68     		ldr	r3, [r7, #0]
 1662 0066 1B88     		ldrh	r3, [r3, #0]
 1663 0068 102B     		cmp	r3, #16
 1664 006a 0FD0     		beq	.L103
 1665              		.loc 1 450 0 discriminator 1
 1666 006c 3B68     		ldr	r3, [r7, #0]
 1667 006e 1B88     		ldrh	r3, [r3, #0]
 1668 0070 202B     		cmp	r3, #32
 1669 0072 0BD0     		beq	.L103
 1670              		.loc 1 450 0 discriminator 2
 1671 0074 3B68     		ldr	r3, [r7, #0]
 1672 0076 1B88     		ldrh	r3, [r3, #0]
 1673 0078 302B     		cmp	r3, #48
 1674 007a 07D0     		beq	.L103
 1675              		.loc 1 450 0 discriminator 3
 1676 007c 3B68     		ldr	r3, [r7, #0]
 1677 007e 1B88     		ldrh	r3, [r3, #0]
 1678 0080 602B     		cmp	r3, #96
 1679 0082 03D0     		beq	.L103
 1680              		.loc 1 450 0 discriminator 4
 1681 0084 3B68     		ldr	r3, [r7, #0]
 1682 0086 1B88     		ldrh	r3, [r3, #0]
 1683 0088 702B     		cmp	r3, #112
 1684 008a 02D1     		bne	.L104
 1685              	.L103:
 1686              		.loc 1 450 0 discriminator 1
 1687 008c 4FF00103 		mov	r3, #1
 1688 0090 01E0     		b	.L105
 1689              	.L104:
 1690              		.loc 1 450 0 discriminator 3
 1691 0092 4FF00003 		mov	r3, #0
 1692              	.L105:
 1693              		.loc 1 450 0 discriminator 4
 1694 0096 1846     		mov	r0, r3
 1695 0098 FFF7FEFF 		bl	assert_param
 451:../libs/StdPeripheralDriver/src/stm32f10x_tim.c ****   assert_param(IS_TIM_OUTPUT_STATE(TIM_OCInitStruct->TIM_OutputState));
 1696              		.loc 1 451 0 is_stmt 1 discriminator 4
 1697 009c 3B68     		ldr	r3, [r7, #0]
 1698 009e 5B88     		ldrh	r3, [r3, #2]
 1699 00a0 002B     		cmp	r3, #0
 1700 00a2 03D0     		beq	.L106
 1701              		.loc 1 451 0 is_stmt 0 discriminator 2
 1702 00a4 3B68     		ldr	r3, [r7, #0]
 1703 00a6 5B88     		ldrh	r3, [r3, #2]
 1704 00a8 012B     		cmp	r3, #1
 1705 00aa 02D1     		bne	.L107
 1706              	.L106:
 1707              		.loc 1 451 0 discriminator 1
 1708 00ac 4FF00103 		mov	r3, #1
 1709 00b0 01E0     		b	.L108
 1710              	.L107:
 1711              		.loc 1 451 0 discriminator 3
 1712 00b2 4FF00003 		mov	r3, #0
 1713              	.L108:
 1714              		.loc 1 451 0 discriminator 4
 1715 00b6 1846     		mov	r0, r3
 1716 00b8 FFF7FEFF 		bl	assert_param
 452:../libs/StdPeripheralDriver/src/stm32f10x_tim.c ****   assert_param(IS_TIM_OC_POLARITY(TIM_OCInitStruct->TIM_OCPolarity));   
 1717              		.loc 1 452 0 is_stmt 1 discriminator 4
 1718 00bc 3B68     		ldr	r3, [r7, #0]
 1719 00be 1B89     		ldrh	r3, [r3, #8]
 1720 00c0 002B     		cmp	r3, #0
 1721 00c2 03D0     		beq	.L109
 1722              		.loc 1 452 0 is_stmt 0 discriminator 2
 1723 00c4 3B68     		ldr	r3, [r7, #0]
 1724 00c6 1B89     		ldrh	r3, [r3, #8]
 1725 00c8 022B     		cmp	r3, #2
 1726 00ca 02D1     		bne	.L110
 1727              	.L109:
 1728              		.loc 1 452 0 discriminator 1
 1729 00cc 4FF00103 		mov	r3, #1
 1730 00d0 01E0     		b	.L111
 1731              	.L110:
 1732              		.loc 1 452 0 discriminator 3
 1733 00d2 4FF00003 		mov	r3, #0
 1734              	.L111:
 1735              		.loc 1 452 0 discriminator 4
 1736 00d6 1846     		mov	r0, r3
 1737 00d8 FFF7FEFF 		bl	assert_param
 453:../libs/StdPeripheralDriver/src/stm32f10x_tim.c ****   /* Disable the Channel 2: Reset the CC2E Bit */
 454:../libs/StdPeripheralDriver/src/stm32f10x_tim.c ****   TIMx->CCER &= (uint16_t)(~((uint16_t)TIM_CCER_CC3E));
 1738              		.loc 1 454 0 is_stmt 1 discriminator 4
 1739 00dc 7B68     		ldr	r3, [r7, #4]
 1740 00de 1B8C     		ldrh	r3, [r3, #32]	@ movhi
 1741 00e0 9BB2     		uxth	r3, r3
 1742 00e2 23F48073 		bic	r3, r3, #256
 1743 00e6 9AB2     		uxth	r2, r3
 1744 00e8 7B68     		ldr	r3, [r7, #4]
 1745 00ea 1A84     		strh	r2, [r3, #32]	@ movhi
 455:../libs/StdPeripheralDriver/src/stm32f10x_tim.c ****   
 456:../libs/StdPeripheralDriver/src/stm32f10x_tim.c ****   /* Get the TIMx CCER register value */
 457:../libs/StdPeripheralDriver/src/stm32f10x_tim.c ****   tmpccer = TIMx->CCER;
 1746              		.loc 1 457 0 discriminator 4
 1747 00ec 7B68     		ldr	r3, [r7, #4]
 1748 00ee 1B8C     		ldrh	r3, [r3, #32]	@ movhi
 1749 00f0 FB81     		strh	r3, [r7, #14]	@ movhi
 458:../libs/StdPeripheralDriver/src/stm32f10x_tim.c ****   /* Get the TIMx CR2 register value */
 459:../libs/StdPeripheralDriver/src/stm32f10x_tim.c ****   tmpcr2 =  TIMx->CR2;
 1750              		.loc 1 459 0 discriminator 4
 1751 00f2 7B68     		ldr	r3, [r7, #4]
 1752 00f4 9B88     		ldrh	r3, [r3, #4]	@ movhi
 1753 00f6 BB81     		strh	r3, [r7, #12]	@ movhi
 460:../libs/StdPeripheralDriver/src/stm32f10x_tim.c ****   
 461:../libs/StdPeripheralDriver/src/stm32f10x_tim.c ****   /* Get the TIMx CCMR2 register value */
 462:../libs/StdPeripheralDriver/src/stm32f10x_tim.c ****   tmpccmrx = TIMx->CCMR2;
 1754              		.loc 1 462 0 discriminator 4
 1755 00f8 7B68     		ldr	r3, [r7, #4]
 1756 00fa 9B8B     		ldrh	r3, [r3, #28]	@ movhi
 1757 00fc 7B81     		strh	r3, [r7, #10]	@ movhi
 463:../libs/StdPeripheralDriver/src/stm32f10x_tim.c ****     
 464:../libs/StdPeripheralDriver/src/stm32f10x_tim.c ****   /* Reset the Output Compare mode and Capture/Compare selection Bits */
 465:../libs/StdPeripheralDriver/src/stm32f10x_tim.c ****   tmpccmrx &= (uint16_t)(~((uint16_t)TIM_CCMR2_OC3M));
 1758              		.loc 1 465 0 discriminator 4
 1759 00fe 7B89     		ldrh	r3, [r7, #10]	@ movhi
 1760 0100 23F07003 		bic	r3, r3, #112
 1761 0104 7B81     		strh	r3, [r7, #10]	@ movhi
 466:../libs/StdPeripheralDriver/src/stm32f10x_tim.c ****   tmpccmrx &= (uint16_t)(~((uint16_t)TIM_CCMR2_CC3S));  
 1762              		.loc 1 466 0 discriminator 4
 1763 0106 7B89     		ldrh	r3, [r7, #10]	@ movhi
 1764 0108 23F00303 		bic	r3, r3, #3
 1765 010c 7B81     		strh	r3, [r7, #10]	@ movhi
 467:../libs/StdPeripheralDriver/src/stm32f10x_tim.c ****   /* Select the Output Compare Mode */
 468:../libs/StdPeripheralDriver/src/stm32f10x_tim.c ****   tmpccmrx |= TIM_OCInitStruct->TIM_OCMode;
 1766              		.loc 1 468 0 discriminator 4
 1767 010e 3B68     		ldr	r3, [r7, #0]
 1768 0110 1A88     		ldrh	r2, [r3, #0]
 1769 0112 7B89     		ldrh	r3, [r7, #10]	@ movhi
 1770 0114 1343     		orrs	r3, r3, r2
 1771 0116 7B81     		strh	r3, [r7, #10]	@ movhi
 469:../libs/StdPeripheralDriver/src/stm32f10x_tim.c ****   
 470:../libs/StdPeripheralDriver/src/stm32f10x_tim.c ****   /* Reset the Output Polarity level */
 471:../libs/StdPeripheralDriver/src/stm32f10x_tim.c ****   tmpccer &= (uint16_t)(~((uint16_t)TIM_CCER_CC3P));
 1772              		.loc 1 471 0 discriminator 4
 1773 0118 FB89     		ldrh	r3, [r7, #14]	@ movhi
 1774 011a 23F40073 		bic	r3, r3, #512
 1775 011e FB81     		strh	r3, [r7, #14]	@ movhi
 472:../libs/StdPeripheralDriver/src/stm32f10x_tim.c ****   /* Set the Output Compare Polarity */
 473:../libs/StdPeripheralDriver/src/stm32f10x_tim.c ****   tmpccer |= (uint16_t)(TIM_OCInitStruct->TIM_OCPolarity << 8);
 1776              		.loc 1 473 0 discriminator 4
 1777 0120 3B68     		ldr	r3, [r7, #0]
 1778 0122 1B89     		ldrh	r3, [r3, #8]
 1779 0124 4FEA0323 		lsl	r3, r3, #8
 1780 0128 9AB2     		uxth	r2, r3
 1781 012a FB89     		ldrh	r3, [r7, #14]	@ movhi
 1782 012c 1343     		orrs	r3, r3, r2
 1783 012e FB81     		strh	r3, [r7, #14]	@ movhi
 474:../libs/StdPeripheralDriver/src/stm32f10x_tim.c ****   
 475:../libs/StdPeripheralDriver/src/stm32f10x_tim.c ****   /* Set the Output State */
 476:../libs/StdPeripheralDriver/src/stm32f10x_tim.c ****   tmpccer |= (uint16_t)(TIM_OCInitStruct->TIM_OutputState << 8);
 1784              		.loc 1 476 0 discriminator 4
 1785 0130 3B68     		ldr	r3, [r7, #0]
 1786 0132 5B88     		ldrh	r3, [r3, #2]
 1787 0134 4FEA0323 		lsl	r3, r3, #8
 1788 0138 9AB2     		uxth	r2, r3
 1789 013a FB89     		ldrh	r3, [r7, #14]	@ movhi
 1790 013c 1343     		orrs	r3, r3, r2
 1791 013e FB81     		strh	r3, [r7, #14]	@ movhi
 477:../libs/StdPeripheralDriver/src/stm32f10x_tim.c ****     
 478:../libs/StdPeripheralDriver/src/stm32f10x_tim.c ****   if((TIMx == TIM1) || (TIMx == TIM8))
 1792              		.loc 1 478 0 discriminator 4
 1793 0140 7A68     		ldr	r2, [r7, #4]
 1794 0142 454B     		ldr	r3, .L126
 1795 0144 9A42     		cmp	r2, r3
 1796 0146 03D0     		beq	.L112
 1797              		.loc 1 478 0 is_stmt 0 discriminator 1
 1798 0148 7A68     		ldr	r2, [r7, #4]
 1799 014a 474B     		ldr	r3, .L126+16
 1800 014c 9A42     		cmp	r2, r3
 1801 014e 71D1     		bne	.L113
 1802              	.L112:
 479:../libs/StdPeripheralDriver/src/stm32f10x_tim.c ****   {
 480:../libs/StdPeripheralDriver/src/stm32f10x_tim.c ****     assert_param(IS_TIM_OUTPUTN_STATE(TIM_OCInitStruct->TIM_OutputNState));
 1803              		.loc 1 480 0 is_stmt 1
 1804 0150 3B68     		ldr	r3, [r7, #0]
 1805 0152 9B88     		ldrh	r3, [r3, #4]
 1806 0154 002B     		cmp	r3, #0
 1807 0156 03D0     		beq	.L114
 1808              		.loc 1 480 0 is_stmt 0 discriminator 2
 1809 0158 3B68     		ldr	r3, [r7, #0]
 1810 015a 9B88     		ldrh	r3, [r3, #4]
 1811 015c 042B     		cmp	r3, #4
 1812 015e 02D1     		bne	.L115
 1813              	.L114:
 1814              		.loc 1 480 0 discriminator 1
 1815 0160 4FF00103 		mov	r3, #1
 1816 0164 01E0     		b	.L116
 1817              	.L115:
 1818              		.loc 1 480 0 discriminator 3
 1819 0166 4FF00003 		mov	r3, #0
 1820              	.L116:
 1821              		.loc 1 480 0 discriminator 4
 1822 016a 1846     		mov	r0, r3
 1823 016c FFF7FEFF 		bl	assert_param
 481:../libs/StdPeripheralDriver/src/stm32f10x_tim.c ****     assert_param(IS_TIM_OCN_POLARITY(TIM_OCInitStruct->TIM_OCNPolarity));
 1824              		.loc 1 481 0 is_stmt 1 discriminator 4
 1825 0170 3B68     		ldr	r3, [r7, #0]
 1826 0172 5B89     		ldrh	r3, [r3, #10]
 1827 0174 002B     		cmp	r3, #0
 1828 0176 03D0     		beq	.L117
 1829              		.loc 1 481 0 is_stmt 0 discriminator 2
 1830 0178 3B68     		ldr	r3, [r7, #0]
 1831 017a 5B89     		ldrh	r3, [r3, #10]
 1832 017c 082B     		cmp	r3, #8
 1833 017e 02D1     		bne	.L118
 1834              	.L117:
 1835              		.loc 1 481 0 discriminator 1
 1836 0180 4FF00103 		mov	r3, #1
 1837 0184 01E0     		b	.L119
 1838              	.L118:
 1839              		.loc 1 481 0 discriminator 3
 1840 0186 4FF00003 		mov	r3, #0
 1841              	.L119:
 1842              		.loc 1 481 0 discriminator 4
 1843 018a 1846     		mov	r0, r3
 1844 018c FFF7FEFF 		bl	assert_param
 482:../libs/StdPeripheralDriver/src/stm32f10x_tim.c ****     assert_param(IS_TIM_OCNIDLE_STATE(TIM_OCInitStruct->TIM_OCNIdleState));
 1845              		.loc 1 482 0 is_stmt 1 discriminator 4
 1846 0190 3B68     		ldr	r3, [r7, #0]
 1847 0192 DB89     		ldrh	r3, [r3, #14]
 1848 0194 B3F5007F 		cmp	r3, #512
 1849 0198 03D0     		beq	.L120
 1850              		.loc 1 482 0 is_stmt 0 discriminator 2
 1851 019a 3B68     		ldr	r3, [r7, #0]
 1852 019c DB89     		ldrh	r3, [r3, #14]
 1853 019e 002B     		cmp	r3, #0
 1854 01a0 02D1     		bne	.L121
 1855              	.L120:
 1856              		.loc 1 482 0 discriminator 1
 1857 01a2 4FF00103 		mov	r3, #1
 1858 01a6 01E0     		b	.L122
 1859              	.L121:
 1860              		.loc 1 482 0 discriminator 3
 1861 01a8 4FF00003 		mov	r3, #0
 1862              	.L122:
 1863              		.loc 1 482 0 discriminator 4
 1864 01ac 1846     		mov	r0, r3
 1865 01ae FFF7FEFF 		bl	assert_param
 483:../libs/StdPeripheralDriver/src/stm32f10x_tim.c ****     assert_param(IS_TIM_OCIDLE_STATE(TIM_OCInitStruct->TIM_OCIdleState));
 1866              		.loc 1 483 0 is_stmt 1 discriminator 4
 1867 01b2 3B68     		ldr	r3, [r7, #0]
 1868 01b4 9B89     		ldrh	r3, [r3, #12]
 1869 01b6 B3F5807F 		cmp	r3, #256
 1870 01ba 03D0     		beq	.L123
 1871              		.loc 1 483 0 is_stmt 0 discriminator 2
 1872 01bc 3B68     		ldr	r3, [r7, #0]
 1873 01be 9B89     		ldrh	r3, [r3, #12]
 1874 01c0 002B     		cmp	r3, #0
 1875 01c2 02D1     		bne	.L124
 1876              	.L123:
 1877              		.loc 1 483 0 discriminator 1
 1878 01c4 4FF00103 		mov	r3, #1
 1879 01c8 01E0     		b	.L125
 1880              	.L124:
 1881              		.loc 1 483 0 discriminator 3
 1882 01ca 4FF00003 		mov	r3, #0
 1883              	.L125:
 1884              		.loc 1 483 0 discriminator 4
 1885 01ce 1846     		mov	r0, r3
 1886 01d0 FFF7FEFF 		bl	assert_param
 484:../libs/StdPeripheralDriver/src/stm32f10x_tim.c ****     
 485:../libs/StdPeripheralDriver/src/stm32f10x_tim.c ****     /* Reset the Output N Polarity level */
 486:../libs/StdPeripheralDriver/src/stm32f10x_tim.c ****     tmpccer &= (uint16_t)(~((uint16_t)TIM_CCER_CC3NP));
 1887              		.loc 1 486 0 is_stmt 1 discriminator 4
 1888 01d4 FB89     		ldrh	r3, [r7, #14]	@ movhi
 1889 01d6 23F40063 		bic	r3, r3, #2048
 1890 01da FB81     		strh	r3, [r7, #14]	@ movhi
 487:../libs/StdPeripheralDriver/src/stm32f10x_tim.c ****     /* Set the Output N Polarity */
 488:../libs/StdPeripheralDriver/src/stm32f10x_tim.c ****     tmpccer |= (uint16_t)(TIM_OCInitStruct->TIM_OCNPolarity << 8);
 1891              		.loc 1 488 0 discriminator 4
 1892 01dc 3B68     		ldr	r3, [r7, #0]
 1893 01de 5B89     		ldrh	r3, [r3, #10]
 1894 01e0 4FEA0323 		lsl	r3, r3, #8
 1895 01e4 9AB2     		uxth	r2, r3
 1896 01e6 FB89     		ldrh	r3, [r7, #14]	@ movhi
 1897 01e8 1343     		orrs	r3, r3, r2
 1898 01ea FB81     		strh	r3, [r7, #14]	@ movhi
 489:../libs/StdPeripheralDriver/src/stm32f10x_tim.c ****     /* Reset the Output N State */
 490:../libs/StdPeripheralDriver/src/stm32f10x_tim.c ****     tmpccer &= (uint16_t)(~((uint16_t)TIM_CCER_CC3NE));
 1899              		.loc 1 490 0 discriminator 4
 1900 01ec FB89     		ldrh	r3, [r7, #14]	@ movhi
 1901 01ee 23F48063 		bic	r3, r3, #1024
 1902 01f2 FB81     		strh	r3, [r7, #14]	@ movhi
 491:../libs/StdPeripheralDriver/src/stm32f10x_tim.c ****     
 492:../libs/StdPeripheralDriver/src/stm32f10x_tim.c ****     /* Set the Output N State */
 493:../libs/StdPeripheralDriver/src/stm32f10x_tim.c ****     tmpccer |= (uint16_t)(TIM_OCInitStruct->TIM_OutputNState << 8);
 1903              		.loc 1 493 0 discriminator 4
 1904 01f4 3B68     		ldr	r3, [r7, #0]
 1905 01f6 9B88     		ldrh	r3, [r3, #4]
 1906 01f8 4FEA0323 		lsl	r3, r3, #8
 1907 01fc 9AB2     		uxth	r2, r3
 1908 01fe FB89     		ldrh	r3, [r7, #14]	@ movhi
 1909 0200 1343     		orrs	r3, r3, r2
 1910 0202 FB81     		strh	r3, [r7, #14]	@ movhi
 494:../libs/StdPeripheralDriver/src/stm32f10x_tim.c ****     /* Reset the Output Compare and Output Compare N IDLE State */
 495:../libs/StdPeripheralDriver/src/stm32f10x_tim.c ****     tmpcr2 &= (uint16_t)(~((uint16_t)TIM_CR2_OIS3));
 1911              		.loc 1 495 0 discriminator 4
 1912 0204 BB89     		ldrh	r3, [r7, #12]	@ movhi
 1913 0206 23F48053 		bic	r3, r3, #4096
 1914 020a BB81     		strh	r3, [r7, #12]	@ movhi
 496:../libs/StdPeripheralDriver/src/stm32f10x_tim.c ****     tmpcr2 &= (uint16_t)(~((uint16_t)TIM_CR2_OIS3N));
 1915              		.loc 1 496 0 discriminator 4
 1916 020c BB89     		ldrh	r3, [r7, #12]	@ movhi
 1917 020e 23F40053 		bic	r3, r3, #8192
 1918 0212 BB81     		strh	r3, [r7, #12]	@ movhi
 497:../libs/StdPeripheralDriver/src/stm32f10x_tim.c ****     /* Set the Output Idle state */
 498:../libs/StdPeripheralDriver/src/stm32f10x_tim.c ****     tmpcr2 |= (uint16_t)(TIM_OCInitStruct->TIM_OCIdleState << 4);
 1919              		.loc 1 498 0 discriminator 4
 1920 0214 3B68     		ldr	r3, [r7, #0]
 1921 0216 9B89     		ldrh	r3, [r3, #12]
 1922 0218 4FEA0313 		lsl	r3, r3, #4
 1923 021c 9AB2     		uxth	r2, r3
 1924 021e BB89     		ldrh	r3, [r7, #12]	@ movhi
 1925 0220 1343     		orrs	r3, r3, r2
 1926 0222 BB81     		strh	r3, [r7, #12]	@ movhi
 499:../libs/StdPeripheralDriver/src/stm32f10x_tim.c ****     /* Set the Output N Idle state */
 500:../libs/StdPeripheralDriver/src/stm32f10x_tim.c ****     tmpcr2 |= (uint16_t)(TIM_OCInitStruct->TIM_OCNIdleState << 4);
 1927              		.loc 1 500 0 discriminator 4
 1928 0224 3B68     		ldr	r3, [r7, #0]
 1929 0226 DB89     		ldrh	r3, [r3, #14]
 1930 0228 4FEA0313 		lsl	r3, r3, #4
 1931 022c 9AB2     		uxth	r2, r3
 1932 022e BB89     		ldrh	r3, [r7, #12]	@ movhi
 1933 0230 1343     		orrs	r3, r3, r2
 1934 0232 BB81     		strh	r3, [r7, #12]	@ movhi
 1935              	.L113:
 501:../libs/StdPeripheralDriver/src/stm32f10x_tim.c ****   }
 502:../libs/StdPeripheralDriver/src/stm32f10x_tim.c ****   /* Write to TIMx CR2 */
 503:../libs/StdPeripheralDriver/src/stm32f10x_tim.c ****   TIMx->CR2 = tmpcr2;
 1936              		.loc 1 503 0
 1937 0234 7B68     		ldr	r3, [r7, #4]
 1938 0236 BA89     		ldrh	r2, [r7, #12]	@ movhi
 1939 0238 9A80     		strh	r2, [r3, #4]	@ movhi
 504:../libs/StdPeripheralDriver/src/stm32f10x_tim.c ****   
 505:../libs/StdPeripheralDriver/src/stm32f10x_tim.c ****   /* Write to TIMx CCMR2 */
 506:../libs/StdPeripheralDriver/src/stm32f10x_tim.c ****   TIMx->CCMR2 = tmpccmrx;
 1940              		.loc 1 506 0
 1941 023a 7B68     		ldr	r3, [r7, #4]
 1942 023c 7A89     		ldrh	r2, [r7, #10]	@ movhi
 1943 023e 9A83     		strh	r2, [r3, #28]	@ movhi
 507:../libs/StdPeripheralDriver/src/stm32f10x_tim.c **** 
 508:../libs/StdPeripheralDriver/src/stm32f10x_tim.c ****   /* Set the Capture Compare Register value */
 509:../libs/StdPeripheralDriver/src/stm32f10x_tim.c ****   TIMx->CCR3 = TIM_OCInitStruct->TIM_Pulse;
 1944              		.loc 1 509 0
 1945 0240 3B68     		ldr	r3, [r7, #0]
 1946 0242 DA88     		ldrh	r2, [r3, #6]
 1947 0244 7B68     		ldr	r3, [r7, #4]
 1948 0246 9A87     		strh	r2, [r3, #60]	@ movhi
 510:../libs/StdPeripheralDriver/src/stm32f10x_tim.c ****   
 511:../libs/StdPeripheralDriver/src/stm32f10x_tim.c ****   /* Write to TIMx CCER */
 512:../libs/StdPeripheralDriver/src/stm32f10x_tim.c ****   TIMx->CCER = tmpccer;
 1949              		.loc 1 512 0
 1950 0248 7B68     		ldr	r3, [r7, #4]
 1951 024a FA89     		ldrh	r2, [r7, #14]	@ movhi
 1952 024c 1A84     		strh	r2, [r3, #32]	@ movhi
 513:../libs/StdPeripheralDriver/src/stm32f10x_tim.c **** }
 1953              		.loc 1 513 0
 1954 024e 07F11007 		add	r7, r7, #16
 1955 0252 BD46     		mov	sp, r7
 1956 0254 80BD     		pop	{r7, pc}
 1957              	.L127:
 1958 0256 00BF     		.align	2
 1959              	.L126:
 1960 0258 002C0140 		.word	1073818624
 1961 025c 00040040 		.word	1073742848
 1962 0260 00080040 		.word	1073743872
 1963 0264 000C0040 		.word	1073744896
 1964 0268 00340140 		.word	1073820672
 1965              		.cfi_endproc
 1966              	.LFE33:
 1968              		.section	.text.TIM_OC4Init,"ax",%progbits
 1969              		.align	2
 1970              		.global	TIM_OC4Init
 1971              		.thumb
 1972              		.thumb_func
 1974              	TIM_OC4Init:
 1975              	.LFB34:
 514:../libs/StdPeripheralDriver/src/stm32f10x_tim.c **** 
 515:../libs/StdPeripheralDriver/src/stm32f10x_tim.c **** /**
 516:../libs/StdPeripheralDriver/src/stm32f10x_tim.c ****   * @brief  Initializes the TIMx Channel4 according to the specified
 517:../libs/StdPeripheralDriver/src/stm32f10x_tim.c ****   *         parameters in the TIM_OCInitStruct.
 518:../libs/StdPeripheralDriver/src/stm32f10x_tim.c ****   * @param  TIMx: where x can be  1, 2, 3, 4, 5 or 8 to select the TIM peripheral.
 519:../libs/StdPeripheralDriver/src/stm32f10x_tim.c ****   * @param  TIM_OCInitStruct: pointer to a TIM_OCInitTypeDef structure
 520:../libs/StdPeripheralDriver/src/stm32f10x_tim.c ****   *         that contains the configuration information for the specified TIM peripheral.
 521:../libs/StdPeripheralDriver/src/stm32f10x_tim.c ****   * @retval None
 522:../libs/StdPeripheralDriver/src/stm32f10x_tim.c ****   */
 523:../libs/StdPeripheralDriver/src/stm32f10x_tim.c **** void TIM_OC4Init(TIM_TypeDef* TIMx, TIM_OCInitTypeDef* TIM_OCInitStruct)
 524:../libs/StdPeripheralDriver/src/stm32f10x_tim.c **** {
 1976              		.loc 1 524 0
 1977              		.cfi_startproc
 1978              		@ args = 0, pretend = 0, frame = 16
 1979              		@ frame_needed = 1, uses_anonymous_args = 0
 1980 0000 80B5     		push	{r7, lr}
 1981              	.LCFI15:
 1982              		.cfi_def_cfa_offset 8
 1983              		.cfi_offset 7, -8
 1984              		.cfi_offset 14, -4
 1985 0002 84B0     		sub	sp, sp, #16
 1986              	.LCFI16:
 1987              		.cfi_def_cfa_offset 24
 1988 0004 00AF     		add	r7, sp, #0
 1989              	.LCFI17:
 1990              		.cfi_def_cfa_register 7
 1991 0006 7860     		str	r0, [r7, #4]
 1992 0008 3960     		str	r1, [r7, #0]
 525:../libs/StdPeripheralDriver/src/stm32f10x_tim.c ****   uint16_t tmpccmrx = 0, tmpccer = 0, tmpcr2 = 0;
 1993              		.loc 1 525 0
 1994 000a 4FF00003 		mov	r3, #0
 1995 000e BB81     		strh	r3, [r7, #12]	@ movhi
 1996 0010 4FF00003 		mov	r3, #0
 1997 0014 7B81     		strh	r3, [r7, #10]	@ movhi
 1998 0016 4FF00003 		mov	r3, #0
 1999 001a FB81     		strh	r3, [r7, #14]	@ movhi
 526:../libs/StdPeripheralDriver/src/stm32f10x_tim.c ****    
 527:../libs/StdPeripheralDriver/src/stm32f10x_tim.c ****   /* Check the parameters */
 528:../libs/StdPeripheralDriver/src/stm32f10x_tim.c ****   assert_param(IS_TIM_LIST3_PERIPH(TIMx)); 
 2000              		.loc 1 528 0
 2001 001c 7A68     		ldr	r2, [r7, #4]
 2002 001e 654B     		ldr	r3, .L146
 2003 0020 9A42     		cmp	r2, r3
 2004 0022 13D0     		beq	.L129
 2005              		.loc 1 528 0 is_stmt 0 discriminator 2
 2006 0024 7B68     		ldr	r3, [r7, #4]
 2007 0026 B3F1804F 		cmp	r3, #1073741824
 2008 002a 0FD0     		beq	.L129
 2009              		.loc 1 528 0 discriminator 1
 2010 002c 7A68     		ldr	r2, [r7, #4]
 2011 002e 624B     		ldr	r3, .L146+4
 2012 0030 9A42     		cmp	r2, r3
 2013 0032 0BD0     		beq	.L129
 2014              		.loc 1 528 0 discriminator 2
 2015 0034 7A68     		ldr	r2, [r7, #4]
 2016 0036 614B     		ldr	r3, .L146+8
 2017 0038 9A42     		cmp	r2, r3
 2018 003a 07D0     		beq	.L129
 2019              		.loc 1 528 0 discriminator 3
 2020 003c 7A68     		ldr	r2, [r7, #4]
 2021 003e 604B     		ldr	r3, .L146+12
 2022 0040 9A42     		cmp	r2, r3
 2023 0042 03D0     		beq	.L129
 2024              		.loc 1 528 0 discriminator 4
 2025 0044 7A68     		ldr	r2, [r7, #4]
 2026 0046 5F4B     		ldr	r3, .L146+16
 2027 0048 9A42     		cmp	r2, r3
 2028 004a 02D1     		bne	.L130
 2029              	.L129:
 2030              		.loc 1 528 0 discriminator 1
 2031 004c 4FF00103 		mov	r3, #1
 2032 0050 01E0     		b	.L131
 2033              	.L130:
 2034              		.loc 1 528 0 discriminator 3
 2035 0052 4FF00003 		mov	r3, #0
 2036              	.L131:
 2037              		.loc 1 528 0 discriminator 4
 2038 0056 1846     		mov	r0, r3
 2039 0058 FFF7FEFF 		bl	assert_param
 529:../libs/StdPeripheralDriver/src/stm32f10x_tim.c ****   assert_param(IS_TIM_OC_MODE(TIM_OCInitStruct->TIM_OCMode));
 2040              		.loc 1 529 0 is_stmt 1 discriminator 4
 2041 005c 3B68     		ldr	r3, [r7, #0]
 2042 005e 1B88     		ldrh	r3, [r3, #0]
 2043 0060 002B     		cmp	r3, #0
 2044 0062 13D0     		beq	.L132
 2045              		.loc 1 529 0 is_stmt 0 discriminator 2
 2046 0064 3B68     		ldr	r3, [r7, #0]
 2047 0066 1B88     		ldrh	r3, [r3, #0]
 2048 0068 102B     		cmp	r3, #16
 2049 006a 0FD0     		beq	.L132
 2050              		.loc 1 529 0 discriminator 1
 2051 006c 3B68     		ldr	r3, [r7, #0]
 2052 006e 1B88     		ldrh	r3, [r3, #0]
 2053 0070 202B     		cmp	r3, #32
 2054 0072 0BD0     		beq	.L132
 2055              		.loc 1 529 0 discriminator 2
 2056 0074 3B68     		ldr	r3, [r7, #0]
 2057 0076 1B88     		ldrh	r3, [r3, #0]
 2058 0078 302B     		cmp	r3, #48
 2059 007a 07D0     		beq	.L132
 2060              		.loc 1 529 0 discriminator 3
 2061 007c 3B68     		ldr	r3, [r7, #0]
 2062 007e 1B88     		ldrh	r3, [r3, #0]
 2063 0080 602B     		cmp	r3, #96
 2064 0082 03D0     		beq	.L132
 2065              		.loc 1 529 0 discriminator 4
 2066 0084 3B68     		ldr	r3, [r7, #0]
 2067 0086 1B88     		ldrh	r3, [r3, #0]
 2068 0088 702B     		cmp	r3, #112
 2069 008a 02D1     		bne	.L133
 2070              	.L132:
 2071              		.loc 1 529 0 discriminator 1
 2072 008c 4FF00103 		mov	r3, #1
 2073 0090 01E0     		b	.L134
 2074              	.L133:
 2075              		.loc 1 529 0 discriminator 3
 2076 0092 4FF00003 		mov	r3, #0
 2077              	.L134:
 2078              		.loc 1 529 0 discriminator 4
 2079 0096 1846     		mov	r0, r3
 2080 0098 FFF7FEFF 		bl	assert_param
 530:../libs/StdPeripheralDriver/src/stm32f10x_tim.c ****   assert_param(IS_TIM_OUTPUT_STATE(TIM_OCInitStruct->TIM_OutputState));
 2081              		.loc 1 530 0 is_stmt 1 discriminator 4
 2082 009c 3B68     		ldr	r3, [r7, #0]
 2083 009e 5B88     		ldrh	r3, [r3, #2]
 2084 00a0 002B     		cmp	r3, #0
 2085 00a2 03D0     		beq	.L135
 2086              		.loc 1 530 0 is_stmt 0 discriminator 2
 2087 00a4 3B68     		ldr	r3, [r7, #0]
 2088 00a6 5B88     		ldrh	r3, [r3, #2]
 2089 00a8 012B     		cmp	r3, #1
 2090 00aa 02D1     		bne	.L136
 2091              	.L135:
 2092              		.loc 1 530 0 discriminator 1
 2093 00ac 4FF00103 		mov	r3, #1
 2094 00b0 01E0     		b	.L137
 2095              	.L136:
 2096              		.loc 1 530 0 discriminator 3
 2097 00b2 4FF00003 		mov	r3, #0
 2098              	.L137:
 2099              		.loc 1 530 0 discriminator 4
 2100 00b6 1846     		mov	r0, r3
 2101 00b8 FFF7FEFF 		bl	assert_param
 531:../libs/StdPeripheralDriver/src/stm32f10x_tim.c ****   assert_param(IS_TIM_OC_POLARITY(TIM_OCInitStruct->TIM_OCPolarity));   
 2102              		.loc 1 531 0 is_stmt 1 discriminator 4
 2103 00bc 3B68     		ldr	r3, [r7, #0]
 2104 00be 1B89     		ldrh	r3, [r3, #8]
 2105 00c0 002B     		cmp	r3, #0
 2106 00c2 03D0     		beq	.L138
 2107              		.loc 1 531 0 is_stmt 0 discriminator 2
 2108 00c4 3B68     		ldr	r3, [r7, #0]
 2109 00c6 1B89     		ldrh	r3, [r3, #8]
 2110 00c8 022B     		cmp	r3, #2
 2111 00ca 02D1     		bne	.L139
 2112              	.L138:
 2113              		.loc 1 531 0 discriminator 1
 2114 00cc 4FF00103 		mov	r3, #1
 2115 00d0 01E0     		b	.L140
 2116              	.L139:
 2117              		.loc 1 531 0 discriminator 3
 2118 00d2 4FF00003 		mov	r3, #0
 2119              	.L140:
 2120              		.loc 1 531 0 discriminator 4
 2121 00d6 1846     		mov	r0, r3
 2122 00d8 FFF7FEFF 		bl	assert_param
 532:../libs/StdPeripheralDriver/src/stm32f10x_tim.c ****   /* Disable the Channel 2: Reset the CC4E Bit */
 533:../libs/StdPeripheralDriver/src/stm32f10x_tim.c ****   TIMx->CCER &= (uint16_t)(~((uint16_t)TIM_CCER_CC4E));
 2123              		.loc 1 533 0 is_stmt 1 discriminator 4
 2124 00dc 7B68     		ldr	r3, [r7, #4]
 2125 00de 1B8C     		ldrh	r3, [r3, #32]	@ movhi
 2126 00e0 9BB2     		uxth	r3, r3
 2127 00e2 23F48053 		bic	r3, r3, #4096
 2128 00e6 9AB2     		uxth	r2, r3
 2129 00e8 7B68     		ldr	r3, [r7, #4]
 2130 00ea 1A84     		strh	r2, [r3, #32]	@ movhi
 534:../libs/StdPeripheralDriver/src/stm32f10x_tim.c ****   
 535:../libs/StdPeripheralDriver/src/stm32f10x_tim.c ****   /* Get the TIMx CCER register value */
 536:../libs/StdPeripheralDriver/src/stm32f10x_tim.c ****   tmpccer = TIMx->CCER;
 2131              		.loc 1 536 0 discriminator 4
 2132 00ec 7B68     		ldr	r3, [r7, #4]
 2133 00ee 1B8C     		ldrh	r3, [r3, #32]	@ movhi
 2134 00f0 7B81     		strh	r3, [r7, #10]	@ movhi
 537:../libs/StdPeripheralDriver/src/stm32f10x_tim.c ****   /* Get the TIMx CR2 register value */
 538:../libs/StdPeripheralDriver/src/stm32f10x_tim.c ****   tmpcr2 =  TIMx->CR2;
 2135              		.loc 1 538 0 discriminator 4
 2136 00f2 7B68     		ldr	r3, [r7, #4]
 2137 00f4 9B88     		ldrh	r3, [r3, #4]	@ movhi
 2138 00f6 FB81     		strh	r3, [r7, #14]	@ movhi
 539:../libs/StdPeripheralDriver/src/stm32f10x_tim.c ****   
 540:../libs/StdPeripheralDriver/src/stm32f10x_tim.c ****   /* Get the TIMx CCMR2 register value */
 541:../libs/StdPeripheralDriver/src/stm32f10x_tim.c ****   tmpccmrx = TIMx->CCMR2;
 2139              		.loc 1 541 0 discriminator 4
 2140 00f8 7B68     		ldr	r3, [r7, #4]
 2141 00fa 9B8B     		ldrh	r3, [r3, #28]	@ movhi
 2142 00fc BB81     		strh	r3, [r7, #12]	@ movhi
 542:../libs/StdPeripheralDriver/src/stm32f10x_tim.c ****     
 543:../libs/StdPeripheralDriver/src/stm32f10x_tim.c ****   /* Reset the Output Compare mode and Capture/Compare selection Bits */
 544:../libs/StdPeripheralDriver/src/stm32f10x_tim.c ****   tmpccmrx &= (uint16_t)(~((uint16_t)TIM_CCMR2_OC4M));
 2143              		.loc 1 544 0 discriminator 4
 2144 00fe BB89     		ldrh	r3, [r7, #12]	@ movhi
 2145 0100 23F4E043 		bic	r3, r3, #28672
 2146 0104 BB81     		strh	r3, [r7, #12]	@ movhi
 545:../libs/StdPeripheralDriver/src/stm32f10x_tim.c ****   tmpccmrx &= (uint16_t)(~((uint16_t)TIM_CCMR2_CC4S));
 2147              		.loc 1 545 0 discriminator 4
 2148 0106 BB89     		ldrh	r3, [r7, #12]	@ movhi
 2149 0108 23F44073 		bic	r3, r3, #768
 2150 010c BB81     		strh	r3, [r7, #12]	@ movhi
 546:../libs/StdPeripheralDriver/src/stm32f10x_tim.c ****   
 547:../libs/StdPeripheralDriver/src/stm32f10x_tim.c ****   /* Select the Output Compare Mode */
 548:../libs/StdPeripheralDriver/src/stm32f10x_tim.c ****   tmpccmrx |= (uint16_t)(TIM_OCInitStruct->TIM_OCMode << 8);
 2151              		.loc 1 548 0 discriminator 4
 2152 010e 3B68     		ldr	r3, [r7, #0]
 2153 0110 1B88     		ldrh	r3, [r3, #0]
 2154 0112 4FEA0323 		lsl	r3, r3, #8
 2155 0116 9AB2     		uxth	r2, r3
 2156 0118 BB89     		ldrh	r3, [r7, #12]	@ movhi
 2157 011a 1343     		orrs	r3, r3, r2
 2158 011c BB81     		strh	r3, [r7, #12]	@ movhi
 549:../libs/StdPeripheralDriver/src/stm32f10x_tim.c ****   
 550:../libs/StdPeripheralDriver/src/stm32f10x_tim.c ****   /* Reset the Output Polarity level */
 551:../libs/StdPeripheralDriver/src/stm32f10x_tim.c ****   tmpccer &= (uint16_t)(~((uint16_t)TIM_CCER_CC4P));
 2159              		.loc 1 551 0 discriminator 4
 2160 011e 7B89     		ldrh	r3, [r7, #10]	@ movhi
 2161 0120 23F40053 		bic	r3, r3, #8192
 2162 0124 7B81     		strh	r3, [r7, #10]	@ movhi
 552:../libs/StdPeripheralDriver/src/stm32f10x_tim.c ****   /* Set the Output Compare Polarity */
 553:../libs/StdPeripheralDriver/src/stm32f10x_tim.c ****   tmpccer |= (uint16_t)(TIM_OCInitStruct->TIM_OCPolarity << 12);
 2163              		.loc 1 553 0 discriminator 4
 2164 0126 3B68     		ldr	r3, [r7, #0]
 2165 0128 1B89     		ldrh	r3, [r3, #8]
 2166 012a 4FEA0333 		lsl	r3, r3, #12
 2167 012e 9AB2     		uxth	r2, r3
 2168 0130 7B89     		ldrh	r3, [r7, #10]	@ movhi
 2169 0132 1343     		orrs	r3, r3, r2
 2170 0134 7B81     		strh	r3, [r7, #10]	@ movhi
 554:../libs/StdPeripheralDriver/src/stm32f10x_tim.c ****   
 555:../libs/StdPeripheralDriver/src/stm32f10x_tim.c ****   /* Set the Output State */
 556:../libs/StdPeripheralDriver/src/stm32f10x_tim.c ****   tmpccer |= (uint16_t)(TIM_OCInitStruct->TIM_OutputState << 12);
 2171              		.loc 1 556 0 discriminator 4
 2172 0136 3B68     		ldr	r3, [r7, #0]
 2173 0138 5B88     		ldrh	r3, [r3, #2]
 2174 013a 4FEA0333 		lsl	r3, r3, #12
 2175 013e 9AB2     		uxth	r2, r3
 2176 0140 7B89     		ldrh	r3, [r7, #10]	@ movhi
 2177 0142 1343     		orrs	r3, r3, r2
 2178 0144 7B81     		strh	r3, [r7, #10]	@ movhi
 557:../libs/StdPeripheralDriver/src/stm32f10x_tim.c ****     
 558:../libs/StdPeripheralDriver/src/stm32f10x_tim.c ****   if((TIMx == TIM1) || (TIMx == TIM8))
 2179              		.loc 1 558 0 discriminator 4
 2180 0146 7A68     		ldr	r2, [r7, #4]
 2181 0148 1A4B     		ldr	r3, .L146
 2182 014a 9A42     		cmp	r2, r3
 2183 014c 03D0     		beq	.L141
 2184              		.loc 1 558 0 is_stmt 0 discriminator 1
 2185 014e 7A68     		ldr	r2, [r7, #4]
 2186 0150 1C4B     		ldr	r3, .L146+16
 2187 0152 9A42     		cmp	r2, r3
 2188 0154 1CD1     		bne	.L142
 2189              	.L141:
 559:../libs/StdPeripheralDriver/src/stm32f10x_tim.c ****   {
 560:../libs/StdPeripheralDriver/src/stm32f10x_tim.c ****     assert_param(IS_TIM_OCIDLE_STATE(TIM_OCInitStruct->TIM_OCIdleState));
 2190              		.loc 1 560 0 is_stmt 1
 2191 0156 3B68     		ldr	r3, [r7, #0]
 2192 0158 9B89     		ldrh	r3, [r3, #12]
 2193 015a B3F5807F 		cmp	r3, #256
 2194 015e 03D0     		beq	.L143
 2195              		.loc 1 560 0 is_stmt 0 discriminator 2
 2196 0160 3B68     		ldr	r3, [r7, #0]
 2197 0162 9B89     		ldrh	r3, [r3, #12]
 2198 0164 002B     		cmp	r3, #0
 2199 0166 02D1     		bne	.L144
 2200              	.L143:
 2201              		.loc 1 560 0 discriminator 1
 2202 0168 4FF00103 		mov	r3, #1
 2203 016c 01E0     		b	.L145
 2204              	.L144:
 2205              		.loc 1 560 0 discriminator 3
 2206 016e 4FF00003 		mov	r3, #0
 2207              	.L145:
 2208              		.loc 1 560 0 discriminator 4
 2209 0172 1846     		mov	r0, r3
 2210 0174 FFF7FEFF 		bl	assert_param
 561:../libs/StdPeripheralDriver/src/stm32f10x_tim.c ****     /* Reset the Output Compare IDLE State */
 562:../libs/StdPeripheralDriver/src/stm32f10x_tim.c ****     tmpcr2 &= (uint16_t)(~((uint16_t)TIM_CR2_OIS4));
 2211              		.loc 1 562 0 is_stmt 1 discriminator 4
 2212 0178 FB89     		ldrh	r3, [r7, #14]	@ movhi
 2213 017a 23F48043 		bic	r3, r3, #16384
 2214 017e FB81     		strh	r3, [r7, #14]	@ movhi
 563:../libs/StdPeripheralDriver/src/stm32f10x_tim.c ****     /* Set the Output Idle state */
 564:../libs/StdPeripheralDriver/src/stm32f10x_tim.c ****     tmpcr2 |= (uint16_t)(TIM_OCInitStruct->TIM_OCIdleState << 6);
 2215              		.loc 1 564 0 discriminator 4
 2216 0180 3B68     		ldr	r3, [r7, #0]
 2217 0182 9B89     		ldrh	r3, [r3, #12]
 2218 0184 4FEA8313 		lsl	r3, r3, #6
 2219 0188 9AB2     		uxth	r2, r3
 2220 018a FB89     		ldrh	r3, [r7, #14]	@ movhi
 2221 018c 1343     		orrs	r3, r3, r2
 2222 018e FB81     		strh	r3, [r7, #14]	@ movhi
 2223              	.L142:
 565:../libs/StdPeripheralDriver/src/stm32f10x_tim.c ****   }
 566:../libs/StdPeripheralDriver/src/stm32f10x_tim.c ****   /* Write to TIMx CR2 */
 567:../libs/StdPeripheralDriver/src/stm32f10x_tim.c ****   TIMx->CR2 = tmpcr2;
 2224              		.loc 1 567 0
 2225 0190 7B68     		ldr	r3, [r7, #4]
 2226 0192 FA89     		ldrh	r2, [r7, #14]	@ movhi
 2227 0194 9A80     		strh	r2, [r3, #4]	@ movhi
 568:../libs/StdPeripheralDriver/src/stm32f10x_tim.c ****   
 569:../libs/StdPeripheralDriver/src/stm32f10x_tim.c ****   /* Write to TIMx CCMR2 */  
 570:../libs/StdPeripheralDriver/src/stm32f10x_tim.c ****   TIMx->CCMR2 = tmpccmrx;
 2228              		.loc 1 570 0
 2229 0196 7B68     		ldr	r3, [r7, #4]
 2230 0198 BA89     		ldrh	r2, [r7, #12]	@ movhi
 2231 019a 9A83     		strh	r2, [r3, #28]	@ movhi
 571:../libs/StdPeripheralDriver/src/stm32f10x_tim.c **** 
 572:../libs/StdPeripheralDriver/src/stm32f10x_tim.c ****   /* Set the Capture Compare Register value */
 573:../libs/StdPeripheralDriver/src/stm32f10x_tim.c ****   TIMx->CCR4 = TIM_OCInitStruct->TIM_Pulse;
 2232              		.loc 1 573 0
 2233 019c 3B68     		ldr	r3, [r7, #0]
 2234 019e DA88     		ldrh	r2, [r3, #6]
 2235 01a0 7B68     		ldr	r3, [r7, #4]
 2236 01a2 A3F84020 		strh	r2, [r3, #64]	@ movhi
 574:../libs/StdPeripheralDriver/src/stm32f10x_tim.c ****   
 575:../libs/StdPeripheralDriver/src/stm32f10x_tim.c ****   /* Write to TIMx CCER */
 576:../libs/StdPeripheralDriver/src/stm32f10x_tim.c ****   TIMx->CCER = tmpccer;
 2237              		.loc 1 576 0
 2238 01a6 7B68     		ldr	r3, [r7, #4]
 2239 01a8 7A89     		ldrh	r2, [r7, #10]	@ movhi
 2240 01aa 1A84     		strh	r2, [r3, #32]	@ movhi
 577:../libs/StdPeripheralDriver/src/stm32f10x_tim.c **** }
 2241              		.loc 1 577 0
 2242 01ac 07F11007 		add	r7, r7, #16
 2243 01b0 BD46     		mov	sp, r7
 2244 01b2 80BD     		pop	{r7, pc}
 2245              	.L147:
 2246              		.align	2
 2247              	.L146:
 2248 01b4 002C0140 		.word	1073818624
 2249 01b8 00040040 		.word	1073742848
 2250 01bc 00080040 		.word	1073743872
 2251 01c0 000C0040 		.word	1073744896
 2252 01c4 00340140 		.word	1073820672
 2253              		.cfi_endproc
 2254              	.LFE34:
 2256              		.section	.text.TIM_ICInit,"ax",%progbits
 2257              		.align	2
 2258              		.global	TIM_ICInit
 2259              		.thumb
 2260              		.thumb_func
 2262              	TIM_ICInit:
 2263              	.LFB35:
 578:../libs/StdPeripheralDriver/src/stm32f10x_tim.c **** 
 579:../libs/StdPeripheralDriver/src/stm32f10x_tim.c **** /**
 580:../libs/StdPeripheralDriver/src/stm32f10x_tim.c ****   * @brief  Initializes the TIM peripheral according to the specified
 581:../libs/StdPeripheralDriver/src/stm32f10x_tim.c ****   *         parameters in the TIM_ICInitStruct.
 582:../libs/StdPeripheralDriver/src/stm32f10x_tim.c ****   * @param  TIMx: where x can be  1 to 17 except 6 and 7 to select the TIM peripheral.
 583:../libs/StdPeripheralDriver/src/stm32f10x_tim.c ****   * @param  TIM_ICInitStruct: pointer to a TIM_ICInitTypeDef structure
 584:../libs/StdPeripheralDriver/src/stm32f10x_tim.c ****   *         that contains the configuration information for the specified TIM peripheral.
 585:../libs/StdPeripheralDriver/src/stm32f10x_tim.c ****   * @retval None
 586:../libs/StdPeripheralDriver/src/stm32f10x_tim.c ****   */
 587:../libs/StdPeripheralDriver/src/stm32f10x_tim.c **** void TIM_ICInit(TIM_TypeDef* TIMx, TIM_ICInitTypeDef* TIM_ICInitStruct)
 588:../libs/StdPeripheralDriver/src/stm32f10x_tim.c **** {
 2264              		.loc 1 588 0
 2265              		.cfi_startproc
 2266              		@ args = 0, pretend = 0, frame = 8
 2267              		@ frame_needed = 1, uses_anonymous_args = 0
 2268 0000 80B5     		push	{r7, lr}
 2269              	.LCFI18:
 2270              		.cfi_def_cfa_offset 8
 2271              		.cfi_offset 7, -8
 2272              		.cfi_offset 14, -4
 2273 0002 82B0     		sub	sp, sp, #8
 2274              	.LCFI19:
 2275              		.cfi_def_cfa_offset 16
 2276 0004 00AF     		add	r7, sp, #0
 2277              	.LCFI20:
 2278              		.cfi_def_cfa_register 7
 2279 0006 7860     		str	r0, [r7, #4]
 2280 0008 3960     		str	r1, [r7, #0]
 589:../libs/StdPeripheralDriver/src/stm32f10x_tim.c ****   /* Check the parameters */
 590:../libs/StdPeripheralDriver/src/stm32f10x_tim.c ****   assert_param(IS_TIM_CHANNEL(TIM_ICInitStruct->TIM_Channel));  
 2281              		.loc 1 590 0
 2282 000a 3B68     		ldr	r3, [r7, #0]
 2283 000c 1B88     		ldrh	r3, [r3, #0]
 2284 000e 002B     		cmp	r3, #0
 2285 0010 0BD0     		beq	.L149
 2286              		.loc 1 590 0 is_stmt 0 discriminator 2
 2287 0012 3B68     		ldr	r3, [r7, #0]
 2288 0014 1B88     		ldrh	r3, [r3, #0]
 2289 0016 042B     		cmp	r3, #4
 2290 0018 07D0     		beq	.L149
 2291              		.loc 1 590 0 discriminator 1
 2292 001a 3B68     		ldr	r3, [r7, #0]
 2293 001c 1B88     		ldrh	r3, [r3, #0]
 2294 001e 082B     		cmp	r3, #8
 2295 0020 03D0     		beq	.L149
 2296              		.loc 1 590 0 discriminator 2
 2297 0022 3B68     		ldr	r3, [r7, #0]
 2298 0024 1B88     		ldrh	r3, [r3, #0]
 2299 0026 0C2B     		cmp	r3, #12
 2300 0028 02D1     		bne	.L150
 2301              	.L149:
 2302              		.loc 1 590 0 discriminator 1
 2303 002a 4FF00103 		mov	r3, #1
 2304 002e 01E0     		b	.L151
 2305              	.L150:
 2306              		.loc 1 590 0 discriminator 3
 2307 0030 4FF00003 		mov	r3, #0
 2308              	.L151:
 2309              		.loc 1 590 0 discriminator 4
 2310 0034 1846     		mov	r0, r3
 2311 0036 FFF7FEFF 		bl	assert_param
 591:../libs/StdPeripheralDriver/src/stm32f10x_tim.c ****   assert_param(IS_TIM_IC_SELECTION(TIM_ICInitStruct->TIM_ICSelection));
 2312              		.loc 1 591 0 is_stmt 1 discriminator 4
 2313 003a 3B68     		ldr	r3, [r7, #0]
 2314 003c 9B88     		ldrh	r3, [r3, #4]
 2315 003e 012B     		cmp	r3, #1
 2316 0040 07D0     		beq	.L152
 2317              		.loc 1 591 0 is_stmt 0 discriminator 2
 2318 0042 3B68     		ldr	r3, [r7, #0]
 2319 0044 9B88     		ldrh	r3, [r3, #4]
 2320 0046 022B     		cmp	r3, #2
 2321 0048 03D0     		beq	.L152
 2322              		.loc 1 591 0 discriminator 1
 2323 004a 3B68     		ldr	r3, [r7, #0]
 2324 004c 9B88     		ldrh	r3, [r3, #4]
 2325 004e 032B     		cmp	r3, #3
 2326 0050 02D1     		bne	.L153
 2327              	.L152:
 2328 0052 4FF00103 		mov	r3, #1
 2329 0056 01E0     		b	.L154
 2330              	.L153:
 2331              		.loc 1 591 0 discriminator 3
 2332 0058 4FF00003 		mov	r3, #0
 2333              	.L154:
 2334              		.loc 1 591 0 discriminator 4
 2335 005c 1846     		mov	r0, r3
 2336 005e FFF7FEFF 		bl	assert_param
 592:../libs/StdPeripheralDriver/src/stm32f10x_tim.c ****   assert_param(IS_TIM_IC_PRESCALER(TIM_ICInitStruct->TIM_ICPrescaler));
 2337              		.loc 1 592 0 is_stmt 1 discriminator 4
 2338 0062 3B68     		ldr	r3, [r7, #0]
 2339 0064 DB88     		ldrh	r3, [r3, #6]
 2340 0066 002B     		cmp	r3, #0
 2341 0068 0BD0     		beq	.L155
 2342              		.loc 1 592 0 is_stmt 0 discriminator 2
 2343 006a 3B68     		ldr	r3, [r7, #0]
 2344 006c DB88     		ldrh	r3, [r3, #6]
 2345 006e 042B     		cmp	r3, #4
 2346 0070 07D0     		beq	.L155
 2347              		.loc 1 592 0 discriminator 1
 2348 0072 3B68     		ldr	r3, [r7, #0]
 2349 0074 DB88     		ldrh	r3, [r3, #6]
 2350 0076 082B     		cmp	r3, #8
 2351 0078 03D0     		beq	.L155
 2352              		.loc 1 592 0 discriminator 2
 2353 007a 3B68     		ldr	r3, [r7, #0]
 2354 007c DB88     		ldrh	r3, [r3, #6]
 2355 007e 0C2B     		cmp	r3, #12
 2356 0080 02D1     		bne	.L156
 2357              	.L155:
 2358              		.loc 1 592 0 discriminator 1
 2359 0082 4FF00103 		mov	r3, #1
 2360 0086 01E0     		b	.L157
 2361              	.L156:
 2362              		.loc 1 592 0 discriminator 3
 2363 0088 4FF00003 		mov	r3, #0
 2364              	.L157:
 2365              		.loc 1 592 0 discriminator 4
 2366 008c 1846     		mov	r0, r3
 2367 008e FFF7FEFF 		bl	assert_param
 593:../libs/StdPeripheralDriver/src/stm32f10x_tim.c ****   assert_param(IS_TIM_IC_FILTER(TIM_ICInitStruct->TIM_ICFilter));
 2368              		.loc 1 593 0 is_stmt 1 discriminator 4
 2369 0092 3B68     		ldr	r3, [r7, #0]
 2370 0094 1B89     		ldrh	r3, [r3, #8]
 2371 0096 0F2B     		cmp	r3, #15
 2372 0098 8CBF     		ite	hi
 2373 009a 0023     		movhi	r3, #0
 2374 009c 0123     		movls	r3, #1
 2375 009e DBB2     		uxtb	r3, r3
 2376 00a0 1846     		mov	r0, r3
 2377 00a2 FFF7FEFF 		bl	assert_param
 594:../libs/StdPeripheralDriver/src/stm32f10x_tim.c ****   
 595:../libs/StdPeripheralDriver/src/stm32f10x_tim.c ****   if((TIMx == TIM1) || (TIMx == TIM8) || (TIMx == TIM2) || (TIMx == TIM3) ||
 2378              		.loc 1 595 0 discriminator 4
 2379 00a6 7A68     		ldr	r2, [r7, #4]
 2380 00a8 914B     		ldr	r3, .L183
 2381 00aa 9A42     		cmp	r2, r3
 2382 00ac 13D0     		beq	.L158
 2383              		.loc 1 595 0 is_stmt 0 discriminator 1
 2384 00ae 7A68     		ldr	r2, [r7, #4]
 2385 00b0 904B     		ldr	r3, .L183+4
 2386 00b2 9A42     		cmp	r2, r3
 2387 00b4 0FD0     		beq	.L158
 2388 00b6 7B68     		ldr	r3, [r7, #4]
 2389 00b8 B3F1804F 		cmp	r3, #1073741824
 2390 00bc 0BD0     		beq	.L158
 2391 00be 7A68     		ldr	r2, [r7, #4]
 2392 00c0 8D4B     		ldr	r3, .L183+8
 2393 00c2 9A42     		cmp	r2, r3
 2394 00c4 07D0     		beq	.L158
 2395 00c6 7A68     		ldr	r2, [r7, #4]
 2396 00c8 8C4B     		ldr	r3, .L183+12
 2397 00ca 9A42     		cmp	r2, r3
 2398 00cc 03D0     		beq	.L158
 596:../libs/StdPeripheralDriver/src/stm32f10x_tim.c ****      (TIMx == TIM4) ||(TIMx == TIM5))
 2399              		.loc 1 596 0 is_stmt 1
 2400 00ce 7A68     		ldr	r2, [r7, #4]
 2401 00d0 8B4B     		ldr	r3, .L183+16
 2402 00d2 9A42     		cmp	r2, r3
 2403 00d4 10D1     		bne	.L159
 2404              	.L158:
 597:../libs/StdPeripheralDriver/src/stm32f10x_tim.c ****   {
 598:../libs/StdPeripheralDriver/src/stm32f10x_tim.c ****     assert_param(IS_TIM_IC_POLARITY(TIM_ICInitStruct->TIM_ICPolarity));
 2405              		.loc 1 598 0
 2406 00d6 3B68     		ldr	r3, [r7, #0]
 2407 00d8 5B88     		ldrh	r3, [r3, #2]
 2408 00da 002B     		cmp	r3, #0
 2409 00dc 03D0     		beq	.L160
 2410              		.loc 1 598 0 is_stmt 0 discriminator 2
 2411 00de 3B68     		ldr	r3, [r7, #0]
 2412 00e0 5B88     		ldrh	r3, [r3, #2]
 2413 00e2 022B     		cmp	r3, #2
 2414 00e4 02D1     		bne	.L161
 2415              	.L160:
 2416              		.loc 1 598 0 discriminator 1
 2417 00e6 4FF00103 		mov	r3, #1
 2418 00ea 01E0     		b	.L162
 2419              	.L161:
 2420              		.loc 1 598 0 discriminator 3
 2421 00ec 4FF00003 		mov	r3, #0
 2422              	.L162:
 2423              		.loc 1 598 0 discriminator 4
 2424 00f0 1846     		mov	r0, r3
 2425 00f2 FFF7FEFF 		bl	assert_param
 2426 00f6 13E0     		b	.L163
 2427              	.L159:
 599:../libs/StdPeripheralDriver/src/stm32f10x_tim.c ****   }
 600:../libs/StdPeripheralDriver/src/stm32f10x_tim.c ****   else
 601:../libs/StdPeripheralDriver/src/stm32f10x_tim.c ****   {
 602:../libs/StdPeripheralDriver/src/stm32f10x_tim.c ****     assert_param(IS_TIM_IC_POLARITY_LITE(TIM_ICInitStruct->TIM_ICPolarity));
 2428              		.loc 1 602 0 is_stmt 1
 2429 00f8 3B68     		ldr	r3, [r7, #0]
 2430 00fa 5B88     		ldrh	r3, [r3, #2]
 2431 00fc 002B     		cmp	r3, #0
 2432 00fe 07D0     		beq	.L164
 2433              		.loc 1 602 0 is_stmt 0 discriminator 2
 2434 0100 3B68     		ldr	r3, [r7, #0]
 2435 0102 5B88     		ldrh	r3, [r3, #2]
 2436 0104 022B     		cmp	r3, #2
 2437 0106 03D0     		beq	.L164
 2438              		.loc 1 602 0 discriminator 1
 2439 0108 3B68     		ldr	r3, [r7, #0]
 2440 010a 5B88     		ldrh	r3, [r3, #2]
 2441 010c 0A2B     		cmp	r3, #10
 2442 010e 02D1     		bne	.L165
 2443              	.L164:
 2444 0110 4FF00103 		mov	r3, #1
 2445 0114 01E0     		b	.L166
 2446              	.L165:
 2447              		.loc 1 602 0 discriminator 3
 2448 0116 4FF00003 		mov	r3, #0
 2449              	.L166:
 2450              		.loc 1 602 0 discriminator 4
 2451 011a 1846     		mov	r0, r3
 2452 011c FFF7FEFF 		bl	assert_param
 2453              	.L163:
 603:../libs/StdPeripheralDriver/src/stm32f10x_tim.c ****   }
 604:../libs/StdPeripheralDriver/src/stm32f10x_tim.c ****   if (TIM_ICInitStruct->TIM_Channel == TIM_Channel_1)
 2454              		.loc 1 604 0 is_stmt 1
 2455 0120 3B68     		ldr	r3, [r7, #0]
 2456 0122 1B88     		ldrh	r3, [r3, #0]
 2457 0124 002B     		cmp	r3, #0
 2458 0126 53D1     		bne	.L167
 605:../libs/StdPeripheralDriver/src/stm32f10x_tim.c ****   {
 606:../libs/StdPeripheralDriver/src/stm32f10x_tim.c ****     assert_param(IS_TIM_LIST8_PERIPH(TIMx));
 2459              		.loc 1 606 0
 2460 0128 7A68     		ldr	r2, [r7, #4]
 2461 012a 714B     		ldr	r3, .L183
 2462 012c 9A42     		cmp	r2, r3
 2463 012e 37D0     		beq	.L168
 2464              		.loc 1 606 0 is_stmt 0 discriminator 2
 2465 0130 7B68     		ldr	r3, [r7, #4]
 2466 0132 B3F1804F 		cmp	r3, #1073741824
 2467 0136 33D0     		beq	.L168
 2468              		.loc 1 606 0 discriminator 1
 2469 0138 7A68     		ldr	r2, [r7, #4]
 2470 013a 6F4B     		ldr	r3, .L183+8
 2471 013c 9A42     		cmp	r2, r3
 2472 013e 2FD0     		beq	.L168
 2473              		.loc 1 606 0 discriminator 2
 2474 0140 7A68     		ldr	r2, [r7, #4]
 2475 0142 6E4B     		ldr	r3, .L183+12
 2476 0144 9A42     		cmp	r2, r3
 2477 0146 2BD0     		beq	.L168
 2478              		.loc 1 606 0 discriminator 3
 2479 0148 7A68     		ldr	r2, [r7, #4]
 2480 014a 6D4B     		ldr	r3, .L183+16
 2481 014c 9A42     		cmp	r2, r3
 2482 014e 27D0     		beq	.L168
 2483              		.loc 1 606 0 discriminator 4
 2484 0150 7A68     		ldr	r2, [r7, #4]
 2485 0152 684B     		ldr	r3, .L183+4
 2486 0154 9A42     		cmp	r2, r3
 2487 0156 23D0     		beq	.L168
 2488              		.loc 1 606 0 discriminator 5
 2489 0158 7A68     		ldr	r2, [r7, #4]
 2490 015a 6A4B     		ldr	r3, .L183+20
 2491 015c 9A42     		cmp	r2, r3
 2492 015e 1FD0     		beq	.L168
 2493              		.loc 1 606 0 discriminator 6
 2494 0160 7A68     		ldr	r2, [r7, #4]
 2495 0162 694B     		ldr	r3, .L183+24
 2496 0164 9A42     		cmp	r2, r3
 2497 0166 1BD0     		beq	.L168
 2498              		.loc 1 606 0 discriminator 7
 2499 0168 7A68     		ldr	r2, [r7, #4]
 2500 016a 684B     		ldr	r3, .L183+28
 2501 016c 9A42     		cmp	r2, r3
 2502 016e 17D0     		beq	.L168
 2503              		.loc 1 606 0 discriminator 8
 2504 0170 7A68     		ldr	r2, [r7, #4]
 2505 0172 674B     		ldr	r3, .L183+32
 2506 0174 9A42     		cmp	r2, r3
 2507 0176 13D0     		beq	.L168
 2508              		.loc 1 606 0 discriminator 9
 2509 0178 7A68     		ldr	r2, [r7, #4]
 2510 017a 664B     		ldr	r3, .L183+36
 2511 017c 9A42     		cmp	r2, r3
 2512 017e 0FD0     		beq	.L168
 2513              		.loc 1 606 0 discriminator 10
 2514 0180 7A68     		ldr	r2, [r7, #4]
 2515 0182 654B     		ldr	r3, .L183+40
 2516 0184 9A42     		cmp	r2, r3
 2517 0186 0BD0     		beq	.L168
 2518              		.loc 1 606 0 discriminator 11
 2519 0188 7A68     		ldr	r2, [r7, #4]
 2520 018a 644B     		ldr	r3, .L183+44
 2521 018c 9A42     		cmp	r2, r3
 2522 018e 07D0     		beq	.L168
 2523              		.loc 1 606 0 discriminator 12
 2524 0190 7A68     		ldr	r2, [r7, #4]
 2525 0192 634B     		ldr	r3, .L183+48
 2526 0194 9A42     		cmp	r2, r3
 2527 0196 03D0     		beq	.L168
 2528              		.loc 1 606 0 discriminator 13
 2529 0198 7A68     		ldr	r2, [r7, #4]
 2530 019a 624B     		ldr	r3, .L183+52
 2531 019c 9A42     		cmp	r2, r3
 2532 019e 02D1     		bne	.L169
 2533              	.L168:
 2534              		.loc 1 606 0 discriminator 1
 2535 01a0 4FF00103 		mov	r3, #1
 2536 01a4 01E0     		b	.L170
 2537              	.L169:
 2538              		.loc 1 606 0 discriminator 3
 2539 01a6 4FF00003 		mov	r3, #0
 2540              	.L170:
 2541              		.loc 1 606 0 discriminator 4
 2542 01aa 1846     		mov	r0, r3
 2543 01ac FFF7FEFF 		bl	assert_param
 607:../libs/StdPeripheralDriver/src/stm32f10x_tim.c ****     /* TI1 Configuration */
 608:../libs/StdPeripheralDriver/src/stm32f10x_tim.c ****     TI1_Config(TIMx, TIM_ICInitStruct->TIM_ICPolarity,
 2544              		.loc 1 608 0 is_stmt 1 discriminator 4
 2545 01b0 3B68     		ldr	r3, [r7, #0]
 2546 01b2 5988     		ldrh	r1, [r3, #2]
 609:../libs/StdPeripheralDriver/src/stm32f10x_tim.c ****                TIM_ICInitStruct->TIM_ICSelection,
 2547              		.loc 1 609 0 discriminator 4
 2548 01b4 3B68     		ldr	r3, [r7, #0]
 608:../libs/StdPeripheralDriver/src/stm32f10x_tim.c ****     TI1_Config(TIMx, TIM_ICInitStruct->TIM_ICPolarity,
 2549              		.loc 1 608 0 discriminator 4
 2550 01b6 9A88     		ldrh	r2, [r3, #4]
 610:../libs/StdPeripheralDriver/src/stm32f10x_tim.c ****                TIM_ICInitStruct->TIM_ICFilter);
 2551              		.loc 1 610 0 discriminator 4
 2552 01b8 3B68     		ldr	r3, [r7, #0]
 608:../libs/StdPeripheralDriver/src/stm32f10x_tim.c ****     TI1_Config(TIMx, TIM_ICInitStruct->TIM_ICPolarity,
 2553              		.loc 1 608 0 discriminator 4
 2554 01ba 1B89     		ldrh	r3, [r3, #8]
 2555 01bc 7868     		ldr	r0, [r7, #4]
 2556 01be FFF7FEFF 		bl	TI1_Config
 611:../libs/StdPeripheralDriver/src/stm32f10x_tim.c ****     /* Set the Input Capture Prescaler value */
 612:../libs/StdPeripheralDriver/src/stm32f10x_tim.c ****     TIM_SetIC1Prescaler(TIMx, TIM_ICInitStruct->TIM_ICPrescaler);
 2557              		.loc 1 612 0 discriminator 4
 2558 01c2 3B68     		ldr	r3, [r7, #0]
 2559 01c4 DB88     		ldrh	r3, [r3, #6]
 2560 01c6 7868     		ldr	r0, [r7, #4]
 2561 01c8 1946     		mov	r1, r3
 2562 01ca FFF7FEFF 		bl	TIM_SetIC1Prescaler
 2563 01ce BFE0     		b	.L148
 2564              	.L167:
 613:../libs/StdPeripheralDriver/src/stm32f10x_tim.c ****   }
 614:../libs/StdPeripheralDriver/src/stm32f10x_tim.c ****   else if (TIM_ICInitStruct->TIM_Channel == TIM_Channel_2)
 2565              		.loc 1 614 0
 2566 01d0 3B68     		ldr	r3, [r7, #0]
 2567 01d2 1B88     		ldrh	r3, [r3, #0]
 2568 01d4 042B     		cmp	r3, #4
 2569 01d6 3BD1     		bne	.L172
 615:../libs/StdPeripheralDriver/src/stm32f10x_tim.c ****   {
 616:../libs/StdPeripheralDriver/src/stm32f10x_tim.c ****     assert_param(IS_TIM_LIST6_PERIPH(TIMx));
 2570              		.loc 1 616 0
 2571 01d8 7A68     		ldr	r2, [r7, #4]
 2572 01da 454B     		ldr	r3, .L183
 2573 01dc 9A42     		cmp	r2, r3
 2574 01de 1FD0     		beq	.L173
 2575              		.loc 1 616 0 is_stmt 0 discriminator 2
 2576 01e0 7B68     		ldr	r3, [r7, #4]
 2577 01e2 B3F1804F 		cmp	r3, #1073741824
 2578 01e6 1BD0     		beq	.L173
 2579              		.loc 1 616 0 discriminator 1
 2580 01e8 7A68     		ldr	r2, [r7, #4]
 2581 01ea 434B     		ldr	r3, .L183+8
 2582 01ec 9A42     		cmp	r2, r3
 2583 01ee 17D0     		beq	.L173
 2584              		.loc 1 616 0 discriminator 2
 2585 01f0 7A68     		ldr	r2, [r7, #4]
 2586 01f2 424B     		ldr	r3, .L183+12
 2587 01f4 9A42     		cmp	r2, r3
 2588 01f6 13D0     		beq	.L173
 2589              		.loc 1 616 0 discriminator 3
 2590 01f8 7A68     		ldr	r2, [r7, #4]
 2591 01fa 414B     		ldr	r3, .L183+16
 2592 01fc 9A42     		cmp	r2, r3
 2593 01fe 0FD0     		beq	.L173
 2594              		.loc 1 616 0 discriminator 4
 2595 0200 7A68     		ldr	r2, [r7, #4]
 2596 0202 3C4B     		ldr	r3, .L183+4
 2597 0204 9A42     		cmp	r2, r3
 2598 0206 0BD0     		beq	.L173
 2599              		.loc 1 616 0 discriminator 5
 2600 0208 7A68     		ldr	r2, [r7, #4]
 2601 020a 3E4B     		ldr	r3, .L183+20
 2602 020c 9A42     		cmp	r2, r3
 2603 020e 07D0     		beq	.L173
 2604              		.loc 1 616 0 discriminator 6
 2605 0210 7A68     		ldr	r2, [r7, #4]
 2606 0212 3F4B     		ldr	r3, .L183+32
 2607 0214 9A42     		cmp	r2, r3
 2608 0216 03D0     		beq	.L173
 2609              		.loc 1 616 0 discriminator 7
 2610 0218 7A68     		ldr	r2, [r7, #4]
 2611 021a 404B     		ldr	r3, .L183+44
 2612 021c 9A42     		cmp	r2, r3
 2613 021e 02D1     		bne	.L174
 2614              	.L173:
 2615              		.loc 1 616 0 discriminator 1
 2616 0220 4FF00103 		mov	r3, #1
 2617 0224 01E0     		b	.L175
 2618              	.L174:
 2619              		.loc 1 616 0 discriminator 3
 2620 0226 4FF00003 		mov	r3, #0
 2621              	.L175:
 2622              		.loc 1 616 0 discriminator 4
 2623 022a 1846     		mov	r0, r3
 2624 022c FFF7FEFF 		bl	assert_param
 617:../libs/StdPeripheralDriver/src/stm32f10x_tim.c ****     /* TI2 Configuration */
 618:../libs/StdPeripheralDriver/src/stm32f10x_tim.c ****     TI2_Config(TIMx, TIM_ICInitStruct->TIM_ICPolarity,
 2625              		.loc 1 618 0 is_stmt 1 discriminator 4
 2626 0230 3B68     		ldr	r3, [r7, #0]
 2627 0232 5988     		ldrh	r1, [r3, #2]
 619:../libs/StdPeripheralDriver/src/stm32f10x_tim.c ****                TIM_ICInitStruct->TIM_ICSelection,
 2628              		.loc 1 619 0 discriminator 4
 2629 0234 3B68     		ldr	r3, [r7, #0]
 618:../libs/StdPeripheralDriver/src/stm32f10x_tim.c ****     TI2_Config(TIMx, TIM_ICInitStruct->TIM_ICPolarity,
 2630              		.loc 1 618 0 discriminator 4
 2631 0236 9A88     		ldrh	r2, [r3, #4]
 620:../libs/StdPeripheralDriver/src/stm32f10x_tim.c ****                TIM_ICInitStruct->TIM_ICFilter);
 2632              		.loc 1 620 0 discriminator 4
 2633 0238 3B68     		ldr	r3, [r7, #0]
 618:../libs/StdPeripheralDriver/src/stm32f10x_tim.c ****     TI2_Config(TIMx, TIM_ICInitStruct->TIM_ICPolarity,
 2634              		.loc 1 618 0 discriminator 4
 2635 023a 1B89     		ldrh	r3, [r3, #8]
 2636 023c 7868     		ldr	r0, [r7, #4]
 2637 023e FFF7FEFF 		bl	TI2_Config
 621:../libs/StdPeripheralDriver/src/stm32f10x_tim.c ****     /* Set the Input Capture Prescaler value */
 622:../libs/StdPeripheralDriver/src/stm32f10x_tim.c ****     TIM_SetIC2Prescaler(TIMx, TIM_ICInitStruct->TIM_ICPrescaler);
 2638              		.loc 1 622 0 discriminator 4
 2639 0242 3B68     		ldr	r3, [r7, #0]
 2640 0244 DB88     		ldrh	r3, [r3, #6]
 2641 0246 7868     		ldr	r0, [r7, #4]
 2642 0248 1946     		mov	r1, r3
 2643 024a FFF7FEFF 		bl	TIM_SetIC2Prescaler
 2644 024e 7FE0     		b	.L148
 2645              	.L172:
 623:../libs/StdPeripheralDriver/src/stm32f10x_tim.c ****   }
 624:../libs/StdPeripheralDriver/src/stm32f10x_tim.c ****   else if (TIM_ICInitStruct->TIM_Channel == TIM_Channel_3)
 2646              		.loc 1 624 0
 2647 0250 3B68     		ldr	r3, [r7, #0]
 2648 0252 1B88     		ldrh	r3, [r3, #0]
 2649 0254 082B     		cmp	r3, #8
 2650 0256 2FD1     		bne	.L176
 625:../libs/StdPeripheralDriver/src/stm32f10x_tim.c ****   {
 626:../libs/StdPeripheralDriver/src/stm32f10x_tim.c ****     assert_param(IS_TIM_LIST3_PERIPH(TIMx));
 2651              		.loc 1 626 0
 2652 0258 7A68     		ldr	r2, [r7, #4]
 2653 025a 254B     		ldr	r3, .L183
 2654 025c 9A42     		cmp	r2, r3
 2655 025e 13D0     		beq	.L177
 2656              		.loc 1 626 0 is_stmt 0 discriminator 2
 2657 0260 7B68     		ldr	r3, [r7, #4]
 2658 0262 B3F1804F 		cmp	r3, #1073741824
 2659 0266 0FD0     		beq	.L177
 2660              		.loc 1 626 0 discriminator 1
 2661 0268 7A68     		ldr	r2, [r7, #4]
 2662 026a 234B     		ldr	r3, .L183+8
 2663 026c 9A42     		cmp	r2, r3
 2664 026e 0BD0     		beq	.L177
 2665              		.loc 1 626 0 discriminator 2
 2666 0270 7A68     		ldr	r2, [r7, #4]
 2667 0272 224B     		ldr	r3, .L183+12
 2668 0274 9A42     		cmp	r2, r3
 2669 0276 07D0     		beq	.L177
 2670              		.loc 1 626 0 discriminator 3
 2671 0278 7A68     		ldr	r2, [r7, #4]
 2672 027a 214B     		ldr	r3, .L183+16
 2673 027c 9A42     		cmp	r2, r3
 2674 027e 03D0     		beq	.L177
 2675              		.loc 1 626 0 discriminator 4
 2676 0280 7A68     		ldr	r2, [r7, #4]
 2677 0282 1C4B     		ldr	r3, .L183+4
 2678 0284 9A42     		cmp	r2, r3
 2679 0286 02D1     		bne	.L178
 2680              	.L177:
 2681              		.loc 1 626 0 discriminator 1
 2682 0288 4FF00103 		mov	r3, #1
 2683 028c 01E0     		b	.L179
 2684              	.L178:
 2685              		.loc 1 626 0 discriminator 3
 2686 028e 4FF00003 		mov	r3, #0
 2687              	.L179:
 2688              		.loc 1 626 0 discriminator 4
 2689 0292 1846     		mov	r0, r3
 2690 0294 FFF7FEFF 		bl	assert_param
 627:../libs/StdPeripheralDriver/src/stm32f10x_tim.c ****     /* TI3 Configuration */
 628:../libs/StdPeripheralDriver/src/stm32f10x_tim.c ****     TI3_Config(TIMx,  TIM_ICInitStruct->TIM_ICPolarity,
 2691              		.loc 1 628 0 is_stmt 1 discriminator 4
 2692 0298 3B68     		ldr	r3, [r7, #0]
 2693 029a 5988     		ldrh	r1, [r3, #2]
 629:../libs/StdPeripheralDriver/src/stm32f10x_tim.c ****                TIM_ICInitStruct->TIM_ICSelection,
 2694              		.loc 1 629 0 discriminator 4
 2695 029c 3B68     		ldr	r3, [r7, #0]
 628:../libs/StdPeripheralDriver/src/stm32f10x_tim.c ****     TI3_Config(TIMx,  TIM_ICInitStruct->TIM_ICPolarity,
 2696              		.loc 1 628 0 discriminator 4
 2697 029e 9A88     		ldrh	r2, [r3, #4]
 630:../libs/StdPeripheralDriver/src/stm32f10x_tim.c ****                TIM_ICInitStruct->TIM_ICFilter);
 2698              		.loc 1 630 0 discriminator 4
 2699 02a0 3B68     		ldr	r3, [r7, #0]
 628:../libs/StdPeripheralDriver/src/stm32f10x_tim.c ****     TI3_Config(TIMx,  TIM_ICInitStruct->TIM_ICPolarity,
 2700              		.loc 1 628 0 discriminator 4
 2701 02a2 1B89     		ldrh	r3, [r3, #8]
 2702 02a4 7868     		ldr	r0, [r7, #4]
 2703 02a6 FFF7FEFF 		bl	TI3_Config
 631:../libs/StdPeripheralDriver/src/stm32f10x_tim.c ****     /* Set the Input Capture Prescaler value */
 632:../libs/StdPeripheralDriver/src/stm32f10x_tim.c ****     TIM_SetIC3Prescaler(TIMx, TIM_ICInitStruct->TIM_ICPrescaler);
 2704              		.loc 1 632 0 discriminator 4
 2705 02aa 3B68     		ldr	r3, [r7, #0]
 2706 02ac DB88     		ldrh	r3, [r3, #6]
 2707 02ae 7868     		ldr	r0, [r7, #4]
 2708 02b0 1946     		mov	r1, r3
 2709 02b2 FFF7FEFF 		bl	TIM_SetIC3Prescaler
 2710 02b6 4BE0     		b	.L148
 2711              	.L176:
 633:../libs/StdPeripheralDriver/src/stm32f10x_tim.c ****   }
 634:../libs/StdPeripheralDriver/src/stm32f10x_tim.c ****   else
 635:../libs/StdPeripheralDriver/src/stm32f10x_tim.c ****   {
 636:../libs/StdPeripheralDriver/src/stm32f10x_tim.c ****     assert_param(IS_TIM_LIST3_PERIPH(TIMx));
 2712              		.loc 1 636 0
 2713 02b8 7A68     		ldr	r2, [r7, #4]
 2714 02ba 0D4B     		ldr	r3, .L183
 2715 02bc 9A42     		cmp	r2, r3
 2716 02be 13D0     		beq	.L180
 2717              		.loc 1 636 0 is_stmt 0 discriminator 2
 2718 02c0 7B68     		ldr	r3, [r7, #4]
 2719 02c2 B3F1804F 		cmp	r3, #1073741824
 2720 02c6 0FD0     		beq	.L180
 2721              		.loc 1 636 0 discriminator 1
 2722 02c8 7A68     		ldr	r2, [r7, #4]
 2723 02ca 0B4B     		ldr	r3, .L183+8
 2724 02cc 9A42     		cmp	r2, r3
 2725 02ce 0BD0     		beq	.L180
 2726              		.loc 1 636 0 discriminator 2
 2727 02d0 7A68     		ldr	r2, [r7, #4]
 2728 02d2 0A4B     		ldr	r3, .L183+12
 2729 02d4 9A42     		cmp	r2, r3
 2730 02d6 07D0     		beq	.L180
 2731              		.loc 1 636 0 discriminator 3
 2732 02d8 7A68     		ldr	r2, [r7, #4]
 2733 02da 094B     		ldr	r3, .L183+16
 2734 02dc 9A42     		cmp	r2, r3
 2735 02de 03D0     		beq	.L180
 2736              		.loc 1 636 0 discriminator 4
 2737 02e0 7A68     		ldr	r2, [r7, #4]
 2738 02e2 044B     		ldr	r3, .L183+4
 2739 02e4 9A42     		cmp	r2, r3
 2740 02e6 1FD1     		bne	.L181
 2741              	.L180:
 2742              		.loc 1 636 0 discriminator 1
 2743 02e8 4FF00103 		mov	r3, #1
 2744 02ec 1EE0     		b	.L182
 2745              	.L184:
 2746 02ee 00BF     		.align	2
 2747              	.L183:
 2748 02f0 002C0140 		.word	1073818624
 2749 02f4 00340140 		.word	1073820672
 2750 02f8 00040040 		.word	1073742848
 2751 02fc 00080040 		.word	1073743872
 2752 0300 000C0040 		.word	1073744896
 2753 0304 004C0140 		.word	1073826816
 2754 0308 00500140 		.word	1073827840
 2755 030c 00540140 		.word	1073828864
 2756 0310 00180040 		.word	1073747968
 2757 0314 001C0040 		.word	1073748992
 2758 0318 00200040 		.word	1073750016
 2759 031c 00400140 		.word	1073823744
 2760 0320 00440140 		.word	1073824768
 2761 0324 00480140 		.word	1073825792
 2762              	.L181:
 2763              		.loc 1 636 0 discriminator 3
 2764 0328 4FF00003 		mov	r3, #0
 2765              	.L182:
 2766              		.loc 1 636 0 discriminator 4
 2767 032c 1846     		mov	r0, r3
 2768 032e FFF7FEFF 		bl	assert_param
 637:../libs/StdPeripheralDriver/src/stm32f10x_tim.c ****     /* TI4 Configuration */
 638:../libs/StdPeripheralDriver/src/stm32f10x_tim.c ****     TI4_Config(TIMx, TIM_ICInitStruct->TIM_ICPolarity,
 2769              		.loc 1 638 0 is_stmt 1 discriminator 4
 2770 0332 3B68     		ldr	r3, [r7, #0]
 2771 0334 5988     		ldrh	r1, [r3, #2]
 639:../libs/StdPeripheralDriver/src/stm32f10x_tim.c ****                TIM_ICInitStruct->TIM_ICSelection,
 2772              		.loc 1 639 0 discriminator 4
 2773 0336 3B68     		ldr	r3, [r7, #0]
 638:../libs/StdPeripheralDriver/src/stm32f10x_tim.c ****     TI4_Config(TIMx, TIM_ICInitStruct->TIM_ICPolarity,
 2774              		.loc 1 638 0 discriminator 4
 2775 0338 9A88     		ldrh	r2, [r3, #4]
 640:../libs/StdPeripheralDriver/src/stm32f10x_tim.c ****                TIM_ICInitStruct->TIM_ICFilter);
 2776              		.loc 1 640 0 discriminator 4
 2777 033a 3B68     		ldr	r3, [r7, #0]
 638:../libs/StdPeripheralDriver/src/stm32f10x_tim.c ****     TI4_Config(TIMx, TIM_ICInitStruct->TIM_ICPolarity,
 2778              		.loc 1 638 0 discriminator 4
 2779 033c 1B89     		ldrh	r3, [r3, #8]
 2780 033e 7868     		ldr	r0, [r7, #4]
 2781 0340 FFF7FEFF 		bl	TI4_Config
 641:../libs/StdPeripheralDriver/src/stm32f10x_tim.c ****     /* Set the Input Capture Prescaler value */
 642:../libs/StdPeripheralDriver/src/stm32f10x_tim.c ****     TIM_SetIC4Prescaler(TIMx, TIM_ICInitStruct->TIM_ICPrescaler);
 2782              		.loc 1 642 0 discriminator 4
 2783 0344 3B68     		ldr	r3, [r7, #0]
 2784 0346 DB88     		ldrh	r3, [r3, #6]
 2785 0348 7868     		ldr	r0, [r7, #4]
 2786 034a 1946     		mov	r1, r3
 2787 034c FFF7FEFF 		bl	TIM_SetIC4Prescaler
 2788              	.L148:
 643:../libs/StdPeripheralDriver/src/stm32f10x_tim.c ****   }
 644:../libs/StdPeripheralDriver/src/stm32f10x_tim.c **** }
 2789              		.loc 1 644 0
 2790 0350 07F10807 		add	r7, r7, #8
 2791 0354 BD46     		mov	sp, r7
 2792 0356 80BD     		pop	{r7, pc}
 2793              		.cfi_endproc
 2794              	.LFE35:
 2796              		.section	.text.TIM_PWMIConfig,"ax",%progbits
 2797              		.align	2
 2798              		.global	TIM_PWMIConfig
 2799              		.thumb
 2800              		.thumb_func
 2802              	TIM_PWMIConfig:
 2803              	.LFB36:
 645:../libs/StdPeripheralDriver/src/stm32f10x_tim.c **** 
 646:../libs/StdPeripheralDriver/src/stm32f10x_tim.c **** /**
 647:../libs/StdPeripheralDriver/src/stm32f10x_tim.c ****   * @brief  Configures the TIM peripheral according to the specified
 648:../libs/StdPeripheralDriver/src/stm32f10x_tim.c ****   *         parameters in the TIM_ICInitStruct to measure an external PWM signal.
 649:../libs/StdPeripheralDriver/src/stm32f10x_tim.c ****   * @param  TIMx: where x can be  1, 2, 3, 4, 5, 8, 9, 12 or 15 to select the TIM peripheral.
 650:../libs/StdPeripheralDriver/src/stm32f10x_tim.c ****   * @param  TIM_ICInitStruct: pointer to a TIM_ICInitTypeDef structure
 651:../libs/StdPeripheralDriver/src/stm32f10x_tim.c ****   *         that contains the configuration information for the specified TIM peripheral.
 652:../libs/StdPeripheralDriver/src/stm32f10x_tim.c ****   * @retval None
 653:../libs/StdPeripheralDriver/src/stm32f10x_tim.c ****   */
 654:../libs/StdPeripheralDriver/src/stm32f10x_tim.c **** void TIM_PWMIConfig(TIM_TypeDef* TIMx, TIM_ICInitTypeDef* TIM_ICInitStruct)
 655:../libs/StdPeripheralDriver/src/stm32f10x_tim.c **** {
 2804              		.loc 1 655 0
 2805              		.cfi_startproc
 2806              		@ args = 0, pretend = 0, frame = 16
 2807              		@ frame_needed = 1, uses_anonymous_args = 0
 2808 0000 80B5     		push	{r7, lr}
 2809              	.LCFI21:
 2810              		.cfi_def_cfa_offset 8
 2811              		.cfi_offset 7, -8
 2812              		.cfi_offset 14, -4
 2813 0002 84B0     		sub	sp, sp, #16
 2814              	.LCFI22:
 2815              		.cfi_def_cfa_offset 24
 2816 0004 00AF     		add	r7, sp, #0
 2817              	.LCFI23:
 2818              		.cfi_def_cfa_register 7
 2819 0006 7860     		str	r0, [r7, #4]
 2820 0008 3960     		str	r1, [r7, #0]
 656:../libs/StdPeripheralDriver/src/stm32f10x_tim.c ****   uint16_t icoppositepolarity = TIM_ICPolarity_Rising;
 2821              		.loc 1 656 0
 2822 000a 4FF00003 		mov	r3, #0
 2823 000e FB81     		strh	r3, [r7, #14]	@ movhi
 657:../libs/StdPeripheralDriver/src/stm32f10x_tim.c ****   uint16_t icoppositeselection = TIM_ICSelection_DirectTI;
 2824              		.loc 1 657 0
 2825 0010 4FF00103 		mov	r3, #1
 2826 0014 BB81     		strh	r3, [r7, #12]	@ movhi
 658:../libs/StdPeripheralDriver/src/stm32f10x_tim.c ****   /* Check the parameters */
 659:../libs/StdPeripheralDriver/src/stm32f10x_tim.c ****   assert_param(IS_TIM_LIST6_PERIPH(TIMx));
 2827              		.loc 1 659 0
 2828 0016 7A68     		ldr	r2, [r7, #4]
 2829 0018 404B     		ldr	r3, .L195
 2830 001a 9A42     		cmp	r2, r3
 2831 001c 1FD0     		beq	.L186
 2832              		.loc 1 659 0 is_stmt 0 discriminator 2
 2833 001e 7B68     		ldr	r3, [r7, #4]
 2834 0020 B3F1804F 		cmp	r3, #1073741824
 2835 0024 1BD0     		beq	.L186
 2836              		.loc 1 659 0 discriminator 1
 2837 0026 7A68     		ldr	r2, [r7, #4]
 2838 0028 3D4B     		ldr	r3, .L195+4
 2839 002a 9A42     		cmp	r2, r3
 2840 002c 17D0     		beq	.L186
 2841              		.loc 1 659 0 discriminator 2
 2842 002e 7A68     		ldr	r2, [r7, #4]
 2843 0030 3C4B     		ldr	r3, .L195+8
 2844 0032 9A42     		cmp	r2, r3
 2845 0034 13D0     		beq	.L186
 2846              		.loc 1 659 0 discriminator 3
 2847 0036 7A68     		ldr	r2, [r7, #4]
 2848 0038 3B4B     		ldr	r3, .L195+12
 2849 003a 9A42     		cmp	r2, r3
 2850 003c 0FD0     		beq	.L186
 2851              		.loc 1 659 0 discriminator 4
 2852 003e 7A68     		ldr	r2, [r7, #4]
 2853 0040 3A4B     		ldr	r3, .L195+16
 2854 0042 9A42     		cmp	r2, r3
 2855 0044 0BD0     		beq	.L186
 2856              		.loc 1 659 0 discriminator 5
 2857 0046 7A68     		ldr	r2, [r7, #4]
 2858 0048 394B     		ldr	r3, .L195+20
 2859 004a 9A42     		cmp	r2, r3
 2860 004c 07D0     		beq	.L186
 2861              		.loc 1 659 0 discriminator 6
 2862 004e 7A68     		ldr	r2, [r7, #4]
 2863 0050 384B     		ldr	r3, .L195+24
 2864 0052 9A42     		cmp	r2, r3
 2865 0054 03D0     		beq	.L186
 2866              		.loc 1 659 0 discriminator 7
 2867 0056 7A68     		ldr	r2, [r7, #4]
 2868 0058 374B     		ldr	r3, .L195+28
 2869 005a 9A42     		cmp	r2, r3
 2870 005c 02D1     		bne	.L187
 2871              	.L186:
 2872              		.loc 1 659 0 discriminator 1
 2873 005e 4FF00103 		mov	r3, #1
 2874 0062 01E0     		b	.L188
 2875              	.L187:
 2876              		.loc 1 659 0 discriminator 3
 2877 0064 4FF00003 		mov	r3, #0
 2878              	.L188:
 2879              		.loc 1 659 0 discriminator 4
 2880 0068 1846     		mov	r0, r3
 2881 006a FFF7FEFF 		bl	assert_param
 660:../libs/StdPeripheralDriver/src/stm32f10x_tim.c ****   /* Select the Opposite Input Polarity */
 661:../libs/StdPeripheralDriver/src/stm32f10x_tim.c ****   if (TIM_ICInitStruct->TIM_ICPolarity == TIM_ICPolarity_Rising)
 2882              		.loc 1 661 0 is_stmt 1 discriminator 4
 2883 006e 3B68     		ldr	r3, [r7, #0]
 2884 0070 5B88     		ldrh	r3, [r3, #2]
 2885 0072 002B     		cmp	r3, #0
 2886 0074 03D1     		bne	.L189
 662:../libs/StdPeripheralDriver/src/stm32f10x_tim.c ****   {
 663:../libs/StdPeripheralDriver/src/stm32f10x_tim.c ****     icoppositepolarity = TIM_ICPolarity_Falling;
 2887              		.loc 1 663 0
 2888 0076 4FF00203 		mov	r3, #2
 2889 007a FB81     		strh	r3, [r7, #14]	@ movhi
 2890 007c 02E0     		b	.L190
 2891              	.L189:
 664:../libs/StdPeripheralDriver/src/stm32f10x_tim.c ****   }
 665:../libs/StdPeripheralDriver/src/stm32f10x_tim.c ****   else
 666:../libs/StdPeripheralDriver/src/stm32f10x_tim.c ****   {
 667:../libs/StdPeripheralDriver/src/stm32f10x_tim.c ****     icoppositepolarity = TIM_ICPolarity_Rising;
 2892              		.loc 1 667 0
 2893 007e 4FF00003 		mov	r3, #0
 2894 0082 FB81     		strh	r3, [r7, #14]	@ movhi
 2895              	.L190:
 668:../libs/StdPeripheralDriver/src/stm32f10x_tim.c ****   }
 669:../libs/StdPeripheralDriver/src/stm32f10x_tim.c ****   /* Select the Opposite Input */
 670:../libs/StdPeripheralDriver/src/stm32f10x_tim.c ****   if (TIM_ICInitStruct->TIM_ICSelection == TIM_ICSelection_DirectTI)
 2896              		.loc 1 670 0
 2897 0084 3B68     		ldr	r3, [r7, #0]
 2898 0086 9B88     		ldrh	r3, [r3, #4]
 2899 0088 012B     		cmp	r3, #1
 2900 008a 03D1     		bne	.L191
 671:../libs/StdPeripheralDriver/src/stm32f10x_tim.c ****   {
 672:../libs/StdPeripheralDriver/src/stm32f10x_tim.c ****     icoppositeselection = TIM_ICSelection_IndirectTI;
 2901              		.loc 1 672 0
 2902 008c 4FF00203 		mov	r3, #2
 2903 0090 BB81     		strh	r3, [r7, #12]	@ movhi
 2904 0092 02E0     		b	.L192
 2905              	.L191:
 673:../libs/StdPeripheralDriver/src/stm32f10x_tim.c ****   }
 674:../libs/StdPeripheralDriver/src/stm32f10x_tim.c ****   else
 675:../libs/StdPeripheralDriver/src/stm32f10x_tim.c ****   {
 676:../libs/StdPeripheralDriver/src/stm32f10x_tim.c ****     icoppositeselection = TIM_ICSelection_DirectTI;
 2906              		.loc 1 676 0
 2907 0094 4FF00103 		mov	r3, #1
 2908 0098 BB81     		strh	r3, [r7, #12]	@ movhi
 2909              	.L192:
 677:../libs/StdPeripheralDriver/src/stm32f10x_tim.c ****   }
 678:../libs/StdPeripheralDriver/src/stm32f10x_tim.c ****   if (TIM_ICInitStruct->TIM_Channel == TIM_Channel_1)
 2910              		.loc 1 678 0
 2911 009a 3B68     		ldr	r3, [r7, #0]
 2912 009c 1B88     		ldrh	r3, [r3, #0]
 2913 009e 002B     		cmp	r3, #0
 2914 00a0 1CD1     		bne	.L193
 679:../libs/StdPeripheralDriver/src/stm32f10x_tim.c ****   {
 680:../libs/StdPeripheralDriver/src/stm32f10x_tim.c ****     /* TI1 Configuration */
 681:../libs/StdPeripheralDriver/src/stm32f10x_tim.c ****     TI1_Config(TIMx, TIM_ICInitStruct->TIM_ICPolarity, TIM_ICInitStruct->TIM_ICSelection,
 2915              		.loc 1 681 0
 2916 00a2 3B68     		ldr	r3, [r7, #0]
 2917 00a4 5988     		ldrh	r1, [r3, #2]
 2918 00a6 3B68     		ldr	r3, [r7, #0]
 2919 00a8 9A88     		ldrh	r2, [r3, #4]
 682:../libs/StdPeripheralDriver/src/stm32f10x_tim.c ****                TIM_ICInitStruct->TIM_ICFilter);
 2920              		.loc 1 682 0
 2921 00aa 3B68     		ldr	r3, [r7, #0]
 681:../libs/StdPeripheralDriver/src/stm32f10x_tim.c ****     TI1_Config(TIMx, TIM_ICInitStruct->TIM_ICPolarity, TIM_ICInitStruct->TIM_ICSelection,
 2922              		.loc 1 681 0
 2923 00ac 1B89     		ldrh	r3, [r3, #8]
 2924 00ae 7868     		ldr	r0, [r7, #4]
 2925 00b0 FFF7FEFF 		bl	TI1_Config
 683:../libs/StdPeripheralDriver/src/stm32f10x_tim.c ****     /* Set the Input Capture Prescaler value */
 684:../libs/StdPeripheralDriver/src/stm32f10x_tim.c ****     TIM_SetIC1Prescaler(TIMx, TIM_ICInitStruct->TIM_ICPrescaler);
 2926              		.loc 1 684 0
 2927 00b4 3B68     		ldr	r3, [r7, #0]
 2928 00b6 DB88     		ldrh	r3, [r3, #6]
 2929 00b8 7868     		ldr	r0, [r7, #4]
 2930 00ba 1946     		mov	r1, r3
 2931 00bc FFF7FEFF 		bl	TIM_SetIC1Prescaler
 685:../libs/StdPeripheralDriver/src/stm32f10x_tim.c ****     /* TI2 Configuration */
 686:../libs/StdPeripheralDriver/src/stm32f10x_tim.c ****     TI2_Config(TIMx, icoppositepolarity, icoppositeselection, TIM_ICInitStruct->TIM_ICFilter);
 2932              		.loc 1 686 0
 2933 00c0 3B68     		ldr	r3, [r7, #0]
 2934 00c2 1B89     		ldrh	r3, [r3, #8]
 2935 00c4 F989     		ldrh	r1, [r7, #14]
 2936 00c6 BA89     		ldrh	r2, [r7, #12]
 2937 00c8 7868     		ldr	r0, [r7, #4]
 2938 00ca FFF7FEFF 		bl	TI2_Config
 687:../libs/StdPeripheralDriver/src/stm32f10x_tim.c ****     /* Set the Input Capture Prescaler value */
 688:../libs/StdPeripheralDriver/src/stm32f10x_tim.c ****     TIM_SetIC2Prescaler(TIMx, TIM_ICInitStruct->TIM_ICPrescaler);
 2939              		.loc 1 688 0
 2940 00ce 3B68     		ldr	r3, [r7, #0]
 2941 00d0 DB88     		ldrh	r3, [r3, #6]
 2942 00d2 7868     		ldr	r0, [r7, #4]
 2943 00d4 1946     		mov	r1, r3
 2944 00d6 FFF7FEFF 		bl	TIM_SetIC2Prescaler
 2945 00da 1BE0     		b	.L185
 2946              	.L193:
 689:../libs/StdPeripheralDriver/src/stm32f10x_tim.c ****   }
 690:../libs/StdPeripheralDriver/src/stm32f10x_tim.c ****   else
 691:../libs/StdPeripheralDriver/src/stm32f10x_tim.c ****   { 
 692:../libs/StdPeripheralDriver/src/stm32f10x_tim.c ****     /* TI2 Configuration */
 693:../libs/StdPeripheralDriver/src/stm32f10x_tim.c ****     TI2_Config(TIMx, TIM_ICInitStruct->TIM_ICPolarity, TIM_ICInitStruct->TIM_ICSelection,
 2947              		.loc 1 693 0
 2948 00dc 3B68     		ldr	r3, [r7, #0]
 2949 00de 5988     		ldrh	r1, [r3, #2]
 2950 00e0 3B68     		ldr	r3, [r7, #0]
 2951 00e2 9A88     		ldrh	r2, [r3, #4]
 694:../libs/StdPeripheralDriver/src/stm32f10x_tim.c ****                TIM_ICInitStruct->TIM_ICFilter);
 2952              		.loc 1 694 0
 2953 00e4 3B68     		ldr	r3, [r7, #0]
 693:../libs/StdPeripheralDriver/src/stm32f10x_tim.c ****     TI2_Config(TIMx, TIM_ICInitStruct->TIM_ICPolarity, TIM_ICInitStruct->TIM_ICSelection,
 2954              		.loc 1 693 0
 2955 00e6 1B89     		ldrh	r3, [r3, #8]
 2956 00e8 7868     		ldr	r0, [r7, #4]
 2957 00ea FFF7FEFF 		bl	TI2_Config
 695:../libs/StdPeripheralDriver/src/stm32f10x_tim.c ****     /* Set the Input Capture Prescaler value */
 696:../libs/StdPeripheralDriver/src/stm32f10x_tim.c ****     TIM_SetIC2Prescaler(TIMx, TIM_ICInitStruct->TIM_ICPrescaler);
 2958              		.loc 1 696 0
 2959 00ee 3B68     		ldr	r3, [r7, #0]
 2960 00f0 DB88     		ldrh	r3, [r3, #6]
 2961 00f2 7868     		ldr	r0, [r7, #4]
 2962 00f4 1946     		mov	r1, r3
 2963 00f6 FFF7FEFF 		bl	TIM_SetIC2Prescaler
 697:../libs/StdPeripheralDriver/src/stm32f10x_tim.c ****     /* TI1 Configuration */
 698:../libs/StdPeripheralDriver/src/stm32f10x_tim.c ****     TI1_Config(TIMx, icoppositepolarity, icoppositeselection, TIM_ICInitStruct->TIM_ICFilter);
 2964              		.loc 1 698 0
 2965 00fa 3B68     		ldr	r3, [r7, #0]
 2966 00fc 1B89     		ldrh	r3, [r3, #8]
 2967 00fe F989     		ldrh	r1, [r7, #14]
 2968 0100 BA89     		ldrh	r2, [r7, #12]
 2969 0102 7868     		ldr	r0, [r7, #4]
 2970 0104 FFF7FEFF 		bl	TI1_Config
 699:../libs/StdPeripheralDriver/src/stm32f10x_tim.c ****     /* Set the Input Capture Prescaler value */
 700:../libs/StdPeripheralDriver/src/stm32f10x_tim.c ****     TIM_SetIC1Prescaler(TIMx, TIM_ICInitStruct->TIM_ICPrescaler);
 2971              		.loc 1 700 0
 2972 0108 3B68     		ldr	r3, [r7, #0]
 2973 010a DB88     		ldrh	r3, [r3, #6]
 2974 010c 7868     		ldr	r0, [r7, #4]
 2975 010e 1946     		mov	r1, r3
 2976 0110 FFF7FEFF 		bl	TIM_SetIC1Prescaler
 2977              	.L185:
 701:../libs/StdPeripheralDriver/src/stm32f10x_tim.c ****   }
 702:../libs/StdPeripheralDriver/src/stm32f10x_tim.c **** }
 2978              		.loc 1 702 0
 2979 0114 07F11007 		add	r7, r7, #16
 2980 0118 BD46     		mov	sp, r7
 2981 011a 80BD     		pop	{r7, pc}
 2982              	.L196:
 2983              		.align	2
 2984              	.L195:
 2985 011c 002C0140 		.word	1073818624
 2986 0120 00040040 		.word	1073742848
 2987 0124 00080040 		.word	1073743872
 2988 0128 000C0040 		.word	1073744896
 2989 012c 00340140 		.word	1073820672
 2990 0130 004C0140 		.word	1073826816
 2991 0134 00180040 		.word	1073747968
 2992 0138 00400140 		.word	1073823744
 2993              		.cfi_endproc
 2994              	.LFE36:
 2996              		.section	.text.TIM_BDTRConfig,"ax",%progbits
 2997              		.align	2
 2998              		.global	TIM_BDTRConfig
 2999              		.thumb
 3000              		.thumb_func
 3002              	TIM_BDTRConfig:
 3003              	.LFB37:
 703:../libs/StdPeripheralDriver/src/stm32f10x_tim.c **** 
 704:../libs/StdPeripheralDriver/src/stm32f10x_tim.c **** /**
 705:../libs/StdPeripheralDriver/src/stm32f10x_tim.c ****   * @brief  Configures the: Break feature, dead time, Lock level, the OSSI,
 706:../libs/StdPeripheralDriver/src/stm32f10x_tim.c ****   *         the OSSR State and the AOE(automatic output enable).
 707:../libs/StdPeripheralDriver/src/stm32f10x_tim.c ****   * @param  TIMx: where x can be  1 or 8 to select the TIM 
 708:../libs/StdPeripheralDriver/src/stm32f10x_tim.c ****   * @param  TIM_BDTRInitStruct: pointer to a TIM_BDTRInitTypeDef structure that
 709:../libs/StdPeripheralDriver/src/stm32f10x_tim.c ****   *         contains the BDTR Register configuration  information for the TIM peripheral.
 710:../libs/StdPeripheralDriver/src/stm32f10x_tim.c ****   * @retval None
 711:../libs/StdPeripheralDriver/src/stm32f10x_tim.c ****   */
 712:../libs/StdPeripheralDriver/src/stm32f10x_tim.c **** void TIM_BDTRConfig(TIM_TypeDef* TIMx, TIM_BDTRInitTypeDef *TIM_BDTRInitStruct)
 713:../libs/StdPeripheralDriver/src/stm32f10x_tim.c **** {
 3004              		.loc 1 713 0
 3005              		.cfi_startproc
 3006              		@ args = 0, pretend = 0, frame = 8
 3007              		@ frame_needed = 1, uses_anonymous_args = 0
 3008 0000 80B5     		push	{r7, lr}
 3009              	.LCFI24:
 3010              		.cfi_def_cfa_offset 8
 3011              		.cfi_offset 7, -8
 3012              		.cfi_offset 14, -4
 3013 0002 82B0     		sub	sp, sp, #8
 3014              	.LCFI25:
 3015              		.cfi_def_cfa_offset 16
 3016 0004 00AF     		add	r7, sp, #0
 3017              	.LCFI26:
 3018              		.cfi_def_cfa_register 7
 3019 0006 7860     		str	r0, [r7, #4]
 3020 0008 3960     		str	r1, [r7, #0]
 714:../libs/StdPeripheralDriver/src/stm32f10x_tim.c ****   /* Check the parameters */
 715:../libs/StdPeripheralDriver/src/stm32f10x_tim.c ****   assert_param(IS_TIM_LIST2_PERIPH(TIMx));
 3021              		.loc 1 715 0
 3022 000a 7A68     		ldr	r2, [r7, #4]
 3023 000c 554B     		ldr	r3, .L219
 3024 000e 9A42     		cmp	r2, r3
 3025 0010 0FD0     		beq	.L198
 3026              		.loc 1 715 0 is_stmt 0 discriminator 2
 3027 0012 7A68     		ldr	r2, [r7, #4]
 3028 0014 544B     		ldr	r3, .L219+4
 3029 0016 9A42     		cmp	r2, r3
 3030 0018 0BD0     		beq	.L198
 3031              		.loc 1 715 0 discriminator 1
 3032 001a 7A68     		ldr	r2, [r7, #4]
 3033 001c 534B     		ldr	r3, .L219+8
 3034 001e 9A42     		cmp	r2, r3
 3035 0020 07D0     		beq	.L198
 3036              		.loc 1 715 0 discriminator 2
 3037 0022 7A68     		ldr	r2, [r7, #4]
 3038 0024 524B     		ldr	r3, .L219+12
 3039 0026 9A42     		cmp	r2, r3
 3040 0028 03D0     		beq	.L198
 3041              		.loc 1 715 0 discriminator 3
 3042 002a 7A68     		ldr	r2, [r7, #4]
 3043 002c 514B     		ldr	r3, .L219+16
 3044 002e 9A42     		cmp	r2, r3
 3045 0030 02D1     		bne	.L199
 3046              	.L198:
 3047              		.loc 1 715 0 discriminator 1
 3048 0032 4FF00103 		mov	r3, #1
 3049 0036 01E0     		b	.L200
 3050              	.L199:
 3051              		.loc 1 715 0 discriminator 3
 3052 0038 4FF00003 		mov	r3, #0
 3053              	.L200:
 3054              		.loc 1 715 0 discriminator 4
 3055 003c 1846     		mov	r0, r3
 3056 003e FFF7FEFF 		bl	assert_param
 716:../libs/StdPeripheralDriver/src/stm32f10x_tim.c ****   assert_param(IS_TIM_OSSR_STATE(TIM_BDTRInitStruct->TIM_OSSRState));
 3057              		.loc 1 716 0 is_stmt 1 discriminator 4
 3058 0042 3B68     		ldr	r3, [r7, #0]
 3059 0044 1B88     		ldrh	r3, [r3, #0]
 3060 0046 B3F5006F 		cmp	r3, #2048
 3061 004a 03D0     		beq	.L201
 3062              		.loc 1 716 0 is_stmt 0 discriminator 2
 3063 004c 3B68     		ldr	r3, [r7, #0]
 3064 004e 1B88     		ldrh	r3, [r3, #0]
 3065 0050 002B     		cmp	r3, #0
 3066 0052 02D1     		bne	.L202
 3067              	.L201:
 3068              		.loc 1 716 0 discriminator 1
 3069 0054 4FF00103 		mov	r3, #1
 3070 0058 01E0     		b	.L203
 3071              	.L202:
 3072              		.loc 1 716 0 discriminator 3
 3073 005a 4FF00003 		mov	r3, #0
 3074              	.L203:
 3075              		.loc 1 716 0 discriminator 4
 3076 005e 1846     		mov	r0, r3
 3077 0060 FFF7FEFF 		bl	assert_param
 717:../libs/StdPeripheralDriver/src/stm32f10x_tim.c ****   assert_param(IS_TIM_OSSI_STATE(TIM_BDTRInitStruct->TIM_OSSIState));
 3078              		.loc 1 717 0 is_stmt 1 discriminator 4
 3079 0064 3B68     		ldr	r3, [r7, #0]
 3080 0066 5B88     		ldrh	r3, [r3, #2]
 3081 0068 B3F5806F 		cmp	r3, #1024
 3082 006c 03D0     		beq	.L204
 3083              		.loc 1 717 0 is_stmt 0 discriminator 2
 3084 006e 3B68     		ldr	r3, [r7, #0]
 3085 0070 5B88     		ldrh	r3, [r3, #2]
 3086 0072 002B     		cmp	r3, #0
 3087 0074 02D1     		bne	.L205
 3088              	.L204:
 3089              		.loc 1 717 0 discriminator 1
 3090 0076 4FF00103 		mov	r3, #1
 3091 007a 01E0     		b	.L206
 3092              	.L205:
 3093              		.loc 1 717 0 discriminator 3
 3094 007c 4FF00003 		mov	r3, #0
 3095              	.L206:
 3096              		.loc 1 717 0 discriminator 4
 3097 0080 1846     		mov	r0, r3
 3098 0082 FFF7FEFF 		bl	assert_param
 718:../libs/StdPeripheralDriver/src/stm32f10x_tim.c ****   assert_param(IS_TIM_LOCK_LEVEL(TIM_BDTRInitStruct->TIM_LOCKLevel));
 3099              		.loc 1 718 0 is_stmt 1 discriminator 4
 3100 0086 3B68     		ldr	r3, [r7, #0]
 3101 0088 9B88     		ldrh	r3, [r3, #4]
 3102 008a 002B     		cmp	r3, #0
 3103 008c 0ED0     		beq	.L207
 3104              		.loc 1 718 0 is_stmt 0 discriminator 2
 3105 008e 3B68     		ldr	r3, [r7, #0]
 3106 0090 9B88     		ldrh	r3, [r3, #4]
 3107 0092 B3F5807F 		cmp	r3, #256
 3108 0096 09D0     		beq	.L207
 3109              		.loc 1 718 0 discriminator 1
 3110 0098 3B68     		ldr	r3, [r7, #0]
 3111 009a 9B88     		ldrh	r3, [r3, #4]
 3112 009c B3F5007F 		cmp	r3, #512
 3113 00a0 04D0     		beq	.L207
 3114              		.loc 1 718 0 discriminator 2
 3115 00a2 3B68     		ldr	r3, [r7, #0]
 3116 00a4 9B88     		ldrh	r3, [r3, #4]
 3117 00a6 B3F5407F 		cmp	r3, #768
 3118 00aa 02D1     		bne	.L208
 3119              	.L207:
 3120              		.loc 1 718 0 discriminator 1
 3121 00ac 4FF00103 		mov	r3, #1
 3122 00b0 01E0     		b	.L209
 3123              	.L208:
 3124              		.loc 1 718 0 discriminator 3
 3125 00b2 4FF00003 		mov	r3, #0
 3126              	.L209:
 3127              		.loc 1 718 0 discriminator 4
 3128 00b6 1846     		mov	r0, r3
 3129 00b8 FFF7FEFF 		bl	assert_param
 719:../libs/StdPeripheralDriver/src/stm32f10x_tim.c ****   assert_param(IS_TIM_BREAK_STATE(TIM_BDTRInitStruct->TIM_Break));
 3130              		.loc 1 719 0 is_stmt 1 discriminator 4
 3131 00bc 3B68     		ldr	r3, [r7, #0]
 3132 00be 1B89     		ldrh	r3, [r3, #8]
 3133 00c0 B3F5805F 		cmp	r3, #4096
 3134 00c4 03D0     		beq	.L210
 3135              		.loc 1 719 0 is_stmt 0 discriminator 2
 3136 00c6 3B68     		ldr	r3, [r7, #0]
 3137 00c8 1B89     		ldrh	r3, [r3, #8]
 3138 00ca 002B     		cmp	r3, #0
 3139 00cc 02D1     		bne	.L211
 3140              	.L210:
 3141              		.loc 1 719 0 discriminator 1
 3142 00ce 4FF00103 		mov	r3, #1
 3143 00d2 01E0     		b	.L212
 3144              	.L211:
 3145              		.loc 1 719 0 discriminator 3
 3146 00d4 4FF00003 		mov	r3, #0
 3147              	.L212:
 3148              		.loc 1 719 0 discriminator 4
 3149 00d8 1846     		mov	r0, r3
 3150 00da FFF7FEFF 		bl	assert_param
 720:../libs/StdPeripheralDriver/src/stm32f10x_tim.c ****   assert_param(IS_TIM_BREAK_POLARITY(TIM_BDTRInitStruct->TIM_BreakPolarity));
 3151              		.loc 1 720 0 is_stmt 1 discriminator 4
 3152 00de 3B68     		ldr	r3, [r7, #0]
 3153 00e0 5B89     		ldrh	r3, [r3, #10]
 3154 00e2 002B     		cmp	r3, #0
 3155 00e4 04D0     		beq	.L213
 3156              		.loc 1 720 0 is_stmt 0 discriminator 2
 3157 00e6 3B68     		ldr	r3, [r7, #0]
 3158 00e8 5B89     		ldrh	r3, [r3, #10]
 3159 00ea B3F5005F 		cmp	r3, #8192
 3160 00ee 02D1     		bne	.L214
 3161              	.L213:
 3162              		.loc 1 720 0 discriminator 1
 3163 00f0 4FF00103 		mov	r3, #1
 3164 00f4 01E0     		b	.L215
 3165              	.L214:
 3166              		.loc 1 720 0 discriminator 3
 3167 00f6 4FF00003 		mov	r3, #0
 3168              	.L215:
 3169              		.loc 1 720 0 discriminator 4
 3170 00fa 1846     		mov	r0, r3
 3171 00fc FFF7FEFF 		bl	assert_param
 721:../libs/StdPeripheralDriver/src/stm32f10x_tim.c ****   assert_param(IS_TIM_AUTOMATIC_OUTPUT_STATE(TIM_BDTRInitStruct->TIM_AutomaticOutput));
 3172              		.loc 1 721 0 is_stmt 1 discriminator 4
 3173 0100 3B68     		ldr	r3, [r7, #0]
 3174 0102 9B89     		ldrh	r3, [r3, #12]
 3175 0104 B3F5804F 		cmp	r3, #16384
 3176 0108 03D0     		beq	.L216
 3177              		.loc 1 721 0 is_stmt 0 discriminator 2
 3178 010a 3B68     		ldr	r3, [r7, #0]
 3179 010c 9B89     		ldrh	r3, [r3, #12]
 3180 010e 002B     		cmp	r3, #0
 3181 0110 02D1     		bne	.L217
 3182              	.L216:
 3183              		.loc 1 721 0 discriminator 1
 3184 0112 4FF00103 		mov	r3, #1
 3185 0116 01E0     		b	.L218
 3186              	.L217:
 3187              		.loc 1 721 0 discriminator 3
 3188 0118 4FF00003 		mov	r3, #0
 3189              	.L218:
 3190              		.loc 1 721 0 discriminator 4
 3191 011c 1846     		mov	r0, r3
 3192 011e FFF7FEFF 		bl	assert_param
 722:../libs/StdPeripheralDriver/src/stm32f10x_tim.c ****   /* Set the Lock level, the Break enable Bit and the Ploarity, the OSSR State,
 723:../libs/StdPeripheralDriver/src/stm32f10x_tim.c ****      the OSSI State, the dead time value and the Automatic Output Enable Bit */
 724:../libs/StdPeripheralDriver/src/stm32f10x_tim.c ****   TIMx->BDTR = (uint32_t)TIM_BDTRInitStruct->TIM_OSSRState | TIM_BDTRInitStruct->TIM_OSSIState |
 3193              		.loc 1 724 0 is_stmt 1 discriminator 4
 3194 0122 3B68     		ldr	r3, [r7, #0]
 3195 0124 1A88     		ldrh	r2, [r3, #0]
 3196 0126 3B68     		ldr	r3, [r7, #0]
 3197 0128 5B88     		ldrh	r3, [r3, #2]
 3198 012a 1343     		orrs	r3, r3, r2
 3199 012c 9AB2     		uxth	r2, r3
 725:../libs/StdPeripheralDriver/src/stm32f10x_tim.c ****              TIM_BDTRInitStruct->TIM_LOCKLevel | TIM_BDTRInitStruct->TIM_DeadTime |
 3200              		.loc 1 725 0 discriminator 4
 3201 012e 3B68     		ldr	r3, [r7, #0]
 3202 0130 9B88     		ldrh	r3, [r3, #4]
 724:../libs/StdPeripheralDriver/src/stm32f10x_tim.c ****   TIMx->BDTR = (uint32_t)TIM_BDTRInitStruct->TIM_OSSRState | TIM_BDTRInitStruct->TIM_OSSIState |
 3203              		.loc 1 724 0 discriminator 4
 3204 0132 1343     		orrs	r3, r3, r2
 3205 0134 9AB2     		uxth	r2, r3
 3206              		.loc 1 725 0 discriminator 4
 3207 0136 3B68     		ldr	r3, [r7, #0]
 3208 0138 DB88     		ldrh	r3, [r3, #6]
 724:../libs/StdPeripheralDriver/src/stm32f10x_tim.c ****   TIMx->BDTR = (uint32_t)TIM_BDTRInitStruct->TIM_OSSRState | TIM_BDTRInitStruct->TIM_OSSIState |
 3209              		.loc 1 724 0 discriminator 4
 3210 013a 1343     		orrs	r3, r3, r2
 3211 013c 9AB2     		uxth	r2, r3
 726:../libs/StdPeripheralDriver/src/stm32f10x_tim.c ****              TIM_BDTRInitStruct->TIM_Break | TIM_BDTRInitStruct->TIM_BreakPolarity |
 3212              		.loc 1 726 0 discriminator 4
 3213 013e 3B68     		ldr	r3, [r7, #0]
 3214 0140 1B89     		ldrh	r3, [r3, #8]
 724:../libs/StdPeripheralDriver/src/stm32f10x_tim.c ****   TIMx->BDTR = (uint32_t)TIM_BDTRInitStruct->TIM_OSSRState | TIM_BDTRInitStruct->TIM_OSSIState |
 3215              		.loc 1 724 0 discriminator 4
 3216 0142 1343     		orrs	r3, r3, r2
 3217 0144 9AB2     		uxth	r2, r3
 3218              		.loc 1 726 0 discriminator 4
 3219 0146 3B68     		ldr	r3, [r7, #0]
 3220 0148 5B89     		ldrh	r3, [r3, #10]
 724:../libs/StdPeripheralDriver/src/stm32f10x_tim.c ****   TIMx->BDTR = (uint32_t)TIM_BDTRInitStruct->TIM_OSSRState | TIM_BDTRInitStruct->TIM_OSSIState |
 3221              		.loc 1 724 0 discriminator 4
 3222 014a 1343     		orrs	r3, r3, r2
 3223 014c 9AB2     		uxth	r2, r3
 727:../libs/StdPeripheralDriver/src/stm32f10x_tim.c ****              TIM_BDTRInitStruct->TIM_AutomaticOutput;
 3224              		.loc 1 727 0 discriminator 4
 3225 014e 3B68     		ldr	r3, [r7, #0]
 3226 0150 9B89     		ldrh	r3, [r3, #12]
 724:../libs/StdPeripheralDriver/src/stm32f10x_tim.c ****   TIMx->BDTR = (uint32_t)TIM_BDTRInitStruct->TIM_OSSRState | TIM_BDTRInitStruct->TIM_OSSIState |
 3227              		.loc 1 724 0 discriminator 4
 3228 0152 1343     		orrs	r3, r3, r2
 3229 0154 9AB2     		uxth	r2, r3
 3230 0156 7B68     		ldr	r3, [r7, #4]
 3231 0158 A3F84420 		strh	r2, [r3, #68]	@ movhi
 728:../libs/StdPeripheralDriver/src/stm32f10x_tim.c **** }
 3232              		.loc 1 728 0 discriminator 4
 3233 015c 07F10807 		add	r7, r7, #8
 3234 0160 BD46     		mov	sp, r7
 3235 0162 80BD     		pop	{r7, pc}
 3236              	.L220:
 3237              		.align	2
 3238              	.L219:
 3239 0164 002C0140 		.word	1073818624
 3240 0168 00340140 		.word	1073820672
 3241 016c 00400140 		.word	1073823744
 3242 0170 00440140 		.word	1073824768
 3243 0174 00480140 		.word	1073825792
 3244              		.cfi_endproc
 3245              	.LFE37:
 3247              		.section	.text.TIM_TimeBaseStructInit,"ax",%progbits
 3248              		.align	2
 3249              		.global	TIM_TimeBaseStructInit
 3250              		.thumb
 3251              		.thumb_func
 3253              	TIM_TimeBaseStructInit:
 3254              	.LFB38:
 729:../libs/StdPeripheralDriver/src/stm32f10x_tim.c **** 
 730:../libs/StdPeripheralDriver/src/stm32f10x_tim.c **** /**
 731:../libs/StdPeripheralDriver/src/stm32f10x_tim.c ****   * @brief  Fills each TIM_TimeBaseInitStruct member with its default value.
 732:../libs/StdPeripheralDriver/src/stm32f10x_tim.c ****   * @param  TIM_TimeBaseInitStruct : pointer to a TIM_TimeBaseInitTypeDef
 733:../libs/StdPeripheralDriver/src/stm32f10x_tim.c ****   *         structure which will be initialized.
 734:../libs/StdPeripheralDriver/src/stm32f10x_tim.c ****   * @retval None
 735:../libs/StdPeripheralDriver/src/stm32f10x_tim.c ****   */
 736:../libs/StdPeripheralDriver/src/stm32f10x_tim.c **** void TIM_TimeBaseStructInit(TIM_TimeBaseInitTypeDef* TIM_TimeBaseInitStruct)
 737:../libs/StdPeripheralDriver/src/stm32f10x_tim.c **** {
 3255              		.loc 1 737 0
 3256              		.cfi_startproc
 3257              		@ args = 0, pretend = 0, frame = 8
 3258              		@ frame_needed = 1, uses_anonymous_args = 0
 3259              		@ link register save eliminated.
 3260 0000 80B4     		push	{r7}
 3261              	.LCFI27:
 3262              		.cfi_def_cfa_offset 4
 3263              		.cfi_offset 7, -4
 3264 0002 83B0     		sub	sp, sp, #12
 3265              	.LCFI28:
 3266              		.cfi_def_cfa_offset 16
 3267 0004 00AF     		add	r7, sp, #0
 3268              	.LCFI29:
 3269              		.cfi_def_cfa_register 7
 3270 0006 7860     		str	r0, [r7, #4]
 738:../libs/StdPeripheralDriver/src/stm32f10x_tim.c ****   /* Set the default configuration */
 739:../libs/StdPeripheralDriver/src/stm32f10x_tim.c ****   TIM_TimeBaseInitStruct->TIM_Period = 0xFFFF;
 3271              		.loc 1 739 0
 3272 0008 7B68     		ldr	r3, [r7, #4]
 3273 000a 4FF6FF72 		movw	r2, #65535
 3274 000e 9A80     		strh	r2, [r3, #4]	@ movhi
 740:../libs/StdPeripheralDriver/src/stm32f10x_tim.c ****   TIM_TimeBaseInitStruct->TIM_Prescaler = 0x0000;
 3275              		.loc 1 740 0
 3276 0010 7B68     		ldr	r3, [r7, #4]
 3277 0012 4FF00002 		mov	r2, #0
 3278 0016 1A80     		strh	r2, [r3, #0]	@ movhi
 741:../libs/StdPeripheralDriver/src/stm32f10x_tim.c ****   TIM_TimeBaseInitStruct->TIM_ClockDivision = TIM_CKD_DIV1;
 3279              		.loc 1 741 0
 3280 0018 7B68     		ldr	r3, [r7, #4]
 3281 001a 4FF00002 		mov	r2, #0
 3282 001e DA80     		strh	r2, [r3, #6]	@ movhi
 742:../libs/StdPeripheralDriver/src/stm32f10x_tim.c ****   TIM_TimeBaseInitStruct->TIM_CounterMode = TIM_CounterMode_Up;
 3283              		.loc 1 742 0
 3284 0020 7B68     		ldr	r3, [r7, #4]
 3285 0022 4FF00002 		mov	r2, #0
 3286 0026 5A80     		strh	r2, [r3, #2]	@ movhi
 743:../libs/StdPeripheralDriver/src/stm32f10x_tim.c ****   TIM_TimeBaseInitStruct->TIM_RepetitionCounter = 0x0000;
 3287              		.loc 1 743 0
 3288 0028 7B68     		ldr	r3, [r7, #4]
 3289 002a 4FF00002 		mov	r2, #0
 3290 002e 1A72     		strb	r2, [r3, #8]
 744:../libs/StdPeripheralDriver/src/stm32f10x_tim.c **** }
 3291              		.loc 1 744 0
 3292 0030 07F10C07 		add	r7, r7, #12
 3293 0034 BD46     		mov	sp, r7
 3294 0036 80BC     		pop	{r7}
 3295 0038 7047     		bx	lr
 3296              		.cfi_endproc
 3297              	.LFE38:
 3299 003a 00BF     		.section	.text.TIM_OCStructInit,"ax",%progbits
 3300              		.align	2
 3301              		.global	TIM_OCStructInit
 3302              		.thumb
 3303              		.thumb_func
 3305              	TIM_OCStructInit:
 3306              	.LFB39:
 745:../libs/StdPeripheralDriver/src/stm32f10x_tim.c **** 
 746:../libs/StdPeripheralDriver/src/stm32f10x_tim.c **** /**
 747:../libs/StdPeripheralDriver/src/stm32f10x_tim.c ****   * @brief  Fills each TIM_OCInitStruct member with its default value.
 748:../libs/StdPeripheralDriver/src/stm32f10x_tim.c ****   * @param  TIM_OCInitStruct : pointer to a TIM_OCInitTypeDef structure which will
 749:../libs/StdPeripheralDriver/src/stm32f10x_tim.c ****   *         be initialized.
 750:../libs/StdPeripheralDriver/src/stm32f10x_tim.c ****   * @retval None
 751:../libs/StdPeripheralDriver/src/stm32f10x_tim.c ****   */
 752:../libs/StdPeripheralDriver/src/stm32f10x_tim.c **** void TIM_OCStructInit(TIM_OCInitTypeDef* TIM_OCInitStruct)
 753:../libs/StdPeripheralDriver/src/stm32f10x_tim.c **** {
 3307              		.loc 1 753 0
 3308              		.cfi_startproc
 3309              		@ args = 0, pretend = 0, frame = 8
 3310              		@ frame_needed = 1, uses_anonymous_args = 0
 3311              		@ link register save eliminated.
 3312 0000 80B4     		push	{r7}
 3313              	.LCFI30:
 3314              		.cfi_def_cfa_offset 4
 3315              		.cfi_offset 7, -4
 3316 0002 83B0     		sub	sp, sp, #12
 3317              	.LCFI31:
 3318              		.cfi_def_cfa_offset 16
 3319 0004 00AF     		add	r7, sp, #0
 3320              	.LCFI32:
 3321              		.cfi_def_cfa_register 7
 3322 0006 7860     		str	r0, [r7, #4]
 754:../libs/StdPeripheralDriver/src/stm32f10x_tim.c ****   /* Set the default configuration */
 755:../libs/StdPeripheralDriver/src/stm32f10x_tim.c ****   TIM_OCInitStruct->TIM_OCMode = TIM_OCMode_Timing;
 3323              		.loc 1 755 0
 3324 0008 7B68     		ldr	r3, [r7, #4]
 3325 000a 4FF00002 		mov	r2, #0
 3326 000e 1A80     		strh	r2, [r3, #0]	@ movhi
 756:../libs/StdPeripheralDriver/src/stm32f10x_tim.c ****   TIM_OCInitStruct->TIM_OutputState = TIM_OutputState_Disable;
 3327              		.loc 1 756 0
 3328 0010 7B68     		ldr	r3, [r7, #4]
 3329 0012 4FF00002 		mov	r2, #0
 3330 0016 5A80     		strh	r2, [r3, #2]	@ movhi
 757:../libs/StdPeripheralDriver/src/stm32f10x_tim.c ****   TIM_OCInitStruct->TIM_OutputNState = TIM_OutputNState_Disable;
 3331              		.loc 1 757 0
 3332 0018 7B68     		ldr	r3, [r7, #4]
 3333 001a 4FF00002 		mov	r2, #0
 3334 001e 9A80     		strh	r2, [r3, #4]	@ movhi
 758:../libs/StdPeripheralDriver/src/stm32f10x_tim.c ****   TIM_OCInitStruct->TIM_Pulse = 0x0000;
 3335              		.loc 1 758 0
 3336 0020 7B68     		ldr	r3, [r7, #4]
 3337 0022 4FF00002 		mov	r2, #0
 3338 0026 DA80     		strh	r2, [r3, #6]	@ movhi
 759:../libs/StdPeripheralDriver/src/stm32f10x_tim.c ****   TIM_OCInitStruct->TIM_OCPolarity = TIM_OCPolarity_High;
 3339              		.loc 1 759 0
 3340 0028 7B68     		ldr	r3, [r7, #4]
 3341 002a 4FF00002 		mov	r2, #0
 3342 002e 1A81     		strh	r2, [r3, #8]	@ movhi
 760:../libs/StdPeripheralDriver/src/stm32f10x_tim.c ****   TIM_OCInitStruct->TIM_OCNPolarity = TIM_OCPolarity_High;
 3343              		.loc 1 760 0
 3344 0030 7B68     		ldr	r3, [r7, #4]
 3345 0032 4FF00002 		mov	r2, #0
 3346 0036 5A81     		strh	r2, [r3, #10]	@ movhi
 761:../libs/StdPeripheralDriver/src/stm32f10x_tim.c ****   TIM_OCInitStruct->TIM_OCIdleState = TIM_OCIdleState_Reset;
 3347              		.loc 1 761 0
 3348 0038 7B68     		ldr	r3, [r7, #4]
 3349 003a 4FF00002 		mov	r2, #0
 3350 003e 9A81     		strh	r2, [r3, #12]	@ movhi
 762:../libs/StdPeripheralDriver/src/stm32f10x_tim.c ****   TIM_OCInitStruct->TIM_OCNIdleState = TIM_OCNIdleState_Reset;
 3351              		.loc 1 762 0
 3352 0040 7B68     		ldr	r3, [r7, #4]
 3353 0042 4FF00002 		mov	r2, #0
 3354 0046 DA81     		strh	r2, [r3, #14]	@ movhi
 763:../libs/StdPeripheralDriver/src/stm32f10x_tim.c **** }
 3355              		.loc 1 763 0
 3356 0048 07F10C07 		add	r7, r7, #12
 3357 004c BD46     		mov	sp, r7
 3358 004e 80BC     		pop	{r7}
 3359 0050 7047     		bx	lr
 3360              		.cfi_endproc
 3361              	.LFE39:
 3363 0052 00BF     		.section	.text.TIM_ICStructInit,"ax",%progbits
 3364              		.align	2
 3365              		.global	TIM_ICStructInit
 3366              		.thumb
 3367              		.thumb_func
 3369              	TIM_ICStructInit:
 3370              	.LFB40:
 764:../libs/StdPeripheralDriver/src/stm32f10x_tim.c **** 
 765:../libs/StdPeripheralDriver/src/stm32f10x_tim.c **** /**
 766:../libs/StdPeripheralDriver/src/stm32f10x_tim.c ****   * @brief  Fills each TIM_ICInitStruct member with its default value.
 767:../libs/StdPeripheralDriver/src/stm32f10x_tim.c ****   * @param  TIM_ICInitStruct: pointer to a TIM_ICInitTypeDef structure which will
 768:../libs/StdPeripheralDriver/src/stm32f10x_tim.c ****   *         be initialized.
 769:../libs/StdPeripheralDriver/src/stm32f10x_tim.c ****   * @retval None
 770:../libs/StdPeripheralDriver/src/stm32f10x_tim.c ****   */
 771:../libs/StdPeripheralDriver/src/stm32f10x_tim.c **** void TIM_ICStructInit(TIM_ICInitTypeDef* TIM_ICInitStruct)
 772:../libs/StdPeripheralDriver/src/stm32f10x_tim.c **** {
 3371              		.loc 1 772 0
 3372              		.cfi_startproc
 3373              		@ args = 0, pretend = 0, frame = 8
 3374              		@ frame_needed = 1, uses_anonymous_args = 0
 3375              		@ link register save eliminated.
 3376 0000 80B4     		push	{r7}
 3377              	.LCFI33:
 3378              		.cfi_def_cfa_offset 4
 3379              		.cfi_offset 7, -4
 3380 0002 83B0     		sub	sp, sp, #12
 3381              	.LCFI34:
 3382              		.cfi_def_cfa_offset 16
 3383 0004 00AF     		add	r7, sp, #0
 3384              	.LCFI35:
 3385              		.cfi_def_cfa_register 7
 3386 0006 7860     		str	r0, [r7, #4]
 773:../libs/StdPeripheralDriver/src/stm32f10x_tim.c ****   /* Set the default configuration */
 774:../libs/StdPeripheralDriver/src/stm32f10x_tim.c ****   TIM_ICInitStruct->TIM_Channel = TIM_Channel_1;
 3387              		.loc 1 774 0
 3388 0008 7B68     		ldr	r3, [r7, #4]
 3389 000a 4FF00002 		mov	r2, #0
 3390 000e 1A80     		strh	r2, [r3, #0]	@ movhi
 775:../libs/StdPeripheralDriver/src/stm32f10x_tim.c ****   TIM_ICInitStruct->TIM_ICPolarity = TIM_ICPolarity_Rising;
 3391              		.loc 1 775 0
 3392 0010 7B68     		ldr	r3, [r7, #4]
 3393 0012 4FF00002 		mov	r2, #0
 3394 0016 5A80     		strh	r2, [r3, #2]	@ movhi
 776:../libs/StdPeripheralDriver/src/stm32f10x_tim.c ****   TIM_ICInitStruct->TIM_ICSelection = TIM_ICSelection_DirectTI;
 3395              		.loc 1 776 0
 3396 0018 7B68     		ldr	r3, [r7, #4]
 3397 001a 4FF00102 		mov	r2, #1
 3398 001e 9A80     		strh	r2, [r3, #4]	@ movhi
 777:../libs/StdPeripheralDriver/src/stm32f10x_tim.c ****   TIM_ICInitStruct->TIM_ICPrescaler = TIM_ICPSC_DIV1;
 3399              		.loc 1 777 0
 3400 0020 7B68     		ldr	r3, [r7, #4]
 3401 0022 4FF00002 		mov	r2, #0
 3402 0026 DA80     		strh	r2, [r3, #6]	@ movhi
 778:../libs/StdPeripheralDriver/src/stm32f10x_tim.c ****   TIM_ICInitStruct->TIM_ICFilter = 0x00;
 3403              		.loc 1 778 0
 3404 0028 7B68     		ldr	r3, [r7, #4]
 3405 002a 4FF00002 		mov	r2, #0
 3406 002e 1A81     		strh	r2, [r3, #8]	@ movhi
 779:../libs/StdPeripheralDriver/src/stm32f10x_tim.c **** }
 3407              		.loc 1 779 0
 3408 0030 07F10C07 		add	r7, r7, #12
 3409 0034 BD46     		mov	sp, r7
 3410 0036 80BC     		pop	{r7}
 3411 0038 7047     		bx	lr
 3412              		.cfi_endproc
 3413              	.LFE40:
 3415 003a 00BF     		.section	.text.TIM_BDTRStructInit,"ax",%progbits
 3416              		.align	2
 3417              		.global	TIM_BDTRStructInit
 3418              		.thumb
 3419              		.thumb_func
 3421              	TIM_BDTRStructInit:
 3422              	.LFB41:
 780:../libs/StdPeripheralDriver/src/stm32f10x_tim.c **** 
 781:../libs/StdPeripheralDriver/src/stm32f10x_tim.c **** /**
 782:../libs/StdPeripheralDriver/src/stm32f10x_tim.c ****   * @brief  Fills each TIM_BDTRInitStruct member with its default value.
 783:../libs/StdPeripheralDriver/src/stm32f10x_tim.c ****   * @param  TIM_BDTRInitStruct: pointer to a TIM_BDTRInitTypeDef structure which
 784:../libs/StdPeripheralDriver/src/stm32f10x_tim.c ****   *         will be initialized.
 785:../libs/StdPeripheralDriver/src/stm32f10x_tim.c ****   * @retval None
 786:../libs/StdPeripheralDriver/src/stm32f10x_tim.c ****   */
 787:../libs/StdPeripheralDriver/src/stm32f10x_tim.c **** void TIM_BDTRStructInit(TIM_BDTRInitTypeDef* TIM_BDTRInitStruct)
 788:../libs/StdPeripheralDriver/src/stm32f10x_tim.c **** {
 3423              		.loc 1 788 0
 3424              		.cfi_startproc
 3425              		@ args = 0, pretend = 0, frame = 8
 3426              		@ frame_needed = 1, uses_anonymous_args = 0
 3427              		@ link register save eliminated.
 3428 0000 80B4     		push	{r7}
 3429              	.LCFI36:
 3430              		.cfi_def_cfa_offset 4
 3431              		.cfi_offset 7, -4
 3432 0002 83B0     		sub	sp, sp, #12
 3433              	.LCFI37:
 3434              		.cfi_def_cfa_offset 16
 3435 0004 00AF     		add	r7, sp, #0
 3436              	.LCFI38:
 3437              		.cfi_def_cfa_register 7
 3438 0006 7860     		str	r0, [r7, #4]
 789:../libs/StdPeripheralDriver/src/stm32f10x_tim.c ****   /* Set the default configuration */
 790:../libs/StdPeripheralDriver/src/stm32f10x_tim.c ****   TIM_BDTRInitStruct->TIM_OSSRState = TIM_OSSRState_Disable;
 3439              		.loc 1 790 0
 3440 0008 7B68     		ldr	r3, [r7, #4]
 3441 000a 4FF00002 		mov	r2, #0
 3442 000e 1A80     		strh	r2, [r3, #0]	@ movhi
 791:../libs/StdPeripheralDriver/src/stm32f10x_tim.c ****   TIM_BDTRInitStruct->TIM_OSSIState = TIM_OSSIState_Disable;
 3443              		.loc 1 791 0
 3444 0010 7B68     		ldr	r3, [r7, #4]
 3445 0012 4FF00002 		mov	r2, #0
 3446 0016 5A80     		strh	r2, [r3, #2]	@ movhi
 792:../libs/StdPeripheralDriver/src/stm32f10x_tim.c ****   TIM_BDTRInitStruct->TIM_LOCKLevel = TIM_LOCKLevel_OFF;
 3447              		.loc 1 792 0
 3448 0018 7B68     		ldr	r3, [r7, #4]
 3449 001a 4FF00002 		mov	r2, #0
 3450 001e 9A80     		strh	r2, [r3, #4]	@ movhi
 793:../libs/StdPeripheralDriver/src/stm32f10x_tim.c ****   TIM_BDTRInitStruct->TIM_DeadTime = 0x00;
 3451              		.loc 1 793 0
 3452 0020 7B68     		ldr	r3, [r7, #4]
 3453 0022 4FF00002 		mov	r2, #0
 3454 0026 DA80     		strh	r2, [r3, #6]	@ movhi
 794:../libs/StdPeripheralDriver/src/stm32f10x_tim.c ****   TIM_BDTRInitStruct->TIM_Break = TIM_Break_Disable;
 3455              		.loc 1 794 0
 3456 0028 7B68     		ldr	r3, [r7, #4]
 3457 002a 4FF00002 		mov	r2, #0
 3458 002e 1A81     		strh	r2, [r3, #8]	@ movhi
 795:../libs/StdPeripheralDriver/src/stm32f10x_tim.c ****   TIM_BDTRInitStruct->TIM_BreakPolarity = TIM_BreakPolarity_Low;
 3459              		.loc 1 795 0
 3460 0030 7B68     		ldr	r3, [r7, #4]
 3461 0032 4FF00002 		mov	r2, #0
 3462 0036 5A81     		strh	r2, [r3, #10]	@ movhi
 796:../libs/StdPeripheralDriver/src/stm32f10x_tim.c ****   TIM_BDTRInitStruct->TIM_AutomaticOutput = TIM_AutomaticOutput_Disable;
 3463              		.loc 1 796 0
 3464 0038 7B68     		ldr	r3, [r7, #4]
 3465 003a 4FF00002 		mov	r2, #0
 3466 003e 9A81     		strh	r2, [r3, #12]	@ movhi
 797:../libs/StdPeripheralDriver/src/stm32f10x_tim.c **** }
 3467              		.loc 1 797 0
 3468 0040 07F10C07 		add	r7, r7, #12
 3469 0044 BD46     		mov	sp, r7
 3470 0046 80BC     		pop	{r7}
 3471 0048 7047     		bx	lr
 3472              		.cfi_endproc
 3473              	.LFE41:
 3475 004a 00BF     		.section	.text.TIM_Cmd,"ax",%progbits
 3476              		.align	2
 3477              		.global	TIM_Cmd
 3478              		.thumb
 3479              		.thumb_func
 3481              	TIM_Cmd:
 3482              	.LFB42:
 798:../libs/StdPeripheralDriver/src/stm32f10x_tim.c **** 
 799:../libs/StdPeripheralDriver/src/stm32f10x_tim.c **** /**
 800:../libs/StdPeripheralDriver/src/stm32f10x_tim.c ****   * @brief  Enables or disables the specified TIM peripheral.
 801:../libs/StdPeripheralDriver/src/stm32f10x_tim.c ****   * @param  TIMx: where x can be 1 to 17 to select the TIMx peripheral.
 802:../libs/StdPeripheralDriver/src/stm32f10x_tim.c ****   * @param  NewState: new state of the TIMx peripheral.
 803:../libs/StdPeripheralDriver/src/stm32f10x_tim.c ****   *   This parameter can be: ENABLE or DISABLE.
 804:../libs/StdPeripheralDriver/src/stm32f10x_tim.c ****   * @retval None
 805:../libs/StdPeripheralDriver/src/stm32f10x_tim.c ****   */
 806:../libs/StdPeripheralDriver/src/stm32f10x_tim.c **** void TIM_Cmd(TIM_TypeDef* TIMx, FunctionalState NewState)
 807:../libs/StdPeripheralDriver/src/stm32f10x_tim.c **** {
 3483              		.loc 1 807 0
 3484              		.cfi_startproc
 3485              		@ args = 0, pretend = 0, frame = 8
 3486              		@ frame_needed = 1, uses_anonymous_args = 0
 3487 0000 80B5     		push	{r7, lr}
 3488              	.LCFI39:
 3489              		.cfi_def_cfa_offset 8
 3490              		.cfi_offset 7, -8
 3491              		.cfi_offset 14, -4
 3492 0002 82B0     		sub	sp, sp, #8
 3493              	.LCFI40:
 3494              		.cfi_def_cfa_offset 16
 3495 0004 00AF     		add	r7, sp, #0
 3496              	.LCFI41:
 3497              		.cfi_def_cfa_register 7
 3498 0006 7860     		str	r0, [r7, #4]
 3499 0008 0B46     		mov	r3, r1
 3500 000a FB70     		strb	r3, [r7, #3]
 808:../libs/StdPeripheralDriver/src/stm32f10x_tim.c ****   /* Check the parameters */
 809:../libs/StdPeripheralDriver/src/stm32f10x_tim.c ****   assert_param(IS_TIM_ALL_PERIPH(TIMx));
 3501              		.loc 1 809 0
 3502 000c 7A68     		ldr	r2, [r7, #4]
 3503 000e 384B     		ldr	r3, .L234
 3504 0010 9A42     		cmp	r2, r3
 3505 0012 3FD0     		beq	.L226
 3506              		.loc 1 809 0 is_stmt 0 discriminator 2
 3507 0014 7B68     		ldr	r3, [r7, #4]
 3508 0016 B3F1804F 		cmp	r3, #1073741824
 3509 001a 3BD0     		beq	.L226
 3510              		.loc 1 809 0 discriminator 1
 3511 001c 7A68     		ldr	r2, [r7, #4]
 3512 001e 354B     		ldr	r3, .L234+4
 3513 0020 9A42     		cmp	r2, r3
 3514 0022 37D0     		beq	.L226
 3515              		.loc 1 809 0 discriminator 2
 3516 0024 7A68     		ldr	r2, [r7, #4]
 3517 0026 344B     		ldr	r3, .L234+8
 3518 0028 9A42     		cmp	r2, r3
 3519 002a 33D0     		beq	.L226
 3520              		.loc 1 809 0 discriminator 3
 3521 002c 7A68     		ldr	r2, [r7, #4]
 3522 002e 334B     		ldr	r3, .L234+12
 3523 0030 9A42     		cmp	r2, r3
 3524 0032 2FD0     		beq	.L226
 3525              		.loc 1 809 0 discriminator 4
 3526 0034 7A68     		ldr	r2, [r7, #4]
 3527 0036 324B     		ldr	r3, .L234+16
 3528 0038 9A42     		cmp	r2, r3
 3529 003a 2BD0     		beq	.L226
 3530              		.loc 1 809 0 discriminator 5
 3531 003c 7A68     		ldr	r2, [r7, #4]
 3532 003e 314B     		ldr	r3, .L234+20
 3533 0040 9A42     		cmp	r2, r3
 3534 0042 27D0     		beq	.L226
 3535              		.loc 1 809 0 discriminator 6
 3536 0044 7A68     		ldr	r2, [r7, #4]
 3537 0046 304B     		ldr	r3, .L234+24
 3538 0048 9A42     		cmp	r2, r3
 3539 004a 23D0     		beq	.L226
 3540              		.loc 1 809 0 discriminator 7
 3541 004c 7A68     		ldr	r2, [r7, #4]
 3542 004e 2F4B     		ldr	r3, .L234+28
 3543 0050 9A42     		cmp	r2, r3
 3544 0052 1FD0     		beq	.L226
 3545              		.loc 1 809 0 discriminator 8
 3546 0054 7A68     		ldr	r2, [r7, #4]
 3547 0056 2E4B     		ldr	r3, .L234+32
 3548 0058 9A42     		cmp	r2, r3
 3549 005a 1BD0     		beq	.L226
 3550              		.loc 1 809 0 discriminator 9
 3551 005c 7A68     		ldr	r2, [r7, #4]
 3552 005e 2D4B     		ldr	r3, .L234+36
 3553 0060 9A42     		cmp	r2, r3
 3554 0062 17D0     		beq	.L226
 3555              		.loc 1 809 0 discriminator 10
 3556 0064 7A68     		ldr	r2, [r7, #4]
 3557 0066 2C4B     		ldr	r3, .L234+40
 3558 0068 9A42     		cmp	r2, r3
 3559 006a 13D0     		beq	.L226
 3560              		.loc 1 809 0 discriminator 11
 3561 006c 7A68     		ldr	r2, [r7, #4]
 3562 006e 2B4B     		ldr	r3, .L234+44
 3563 0070 9A42     		cmp	r2, r3
 3564 0072 0FD0     		beq	.L226
 3565              		.loc 1 809 0 discriminator 12
 3566 0074 7A68     		ldr	r2, [r7, #4]
 3567 0076 2A4B     		ldr	r3, .L234+48
 3568 0078 9A42     		cmp	r2, r3
 3569 007a 0BD0     		beq	.L226
 3570              		.loc 1 809 0 discriminator 13
 3571 007c 7A68     		ldr	r2, [r7, #4]
 3572 007e 294B     		ldr	r3, .L234+52
 3573 0080 9A42     		cmp	r2, r3
 3574 0082 07D0     		beq	.L226
 3575              		.loc 1 809 0 discriminator 14
 3576 0084 7A68     		ldr	r2, [r7, #4]
 3577 0086 284B     		ldr	r3, .L234+56
 3578 0088 9A42     		cmp	r2, r3
 3579 008a 03D0     		beq	.L226
 3580              		.loc 1 809 0 discriminator 15
 3581 008c 7A68     		ldr	r2, [r7, #4]
 3582 008e 274B     		ldr	r3, .L234+60
 3583 0090 9A42     		cmp	r2, r3
 3584 0092 02D1     		bne	.L227
 3585              	.L226:
 3586              		.loc 1 809 0 discriminator 1
 3587 0094 4FF00103 		mov	r3, #1
 3588 0098 01E0     		b	.L228
 3589              	.L227:
 3590              		.loc 1 809 0 discriminator 3
 3591 009a 4FF00003 		mov	r3, #0
 3592              	.L228:
 3593              		.loc 1 809 0 discriminator 4
 3594 009e 1846     		mov	r0, r3
 3595 00a0 FFF7FEFF 		bl	assert_param
 810:../libs/StdPeripheralDriver/src/stm32f10x_tim.c ****   assert_param(IS_FUNCTIONAL_STATE(NewState));
 3596              		.loc 1 810 0 is_stmt 1 discriminator 4
 3597 00a4 FB78     		ldrb	r3, [r7, #3]	@ zero_extendqisi2
 3598 00a6 002B     		cmp	r3, #0
 3599 00a8 02D0     		beq	.L229
 3600              		.loc 1 810 0 is_stmt 0 discriminator 2
 3601 00aa FB78     		ldrb	r3, [r7, #3]	@ zero_extendqisi2
 3602 00ac 012B     		cmp	r3, #1
 3603 00ae 02D1     		bne	.L230
 3604              	.L229:
 3605              		.loc 1 810 0 discriminator 1
 3606 00b0 4FF00103 		mov	r3, #1
 3607 00b4 01E0     		b	.L231
 3608              	.L230:
 3609              		.loc 1 810 0 discriminator 3
 3610 00b6 4FF00003 		mov	r3, #0
 3611              	.L231:
 3612              		.loc 1 810 0 discriminator 4
 3613 00ba 1846     		mov	r0, r3
 3614 00bc FFF7FEFF 		bl	assert_param
 811:../libs/StdPeripheralDriver/src/stm32f10x_tim.c ****   
 812:../libs/StdPeripheralDriver/src/stm32f10x_tim.c ****   if (NewState != DISABLE)
 3615              		.loc 1 812 0 is_stmt 1 discriminator 4
 3616 00c0 FB78     		ldrb	r3, [r7, #3]	@ zero_extendqisi2
 3617 00c2 002B     		cmp	r3, #0
 3618 00c4 08D0     		beq	.L232
 813:../libs/StdPeripheralDriver/src/stm32f10x_tim.c ****   {
 814:../libs/StdPeripheralDriver/src/stm32f10x_tim.c ****     /* Enable the TIM Counter */
 815:../libs/StdPeripheralDriver/src/stm32f10x_tim.c ****     TIMx->CR1 |= TIM_CR1_CEN;
 3619              		.loc 1 815 0
 3620 00c6 7B68     		ldr	r3, [r7, #4]
 3621 00c8 1B88     		ldrh	r3, [r3, #0]	@ movhi
 3622 00ca 9BB2     		uxth	r3, r3
 3623 00cc 43F00103 		orr	r3, r3, #1
 3624 00d0 9AB2     		uxth	r2, r3
 3625 00d2 7B68     		ldr	r3, [r7, #4]
 3626 00d4 1A80     		strh	r2, [r3, #0]	@ movhi
 3627 00d6 07E0     		b	.L225
 3628              	.L232:
 816:../libs/StdPeripheralDriver/src/stm32f10x_tim.c ****   }
 817:../libs/StdPeripheralDriver/src/stm32f10x_tim.c ****   else
 818:../libs/StdPeripheralDriver/src/stm32f10x_tim.c ****   {
 819:../libs/StdPeripheralDriver/src/stm32f10x_tim.c ****     /* Disable the TIM Counter */
 820:../libs/StdPeripheralDriver/src/stm32f10x_tim.c ****     TIMx->CR1 &= (uint16_t)(~((uint16_t)TIM_CR1_CEN));
 3629              		.loc 1 820 0
 3630 00d8 7B68     		ldr	r3, [r7, #4]
 3631 00da 1B88     		ldrh	r3, [r3, #0]	@ movhi
 3632 00dc 9BB2     		uxth	r3, r3
 3633 00de 23F00103 		bic	r3, r3, #1
 3634 00e2 9AB2     		uxth	r2, r3
 3635 00e4 7B68     		ldr	r3, [r7, #4]
 3636 00e6 1A80     		strh	r2, [r3, #0]	@ movhi
 3637              	.L225:
 821:../libs/StdPeripheralDriver/src/stm32f10x_tim.c ****   }
 822:../libs/StdPeripheralDriver/src/stm32f10x_tim.c **** }
 3638              		.loc 1 822 0
 3639 00e8 07F10807 		add	r7, r7, #8
 3640 00ec BD46     		mov	sp, r7
 3641 00ee 80BD     		pop	{r7, pc}
 3642              	.L235:
 3643              		.align	2
 3644              	.L234:
 3645 00f0 002C0140 		.word	1073818624
 3646 00f4 00040040 		.word	1073742848
 3647 00f8 00080040 		.word	1073743872
 3648 00fc 000C0040 		.word	1073744896
 3649 0100 00100040 		.word	1073745920
 3650 0104 00140040 		.word	1073746944
 3651 0108 00340140 		.word	1073820672
 3652 010c 004C0140 		.word	1073826816
 3653 0110 00500140 		.word	1073827840
 3654 0114 00540140 		.word	1073828864
 3655 0118 00180040 		.word	1073747968
 3656 011c 001C0040 		.word	1073748992
 3657 0120 00200040 		.word	1073750016
 3658 0124 00400140 		.word	1073823744
 3659 0128 00440140 		.word	1073824768
 3660 012c 00480140 		.word	1073825792
 3661              		.cfi_endproc
 3662              	.LFE42:
 3664              		.section	.text.TIM_CtrlPWMOutputs,"ax",%progbits
 3665              		.align	2
 3666              		.global	TIM_CtrlPWMOutputs
 3667              		.thumb
 3668              		.thumb_func
 3670              	TIM_CtrlPWMOutputs:
 3671              	.LFB43:
 823:../libs/StdPeripheralDriver/src/stm32f10x_tim.c **** 
 824:../libs/StdPeripheralDriver/src/stm32f10x_tim.c **** /**
 825:../libs/StdPeripheralDriver/src/stm32f10x_tim.c ****   * @brief  Enables or disables the TIM peripheral Main Outputs.
 826:../libs/StdPeripheralDriver/src/stm32f10x_tim.c ****   * @param  TIMx: where x can be 1, 8, 15, 16 or 17 to select the TIMx peripheral.
 827:../libs/StdPeripheralDriver/src/stm32f10x_tim.c ****   * @param  NewState: new state of the TIM peripheral Main Outputs.
 828:../libs/StdPeripheralDriver/src/stm32f10x_tim.c ****   *   This parameter can be: ENABLE or DISABLE.
 829:../libs/StdPeripheralDriver/src/stm32f10x_tim.c ****   * @retval None
 830:../libs/StdPeripheralDriver/src/stm32f10x_tim.c ****   */
 831:../libs/StdPeripheralDriver/src/stm32f10x_tim.c **** void TIM_CtrlPWMOutputs(TIM_TypeDef* TIMx, FunctionalState NewState)
 832:../libs/StdPeripheralDriver/src/stm32f10x_tim.c **** {
 3672              		.loc 1 832 0
 3673              		.cfi_startproc
 3674              		@ args = 0, pretend = 0, frame = 8
 3675              		@ frame_needed = 1, uses_anonymous_args = 0
 3676 0000 80B5     		push	{r7, lr}
 3677              	.LCFI42:
 3678              		.cfi_def_cfa_offset 8
 3679              		.cfi_offset 7, -8
 3680              		.cfi_offset 14, -4
 3681 0002 82B0     		sub	sp, sp, #8
 3682              	.LCFI43:
 3683              		.cfi_def_cfa_offset 16
 3684 0004 00AF     		add	r7, sp, #0
 3685              	.LCFI44:
 3686              		.cfi_def_cfa_register 7
 3687 0006 7860     		str	r0, [r7, #4]
 3688 0008 0B46     		mov	r3, r1
 3689 000a FB70     		strb	r3, [r7, #3]
 833:../libs/StdPeripheralDriver/src/stm32f10x_tim.c ****   /* Check the parameters */
 834:../libs/StdPeripheralDriver/src/stm32f10x_tim.c ****   assert_param(IS_TIM_LIST2_PERIPH(TIMx));
 3690              		.loc 1 834 0
 3691 000c 7A68     		ldr	r2, [r7, #4]
 3692 000e 244B     		ldr	r3, .L245
 3693 0010 9A42     		cmp	r2, r3
 3694 0012 0FD0     		beq	.L237
 3695              		.loc 1 834 0 is_stmt 0 discriminator 2
 3696 0014 7A68     		ldr	r2, [r7, #4]
 3697 0016 234B     		ldr	r3, .L245+4
 3698 0018 9A42     		cmp	r2, r3
 3699 001a 0BD0     		beq	.L237
 3700              		.loc 1 834 0 discriminator 1
 3701 001c 7A68     		ldr	r2, [r7, #4]
 3702 001e 224B     		ldr	r3, .L245+8
 3703 0020 9A42     		cmp	r2, r3
 3704 0022 07D0     		beq	.L237
 3705              		.loc 1 834 0 discriminator 2
 3706 0024 7A68     		ldr	r2, [r7, #4]
 3707 0026 214B     		ldr	r3, .L245+12
 3708 0028 9A42     		cmp	r2, r3
 3709 002a 03D0     		beq	.L237
 3710              		.loc 1 834 0 discriminator 3
 3711 002c 7A68     		ldr	r2, [r7, #4]
 3712 002e 204B     		ldr	r3, .L245+16
 3713 0030 9A42     		cmp	r2, r3
 3714 0032 02D1     		bne	.L238
 3715              	.L237:
 3716              		.loc 1 834 0 discriminator 1
 3717 0034 4FF00103 		mov	r3, #1
 3718 0038 01E0     		b	.L239
 3719              	.L238:
 3720              		.loc 1 834 0 discriminator 3
 3721 003a 4FF00003 		mov	r3, #0
 3722              	.L239:
 3723              		.loc 1 834 0 discriminator 4
 3724 003e 1846     		mov	r0, r3
 3725 0040 FFF7FEFF 		bl	assert_param
 835:../libs/StdPeripheralDriver/src/stm32f10x_tim.c ****   assert_param(IS_FUNCTIONAL_STATE(NewState));
 3726              		.loc 1 835 0 is_stmt 1 discriminator 4
 3727 0044 FB78     		ldrb	r3, [r7, #3]	@ zero_extendqisi2
 3728 0046 002B     		cmp	r3, #0
 3729 0048 02D0     		beq	.L240
 3730              		.loc 1 835 0 is_stmt 0 discriminator 2
 3731 004a FB78     		ldrb	r3, [r7, #3]	@ zero_extendqisi2
 3732 004c 012B     		cmp	r3, #1
 3733 004e 02D1     		bne	.L241
 3734              	.L240:
 3735              		.loc 1 835 0 discriminator 1
 3736 0050 4FF00103 		mov	r3, #1
 3737 0054 01E0     		b	.L242
 3738              	.L241:
 3739              		.loc 1 835 0 discriminator 3
 3740 0056 4FF00003 		mov	r3, #0
 3741              	.L242:
 3742              		.loc 1 835 0 discriminator 4
 3743 005a 1846     		mov	r0, r3
 3744 005c FFF7FEFF 		bl	assert_param
 836:../libs/StdPeripheralDriver/src/stm32f10x_tim.c ****   if (NewState != DISABLE)
 3745              		.loc 1 836 0 is_stmt 1 discriminator 4
 3746 0060 FB78     		ldrb	r3, [r7, #3]	@ zero_extendqisi2
 3747 0062 002B     		cmp	r3, #0
 3748 0064 0CD0     		beq	.L243
 837:../libs/StdPeripheralDriver/src/stm32f10x_tim.c ****   {
 838:../libs/StdPeripheralDriver/src/stm32f10x_tim.c ****     /* Enable the TIM Main Output */
 839:../libs/StdPeripheralDriver/src/stm32f10x_tim.c ****     TIMx->BDTR |= TIM_BDTR_MOE;
 3749              		.loc 1 839 0
 3750 0066 7B68     		ldr	r3, [r7, #4]
 3751 0068 B3F84430 		ldrh	r3, [r3, #68]	@ movhi
 3752 006c 9BB2     		uxth	r3, r3
 3753 006e 6FEA4343 		mvn	r3, r3, lsl #17
 3754 0072 6FEA5343 		mvn	r3, r3, lsr #17
 3755 0076 9AB2     		uxth	r2, r3
 3756 0078 7B68     		ldr	r3, [r7, #4]
 3757 007a A3F84420 		strh	r2, [r3, #68]	@ movhi
 3758 007e 0BE0     		b	.L236
 3759              	.L243:
 840:../libs/StdPeripheralDriver/src/stm32f10x_tim.c ****   }
 841:../libs/StdPeripheralDriver/src/stm32f10x_tim.c ****   else
 842:../libs/StdPeripheralDriver/src/stm32f10x_tim.c ****   {
 843:../libs/StdPeripheralDriver/src/stm32f10x_tim.c ****     /* Disable the TIM Main Output */
 844:../libs/StdPeripheralDriver/src/stm32f10x_tim.c ****     TIMx->BDTR &= (uint16_t)(~((uint16_t)TIM_BDTR_MOE));
 3760              		.loc 1 844 0
 3761 0080 7B68     		ldr	r3, [r7, #4]
 3762 0082 B3F84430 		ldrh	r3, [r3, #68]	@ movhi
 3763 0086 9BB2     		uxth	r3, r3
 3764 0088 4FEA4343 		lsl	r3, r3, #17
 3765 008c 4FEA5343 		lsr	r3, r3, #17
 3766 0090 9AB2     		uxth	r2, r3
 3767 0092 7B68     		ldr	r3, [r7, #4]
 3768 0094 A3F84420 		strh	r2, [r3, #68]	@ movhi
 3769              	.L236:
 845:../libs/StdPeripheralDriver/src/stm32f10x_tim.c ****   }  
 846:../libs/StdPeripheralDriver/src/stm32f10x_tim.c **** }
 3770              		.loc 1 846 0
 3771 0098 07F10807 		add	r7, r7, #8
 3772 009c BD46     		mov	sp, r7
 3773 009e 80BD     		pop	{r7, pc}
 3774              	.L246:
 3775              		.align	2
 3776              	.L245:
 3777 00a0 002C0140 		.word	1073818624
 3778 00a4 00340140 		.word	1073820672
 3779 00a8 00400140 		.word	1073823744
 3780 00ac 00440140 		.word	1073824768
 3781 00b0 00480140 		.word	1073825792
 3782              		.cfi_endproc
 3783              	.LFE43:
 3785              		.section	.text.TIM_ITConfig,"ax",%progbits
 3786              		.align	2
 3787              		.global	TIM_ITConfig
 3788              		.thumb
 3789              		.thumb_func
 3791              	TIM_ITConfig:
 3792              	.LFB44:
 847:../libs/StdPeripheralDriver/src/stm32f10x_tim.c **** 
 848:../libs/StdPeripheralDriver/src/stm32f10x_tim.c **** /**
 849:../libs/StdPeripheralDriver/src/stm32f10x_tim.c ****   * @brief  Enables or disables the specified TIM interrupts.
 850:../libs/StdPeripheralDriver/src/stm32f10x_tim.c ****   * @param  TIMx: where x can be 1 to 17 to select the TIMx peripheral.
 851:../libs/StdPeripheralDriver/src/stm32f10x_tim.c ****   * @param  TIM_IT: specifies the TIM interrupts sources to be enabled or disabled.
 852:../libs/StdPeripheralDriver/src/stm32f10x_tim.c ****   *   This parameter can be any combination of the following values:
 853:../libs/StdPeripheralDriver/src/stm32f10x_tim.c ****   *     @arg TIM_IT_Update: TIM update Interrupt source
 854:../libs/StdPeripheralDriver/src/stm32f10x_tim.c ****   *     @arg TIM_IT_CC1: TIM Capture Compare 1 Interrupt source
 855:../libs/StdPeripheralDriver/src/stm32f10x_tim.c ****   *     @arg TIM_IT_CC2: TIM Capture Compare 2 Interrupt source
 856:../libs/StdPeripheralDriver/src/stm32f10x_tim.c ****   *     @arg TIM_IT_CC3: TIM Capture Compare 3 Interrupt source
 857:../libs/StdPeripheralDriver/src/stm32f10x_tim.c ****   *     @arg TIM_IT_CC4: TIM Capture Compare 4 Interrupt source
 858:../libs/StdPeripheralDriver/src/stm32f10x_tim.c ****   *     @arg TIM_IT_COM: TIM Commutation Interrupt source
 859:../libs/StdPeripheralDriver/src/stm32f10x_tim.c ****   *     @arg TIM_IT_Trigger: TIM Trigger Interrupt source
 860:../libs/StdPeripheralDriver/src/stm32f10x_tim.c ****   *     @arg TIM_IT_Break: TIM Break Interrupt source
 861:../libs/StdPeripheralDriver/src/stm32f10x_tim.c ****   * @note 
 862:../libs/StdPeripheralDriver/src/stm32f10x_tim.c ****   *   - TIM6 and TIM7 can only generate an update interrupt.
 863:../libs/StdPeripheralDriver/src/stm32f10x_tim.c ****   *   - TIM9, TIM12 and TIM15 can have only TIM_IT_Update, TIM_IT_CC1,
 864:../libs/StdPeripheralDriver/src/stm32f10x_tim.c ****   *      TIM_IT_CC2 or TIM_IT_Trigger. 
 865:../libs/StdPeripheralDriver/src/stm32f10x_tim.c ****   *   - TIM10, TIM11, TIM13, TIM14, TIM16 and TIM17 can have TIM_IT_Update or TIM_IT_CC1.   
 866:../libs/StdPeripheralDriver/src/stm32f10x_tim.c ****   *   - TIM_IT_Break is used only with TIM1, TIM8 and TIM15. 
 867:../libs/StdPeripheralDriver/src/stm32f10x_tim.c ****   *   - TIM_IT_COM is used only with TIM1, TIM8, TIM15, TIM16 and TIM17.    
 868:../libs/StdPeripheralDriver/src/stm32f10x_tim.c ****   * @param  NewState: new state of the TIM interrupts.
 869:../libs/StdPeripheralDriver/src/stm32f10x_tim.c ****   *   This parameter can be: ENABLE or DISABLE.
 870:../libs/StdPeripheralDriver/src/stm32f10x_tim.c ****   * @retval None
 871:../libs/StdPeripheralDriver/src/stm32f10x_tim.c ****   */
 872:../libs/StdPeripheralDriver/src/stm32f10x_tim.c **** void TIM_ITConfig(TIM_TypeDef* TIMx, uint16_t TIM_IT, FunctionalState NewState)
 873:../libs/StdPeripheralDriver/src/stm32f10x_tim.c **** {  
 3793              		.loc 1 873 0
 3794              		.cfi_startproc
 3795              		@ args = 0, pretend = 0, frame = 8
 3796              		@ frame_needed = 1, uses_anonymous_args = 0
 3797 0000 80B5     		push	{r7, lr}
 3798              	.LCFI45:
 3799              		.cfi_def_cfa_offset 8
 3800              		.cfi_offset 7, -8
 3801              		.cfi_offset 14, -4
 3802 0002 82B0     		sub	sp, sp, #8
 3803              	.LCFI46:
 3804              		.cfi_def_cfa_offset 16
 3805 0004 00AF     		add	r7, sp, #0
 3806              	.LCFI47:
 3807              		.cfi_def_cfa_register 7
 3808 0006 7860     		str	r0, [r7, #4]
 3809 0008 1346     		mov	r3, r2
 3810 000a 0A46     		mov	r2, r1	@ movhi
 3811 000c 7A80     		strh	r2, [r7, #2]	@ movhi
 3812 000e 7B70     		strb	r3, [r7, #1]
 874:../libs/StdPeripheralDriver/src/stm32f10x_tim.c ****   /* Check the parameters */
 875:../libs/StdPeripheralDriver/src/stm32f10x_tim.c ****   assert_param(IS_TIM_ALL_PERIPH(TIMx));
 3813              		.loc 1 875 0
 3814 0010 7A68     		ldr	r2, [r7, #4]
 3815 0012 424B     		ldr	r3, .L258
 3816 0014 9A42     		cmp	r2, r3
 3817 0016 3FD0     		beq	.L248
 3818              		.loc 1 875 0 is_stmt 0 discriminator 2
 3819 0018 7B68     		ldr	r3, [r7, #4]
 3820 001a B3F1804F 		cmp	r3, #1073741824
 3821 001e 3BD0     		beq	.L248
 3822              		.loc 1 875 0 discriminator 1
 3823 0020 7A68     		ldr	r2, [r7, #4]
 3824 0022 3F4B     		ldr	r3, .L258+4
 3825 0024 9A42     		cmp	r2, r3
 3826 0026 37D0     		beq	.L248
 3827              		.loc 1 875 0 discriminator 2
 3828 0028 7A68     		ldr	r2, [r7, #4]
 3829 002a 3E4B     		ldr	r3, .L258+8
 3830 002c 9A42     		cmp	r2, r3
 3831 002e 33D0     		beq	.L248
 3832              		.loc 1 875 0 discriminator 3
 3833 0030 7A68     		ldr	r2, [r7, #4]
 3834 0032 3D4B     		ldr	r3, .L258+12
 3835 0034 9A42     		cmp	r2, r3
 3836 0036 2FD0     		beq	.L248
 3837              		.loc 1 875 0 discriminator 4
 3838 0038 7A68     		ldr	r2, [r7, #4]
 3839 003a 3C4B     		ldr	r3, .L258+16
 3840 003c 9A42     		cmp	r2, r3
 3841 003e 2BD0     		beq	.L248
 3842              		.loc 1 875 0 discriminator 5
 3843 0040 7A68     		ldr	r2, [r7, #4]
 3844 0042 3B4B     		ldr	r3, .L258+20
 3845 0044 9A42     		cmp	r2, r3
 3846 0046 27D0     		beq	.L248
 3847              		.loc 1 875 0 discriminator 6
 3848 0048 7A68     		ldr	r2, [r7, #4]
 3849 004a 3A4B     		ldr	r3, .L258+24
 3850 004c 9A42     		cmp	r2, r3
 3851 004e 23D0     		beq	.L248
 3852              		.loc 1 875 0 discriminator 7
 3853 0050 7A68     		ldr	r2, [r7, #4]
 3854 0052 394B     		ldr	r3, .L258+28
 3855 0054 9A42     		cmp	r2, r3
 3856 0056 1FD0     		beq	.L248
 3857              		.loc 1 875 0 discriminator 8
 3858 0058 7A68     		ldr	r2, [r7, #4]
 3859 005a 384B     		ldr	r3, .L258+32
 3860 005c 9A42     		cmp	r2, r3
 3861 005e 1BD0     		beq	.L248
 3862              		.loc 1 875 0 discriminator 9
 3863 0060 7A68     		ldr	r2, [r7, #4]
 3864 0062 374B     		ldr	r3, .L258+36
 3865 0064 9A42     		cmp	r2, r3
 3866 0066 17D0     		beq	.L248
 3867              		.loc 1 875 0 discriminator 10
 3868 0068 7A68     		ldr	r2, [r7, #4]
 3869 006a 364B     		ldr	r3, .L258+40
 3870 006c 9A42     		cmp	r2, r3
 3871 006e 13D0     		beq	.L248
 3872              		.loc 1 875 0 discriminator 11
 3873 0070 7A68     		ldr	r2, [r7, #4]
 3874 0072 354B     		ldr	r3, .L258+44
 3875 0074 9A42     		cmp	r2, r3
 3876 0076 0FD0     		beq	.L248
 3877              		.loc 1 875 0 discriminator 12
 3878 0078 7A68     		ldr	r2, [r7, #4]
 3879 007a 344B     		ldr	r3, .L258+48
 3880 007c 9A42     		cmp	r2, r3
 3881 007e 0BD0     		beq	.L248
 3882              		.loc 1 875 0 discriminator 13
 3883 0080 7A68     		ldr	r2, [r7, #4]
 3884 0082 334B     		ldr	r3, .L258+52
 3885 0084 9A42     		cmp	r2, r3
 3886 0086 07D0     		beq	.L248
 3887              		.loc 1 875 0 discriminator 14
 3888 0088 7A68     		ldr	r2, [r7, #4]
 3889 008a 324B     		ldr	r3, .L258+56
 3890 008c 9A42     		cmp	r2, r3
 3891 008e 03D0     		beq	.L248
 3892              		.loc 1 875 0 discriminator 15
 3893 0090 7A68     		ldr	r2, [r7, #4]
 3894 0092 314B     		ldr	r3, .L258+60
 3895 0094 9A42     		cmp	r2, r3
 3896 0096 02D1     		bne	.L249
 3897              	.L248:
 3898              		.loc 1 875 0 discriminator 1
 3899 0098 4FF00103 		mov	r3, #1
 3900 009c 01E0     		b	.L250
 3901              	.L249:
 3902              		.loc 1 875 0 discriminator 3
 3903 009e 4FF00003 		mov	r3, #0
 3904              	.L250:
 3905              		.loc 1 875 0 discriminator 4
 3906 00a2 1846     		mov	r0, r3
 3907 00a4 FFF7FEFF 		bl	assert_param
 876:../libs/StdPeripheralDriver/src/stm32f10x_tim.c ****   assert_param(IS_TIM_IT(TIM_IT));
 3908              		.loc 1 876 0 is_stmt 1 discriminator 4
 3909 00a8 7B88     		ldrh	r3, [r7, #2]
 3910 00aa 03F47F43 		and	r3, r3, #65280
 3911 00ae 002B     		cmp	r3, #0
 3912 00b0 05D1     		bne	.L251
 3913              		.loc 1 876 0 is_stmt 0 discriminator 1
 3914 00b2 7B88     		ldrh	r3, [r7, #2]
 3915 00b4 002B     		cmp	r3, #0
 3916 00b6 02D0     		beq	.L251
 3917              		.loc 1 876 0 discriminator 3
 3918 00b8 4FF00103 		mov	r3, #1
 3919 00bc 01E0     		b	.L252
 3920              	.L251:
 3921              		.loc 1 876 0 discriminator 2
 3922 00be 4FF00003 		mov	r3, #0
 3923              	.L252:
 3924              		.loc 1 876 0 discriminator 4
 3925 00c2 1846     		mov	r0, r3
 3926 00c4 FFF7FEFF 		bl	assert_param
 877:../libs/StdPeripheralDriver/src/stm32f10x_tim.c ****   assert_param(IS_FUNCTIONAL_STATE(NewState));
 3927              		.loc 1 877 0 is_stmt 1 discriminator 4
 3928 00c8 7B78     		ldrb	r3, [r7, #1]	@ zero_extendqisi2
 3929 00ca 002B     		cmp	r3, #0
 3930 00cc 02D0     		beq	.L253
 3931              		.loc 1 877 0 is_stmt 0 discriminator 2
 3932 00ce 7B78     		ldrb	r3, [r7, #1]	@ zero_extendqisi2
 3933 00d0 012B     		cmp	r3, #1
 3934 00d2 02D1     		bne	.L254
 3935              	.L253:
 3936              		.loc 1 877 0 discriminator 1
 3937 00d4 4FF00103 		mov	r3, #1
 3938 00d8 01E0     		b	.L255
 3939              	.L254:
 3940              		.loc 1 877 0 discriminator 3
 3941 00da 4FF00003 		mov	r3, #0
 3942              	.L255:
 3943              		.loc 1 877 0 discriminator 4
 3944 00de 1846     		mov	r0, r3
 3945 00e0 FFF7FEFF 		bl	assert_param
 878:../libs/StdPeripheralDriver/src/stm32f10x_tim.c ****   
 879:../libs/StdPeripheralDriver/src/stm32f10x_tim.c ****   if (NewState != DISABLE)
 3946              		.loc 1 879 0 is_stmt 1 discriminator 4
 3947 00e4 7B78     		ldrb	r3, [r7, #1]	@ zero_extendqisi2
 3948 00e6 002B     		cmp	r3, #0
 3949 00e8 08D0     		beq	.L256
 880:../libs/StdPeripheralDriver/src/stm32f10x_tim.c ****   {
 881:../libs/StdPeripheralDriver/src/stm32f10x_tim.c ****     /* Enable the Interrupt sources */
 882:../libs/StdPeripheralDriver/src/stm32f10x_tim.c ****     TIMx->DIER |= TIM_IT;
 3950              		.loc 1 882 0
 3951 00ea 7B68     		ldr	r3, [r7, #4]
 3952 00ec 9B89     		ldrh	r3, [r3, #12]	@ movhi
 3953 00ee 9AB2     		uxth	r2, r3
 3954 00f0 7B88     		ldrh	r3, [r7, #2]	@ movhi
 3955 00f2 1343     		orrs	r3, r3, r2
 3956 00f4 9AB2     		uxth	r2, r3
 3957 00f6 7B68     		ldr	r3, [r7, #4]
 3958 00f8 9A81     		strh	r2, [r3, #12]	@ movhi
 3959 00fa 0AE0     		b	.L247
 3960              	.L256:
 883:../libs/StdPeripheralDriver/src/stm32f10x_tim.c ****   }
 884:../libs/StdPeripheralDriver/src/stm32f10x_tim.c ****   else
 885:../libs/StdPeripheralDriver/src/stm32f10x_tim.c ****   {
 886:../libs/StdPeripheralDriver/src/stm32f10x_tim.c ****     /* Disable the Interrupt sources */
 887:../libs/StdPeripheralDriver/src/stm32f10x_tim.c ****     TIMx->DIER &= (uint16_t)~TIM_IT;
 3961              		.loc 1 887 0
 3962 00fc 7B68     		ldr	r3, [r7, #4]
 3963 00fe 9B89     		ldrh	r3, [r3, #12]	@ movhi
 3964 0100 9AB2     		uxth	r2, r3
 3965 0102 7B88     		ldrh	r3, [r7, #2]	@ movhi
 3966 0104 6FEA0303 		mvn	r3, r3
 3967 0108 9BB2     		uxth	r3, r3
 3968 010a 1340     		ands	r3, r3, r2
 3969 010c 9AB2     		uxth	r2, r3
 3970 010e 7B68     		ldr	r3, [r7, #4]
 3971 0110 9A81     		strh	r2, [r3, #12]	@ movhi
 3972              	.L247:
 888:../libs/StdPeripheralDriver/src/stm32f10x_tim.c ****   }
 889:../libs/StdPeripheralDriver/src/stm32f10x_tim.c **** }
 3973              		.loc 1 889 0
 3974 0112 07F10807 		add	r7, r7, #8
 3975 0116 BD46     		mov	sp, r7
 3976 0118 80BD     		pop	{r7, pc}
 3977              	.L259:
 3978 011a 00BF     		.align	2
 3979              	.L258:
 3980 011c 002C0140 		.word	1073818624
 3981 0120 00040040 		.word	1073742848
 3982 0124 00080040 		.word	1073743872
 3983 0128 000C0040 		.word	1073744896
 3984 012c 00100040 		.word	1073745920
 3985 0130 00140040 		.word	1073746944
 3986 0134 00340140 		.word	1073820672
 3987 0138 004C0140 		.word	1073826816
 3988 013c 00500140 		.word	1073827840
 3989 0140 00540140 		.word	1073828864
 3990 0144 00180040 		.word	1073747968
 3991 0148 001C0040 		.word	1073748992
 3992 014c 00200040 		.word	1073750016
 3993 0150 00400140 		.word	1073823744
 3994 0154 00440140 		.word	1073824768
 3995 0158 00480140 		.word	1073825792
 3996              		.cfi_endproc
 3997              	.LFE44:
 3999              		.section	.text.TIM_GenerateEvent,"ax",%progbits
 4000              		.align	2
 4001              		.global	TIM_GenerateEvent
 4002              		.thumb
 4003              		.thumb_func
 4005              	TIM_GenerateEvent:
 4006              	.LFB45:
 890:../libs/StdPeripheralDriver/src/stm32f10x_tim.c **** 
 891:../libs/StdPeripheralDriver/src/stm32f10x_tim.c **** /**
 892:../libs/StdPeripheralDriver/src/stm32f10x_tim.c ****   * @brief  Configures the TIMx event to be generate by software.
 893:../libs/StdPeripheralDriver/src/stm32f10x_tim.c ****   * @param  TIMx: where x can be 1 to 17 to select the TIM peripheral.
 894:../libs/StdPeripheralDriver/src/stm32f10x_tim.c ****   * @param  TIM_EventSource: specifies the event source.
 895:../libs/StdPeripheralDriver/src/stm32f10x_tim.c ****   *   This parameter can be one or more of the following values:	   
 896:../libs/StdPeripheralDriver/src/stm32f10x_tim.c ****   *     @arg TIM_EventSource_Update: Timer update Event source
 897:../libs/StdPeripheralDriver/src/stm32f10x_tim.c ****   *     @arg TIM_EventSource_CC1: Timer Capture Compare 1 Event source
 898:../libs/StdPeripheralDriver/src/stm32f10x_tim.c ****   *     @arg TIM_EventSource_CC2: Timer Capture Compare 2 Event source
 899:../libs/StdPeripheralDriver/src/stm32f10x_tim.c ****   *     @arg TIM_EventSource_CC3: Timer Capture Compare 3 Event source
 900:../libs/StdPeripheralDriver/src/stm32f10x_tim.c ****   *     @arg TIM_EventSource_CC4: Timer Capture Compare 4 Event source
 901:../libs/StdPeripheralDriver/src/stm32f10x_tim.c ****   *     @arg TIM_EventSource_COM: Timer COM event source  
 902:../libs/StdPeripheralDriver/src/stm32f10x_tim.c ****   *     @arg TIM_EventSource_Trigger: Timer Trigger Event source
 903:../libs/StdPeripheralDriver/src/stm32f10x_tim.c ****   *     @arg TIM_EventSource_Break: Timer Break event source
 904:../libs/StdPeripheralDriver/src/stm32f10x_tim.c ****   * @note 
 905:../libs/StdPeripheralDriver/src/stm32f10x_tim.c ****   *   - TIM6 and TIM7 can only generate an update event. 
 906:../libs/StdPeripheralDriver/src/stm32f10x_tim.c ****   *   - TIM_EventSource_COM and TIM_EventSource_Break are used only with TIM1 and TIM8.      
 907:../libs/StdPeripheralDriver/src/stm32f10x_tim.c ****   * @retval None
 908:../libs/StdPeripheralDriver/src/stm32f10x_tim.c ****   */
 909:../libs/StdPeripheralDriver/src/stm32f10x_tim.c **** void TIM_GenerateEvent(TIM_TypeDef* TIMx, uint16_t TIM_EventSource)
 910:../libs/StdPeripheralDriver/src/stm32f10x_tim.c **** { 
 4007              		.loc 1 910 0
 4008              		.cfi_startproc
 4009              		@ args = 0, pretend = 0, frame = 8
 4010              		@ frame_needed = 1, uses_anonymous_args = 0
 4011 0000 80B5     		push	{r7, lr}
 4012              	.LCFI48:
 4013              		.cfi_def_cfa_offset 8
 4014              		.cfi_offset 7, -8
 4015              		.cfi_offset 14, -4
 4016 0002 82B0     		sub	sp, sp, #8
 4017              	.LCFI49:
 4018              		.cfi_def_cfa_offset 16
 4019 0004 00AF     		add	r7, sp, #0
 4020              	.LCFI50:
 4021              		.cfi_def_cfa_register 7
 4022 0006 7860     		str	r0, [r7, #4]
 4023 0008 0B46     		mov	r3, r1
 4024 000a 7B80     		strh	r3, [r7, #2]	@ movhi
 911:../libs/StdPeripheralDriver/src/stm32f10x_tim.c ****   /* Check the parameters */
 912:../libs/StdPeripheralDriver/src/stm32f10x_tim.c ****   assert_param(IS_TIM_ALL_PERIPH(TIMx));
 4025              		.loc 1 912 0
 4026 000c 7A68     		ldr	r2, [r7, #4]
 4027 000e 314B     		ldr	r3, .L266
 4028 0010 9A42     		cmp	r2, r3
 4029 0012 3FD0     		beq	.L261
 4030              		.loc 1 912 0 is_stmt 0 discriminator 2
 4031 0014 7B68     		ldr	r3, [r7, #4]
 4032 0016 B3F1804F 		cmp	r3, #1073741824
 4033 001a 3BD0     		beq	.L261
 4034              		.loc 1 912 0 discriminator 1
 4035 001c 7A68     		ldr	r2, [r7, #4]
 4036 001e 2E4B     		ldr	r3, .L266+4
 4037 0020 9A42     		cmp	r2, r3
 4038 0022 37D0     		beq	.L261
 4039              		.loc 1 912 0 discriminator 2
 4040 0024 7A68     		ldr	r2, [r7, #4]
 4041 0026 2D4B     		ldr	r3, .L266+8
 4042 0028 9A42     		cmp	r2, r3
 4043 002a 33D0     		beq	.L261
 4044              		.loc 1 912 0 discriminator 3
 4045 002c 7A68     		ldr	r2, [r7, #4]
 4046 002e 2C4B     		ldr	r3, .L266+12
 4047 0030 9A42     		cmp	r2, r3
 4048 0032 2FD0     		beq	.L261
 4049              		.loc 1 912 0 discriminator 4
 4050 0034 7A68     		ldr	r2, [r7, #4]
 4051 0036 2B4B     		ldr	r3, .L266+16
 4052 0038 9A42     		cmp	r2, r3
 4053 003a 2BD0     		beq	.L261
 4054              		.loc 1 912 0 discriminator 5
 4055 003c 7A68     		ldr	r2, [r7, #4]
 4056 003e 2A4B     		ldr	r3, .L266+20
 4057 0040 9A42     		cmp	r2, r3
 4058 0042 27D0     		beq	.L261
 4059              		.loc 1 912 0 discriminator 6
 4060 0044 7A68     		ldr	r2, [r7, #4]
 4061 0046 294B     		ldr	r3, .L266+24
 4062 0048 9A42     		cmp	r2, r3
 4063 004a 23D0     		beq	.L261
 4064              		.loc 1 912 0 discriminator 7
 4065 004c 7A68     		ldr	r2, [r7, #4]
 4066 004e 284B     		ldr	r3, .L266+28
 4067 0050 9A42     		cmp	r2, r3
 4068 0052 1FD0     		beq	.L261
 4069              		.loc 1 912 0 discriminator 8
 4070 0054 7A68     		ldr	r2, [r7, #4]
 4071 0056 274B     		ldr	r3, .L266+32
 4072 0058 9A42     		cmp	r2, r3
 4073 005a 1BD0     		beq	.L261
 4074              		.loc 1 912 0 discriminator 9
 4075 005c 7A68     		ldr	r2, [r7, #4]
 4076 005e 264B     		ldr	r3, .L266+36
 4077 0060 9A42     		cmp	r2, r3
 4078 0062 17D0     		beq	.L261
 4079              		.loc 1 912 0 discriminator 10
 4080 0064 7A68     		ldr	r2, [r7, #4]
 4081 0066 254B     		ldr	r3, .L266+40
 4082 0068 9A42     		cmp	r2, r3
 4083 006a 13D0     		beq	.L261
 4084              		.loc 1 912 0 discriminator 11
 4085 006c 7A68     		ldr	r2, [r7, #4]
 4086 006e 244B     		ldr	r3, .L266+44
 4087 0070 9A42     		cmp	r2, r3
 4088 0072 0FD0     		beq	.L261
 4089              		.loc 1 912 0 discriminator 12
 4090 0074 7A68     		ldr	r2, [r7, #4]
 4091 0076 234B     		ldr	r3, .L266+48
 4092 0078 9A42     		cmp	r2, r3
 4093 007a 0BD0     		beq	.L261
 4094              		.loc 1 912 0 discriminator 13
 4095 007c 7A68     		ldr	r2, [r7, #4]
 4096 007e 224B     		ldr	r3, .L266+52
 4097 0080 9A42     		cmp	r2, r3
 4098 0082 07D0     		beq	.L261
 4099              		.loc 1 912 0 discriminator 14
 4100 0084 7A68     		ldr	r2, [r7, #4]
 4101 0086 214B     		ldr	r3, .L266+56
 4102 0088 9A42     		cmp	r2, r3
 4103 008a 03D0     		beq	.L261
 4104              		.loc 1 912 0 discriminator 15
 4105 008c 7A68     		ldr	r2, [r7, #4]
 4106 008e 204B     		ldr	r3, .L266+60
 4107 0090 9A42     		cmp	r2, r3
 4108 0092 02D1     		bne	.L262
 4109              	.L261:
 4110              		.loc 1 912 0 discriminator 1
 4111 0094 4FF00103 		mov	r3, #1
 4112 0098 01E0     		b	.L263
 4113              	.L262:
 4114              		.loc 1 912 0 discriminator 3
 4115 009a 4FF00003 		mov	r3, #0
 4116              	.L263:
 4117              		.loc 1 912 0 discriminator 4
 4118 009e 1846     		mov	r0, r3
 4119 00a0 FFF7FEFF 		bl	assert_param
 913:../libs/StdPeripheralDriver/src/stm32f10x_tim.c ****   assert_param(IS_TIM_EVENT_SOURCE(TIM_EventSource));
 4120              		.loc 1 913 0 is_stmt 1 discriminator 4
 4121 00a4 7B88     		ldrh	r3, [r7, #2]
 4122 00a6 03F47F43 		and	r3, r3, #65280
 4123 00aa 002B     		cmp	r3, #0
 4124 00ac 05D1     		bne	.L264
 4125              		.loc 1 913 0 is_stmt 0 discriminator 1
 4126 00ae 7B88     		ldrh	r3, [r7, #2]
 4127 00b0 002B     		cmp	r3, #0
 4128 00b2 02D0     		beq	.L264
 4129              		.loc 1 913 0 discriminator 3
 4130 00b4 4FF00103 		mov	r3, #1
 4131 00b8 01E0     		b	.L265
 4132              	.L264:
 4133              		.loc 1 913 0 discriminator 2
 4134 00ba 4FF00003 		mov	r3, #0
 4135              	.L265:
 4136              		.loc 1 913 0 discriminator 4
 4137 00be 1846     		mov	r0, r3
 4138 00c0 FFF7FEFF 		bl	assert_param
 914:../libs/StdPeripheralDriver/src/stm32f10x_tim.c ****   
 915:../libs/StdPeripheralDriver/src/stm32f10x_tim.c ****   /* Set the event sources */
 916:../libs/StdPeripheralDriver/src/stm32f10x_tim.c ****   TIMx->EGR = TIM_EventSource;
 4139              		.loc 1 916 0 is_stmt 1 discriminator 4
 4140 00c4 7B68     		ldr	r3, [r7, #4]
 4141 00c6 7A88     		ldrh	r2, [r7, #2]	@ movhi
 4142 00c8 9A82     		strh	r2, [r3, #20]	@ movhi
 917:../libs/StdPeripheralDriver/src/stm32f10x_tim.c **** }
 4143              		.loc 1 917 0 discriminator 4
 4144 00ca 07F10807 		add	r7, r7, #8
 4145 00ce BD46     		mov	sp, r7
 4146 00d0 80BD     		pop	{r7, pc}
 4147              	.L267:
 4148 00d2 00BF     		.align	2
 4149              	.L266:
 4150 00d4 002C0140 		.word	1073818624
 4151 00d8 00040040 		.word	1073742848
 4152 00dc 00080040 		.word	1073743872
 4153 00e0 000C0040 		.word	1073744896
 4154 00e4 00100040 		.word	1073745920
 4155 00e8 00140040 		.word	1073746944
 4156 00ec 00340140 		.word	1073820672
 4157 00f0 004C0140 		.word	1073826816
 4158 00f4 00500140 		.word	1073827840
 4159 00f8 00540140 		.word	1073828864
 4160 00fc 00180040 		.word	1073747968
 4161 0100 001C0040 		.word	1073748992
 4162 0104 00200040 		.word	1073750016
 4163 0108 00400140 		.word	1073823744
 4164 010c 00440140 		.word	1073824768
 4165 0110 00480140 		.word	1073825792
 4166              		.cfi_endproc
 4167              	.LFE45:
 4169              		.section	.text.TIM_DMAConfig,"ax",%progbits
 4170              		.align	2
 4171              		.global	TIM_DMAConfig
 4172              		.thumb
 4173              		.thumb_func
 4175              	TIM_DMAConfig:
 4176              	.LFB46:
 918:../libs/StdPeripheralDriver/src/stm32f10x_tim.c **** 
 919:../libs/StdPeripheralDriver/src/stm32f10x_tim.c **** /**
 920:../libs/StdPeripheralDriver/src/stm32f10x_tim.c ****   * @brief  Configures the TIMx's DMA interface.
 921:../libs/StdPeripheralDriver/src/stm32f10x_tim.c ****   * @param  TIMx: where x can be  1, 2, 3, 4, 5, 8, 15, 16 or 17 to select 
 922:../libs/StdPeripheralDriver/src/stm32f10x_tim.c ****   *   the TIM peripheral.
 923:../libs/StdPeripheralDriver/src/stm32f10x_tim.c ****   * @param  TIM_DMABase: DMA Base address.
 924:../libs/StdPeripheralDriver/src/stm32f10x_tim.c ****   *   This parameter can be one of the following values:
 925:../libs/StdPeripheralDriver/src/stm32f10x_tim.c ****   *     @arg TIM_DMABase_CR, TIM_DMABase_CR2, TIM_DMABase_SMCR,
 926:../libs/StdPeripheralDriver/src/stm32f10x_tim.c ****   *          TIM_DMABase_DIER, TIM1_DMABase_SR, TIM_DMABase_EGR,
 927:../libs/StdPeripheralDriver/src/stm32f10x_tim.c ****   *          TIM_DMABase_CCMR1, TIM_DMABase_CCMR2, TIM_DMABase_CCER,
 928:../libs/StdPeripheralDriver/src/stm32f10x_tim.c ****   *          TIM_DMABase_CNT, TIM_DMABase_PSC, TIM_DMABase_ARR,
 929:../libs/StdPeripheralDriver/src/stm32f10x_tim.c ****   *          TIM_DMABase_RCR, TIM_DMABase_CCR1, TIM_DMABase_CCR2,
 930:../libs/StdPeripheralDriver/src/stm32f10x_tim.c ****   *          TIM_DMABase_CCR3, TIM_DMABase_CCR4, TIM_DMABase_BDTR,
 931:../libs/StdPeripheralDriver/src/stm32f10x_tim.c ****   *          TIM_DMABase_DCR.
 932:../libs/StdPeripheralDriver/src/stm32f10x_tim.c ****   * @param  TIM_DMABurstLength: DMA Burst length.
 933:../libs/StdPeripheralDriver/src/stm32f10x_tim.c ****   *   This parameter can be one value between:
 934:../libs/StdPeripheralDriver/src/stm32f10x_tim.c ****   *   TIM_DMABurstLength_1Transfer and TIM_DMABurstLength_18Transfers.
 935:../libs/StdPeripheralDriver/src/stm32f10x_tim.c ****   * @retval None
 936:../libs/StdPeripheralDriver/src/stm32f10x_tim.c ****   */
 937:../libs/StdPeripheralDriver/src/stm32f10x_tim.c **** void TIM_DMAConfig(TIM_TypeDef* TIMx, uint16_t TIM_DMABase, uint16_t TIM_DMABurstLength)
 938:../libs/StdPeripheralDriver/src/stm32f10x_tim.c **** {
 4177              		.loc 1 938 0
 4178              		.cfi_startproc
 4179              		@ args = 0, pretend = 0, frame = 8
 4180              		@ frame_needed = 1, uses_anonymous_args = 0
 4181 0000 80B5     		push	{r7, lr}
 4182              	.LCFI51:
 4183              		.cfi_def_cfa_offset 8
 4184              		.cfi_offset 7, -8
 4185              		.cfi_offset 14, -4
 4186 0002 82B0     		sub	sp, sp, #8
 4187              	.LCFI52:
 4188              		.cfi_def_cfa_offset 16
 4189 0004 00AF     		add	r7, sp, #0
 4190              	.LCFI53:
 4191              		.cfi_def_cfa_register 7
 4192 0006 7860     		str	r0, [r7, #4]
 4193 0008 1346     		mov	r3, r2
 4194 000a 0A46     		mov	r2, r1	@ movhi
 4195 000c 7A80     		strh	r2, [r7, #2]	@ movhi
 4196 000e 3B80     		strh	r3, [r7, #0]	@ movhi
 939:../libs/StdPeripheralDriver/src/stm32f10x_tim.c ****   /* Check the parameters */
 940:../libs/StdPeripheralDriver/src/stm32f10x_tim.c ****   assert_param(IS_TIM_LIST4_PERIPH(TIMx));
 4197              		.loc 1 940 0
 4198 0010 7A68     		ldr	r2, [r7, #4]
 4199 0012 634B     		ldr	r3, .L278
 4200 0014 9A42     		cmp	r2, r3
 4201 0016 1FD0     		beq	.L269
 4202              		.loc 1 940 0 is_stmt 0 discriminator 2
 4203 0018 7B68     		ldr	r3, [r7, #4]
 4204 001a B3F1804F 		cmp	r3, #1073741824
 4205 001e 1BD0     		beq	.L269
 4206              		.loc 1 940 0 discriminator 1
 4207 0020 7A68     		ldr	r2, [r7, #4]
 4208 0022 604B     		ldr	r3, .L278+4
 4209 0024 9A42     		cmp	r2, r3
 4210 0026 17D0     		beq	.L269
 4211              		.loc 1 940 0 discriminator 2
 4212 0028 7A68     		ldr	r2, [r7, #4]
 4213 002a 5F4B     		ldr	r3, .L278+8
 4214 002c 9A42     		cmp	r2, r3
 4215 002e 13D0     		beq	.L269
 4216              		.loc 1 940 0 discriminator 3
 4217 0030 7A68     		ldr	r2, [r7, #4]
 4218 0032 5E4B     		ldr	r3, .L278+12
 4219 0034 9A42     		cmp	r2, r3
 4220 0036 0FD0     		beq	.L269
 4221              		.loc 1 940 0 discriminator 4
 4222 0038 7A68     		ldr	r2, [r7, #4]
 4223 003a 5D4B     		ldr	r3, .L278+16
 4224 003c 9A42     		cmp	r2, r3
 4225 003e 0BD0     		beq	.L269
 4226              		.loc 1 940 0 discriminator 5
 4227 0040 7A68     		ldr	r2, [r7, #4]
 4228 0042 5C4B     		ldr	r3, .L278+20
 4229 0044 9A42     		cmp	r2, r3
 4230 0046 07D0     		beq	.L269
 4231              		.loc 1 940 0 discriminator 6
 4232 0048 7A68     		ldr	r2, [r7, #4]
 4233 004a 5B4B     		ldr	r3, .L278+24
 4234 004c 9A42     		cmp	r2, r3
 4235 004e 03D0     		beq	.L269
 4236              		.loc 1 940 0 discriminator 7
 4237 0050 7A68     		ldr	r2, [r7, #4]
 4238 0052 5A4B     		ldr	r3, .L278+28
 4239 0054 9A42     		cmp	r2, r3
 4240 0056 02D1     		bne	.L270
 4241              	.L269:
 4242              		.loc 1 940 0 discriminator 1
 4243 0058 4FF00103 		mov	r3, #1
 4244 005c 01E0     		b	.L271
 4245              	.L270:
 4246              		.loc 1 940 0 discriminator 3
 4247 005e 4FF00003 		mov	r3, #0
 4248              	.L271:
 4249              		.loc 1 940 0 discriminator 4
 4250 0062 1846     		mov	r0, r3
 4251 0064 FFF7FEFF 		bl	assert_param
 941:../libs/StdPeripheralDriver/src/stm32f10x_tim.c ****   assert_param(IS_TIM_DMA_BASE(TIM_DMABase));
 4252              		.loc 1 941 0 is_stmt 1 discriminator 4
 4253 0068 7B88     		ldrh	r3, [r7, #2]
 4254 006a 002B     		cmp	r3, #0
 4255 006c 35D0     		beq	.L272
 4256              		.loc 1 941 0 is_stmt 0 discriminator 2
 4257 006e 7B88     		ldrh	r3, [r7, #2]
 4258 0070 012B     		cmp	r3, #1
 4259 0072 32D0     		beq	.L272
 4260              		.loc 1 941 0 discriminator 1
 4261 0074 7B88     		ldrh	r3, [r7, #2]
 4262 0076 022B     		cmp	r3, #2
 4263 0078 2FD0     		beq	.L272
 4264              		.loc 1 941 0 discriminator 2
 4265 007a 7B88     		ldrh	r3, [r7, #2]
 4266 007c 032B     		cmp	r3, #3
 4267 007e 2CD0     		beq	.L272
 4268              		.loc 1 941 0 discriminator 3
 4269 0080 7B88     		ldrh	r3, [r7, #2]
 4270 0082 042B     		cmp	r3, #4
 4271 0084 29D0     		beq	.L272
 4272              		.loc 1 941 0 discriminator 4
 4273 0086 7B88     		ldrh	r3, [r7, #2]
 4274 0088 052B     		cmp	r3, #5
 4275 008a 26D0     		beq	.L272
 4276              		.loc 1 941 0 discriminator 5
 4277 008c 7B88     		ldrh	r3, [r7, #2]
 4278 008e 062B     		cmp	r3, #6
 4279 0090 23D0     		beq	.L272
 4280              		.loc 1 941 0 discriminator 6
 4281 0092 7B88     		ldrh	r3, [r7, #2]
 4282 0094 072B     		cmp	r3, #7
 4283 0096 20D0     		beq	.L272
 4284              		.loc 1 941 0 discriminator 7
 4285 0098 7B88     		ldrh	r3, [r7, #2]
 4286 009a 082B     		cmp	r3, #8
 4287 009c 1DD0     		beq	.L272
 4288              		.loc 1 941 0 discriminator 8
 4289 009e 7B88     		ldrh	r3, [r7, #2]
 4290 00a0 092B     		cmp	r3, #9
 4291 00a2 1AD0     		beq	.L272
 4292              		.loc 1 941 0 discriminator 9
 4293 00a4 7B88     		ldrh	r3, [r7, #2]
 4294 00a6 0A2B     		cmp	r3, #10
 4295 00a8 17D0     		beq	.L272
 4296              		.loc 1 941 0 discriminator 10
 4297 00aa 7B88     		ldrh	r3, [r7, #2]
 4298 00ac 0B2B     		cmp	r3, #11
 4299 00ae 14D0     		beq	.L272
 4300              		.loc 1 941 0 discriminator 11
 4301 00b0 7B88     		ldrh	r3, [r7, #2]
 4302 00b2 0C2B     		cmp	r3, #12
 4303 00b4 11D0     		beq	.L272
 4304              		.loc 1 941 0 discriminator 12
 4305 00b6 7B88     		ldrh	r3, [r7, #2]
 4306 00b8 0D2B     		cmp	r3, #13
 4307 00ba 0ED0     		beq	.L272
 4308              		.loc 1 941 0 discriminator 13
 4309 00bc 7B88     		ldrh	r3, [r7, #2]
 4310 00be 0E2B     		cmp	r3, #14
 4311 00c0 0BD0     		beq	.L272
 4312              		.loc 1 941 0 discriminator 14
 4313 00c2 7B88     		ldrh	r3, [r7, #2]
 4314 00c4 0F2B     		cmp	r3, #15
 4315 00c6 08D0     		beq	.L272
 4316              		.loc 1 941 0 discriminator 15
 4317 00c8 7B88     		ldrh	r3, [r7, #2]
 4318 00ca 102B     		cmp	r3, #16
 4319 00cc 05D0     		beq	.L272
 4320              		.loc 1 941 0 discriminator 16
 4321 00ce 7B88     		ldrh	r3, [r7, #2]
 4322 00d0 112B     		cmp	r3, #17
 4323 00d2 02D0     		beq	.L272
 4324              		.loc 1 941 0 discriminator 17
 4325 00d4 7B88     		ldrh	r3, [r7, #2]
 4326 00d6 122B     		cmp	r3, #18
 4327 00d8 02D1     		bne	.L273
 4328              	.L272:
 4329              		.loc 1 941 0 discriminator 1
 4330 00da 4FF00103 		mov	r3, #1
 4331 00de 01E0     		b	.L274
 4332              	.L273:
 4333              		.loc 1 941 0 discriminator 3
 4334 00e0 4FF00003 		mov	r3, #0
 4335              	.L274:
 4336              		.loc 1 941 0 discriminator 4
 4337 00e4 1846     		mov	r0, r3
 4338 00e6 FFF7FEFF 		bl	assert_param
 942:../libs/StdPeripheralDriver/src/stm32f10x_tim.c ****   assert_param(IS_TIM_DMA_LENGTH(TIM_DMABurstLength));
 4339              		.loc 1 942 0 is_stmt 1 discriminator 4
 4340 00ea 3B88     		ldrh	r3, [r7, #0]
 4341 00ec 002B     		cmp	r3, #0
 4342 00ee 43D0     		beq	.L275
 4343              		.loc 1 942 0 is_stmt 0 discriminator 2
 4344 00f0 3B88     		ldrh	r3, [r7, #0]
 4345 00f2 B3F5807F 		cmp	r3, #256
 4346 00f6 3FD0     		beq	.L275
 4347              		.loc 1 942 0 discriminator 1
 4348 00f8 3B88     		ldrh	r3, [r7, #0]
 4349 00fa B3F5007F 		cmp	r3, #512
 4350 00fe 3BD0     		beq	.L275
 4351              		.loc 1 942 0 discriminator 2
 4352 0100 3B88     		ldrh	r3, [r7, #0]
 4353 0102 B3F5407F 		cmp	r3, #768
 4354 0106 37D0     		beq	.L275
 4355              		.loc 1 942 0 discriminator 3
 4356 0108 3B88     		ldrh	r3, [r7, #0]
 4357 010a B3F5806F 		cmp	r3, #1024
 4358 010e 33D0     		beq	.L275
 4359              		.loc 1 942 0 discriminator 4
 4360 0110 3B88     		ldrh	r3, [r7, #0]
 4361 0112 B3F5A06F 		cmp	r3, #1280
 4362 0116 2FD0     		beq	.L275
 4363              		.loc 1 942 0 discriminator 5
 4364 0118 3B88     		ldrh	r3, [r7, #0]
 4365 011a B3F5C06F 		cmp	r3, #1536
 4366 011e 2BD0     		beq	.L275
 4367              		.loc 1 942 0 discriminator 6
 4368 0120 3B88     		ldrh	r3, [r7, #0]
 4369 0122 B3F5E06F 		cmp	r3, #1792
 4370 0126 27D0     		beq	.L275
 4371              		.loc 1 942 0 discriminator 7
 4372 0128 3B88     		ldrh	r3, [r7, #0]
 4373 012a B3F5006F 		cmp	r3, #2048
 4374 012e 23D0     		beq	.L275
 4375              		.loc 1 942 0 discriminator 8
 4376 0130 3B88     		ldrh	r3, [r7, #0]
 4377 0132 B3F5106F 		cmp	r3, #2304
 4378 0136 1FD0     		beq	.L275
 4379              		.loc 1 942 0 discriminator 9
 4380 0138 3B88     		ldrh	r3, [r7, #0]
 4381 013a B3F5206F 		cmp	r3, #2560
 4382 013e 1BD0     		beq	.L275
 4383              		.loc 1 942 0 discriminator 10
 4384 0140 3B88     		ldrh	r3, [r7, #0]
 4385 0142 B3F5306F 		cmp	r3, #2816
 4386 0146 17D0     		beq	.L275
 4387              		.loc 1 942 0 discriminator 11
 4388 0148 3B88     		ldrh	r3, [r7, #0]
 4389 014a B3F5406F 		cmp	r3, #3072
 4390 014e 13D0     		beq	.L275
 4391              		.loc 1 942 0 discriminator 12
 4392 0150 3B88     		ldrh	r3, [r7, #0]
 4393 0152 B3F5506F 		cmp	r3, #3328
 4394 0156 0FD0     		beq	.L275
 4395              		.loc 1 942 0 discriminator 13
 4396 0158 3B88     		ldrh	r3, [r7, #0]
 4397 015a B3F5606F 		cmp	r3, #3584
 4398 015e 0BD0     		beq	.L275
 4399              		.loc 1 942 0 discriminator 14
 4400 0160 3B88     		ldrh	r3, [r7, #0]
 4401 0162 B3F5706F 		cmp	r3, #3840
 4402 0166 07D0     		beq	.L275
 4403              		.loc 1 942 0 discriminator 15
 4404 0168 3B88     		ldrh	r3, [r7, #0]
 4405 016a B3F5805F 		cmp	r3, #4096
 4406 016e 03D0     		beq	.L275
 4407              		.loc 1 942 0 discriminator 16
 4408 0170 3B88     		ldrh	r3, [r7, #0]
 4409 0172 B3F5885F 		cmp	r3, #4352
 4410 0176 02D1     		bne	.L276
 4411              	.L275:
 4412              		.loc 1 942 0 discriminator 1
 4413 0178 4FF00103 		mov	r3, #1
 4414 017c 01E0     		b	.L277
 4415              	.L276:
 4416              		.loc 1 942 0 discriminator 3
 4417 017e 4FF00003 		mov	r3, #0
 4418              	.L277:
 4419              		.loc 1 942 0 discriminator 4
 4420 0182 1846     		mov	r0, r3
 4421 0184 FFF7FEFF 		bl	assert_param
 943:../libs/StdPeripheralDriver/src/stm32f10x_tim.c ****   /* Set the DMA Base and the DMA Burst Length */
 944:../libs/StdPeripheralDriver/src/stm32f10x_tim.c ****   TIMx->DCR = TIM_DMABase | TIM_DMABurstLength;
 4422              		.loc 1 944 0 is_stmt 1 discriminator 4
 4423 0188 7A88     		ldrh	r2, [r7, #2]	@ movhi
 4424 018a 3B88     		ldrh	r3, [r7, #0]	@ movhi
 4425 018c 1343     		orrs	r3, r3, r2
 4426 018e 9AB2     		uxth	r2, r3
 4427 0190 7B68     		ldr	r3, [r7, #4]
 4428 0192 A3F84820 		strh	r2, [r3, #72]	@ movhi
 945:../libs/StdPeripheralDriver/src/stm32f10x_tim.c **** }
 4429              		.loc 1 945 0 discriminator 4
 4430 0196 07F10807 		add	r7, r7, #8
 4431 019a BD46     		mov	sp, r7
 4432 019c 80BD     		pop	{r7, pc}
 4433              	.L279:
 4434 019e 00BF     		.align	2
 4435              	.L278:
 4436 01a0 002C0140 		.word	1073818624
 4437 01a4 00040040 		.word	1073742848
 4438 01a8 00080040 		.word	1073743872
 4439 01ac 000C0040 		.word	1073744896
 4440 01b0 00340140 		.word	1073820672
 4441 01b4 00400140 		.word	1073823744
 4442 01b8 00440140 		.word	1073824768
 4443 01bc 00480140 		.word	1073825792
 4444              		.cfi_endproc
 4445              	.LFE46:
 4447              		.section	.text.TIM_DMACmd,"ax",%progbits
 4448              		.align	2
 4449              		.global	TIM_DMACmd
 4450              		.thumb
 4451              		.thumb_func
 4453              	TIM_DMACmd:
 4454              	.LFB47:
 946:../libs/StdPeripheralDriver/src/stm32f10x_tim.c **** 
 947:../libs/StdPeripheralDriver/src/stm32f10x_tim.c **** /**
 948:../libs/StdPeripheralDriver/src/stm32f10x_tim.c ****   * @brief  Enables or disables the TIMx's DMA Requests.
 949:../libs/StdPeripheralDriver/src/stm32f10x_tim.c ****   * @param  TIMx: where x can be  1, 2, 3, 4, 5, 6, 7, 8, 15, 16 or 17 
 950:../libs/StdPeripheralDriver/src/stm32f10x_tim.c ****   *   to select the TIM peripheral. 
 951:../libs/StdPeripheralDriver/src/stm32f10x_tim.c ****   * @param  TIM_DMASource: specifies the DMA Request sources.
 952:../libs/StdPeripheralDriver/src/stm32f10x_tim.c ****   *   This parameter can be any combination of the following values:
 953:../libs/StdPeripheralDriver/src/stm32f10x_tim.c ****   *     @arg TIM_DMA_Update: TIM update Interrupt source
 954:../libs/StdPeripheralDriver/src/stm32f10x_tim.c ****   *     @arg TIM_DMA_CC1: TIM Capture Compare 1 DMA source
 955:../libs/StdPeripheralDriver/src/stm32f10x_tim.c ****   *     @arg TIM_DMA_CC2: TIM Capture Compare 2 DMA source
 956:../libs/StdPeripheralDriver/src/stm32f10x_tim.c ****   *     @arg TIM_DMA_CC3: TIM Capture Compare 3 DMA source
 957:../libs/StdPeripheralDriver/src/stm32f10x_tim.c ****   *     @arg TIM_DMA_CC4: TIM Capture Compare 4 DMA source
 958:../libs/StdPeripheralDriver/src/stm32f10x_tim.c ****   *     @arg TIM_DMA_COM: TIM Commutation DMA source
 959:../libs/StdPeripheralDriver/src/stm32f10x_tim.c ****   *     @arg TIM_DMA_Trigger: TIM Trigger DMA source
 960:../libs/StdPeripheralDriver/src/stm32f10x_tim.c ****   * @param  NewState: new state of the DMA Request sources.
 961:../libs/StdPeripheralDriver/src/stm32f10x_tim.c ****   *   This parameter can be: ENABLE or DISABLE.
 962:../libs/StdPeripheralDriver/src/stm32f10x_tim.c ****   * @retval None
 963:../libs/StdPeripheralDriver/src/stm32f10x_tim.c ****   */
 964:../libs/StdPeripheralDriver/src/stm32f10x_tim.c **** void TIM_DMACmd(TIM_TypeDef* TIMx, uint16_t TIM_DMASource, FunctionalState NewState)
 965:../libs/StdPeripheralDriver/src/stm32f10x_tim.c **** { 
 4455              		.loc 1 965 0
 4456              		.cfi_startproc
 4457              		@ args = 0, pretend = 0, frame = 8
 4458              		@ frame_needed = 1, uses_anonymous_args = 0
 4459 0000 80B5     		push	{r7, lr}
 4460              	.LCFI54:
 4461              		.cfi_def_cfa_offset 8
 4462              		.cfi_offset 7, -8
 4463              		.cfi_offset 14, -4
 4464 0002 82B0     		sub	sp, sp, #8
 4465              	.LCFI55:
 4466              		.cfi_def_cfa_offset 16
 4467 0004 00AF     		add	r7, sp, #0
 4468              	.LCFI56:
 4469              		.cfi_def_cfa_register 7
 4470 0006 7860     		str	r0, [r7, #4]
 4471 0008 1346     		mov	r3, r2
 4472 000a 0A46     		mov	r2, r1	@ movhi
 4473 000c 7A80     		strh	r2, [r7, #2]	@ movhi
 4474 000e 7B70     		strb	r3, [r7, #1]
 966:../libs/StdPeripheralDriver/src/stm32f10x_tim.c ****   /* Check the parameters */
 967:../libs/StdPeripheralDriver/src/stm32f10x_tim.c ****   assert_param(IS_TIM_LIST9_PERIPH(TIMx));
 4475              		.loc 1 967 0
 4476 0010 7A68     		ldr	r2, [r7, #4]
 4477 0012 364B     		ldr	r3, .L291
 4478 0014 9A42     		cmp	r2, r3
 4479 0016 27D0     		beq	.L281
 4480              		.loc 1 967 0 is_stmt 0 discriminator 2
 4481 0018 7B68     		ldr	r3, [r7, #4]
 4482 001a B3F1804F 		cmp	r3, #1073741824
 4483 001e 23D0     		beq	.L281
 4484              		.loc 1 967 0 discriminator 1
 4485 0020 7A68     		ldr	r2, [r7, #4]
 4486 0022 334B     		ldr	r3, .L291+4
 4487 0024 9A42     		cmp	r2, r3
 4488 0026 1FD0     		beq	.L281
 4489              		.loc 1 967 0 discriminator 2
 4490 0028 7A68     		ldr	r2, [r7, #4]
 4491 002a 324B     		ldr	r3, .L291+8
 4492 002c 9A42     		cmp	r2, r3
 4493 002e 1BD0     		beq	.L281
 4494              		.loc 1 967 0 discriminator 3
 4495 0030 7A68     		ldr	r2, [r7, #4]
 4496 0032 314B     		ldr	r3, .L291+12
 4497 0034 9A42     		cmp	r2, r3
 4498 0036 17D0     		beq	.L281
 4499              		.loc 1 967 0 discriminator 4
 4500 0038 7A68     		ldr	r2, [r7, #4]
 4501 003a 304B     		ldr	r3, .L291+16
 4502 003c 9A42     		cmp	r2, r3
 4503 003e 13D0     		beq	.L281
 4504              		.loc 1 967 0 discriminator 5
 4505 0040 7A68     		ldr	r2, [r7, #4]
 4506 0042 2F4B     		ldr	r3, .L291+20
 4507 0044 9A42     		cmp	r2, r3
 4508 0046 0FD0     		beq	.L281
 4509              		.loc 1 967 0 discriminator 6
 4510 0048 7A68     		ldr	r2, [r7, #4]
 4511 004a 2E4B     		ldr	r3, .L291+24
 4512 004c 9A42     		cmp	r2, r3
 4513 004e 0BD0     		beq	.L281
 4514              		.loc 1 967 0 discriminator 7
 4515 0050 7A68     		ldr	r2, [r7, #4]
 4516 0052 2D4B     		ldr	r3, .L291+28
 4517 0054 9A42     		cmp	r2, r3
 4518 0056 07D0     		beq	.L281
 4519              		.loc 1 967 0 discriminator 8
 4520 0058 7A68     		ldr	r2, [r7, #4]
 4521 005a 2C4B     		ldr	r3, .L291+32
 4522 005c 9A42     		cmp	r2, r3
 4523 005e 03D0     		beq	.L281
 4524              		.loc 1 967 0 discriminator 9
 4525 0060 7A68     		ldr	r2, [r7, #4]
 4526 0062 2B4B     		ldr	r3, .L291+36
 4527 0064 9A42     		cmp	r2, r3
 4528 0066 02D1     		bne	.L282
 4529              	.L281:
 4530              		.loc 1 967 0 discriminator 1
 4531 0068 4FF00103 		mov	r3, #1
 4532 006c 01E0     		b	.L283
 4533              	.L282:
 4534              		.loc 1 967 0 discriminator 3
 4535 006e 4FF00003 		mov	r3, #0
 4536              	.L283:
 4537              		.loc 1 967 0 discriminator 4
 4538 0072 1846     		mov	r0, r3
 4539 0074 FFF7FEFF 		bl	assert_param
 968:../libs/StdPeripheralDriver/src/stm32f10x_tim.c ****   assert_param(IS_TIM_DMA_SOURCE(TIM_DMASource));
 4540              		.loc 1 968 0 is_stmt 1 discriminator 4
 4541 0078 7A88     		ldrh	r2, [r7, #2]
 4542 007a 48F2FF03 		movw	r3, #33023
 4543 007e 1340     		ands	r3, r3, r2
 4544 0080 002B     		cmp	r3, #0
 4545 0082 05D1     		bne	.L284
 4546              		.loc 1 968 0 is_stmt 0 discriminator 1
 4547 0084 7B88     		ldrh	r3, [r7, #2]
 4548 0086 002B     		cmp	r3, #0
 4549 0088 02D0     		beq	.L284
 4550              		.loc 1 968 0 discriminator 3
 4551 008a 4FF00103 		mov	r3, #1
 4552 008e 01E0     		b	.L285
 4553              	.L284:
 4554              		.loc 1 968 0 discriminator 2
 4555 0090 4FF00003 		mov	r3, #0
 4556              	.L285:
 4557              		.loc 1 968 0 discriminator 4
 4558 0094 1846     		mov	r0, r3
 4559 0096 FFF7FEFF 		bl	assert_param
 969:../libs/StdPeripheralDriver/src/stm32f10x_tim.c ****   assert_param(IS_FUNCTIONAL_STATE(NewState));
 4560              		.loc 1 969 0 is_stmt 1 discriminator 4
 4561 009a 7B78     		ldrb	r3, [r7, #1]	@ zero_extendqisi2
 4562 009c 002B     		cmp	r3, #0
 4563 009e 02D0     		beq	.L286
 4564              		.loc 1 969 0 is_stmt 0 discriminator 2
 4565 00a0 7B78     		ldrb	r3, [r7, #1]	@ zero_extendqisi2
 4566 00a2 012B     		cmp	r3, #1
 4567 00a4 02D1     		bne	.L287
 4568              	.L286:
 4569              		.loc 1 969 0 discriminator 1
 4570 00a6 4FF00103 		mov	r3, #1
 4571 00aa 01E0     		b	.L288
 4572              	.L287:
 4573              		.loc 1 969 0 discriminator 3
 4574 00ac 4FF00003 		mov	r3, #0
 4575              	.L288:
 4576              		.loc 1 969 0 discriminator 4
 4577 00b0 1846     		mov	r0, r3
 4578 00b2 FFF7FEFF 		bl	assert_param
 970:../libs/StdPeripheralDriver/src/stm32f10x_tim.c ****   
 971:../libs/StdPeripheralDriver/src/stm32f10x_tim.c ****   if (NewState != DISABLE)
 4579              		.loc 1 971 0 is_stmt 1 discriminator 4
 4580 00b6 7B78     		ldrb	r3, [r7, #1]	@ zero_extendqisi2
 4581 00b8 002B     		cmp	r3, #0
 4582 00ba 08D0     		beq	.L289
 972:../libs/StdPeripheralDriver/src/stm32f10x_tim.c ****   {
 973:../libs/StdPeripheralDriver/src/stm32f10x_tim.c ****     /* Enable the DMA sources */
 974:../libs/StdPeripheralDriver/src/stm32f10x_tim.c ****     TIMx->DIER |= TIM_DMASource; 
 4583              		.loc 1 974 0
 4584 00bc 7B68     		ldr	r3, [r7, #4]
 4585 00be 9B89     		ldrh	r3, [r3, #12]	@ movhi
 4586 00c0 9AB2     		uxth	r2, r3
 4587 00c2 7B88     		ldrh	r3, [r7, #2]	@ movhi
 4588 00c4 1343     		orrs	r3, r3, r2
 4589 00c6 9AB2     		uxth	r2, r3
 4590 00c8 7B68     		ldr	r3, [r7, #4]
 4591 00ca 9A81     		strh	r2, [r3, #12]	@ movhi
 4592 00cc 0AE0     		b	.L280
 4593              	.L289:
 975:../libs/StdPeripheralDriver/src/stm32f10x_tim.c ****   }
 976:../libs/StdPeripheralDriver/src/stm32f10x_tim.c ****   else
 977:../libs/StdPeripheralDriver/src/stm32f10x_tim.c ****   {
 978:../libs/StdPeripheralDriver/src/stm32f10x_tim.c ****     /* Disable the DMA sources */
 979:../libs/StdPeripheralDriver/src/stm32f10x_tim.c ****     TIMx->DIER &= (uint16_t)~TIM_DMASource;
 4594              		.loc 1 979 0
 4595 00ce 7B68     		ldr	r3, [r7, #4]
 4596 00d0 9B89     		ldrh	r3, [r3, #12]	@ movhi
 4597 00d2 9AB2     		uxth	r2, r3
 4598 00d4 7B88     		ldrh	r3, [r7, #2]	@ movhi
 4599 00d6 6FEA0303 		mvn	r3, r3
 4600 00da 9BB2     		uxth	r3, r3
 4601 00dc 1340     		ands	r3, r3, r2
 4602 00de 9AB2     		uxth	r2, r3
 4603 00e0 7B68     		ldr	r3, [r7, #4]
 4604 00e2 9A81     		strh	r2, [r3, #12]	@ movhi
 4605              	.L280:
 980:../libs/StdPeripheralDriver/src/stm32f10x_tim.c ****   }
 981:../libs/StdPeripheralDriver/src/stm32f10x_tim.c **** }
 4606              		.loc 1 981 0
 4607 00e4 07F10807 		add	r7, r7, #8
 4608 00e8 BD46     		mov	sp, r7
 4609 00ea 80BD     		pop	{r7, pc}
 4610              	.L292:
 4611              		.align	2
 4612              	.L291:
 4613 00ec 002C0140 		.word	1073818624
 4614 00f0 00040040 		.word	1073742848
 4615 00f4 00080040 		.word	1073743872
 4616 00f8 000C0040 		.word	1073744896
 4617 00fc 00100040 		.word	1073745920
 4618 0100 00140040 		.word	1073746944
 4619 0104 00340140 		.word	1073820672
 4620 0108 00400140 		.word	1073823744
 4621 010c 00440140 		.word	1073824768
 4622 0110 00480140 		.word	1073825792
 4623              		.cfi_endproc
 4624              	.LFE47:
 4626              		.section	.text.TIM_InternalClockConfig,"ax",%progbits
 4627              		.align	2
 4628              		.global	TIM_InternalClockConfig
 4629              		.thumb
 4630              		.thumb_func
 4632              	TIM_InternalClockConfig:
 4633              	.LFB48:
 982:../libs/StdPeripheralDriver/src/stm32f10x_tim.c **** 
 983:../libs/StdPeripheralDriver/src/stm32f10x_tim.c **** /**
 984:../libs/StdPeripheralDriver/src/stm32f10x_tim.c ****   * @brief  Configures the TIMx internal Clock
 985:../libs/StdPeripheralDriver/src/stm32f10x_tim.c ****   * @param  TIMx: where x can be  1, 2, 3, 4, 5, 8, 9, 12 or 15
 986:../libs/StdPeripheralDriver/src/stm32f10x_tim.c ****   *         to select the TIM peripheral.
 987:../libs/StdPeripheralDriver/src/stm32f10x_tim.c ****   * @retval None
 988:../libs/StdPeripheralDriver/src/stm32f10x_tim.c ****   */
 989:../libs/StdPeripheralDriver/src/stm32f10x_tim.c **** void TIM_InternalClockConfig(TIM_TypeDef* TIMx)
 990:../libs/StdPeripheralDriver/src/stm32f10x_tim.c **** {
 4634              		.loc 1 990 0
 4635              		.cfi_startproc
 4636              		@ args = 0, pretend = 0, frame = 8
 4637              		@ frame_needed = 1, uses_anonymous_args = 0
 4638 0000 80B5     		push	{r7, lr}
 4639              	.LCFI57:
 4640              		.cfi_def_cfa_offset 8
 4641              		.cfi_offset 7, -8
 4642              		.cfi_offset 14, -4
 4643 0002 82B0     		sub	sp, sp, #8
 4644              	.LCFI58:
 4645              		.cfi_def_cfa_offset 16
 4646 0004 00AF     		add	r7, sp, #0
 4647              	.LCFI59:
 4648              		.cfi_def_cfa_register 7
 4649 0006 7860     		str	r0, [r7, #4]
 991:../libs/StdPeripheralDriver/src/stm32f10x_tim.c ****   /* Check the parameters */
 992:../libs/StdPeripheralDriver/src/stm32f10x_tim.c ****   assert_param(IS_TIM_LIST6_PERIPH(TIMx));
 4650              		.loc 1 992 0
 4651 0008 7A68     		ldr	r2, [r7, #4]
 4652 000a 1B4B     		ldr	r3, .L297
 4653 000c 9A42     		cmp	r2, r3
 4654 000e 1FD0     		beq	.L294
 4655              		.loc 1 992 0 is_stmt 0 discriminator 2
 4656 0010 7B68     		ldr	r3, [r7, #4]
 4657 0012 B3F1804F 		cmp	r3, #1073741824
 4658 0016 1BD0     		beq	.L294
 4659              		.loc 1 992 0 discriminator 1
 4660 0018 7A68     		ldr	r2, [r7, #4]
 4661 001a 184B     		ldr	r3, .L297+4
 4662 001c 9A42     		cmp	r2, r3
 4663 001e 17D0     		beq	.L294
 4664              		.loc 1 992 0 discriminator 2
 4665 0020 7A68     		ldr	r2, [r7, #4]
 4666 0022 174B     		ldr	r3, .L297+8
 4667 0024 9A42     		cmp	r2, r3
 4668 0026 13D0     		beq	.L294
 4669              		.loc 1 992 0 discriminator 3
 4670 0028 7A68     		ldr	r2, [r7, #4]
 4671 002a 164B     		ldr	r3, .L297+12
 4672 002c 9A42     		cmp	r2, r3
 4673 002e 0FD0     		beq	.L294
 4674              		.loc 1 992 0 discriminator 4
 4675 0030 7A68     		ldr	r2, [r7, #4]
 4676 0032 154B     		ldr	r3, .L297+16
 4677 0034 9A42     		cmp	r2, r3
 4678 0036 0BD0     		beq	.L294
 4679              		.loc 1 992 0 discriminator 5
 4680 0038 7A68     		ldr	r2, [r7, #4]
 4681 003a 144B     		ldr	r3, .L297+20
 4682 003c 9A42     		cmp	r2, r3
 4683 003e 07D0     		beq	.L294
 4684              		.loc 1 992 0 discriminator 6
 4685 0040 7A68     		ldr	r2, [r7, #4]
 4686 0042 134B     		ldr	r3, .L297+24
 4687 0044 9A42     		cmp	r2, r3
 4688 0046 03D0     		beq	.L294
 4689              		.loc 1 992 0 discriminator 7
 4690 0048 7A68     		ldr	r2, [r7, #4]
 4691 004a 124B     		ldr	r3, .L297+28
 4692 004c 9A42     		cmp	r2, r3
 4693 004e 02D1     		bne	.L295
 4694              	.L294:
 4695              		.loc 1 992 0 discriminator 1
 4696 0050 4FF00103 		mov	r3, #1
 4697 0054 01E0     		b	.L296
 4698              	.L295:
 4699              		.loc 1 992 0 discriminator 3
 4700 0056 4FF00003 		mov	r3, #0
 4701              	.L296:
 4702              		.loc 1 992 0 discriminator 4
 4703 005a 1846     		mov	r0, r3
 4704 005c FFF7FEFF 		bl	assert_param
 993:../libs/StdPeripheralDriver/src/stm32f10x_tim.c ****   /* Disable slave mode to clock the prescaler directly with the internal clock */
 994:../libs/StdPeripheralDriver/src/stm32f10x_tim.c ****   TIMx->SMCR &=  (uint16_t)(~((uint16_t)TIM_SMCR_SMS));
 4705              		.loc 1 994 0 is_stmt 1 discriminator 4
 4706 0060 7B68     		ldr	r3, [r7, #4]
 4707 0062 1B89     		ldrh	r3, [r3, #8]	@ movhi
 4708 0064 9BB2     		uxth	r3, r3
 4709 0066 23F00703 		bic	r3, r3, #7
 4710 006a 9AB2     		uxth	r2, r3
 4711 006c 7B68     		ldr	r3, [r7, #4]
 4712 006e 1A81     		strh	r2, [r3, #8]	@ movhi
 995:../libs/StdPeripheralDriver/src/stm32f10x_tim.c **** }
 4713              		.loc 1 995 0 discriminator 4
 4714 0070 07F10807 		add	r7, r7, #8
 4715 0074 BD46     		mov	sp, r7
 4716 0076 80BD     		pop	{r7, pc}
 4717              	.L298:
 4718              		.align	2
 4719              	.L297:
 4720 0078 002C0140 		.word	1073818624
 4721 007c 00040040 		.word	1073742848
 4722 0080 00080040 		.word	1073743872
 4723 0084 000C0040 		.word	1073744896
 4724 0088 00340140 		.word	1073820672
 4725 008c 004C0140 		.word	1073826816
 4726 0090 00180040 		.word	1073747968
 4727 0094 00400140 		.word	1073823744
 4728              		.cfi_endproc
 4729              	.LFE48:
 4731              		.section	.text.TIM_ITRxExternalClockConfig,"ax",%progbits
 4732              		.align	2
 4733              		.global	TIM_ITRxExternalClockConfig
 4734              		.thumb
 4735              		.thumb_func
 4737              	TIM_ITRxExternalClockConfig:
 4738              	.LFB49:
 996:../libs/StdPeripheralDriver/src/stm32f10x_tim.c **** 
 997:../libs/StdPeripheralDriver/src/stm32f10x_tim.c **** /**
 998:../libs/StdPeripheralDriver/src/stm32f10x_tim.c ****   * @brief  Configures the TIMx Internal Trigger as External Clock
 999:../libs/StdPeripheralDriver/src/stm32f10x_tim.c ****   * @param  TIMx: where x can be  1, 2, 3, 4, 5, 9, 12 or 15 to select the TIM peripheral.
1000:../libs/StdPeripheralDriver/src/stm32f10x_tim.c ****   * @param  TIM_ITRSource: Trigger source.
1001:../libs/StdPeripheralDriver/src/stm32f10x_tim.c ****   *   This parameter can be one of the following values:
1002:../libs/StdPeripheralDriver/src/stm32f10x_tim.c ****   * @param  TIM_TS_ITR0: Internal Trigger 0
1003:../libs/StdPeripheralDriver/src/stm32f10x_tim.c ****   * @param  TIM_TS_ITR1: Internal Trigger 1
1004:../libs/StdPeripheralDriver/src/stm32f10x_tim.c ****   * @param  TIM_TS_ITR2: Internal Trigger 2
1005:../libs/StdPeripheralDriver/src/stm32f10x_tim.c ****   * @param  TIM_TS_ITR3: Internal Trigger 3
1006:../libs/StdPeripheralDriver/src/stm32f10x_tim.c ****   * @retval None
1007:../libs/StdPeripheralDriver/src/stm32f10x_tim.c ****   */
1008:../libs/StdPeripheralDriver/src/stm32f10x_tim.c **** void TIM_ITRxExternalClockConfig(TIM_TypeDef* TIMx, uint16_t TIM_InputTriggerSource)
1009:../libs/StdPeripheralDriver/src/stm32f10x_tim.c **** {
 4739              		.loc 1 1009 0
 4740              		.cfi_startproc
 4741              		@ args = 0, pretend = 0, frame = 8
 4742              		@ frame_needed = 1, uses_anonymous_args = 0
 4743 0000 80B5     		push	{r7, lr}
 4744              	.LCFI60:
 4745              		.cfi_def_cfa_offset 8
 4746              		.cfi_offset 7, -8
 4747              		.cfi_offset 14, -4
 4748 0002 82B0     		sub	sp, sp, #8
 4749              	.LCFI61:
 4750              		.cfi_def_cfa_offset 16
 4751 0004 00AF     		add	r7, sp, #0
 4752              	.LCFI62:
 4753              		.cfi_def_cfa_register 7
 4754 0006 7860     		str	r0, [r7, #4]
 4755 0008 0B46     		mov	r3, r1
 4756 000a 7B80     		strh	r3, [r7, #2]	@ movhi
1010:../libs/StdPeripheralDriver/src/stm32f10x_tim.c ****   /* Check the parameters */
1011:../libs/StdPeripheralDriver/src/stm32f10x_tim.c ****   assert_param(IS_TIM_LIST6_PERIPH(TIMx));
 4757              		.loc 1 1011 0
 4758 000c 7A68     		ldr	r2, [r7, #4]
 4759 000e 284B     		ldr	r3, .L306
 4760 0010 9A42     		cmp	r2, r3
 4761 0012 1FD0     		beq	.L300
 4762              		.loc 1 1011 0 is_stmt 0 discriminator 2
 4763 0014 7B68     		ldr	r3, [r7, #4]
 4764 0016 B3F1804F 		cmp	r3, #1073741824
 4765 001a 1BD0     		beq	.L300
 4766              		.loc 1 1011 0 discriminator 1
 4767 001c 7A68     		ldr	r2, [r7, #4]
 4768 001e 254B     		ldr	r3, .L306+4
 4769 0020 9A42     		cmp	r2, r3
 4770 0022 17D0     		beq	.L300
 4771              		.loc 1 1011 0 discriminator 2
 4772 0024 7A68     		ldr	r2, [r7, #4]
 4773 0026 244B     		ldr	r3, .L306+8
 4774 0028 9A42     		cmp	r2, r3
 4775 002a 13D0     		beq	.L300
 4776              		.loc 1 1011 0 discriminator 3
 4777 002c 7A68     		ldr	r2, [r7, #4]
 4778 002e 234B     		ldr	r3, .L306+12
 4779 0030 9A42     		cmp	r2, r3
 4780 0032 0FD0     		beq	.L300
 4781              		.loc 1 1011 0 discriminator 4
 4782 0034 7A68     		ldr	r2, [r7, #4]
 4783 0036 224B     		ldr	r3, .L306+16
 4784 0038 9A42     		cmp	r2, r3
 4785 003a 0BD0     		beq	.L300
 4786              		.loc 1 1011 0 discriminator 5
 4787 003c 7A68     		ldr	r2, [r7, #4]
 4788 003e 214B     		ldr	r3, .L306+20
 4789 0040 9A42     		cmp	r2, r3
 4790 0042 07D0     		beq	.L300
 4791              		.loc 1 1011 0 discriminator 6
 4792 0044 7A68     		ldr	r2, [r7, #4]
 4793 0046 204B     		ldr	r3, .L306+24
 4794 0048 9A42     		cmp	r2, r3
 4795 004a 03D0     		beq	.L300
 4796              		.loc 1 1011 0 discriminator 7
 4797 004c 7A68     		ldr	r2, [r7, #4]
 4798 004e 1F4B     		ldr	r3, .L306+28
 4799 0050 9A42     		cmp	r2, r3
 4800 0052 02D1     		bne	.L301
 4801              	.L300:
 4802              		.loc 1 1011 0 discriminator 1
 4803 0054 4FF00103 		mov	r3, #1
 4804 0058 01E0     		b	.L302
 4805              	.L301:
 4806              		.loc 1 1011 0 discriminator 3
 4807 005a 4FF00003 		mov	r3, #0
 4808              	.L302:
 4809              		.loc 1 1011 0 discriminator 4
 4810 005e 1846     		mov	r0, r3
 4811 0060 FFF7FEFF 		bl	assert_param
1012:../libs/StdPeripheralDriver/src/stm32f10x_tim.c ****   assert_param(IS_TIM_INTERNAL_TRIGGER_SELECTION(TIM_InputTriggerSource));
 4812              		.loc 1 1012 0 is_stmt 1 discriminator 4
 4813 0064 7B88     		ldrh	r3, [r7, #2]
 4814 0066 002B     		cmp	r3, #0
 4815 0068 08D0     		beq	.L303
 4816              		.loc 1 1012 0 is_stmt 0 discriminator 2
 4817 006a 7B88     		ldrh	r3, [r7, #2]
 4818 006c 102B     		cmp	r3, #16
 4819 006e 05D0     		beq	.L303
 4820              		.loc 1 1012 0 discriminator 1
 4821 0070 7B88     		ldrh	r3, [r7, #2]
 4822 0072 202B     		cmp	r3, #32
 4823 0074 02D0     		beq	.L303
 4824              		.loc 1 1012 0 discriminator 2
 4825 0076 7B88     		ldrh	r3, [r7, #2]
 4826 0078 302B     		cmp	r3, #48
 4827 007a 02D1     		bne	.L304
 4828              	.L303:
 4829              		.loc 1 1012 0 discriminator 1
 4830 007c 4FF00103 		mov	r3, #1
 4831 0080 01E0     		b	.L305
 4832              	.L304:
 4833              		.loc 1 1012 0 discriminator 3
 4834 0082 4FF00003 		mov	r3, #0
 4835              	.L305:
 4836              		.loc 1 1012 0 discriminator 4
 4837 0086 1846     		mov	r0, r3
 4838 0088 FFF7FEFF 		bl	assert_param
1013:../libs/StdPeripheralDriver/src/stm32f10x_tim.c ****   /* Select the Internal Trigger */
1014:../libs/StdPeripheralDriver/src/stm32f10x_tim.c ****   TIM_SelectInputTrigger(TIMx, TIM_InputTriggerSource);
 4839              		.loc 1 1014 0 is_stmt 1 discriminator 4
 4840 008c 7B88     		ldrh	r3, [r7, #2]
 4841 008e 7868     		ldr	r0, [r7, #4]
 4842 0090 1946     		mov	r1, r3
 4843 0092 FFF7FEFF 		bl	TIM_SelectInputTrigger
1015:../libs/StdPeripheralDriver/src/stm32f10x_tim.c ****   /* Select the External clock mode1 */
1016:../libs/StdPeripheralDriver/src/stm32f10x_tim.c ****   TIMx->SMCR |= TIM_SlaveMode_External1;
 4844              		.loc 1 1016 0 discriminator 4
 4845 0096 7B68     		ldr	r3, [r7, #4]
 4846 0098 1B89     		ldrh	r3, [r3, #8]	@ movhi
 4847 009a 9BB2     		uxth	r3, r3
 4848 009c 43F00703 		orr	r3, r3, #7
 4849 00a0 9AB2     		uxth	r2, r3
 4850 00a2 7B68     		ldr	r3, [r7, #4]
 4851 00a4 1A81     		strh	r2, [r3, #8]	@ movhi
1017:../libs/StdPeripheralDriver/src/stm32f10x_tim.c **** }
 4852              		.loc 1 1017 0 discriminator 4
 4853 00a6 07F10807 		add	r7, r7, #8
 4854 00aa BD46     		mov	sp, r7
 4855 00ac 80BD     		pop	{r7, pc}
 4856              	.L307:
 4857 00ae 00BF     		.align	2
 4858              	.L306:
 4859 00b0 002C0140 		.word	1073818624
 4860 00b4 00040040 		.word	1073742848
 4861 00b8 00080040 		.word	1073743872
 4862 00bc 000C0040 		.word	1073744896
 4863 00c0 00340140 		.word	1073820672
 4864 00c4 004C0140 		.word	1073826816
 4865 00c8 00180040 		.word	1073747968
 4866 00cc 00400140 		.word	1073823744
 4867              		.cfi_endproc
 4868              	.LFE49:
 4870              		.section	.text.TIM_TIxExternalClockConfig,"ax",%progbits
 4871              		.align	2
 4872              		.global	TIM_TIxExternalClockConfig
 4873              		.thumb
 4874              		.thumb_func
 4876              	TIM_TIxExternalClockConfig:
 4877              	.LFB50:
1018:../libs/StdPeripheralDriver/src/stm32f10x_tim.c **** 
1019:../libs/StdPeripheralDriver/src/stm32f10x_tim.c **** /**
1020:../libs/StdPeripheralDriver/src/stm32f10x_tim.c ****   * @brief  Configures the TIMx Trigger as External Clock
1021:../libs/StdPeripheralDriver/src/stm32f10x_tim.c ****   * @param  TIMx: where x can be  1, 2, 3, 4, 5, 9, 12 or 15 to select the TIM peripheral.
1022:../libs/StdPeripheralDriver/src/stm32f10x_tim.c ****   * @param  TIM_TIxExternalCLKSource: Trigger source.
1023:../libs/StdPeripheralDriver/src/stm32f10x_tim.c ****   *   This parameter can be one of the following values:
1024:../libs/StdPeripheralDriver/src/stm32f10x_tim.c ****   *     @arg TIM_TIxExternalCLK1Source_TI1ED: TI1 Edge Detector
1025:../libs/StdPeripheralDriver/src/stm32f10x_tim.c ****   *     @arg TIM_TIxExternalCLK1Source_TI1: Filtered Timer Input 1
1026:../libs/StdPeripheralDriver/src/stm32f10x_tim.c ****   *     @arg TIM_TIxExternalCLK1Source_TI2: Filtered Timer Input 2
1027:../libs/StdPeripheralDriver/src/stm32f10x_tim.c ****   * @param  TIM_ICPolarity: specifies the TIx Polarity.
1028:../libs/StdPeripheralDriver/src/stm32f10x_tim.c ****   *   This parameter can be one of the following values:
1029:../libs/StdPeripheralDriver/src/stm32f10x_tim.c ****   *     @arg TIM_ICPolarity_Rising
1030:../libs/StdPeripheralDriver/src/stm32f10x_tim.c ****   *     @arg TIM_ICPolarity_Falling
1031:../libs/StdPeripheralDriver/src/stm32f10x_tim.c ****   * @param  ICFilter : specifies the filter value.
1032:../libs/StdPeripheralDriver/src/stm32f10x_tim.c ****   *   This parameter must be a value between 0x0 and 0xF.
1033:../libs/StdPeripheralDriver/src/stm32f10x_tim.c ****   * @retval None
1034:../libs/StdPeripheralDriver/src/stm32f10x_tim.c ****   */
1035:../libs/StdPeripheralDriver/src/stm32f10x_tim.c **** void TIM_TIxExternalClockConfig(TIM_TypeDef* TIMx, uint16_t TIM_TIxExternalCLKSource,
1036:../libs/StdPeripheralDriver/src/stm32f10x_tim.c ****                                 uint16_t TIM_ICPolarity, uint16_t ICFilter)
1037:../libs/StdPeripheralDriver/src/stm32f10x_tim.c **** {
 4878              		.loc 1 1037 0
 4879              		.cfi_startproc
 4880              		@ args = 0, pretend = 0, frame = 16
 4881              		@ frame_needed = 1, uses_anonymous_args = 0
 4882 0000 80B5     		push	{r7, lr}
 4883              	.LCFI63:
 4884              		.cfi_def_cfa_offset 8
 4885              		.cfi_offset 7, -8
 4886              		.cfi_offset 14, -4
 4887 0002 84B0     		sub	sp, sp, #16
 4888              	.LCFI64:
 4889              		.cfi_def_cfa_offset 24
 4890 0004 00AF     		add	r7, sp, #0
 4891              	.LCFI65:
 4892              		.cfi_def_cfa_register 7
 4893 0006 F860     		str	r0, [r7, #12]
 4894 0008 7981     		strh	r1, [r7, #10]	@ movhi
 4895 000a 3A81     		strh	r2, [r7, #8]	@ movhi
 4896 000c FB80     		strh	r3, [r7, #6]	@ movhi
1038:../libs/StdPeripheralDriver/src/stm32f10x_tim.c ****   /* Check the parameters */
1039:../libs/StdPeripheralDriver/src/stm32f10x_tim.c ****   assert_param(IS_TIM_LIST6_PERIPH(TIMx));
 4897              		.loc 1 1039 0
 4898 000e FA68     		ldr	r2, [r7, #12]
 4899 0010 3B4B     		ldr	r3, .L320
 4900 0012 9A42     		cmp	r2, r3
 4901 0014 1FD0     		beq	.L309
 4902              		.loc 1 1039 0 is_stmt 0 discriminator 2
 4903 0016 FB68     		ldr	r3, [r7, #12]
 4904 0018 B3F1804F 		cmp	r3, #1073741824
 4905 001c 1BD0     		beq	.L309
 4906              		.loc 1 1039 0 discriminator 1
 4907 001e FA68     		ldr	r2, [r7, #12]
 4908 0020 384B     		ldr	r3, .L320+4
 4909 0022 9A42     		cmp	r2, r3
 4910 0024 17D0     		beq	.L309
 4911              		.loc 1 1039 0 discriminator 2
 4912 0026 FA68     		ldr	r2, [r7, #12]
 4913 0028 374B     		ldr	r3, .L320+8
 4914 002a 9A42     		cmp	r2, r3
 4915 002c 13D0     		beq	.L309
 4916              		.loc 1 1039 0 discriminator 3
 4917 002e FA68     		ldr	r2, [r7, #12]
 4918 0030 364B     		ldr	r3, .L320+12
 4919 0032 9A42     		cmp	r2, r3
 4920 0034 0FD0     		beq	.L309
 4921              		.loc 1 1039 0 discriminator 4
 4922 0036 FA68     		ldr	r2, [r7, #12]
 4923 0038 354B     		ldr	r3, .L320+16
 4924 003a 9A42     		cmp	r2, r3
 4925 003c 0BD0     		beq	.L309
 4926              		.loc 1 1039 0 discriminator 5
 4927 003e FA68     		ldr	r2, [r7, #12]
 4928 0040 344B     		ldr	r3, .L320+20
 4929 0042 9A42     		cmp	r2, r3
 4930 0044 07D0     		beq	.L309
 4931              		.loc 1 1039 0 discriminator 6
 4932 0046 FA68     		ldr	r2, [r7, #12]
 4933 0048 334B     		ldr	r3, .L320+24
 4934 004a 9A42     		cmp	r2, r3
 4935 004c 03D0     		beq	.L309
 4936              		.loc 1 1039 0 discriminator 7
 4937 004e FA68     		ldr	r2, [r7, #12]
 4938 0050 324B     		ldr	r3, .L320+28
 4939 0052 9A42     		cmp	r2, r3
 4940 0054 02D1     		bne	.L310
 4941              	.L309:
 4942              		.loc 1 1039 0 discriminator 1
 4943 0056 4FF00103 		mov	r3, #1
 4944 005a 01E0     		b	.L311
 4945              	.L310:
 4946              		.loc 1 1039 0 discriminator 3
 4947 005c 4FF00003 		mov	r3, #0
 4948              	.L311:
 4949              		.loc 1 1039 0 discriminator 4
 4950 0060 1846     		mov	r0, r3
 4951 0062 FFF7FEFF 		bl	assert_param
1040:../libs/StdPeripheralDriver/src/stm32f10x_tim.c ****   assert_param(IS_TIM_TIXCLK_SOURCE(TIM_TIxExternalCLKSource));
 4952              		.loc 1 1040 0 is_stmt 1 discriminator 4
 4953 0066 7B89     		ldrh	r3, [r7, #10]
 4954 0068 502B     		cmp	r3, #80
 4955 006a 05D0     		beq	.L312
 4956              		.loc 1 1040 0 is_stmt 0 discriminator 2
 4957 006c 7B89     		ldrh	r3, [r7, #10]
 4958 006e 602B     		cmp	r3, #96
 4959 0070 02D0     		beq	.L312
 4960              		.loc 1 1040 0 discriminator 1
 4961 0072 7B89     		ldrh	r3, [r7, #10]
 4962 0074 402B     		cmp	r3, #64
 4963 0076 02D1     		bne	.L313
 4964              	.L312:
 4965 0078 4FF00103 		mov	r3, #1
 4966 007c 01E0     		b	.L314
 4967              	.L313:
 4968              		.loc 1 1040 0 discriminator 3
 4969 007e 4FF00003 		mov	r3, #0
 4970              	.L314:
 4971              		.loc 1 1040 0 discriminator 4
 4972 0082 1846     		mov	r0, r3
 4973 0084 FFF7FEFF 		bl	assert_param
1041:../libs/StdPeripheralDriver/src/stm32f10x_tim.c ****   assert_param(IS_TIM_IC_POLARITY(TIM_ICPolarity));
 4974              		.loc 1 1041 0 is_stmt 1 discriminator 4
 4975 0088 3B89     		ldrh	r3, [r7, #8]
 4976 008a 002B     		cmp	r3, #0
 4977 008c 02D0     		beq	.L315
 4978              		.loc 1 1041 0 is_stmt 0 discriminator 2
 4979 008e 3B89     		ldrh	r3, [r7, #8]
 4980 0090 022B     		cmp	r3, #2
 4981 0092 02D1     		bne	.L316
 4982              	.L315:
 4983              		.loc 1 1041 0 discriminator 1
 4984 0094 4FF00103 		mov	r3, #1
 4985 0098 01E0     		b	.L317
 4986              	.L316:
 4987              		.loc 1 1041 0 discriminator 3
 4988 009a 4FF00003 		mov	r3, #0
 4989              	.L317:
 4990              		.loc 1 1041 0 discriminator 4
 4991 009e 1846     		mov	r0, r3
 4992 00a0 FFF7FEFF 		bl	assert_param
1042:../libs/StdPeripheralDriver/src/stm32f10x_tim.c ****   assert_param(IS_TIM_IC_FILTER(ICFilter));
 4993              		.loc 1 1042 0 is_stmt 1 discriminator 4
 4994 00a4 FB88     		ldrh	r3, [r7, #6]
 4995 00a6 0F2B     		cmp	r3, #15
 4996 00a8 8CBF     		ite	hi
 4997 00aa 0023     		movhi	r3, #0
 4998 00ac 0123     		movls	r3, #1
 4999 00ae DBB2     		uxtb	r3, r3
 5000 00b0 1846     		mov	r0, r3
 5001 00b2 FFF7FEFF 		bl	assert_param
1043:../libs/StdPeripheralDriver/src/stm32f10x_tim.c ****   /* Configure the Timer Input Clock Source */
1044:../libs/StdPeripheralDriver/src/stm32f10x_tim.c ****   if (TIM_TIxExternalCLKSource == TIM_TIxExternalCLK1Source_TI2)
 5002              		.loc 1 1044 0 discriminator 4
 5003 00b6 7B89     		ldrh	r3, [r7, #10]
 5004 00b8 602B     		cmp	r3, #96
 5005 00ba 08D1     		bne	.L318
1045:../libs/StdPeripheralDriver/src/stm32f10x_tim.c ****   {
1046:../libs/StdPeripheralDriver/src/stm32f10x_tim.c ****     TI2_Config(TIMx, TIM_ICPolarity, TIM_ICSelection_DirectTI, ICFilter);
 5006              		.loc 1 1046 0
 5007 00bc 3A89     		ldrh	r2, [r7, #8]
 5008 00be FB88     		ldrh	r3, [r7, #6]
 5009 00c0 F868     		ldr	r0, [r7, #12]
 5010 00c2 1146     		mov	r1, r2
 5011 00c4 4FF00102 		mov	r2, #1
 5012 00c8 FFF7FEFF 		bl	TI2_Config
 5013 00cc 07E0     		b	.L319
 5014              	.L318:
1047:../libs/StdPeripheralDriver/src/stm32f10x_tim.c ****   }
1048:../libs/StdPeripheralDriver/src/stm32f10x_tim.c ****   else
1049:../libs/StdPeripheralDriver/src/stm32f10x_tim.c ****   {
1050:../libs/StdPeripheralDriver/src/stm32f10x_tim.c ****     TI1_Config(TIMx, TIM_ICPolarity, TIM_ICSelection_DirectTI, ICFilter);
 5015              		.loc 1 1050 0
 5016 00ce 3A89     		ldrh	r2, [r7, #8]
 5017 00d0 FB88     		ldrh	r3, [r7, #6]
 5018 00d2 F868     		ldr	r0, [r7, #12]
 5019 00d4 1146     		mov	r1, r2
 5020 00d6 4FF00102 		mov	r2, #1
 5021 00da FFF7FEFF 		bl	TI1_Config
 5022              	.L319:
1051:../libs/StdPeripheralDriver/src/stm32f10x_tim.c ****   }
1052:../libs/StdPeripheralDriver/src/stm32f10x_tim.c ****   /* Select the Trigger source */
1053:../libs/StdPeripheralDriver/src/stm32f10x_tim.c ****   TIM_SelectInputTrigger(TIMx, TIM_TIxExternalCLKSource);
 5023              		.loc 1 1053 0
 5024 00de 7B89     		ldrh	r3, [r7, #10]
 5025 00e0 F868     		ldr	r0, [r7, #12]
 5026 00e2 1946     		mov	r1, r3
 5027 00e4 FFF7FEFF 		bl	TIM_SelectInputTrigger
1054:../libs/StdPeripheralDriver/src/stm32f10x_tim.c ****   /* Select the External clock mode1 */
1055:../libs/StdPeripheralDriver/src/stm32f10x_tim.c ****   TIMx->SMCR |= TIM_SlaveMode_External1;
 5028              		.loc 1 1055 0
 5029 00e8 FB68     		ldr	r3, [r7, #12]
 5030 00ea 1B89     		ldrh	r3, [r3, #8]	@ movhi
 5031 00ec 9BB2     		uxth	r3, r3
 5032 00ee 43F00703 		orr	r3, r3, #7
 5033 00f2 9AB2     		uxth	r2, r3
 5034 00f4 FB68     		ldr	r3, [r7, #12]
 5035 00f6 1A81     		strh	r2, [r3, #8]	@ movhi
1056:../libs/StdPeripheralDriver/src/stm32f10x_tim.c **** }
 5036              		.loc 1 1056 0
 5037 00f8 07F11007 		add	r7, r7, #16
 5038 00fc BD46     		mov	sp, r7
 5039 00fe 80BD     		pop	{r7, pc}
 5040              	.L321:
 5041              		.align	2
 5042              	.L320:
 5043 0100 002C0140 		.word	1073818624
 5044 0104 00040040 		.word	1073742848
 5045 0108 00080040 		.word	1073743872
 5046 010c 000C0040 		.word	1073744896
 5047 0110 00340140 		.word	1073820672
 5048 0114 004C0140 		.word	1073826816
 5049 0118 00180040 		.word	1073747968
 5050 011c 00400140 		.word	1073823744
 5051              		.cfi_endproc
 5052              	.LFE50:
 5054              		.section	.text.TIM_ETRClockMode1Config,"ax",%progbits
 5055              		.align	2
 5056              		.global	TIM_ETRClockMode1Config
 5057              		.thumb
 5058              		.thumb_func
 5060              	TIM_ETRClockMode1Config:
 5061              	.LFB51:
1057:../libs/StdPeripheralDriver/src/stm32f10x_tim.c **** 
1058:../libs/StdPeripheralDriver/src/stm32f10x_tim.c **** /**
1059:../libs/StdPeripheralDriver/src/stm32f10x_tim.c ****   * @brief  Configures the External clock Mode1
1060:../libs/StdPeripheralDriver/src/stm32f10x_tim.c ****   * @param  TIMx: where x can be  1, 2, 3, 4, 5 or 8 to select the TIM peripheral.
1061:../libs/StdPeripheralDriver/src/stm32f10x_tim.c ****   * @param  TIM_ExtTRGPrescaler: The external Trigger Prescaler.
1062:../libs/StdPeripheralDriver/src/stm32f10x_tim.c ****   *   This parameter can be one of the following values:
1063:../libs/StdPeripheralDriver/src/stm32f10x_tim.c ****   *     @arg TIM_ExtTRGPSC_OFF: ETRP Prescaler OFF.
1064:../libs/StdPeripheralDriver/src/stm32f10x_tim.c ****   *     @arg TIM_ExtTRGPSC_DIV2: ETRP frequency divided by 2.
1065:../libs/StdPeripheralDriver/src/stm32f10x_tim.c ****   *     @arg TIM_ExtTRGPSC_DIV4: ETRP frequency divided by 4.
1066:../libs/StdPeripheralDriver/src/stm32f10x_tim.c ****   *     @arg TIM_ExtTRGPSC_DIV8: ETRP frequency divided by 8.
1067:../libs/StdPeripheralDriver/src/stm32f10x_tim.c ****   * @param  TIM_ExtTRGPolarity: The external Trigger Polarity.
1068:../libs/StdPeripheralDriver/src/stm32f10x_tim.c ****   *   This parameter can be one of the following values:
1069:../libs/StdPeripheralDriver/src/stm32f10x_tim.c ****   *     @arg TIM_ExtTRGPolarity_Inverted: active low or falling edge active.
1070:../libs/StdPeripheralDriver/src/stm32f10x_tim.c ****   *     @arg TIM_ExtTRGPolarity_NonInverted: active high or rising edge active.
1071:../libs/StdPeripheralDriver/src/stm32f10x_tim.c ****   * @param  ExtTRGFilter: External Trigger Filter.
1072:../libs/StdPeripheralDriver/src/stm32f10x_tim.c ****   *   This parameter must be a value between 0x00 and 0x0F
1073:../libs/StdPeripheralDriver/src/stm32f10x_tim.c ****   * @retval None
1074:../libs/StdPeripheralDriver/src/stm32f10x_tim.c ****   */
1075:../libs/StdPeripheralDriver/src/stm32f10x_tim.c **** void TIM_ETRClockMode1Config(TIM_TypeDef* TIMx, uint16_t TIM_ExtTRGPrescaler, uint16_t TIM_ExtTRGPo
1076:../libs/StdPeripheralDriver/src/stm32f10x_tim.c ****                              uint16_t ExtTRGFilter)
1077:../libs/StdPeripheralDriver/src/stm32f10x_tim.c **** {
 5062              		.loc 1 1077 0
 5063              		.cfi_startproc
 5064              		@ args = 0, pretend = 0, frame = 24
 5065              		@ frame_needed = 1, uses_anonymous_args = 0
 5066 0000 80B5     		push	{r7, lr}
 5067              	.LCFI66:
 5068              		.cfi_def_cfa_offset 8
 5069              		.cfi_offset 7, -8
 5070              		.cfi_offset 14, -4
 5071 0002 86B0     		sub	sp, sp, #24
 5072              	.LCFI67:
 5073              		.cfi_def_cfa_offset 32
 5074 0004 00AF     		add	r7, sp, #0
 5075              	.LCFI68:
 5076              		.cfi_def_cfa_register 7
 5077 0006 F860     		str	r0, [r7, #12]
 5078 0008 7981     		strh	r1, [r7, #10]	@ movhi
 5079 000a 3A81     		strh	r2, [r7, #8]	@ movhi
 5080 000c FB80     		strh	r3, [r7, #6]	@ movhi
1078:../libs/StdPeripheralDriver/src/stm32f10x_tim.c ****   uint16_t tmpsmcr = 0;
 5081              		.loc 1 1078 0
 5082 000e 4FF00003 		mov	r3, #0
 5083 0012 FB82     		strh	r3, [r7, #22]	@ movhi
1079:../libs/StdPeripheralDriver/src/stm32f10x_tim.c ****   /* Check the parameters */
1080:../libs/StdPeripheralDriver/src/stm32f10x_tim.c ****   assert_param(IS_TIM_LIST3_PERIPH(TIMx));
 5084              		.loc 1 1080 0
 5085 0014 FA68     		ldr	r2, [r7, #12]
 5086 0016 374B     		ldr	r3, .L332
 5087 0018 9A42     		cmp	r2, r3
 5088 001a 13D0     		beq	.L323
 5089              		.loc 1 1080 0 is_stmt 0 discriminator 2
 5090 001c FB68     		ldr	r3, [r7, #12]
 5091 001e B3F1804F 		cmp	r3, #1073741824
 5092 0022 0FD0     		beq	.L323
 5093              		.loc 1 1080 0 discriminator 1
 5094 0024 FA68     		ldr	r2, [r7, #12]
 5095 0026 344B     		ldr	r3, .L332+4
 5096 0028 9A42     		cmp	r2, r3
 5097 002a 0BD0     		beq	.L323
 5098              		.loc 1 1080 0 discriminator 2
 5099 002c FA68     		ldr	r2, [r7, #12]
 5100 002e 334B     		ldr	r3, .L332+8
 5101 0030 9A42     		cmp	r2, r3
 5102 0032 07D0     		beq	.L323
 5103              		.loc 1 1080 0 discriminator 3
 5104 0034 FA68     		ldr	r2, [r7, #12]
 5105 0036 324B     		ldr	r3, .L332+12
 5106 0038 9A42     		cmp	r2, r3
 5107 003a 03D0     		beq	.L323
 5108              		.loc 1 1080 0 discriminator 4
 5109 003c FA68     		ldr	r2, [r7, #12]
 5110 003e 314B     		ldr	r3, .L332+16
 5111 0040 9A42     		cmp	r2, r3
 5112 0042 02D1     		bne	.L324
 5113              	.L323:
 5114              		.loc 1 1080 0 discriminator 1
 5115 0044 4FF00103 		mov	r3, #1
 5116 0048 01E0     		b	.L325
 5117              	.L324:
 5118              		.loc 1 1080 0 discriminator 3
 5119 004a 4FF00003 		mov	r3, #0
 5120              	.L325:
 5121              		.loc 1 1080 0 discriminator 4
 5122 004e 1846     		mov	r0, r3
 5123 0050 FFF7FEFF 		bl	assert_param
1081:../libs/StdPeripheralDriver/src/stm32f10x_tim.c ****   assert_param(IS_TIM_EXT_PRESCALER(TIM_ExtTRGPrescaler));
 5124              		.loc 1 1081 0 is_stmt 1 discriminator 4
 5125 0054 7B89     		ldrh	r3, [r7, #10]
 5126 0056 002B     		cmp	r3, #0
 5127 0058 0BD0     		beq	.L326
 5128              		.loc 1 1081 0 is_stmt 0 discriminator 2
 5129 005a 7B89     		ldrh	r3, [r7, #10]
 5130 005c B3F5805F 		cmp	r3, #4096
 5131 0060 07D0     		beq	.L326
 5132              		.loc 1 1081 0 discriminator 1
 5133 0062 7B89     		ldrh	r3, [r7, #10]
 5134 0064 B3F5005F 		cmp	r3, #8192
 5135 0068 03D0     		beq	.L326
 5136              		.loc 1 1081 0 discriminator 2
 5137 006a 7B89     		ldrh	r3, [r7, #10]
 5138 006c B3F5405F 		cmp	r3, #12288
 5139 0070 02D1     		bne	.L327
 5140              	.L326:
 5141              		.loc 1 1081 0 discriminator 1
 5142 0072 4FF00103 		mov	r3, #1
 5143 0076 01E0     		b	.L328
 5144              	.L327:
 5145              		.loc 1 1081 0 discriminator 3
 5146 0078 4FF00003 		mov	r3, #0
 5147              	.L328:
 5148              		.loc 1 1081 0 discriminator 4
 5149 007c 1846     		mov	r0, r3
 5150 007e FFF7FEFF 		bl	assert_param
1082:../libs/StdPeripheralDriver/src/stm32f10x_tim.c ****   assert_param(IS_TIM_EXT_POLARITY(TIM_ExtTRGPolarity));
 5151              		.loc 1 1082 0 is_stmt 1 discriminator 4
 5152 0082 3B89     		ldrh	r3, [r7, #8]
 5153 0084 B3F5004F 		cmp	r3, #32768
 5154 0088 02D0     		beq	.L329
 5155              		.loc 1 1082 0 is_stmt 0 discriminator 2
 5156 008a 3B89     		ldrh	r3, [r7, #8]
 5157 008c 002B     		cmp	r3, #0
 5158 008e 02D1     		bne	.L330
 5159              	.L329:
 5160              		.loc 1 1082 0 discriminator 1
 5161 0090 4FF00103 		mov	r3, #1
 5162 0094 01E0     		b	.L331
 5163              	.L330:
 5164              		.loc 1 1082 0 discriminator 3
 5165 0096 4FF00003 		mov	r3, #0
 5166              	.L331:
 5167              		.loc 1 1082 0 discriminator 4
 5168 009a 1846     		mov	r0, r3
 5169 009c FFF7FEFF 		bl	assert_param
1083:../libs/StdPeripheralDriver/src/stm32f10x_tim.c ****   assert_param(IS_TIM_EXT_FILTER(ExtTRGFilter));
 5170              		.loc 1 1083 0 is_stmt 1 discriminator 4
 5171 00a0 FB88     		ldrh	r3, [r7, #6]
 5172 00a2 0F2B     		cmp	r3, #15
 5173 00a4 8CBF     		ite	hi
 5174 00a6 0023     		movhi	r3, #0
 5175 00a8 0123     		movls	r3, #1
 5176 00aa DBB2     		uxtb	r3, r3
 5177 00ac 1846     		mov	r0, r3
 5178 00ae FFF7FEFF 		bl	assert_param
1084:../libs/StdPeripheralDriver/src/stm32f10x_tim.c ****   /* Configure the ETR Clock source */
1085:../libs/StdPeripheralDriver/src/stm32f10x_tim.c ****   TIM_ETRConfig(TIMx, TIM_ExtTRGPrescaler, TIM_ExtTRGPolarity, ExtTRGFilter);
 5179              		.loc 1 1085 0 discriminator 4
 5180 00b2 7989     		ldrh	r1, [r7, #10]
 5181 00b4 3A89     		ldrh	r2, [r7, #8]
 5182 00b6 FB88     		ldrh	r3, [r7, #6]
 5183 00b8 F868     		ldr	r0, [r7, #12]
 5184 00ba FFF7FEFF 		bl	TIM_ETRConfig
1086:../libs/StdPeripheralDriver/src/stm32f10x_tim.c ****   
1087:../libs/StdPeripheralDriver/src/stm32f10x_tim.c ****   /* Get the TIMx SMCR register value */
1088:../libs/StdPeripheralDriver/src/stm32f10x_tim.c ****   tmpsmcr = TIMx->SMCR;
 5185              		.loc 1 1088 0 discriminator 4
 5186 00be FB68     		ldr	r3, [r7, #12]
 5187 00c0 1B89     		ldrh	r3, [r3, #8]	@ movhi
 5188 00c2 FB82     		strh	r3, [r7, #22]	@ movhi
1089:../libs/StdPeripheralDriver/src/stm32f10x_tim.c ****   /* Reset the SMS Bits */
1090:../libs/StdPeripheralDriver/src/stm32f10x_tim.c ****   tmpsmcr &= (uint16_t)(~((uint16_t)TIM_SMCR_SMS));
 5189              		.loc 1 1090 0 discriminator 4
 5190 00c4 FB8A     		ldrh	r3, [r7, #22]	@ movhi
 5191 00c6 23F00703 		bic	r3, r3, #7
 5192 00ca FB82     		strh	r3, [r7, #22]	@ movhi
1091:../libs/StdPeripheralDriver/src/stm32f10x_tim.c ****   /* Select the External clock mode1 */
1092:../libs/StdPeripheralDriver/src/stm32f10x_tim.c ****   tmpsmcr |= TIM_SlaveMode_External1;
 5193              		.loc 1 1092 0 discriminator 4
 5194 00cc FB8A     		ldrh	r3, [r7, #22]	@ movhi
 5195 00ce 43F00703 		orr	r3, r3, #7
 5196 00d2 FB82     		strh	r3, [r7, #22]	@ movhi
1093:../libs/StdPeripheralDriver/src/stm32f10x_tim.c ****   /* Select the Trigger selection : ETRF */
1094:../libs/StdPeripheralDriver/src/stm32f10x_tim.c ****   tmpsmcr &= (uint16_t)(~((uint16_t)TIM_SMCR_TS));
 5197              		.loc 1 1094 0 discriminator 4
 5198 00d4 FB8A     		ldrh	r3, [r7, #22]	@ movhi
 5199 00d6 23F07003 		bic	r3, r3, #112
 5200 00da FB82     		strh	r3, [r7, #22]	@ movhi
1095:../libs/StdPeripheralDriver/src/stm32f10x_tim.c ****   tmpsmcr |= TIM_TS_ETRF;
 5201              		.loc 1 1095 0 discriminator 4
 5202 00dc FB8A     		ldrh	r3, [r7, #22]	@ movhi
 5203 00de 43F07003 		orr	r3, r3, #112
 5204 00e2 FB82     		strh	r3, [r7, #22]	@ movhi
1096:../libs/StdPeripheralDriver/src/stm32f10x_tim.c ****   /* Write to TIMx SMCR */
1097:../libs/StdPeripheralDriver/src/stm32f10x_tim.c ****   TIMx->SMCR = tmpsmcr;
 5205              		.loc 1 1097 0 discriminator 4
 5206 00e4 FB68     		ldr	r3, [r7, #12]
 5207 00e6 FA8A     		ldrh	r2, [r7, #22]	@ movhi
 5208 00e8 1A81     		strh	r2, [r3, #8]	@ movhi
1098:../libs/StdPeripheralDriver/src/stm32f10x_tim.c **** }
 5209              		.loc 1 1098 0 discriminator 4
 5210 00ea 07F11807 		add	r7, r7, #24
 5211 00ee BD46     		mov	sp, r7
 5212 00f0 80BD     		pop	{r7, pc}
 5213              	.L333:
 5214 00f2 00BF     		.align	2
 5215              	.L332:
 5216 00f4 002C0140 		.word	1073818624
 5217 00f8 00040040 		.word	1073742848
 5218 00fc 00080040 		.word	1073743872
 5219 0100 000C0040 		.word	1073744896
 5220 0104 00340140 		.word	1073820672
 5221              		.cfi_endproc
 5222              	.LFE51:
 5224              		.section	.text.TIM_ETRClockMode2Config,"ax",%progbits
 5225              		.align	2
 5226              		.global	TIM_ETRClockMode2Config
 5227              		.thumb
 5228              		.thumb_func
 5230              	TIM_ETRClockMode2Config:
 5231              	.LFB52:
1099:../libs/StdPeripheralDriver/src/stm32f10x_tim.c **** 
1100:../libs/StdPeripheralDriver/src/stm32f10x_tim.c **** /**
1101:../libs/StdPeripheralDriver/src/stm32f10x_tim.c ****   * @brief  Configures the External clock Mode2
1102:../libs/StdPeripheralDriver/src/stm32f10x_tim.c ****   * @param  TIMx: where x can be  1, 2, 3, 4, 5 or 8 to select the TIM peripheral.
1103:../libs/StdPeripheralDriver/src/stm32f10x_tim.c ****   * @param  TIM_ExtTRGPrescaler: The external Trigger Prescaler.
1104:../libs/StdPeripheralDriver/src/stm32f10x_tim.c ****   *   This parameter can be one of the following values:
1105:../libs/StdPeripheralDriver/src/stm32f10x_tim.c ****   *     @arg TIM_ExtTRGPSC_OFF: ETRP Prescaler OFF.
1106:../libs/StdPeripheralDriver/src/stm32f10x_tim.c ****   *     @arg TIM_ExtTRGPSC_DIV2: ETRP frequency divided by 2.
1107:../libs/StdPeripheralDriver/src/stm32f10x_tim.c ****   *     @arg TIM_ExtTRGPSC_DIV4: ETRP frequency divided by 4.
1108:../libs/StdPeripheralDriver/src/stm32f10x_tim.c ****   *     @arg TIM_ExtTRGPSC_DIV8: ETRP frequency divided by 8.
1109:../libs/StdPeripheralDriver/src/stm32f10x_tim.c ****   * @param  TIM_ExtTRGPolarity: The external Trigger Polarity.
1110:../libs/StdPeripheralDriver/src/stm32f10x_tim.c ****   *   This parameter can be one of the following values:
1111:../libs/StdPeripheralDriver/src/stm32f10x_tim.c ****   *     @arg TIM_ExtTRGPolarity_Inverted: active low or falling edge active.
1112:../libs/StdPeripheralDriver/src/stm32f10x_tim.c ****   *     @arg TIM_ExtTRGPolarity_NonInverted: active high or rising edge active.
1113:../libs/StdPeripheralDriver/src/stm32f10x_tim.c ****   * @param  ExtTRGFilter: External Trigger Filter.
1114:../libs/StdPeripheralDriver/src/stm32f10x_tim.c ****   *   This parameter must be a value between 0x00 and 0x0F
1115:../libs/StdPeripheralDriver/src/stm32f10x_tim.c ****   * @retval None
1116:../libs/StdPeripheralDriver/src/stm32f10x_tim.c ****   */
1117:../libs/StdPeripheralDriver/src/stm32f10x_tim.c **** void TIM_ETRClockMode2Config(TIM_TypeDef* TIMx, uint16_t TIM_ExtTRGPrescaler, 
1118:../libs/StdPeripheralDriver/src/stm32f10x_tim.c ****                              uint16_t TIM_ExtTRGPolarity, uint16_t ExtTRGFilter)
1119:../libs/StdPeripheralDriver/src/stm32f10x_tim.c **** {
 5232              		.loc 1 1119 0
 5233              		.cfi_startproc
 5234              		@ args = 0, pretend = 0, frame = 16
 5235              		@ frame_needed = 1, uses_anonymous_args = 0
 5236 0000 80B5     		push	{r7, lr}
 5237              	.LCFI69:
 5238              		.cfi_def_cfa_offset 8
 5239              		.cfi_offset 7, -8
 5240              		.cfi_offset 14, -4
 5241 0002 84B0     		sub	sp, sp, #16
 5242              	.LCFI70:
 5243              		.cfi_def_cfa_offset 24
 5244 0004 00AF     		add	r7, sp, #0
 5245              	.LCFI71:
 5246              		.cfi_def_cfa_register 7
 5247 0006 F860     		str	r0, [r7, #12]
 5248 0008 7981     		strh	r1, [r7, #10]	@ movhi
 5249 000a 3A81     		strh	r2, [r7, #8]	@ movhi
 5250 000c FB80     		strh	r3, [r7, #6]	@ movhi
1120:../libs/StdPeripheralDriver/src/stm32f10x_tim.c ****   /* Check the parameters */
1121:../libs/StdPeripheralDriver/src/stm32f10x_tim.c ****   assert_param(IS_TIM_LIST3_PERIPH(TIMx));
 5251              		.loc 1 1121 0
 5252 000e FA68     		ldr	r2, [r7, #12]
 5253 0010 2F4B     		ldr	r3, .L344
 5254 0012 9A42     		cmp	r2, r3
 5255 0014 13D0     		beq	.L335
 5256              		.loc 1 1121 0 is_stmt 0 discriminator 2
 5257 0016 FB68     		ldr	r3, [r7, #12]
 5258 0018 B3F1804F 		cmp	r3, #1073741824
 5259 001c 0FD0     		beq	.L335
 5260              		.loc 1 1121 0 discriminator 1
 5261 001e FA68     		ldr	r2, [r7, #12]
 5262 0020 2C4B     		ldr	r3, .L344+4
 5263 0022 9A42     		cmp	r2, r3
 5264 0024 0BD0     		beq	.L335
 5265              		.loc 1 1121 0 discriminator 2
 5266 0026 FA68     		ldr	r2, [r7, #12]
 5267 0028 2B4B     		ldr	r3, .L344+8
 5268 002a 9A42     		cmp	r2, r3
 5269 002c 07D0     		beq	.L335
 5270              		.loc 1 1121 0 discriminator 3
 5271 002e FA68     		ldr	r2, [r7, #12]
 5272 0030 2A4B     		ldr	r3, .L344+12
 5273 0032 9A42     		cmp	r2, r3
 5274 0034 03D0     		beq	.L335
 5275              		.loc 1 1121 0 discriminator 4
 5276 0036 FA68     		ldr	r2, [r7, #12]
 5277 0038 294B     		ldr	r3, .L344+16
 5278 003a 9A42     		cmp	r2, r3
 5279 003c 02D1     		bne	.L336
 5280              	.L335:
 5281              		.loc 1 1121 0 discriminator 1
 5282 003e 4FF00103 		mov	r3, #1
 5283 0042 01E0     		b	.L337
 5284              	.L336:
 5285              		.loc 1 1121 0 discriminator 3
 5286 0044 4FF00003 		mov	r3, #0
 5287              	.L337:
 5288              		.loc 1 1121 0 discriminator 4
 5289 0048 1846     		mov	r0, r3
 5290 004a FFF7FEFF 		bl	assert_param
1122:../libs/StdPeripheralDriver/src/stm32f10x_tim.c ****   assert_param(IS_TIM_EXT_PRESCALER(TIM_ExtTRGPrescaler));
 5291              		.loc 1 1122 0 is_stmt 1 discriminator 4
 5292 004e 7B89     		ldrh	r3, [r7, #10]
 5293 0050 002B     		cmp	r3, #0
 5294 0052 0BD0     		beq	.L338
 5295              		.loc 1 1122 0 is_stmt 0 discriminator 2
 5296 0054 7B89     		ldrh	r3, [r7, #10]
 5297 0056 B3F5805F 		cmp	r3, #4096
 5298 005a 07D0     		beq	.L338
 5299              		.loc 1 1122 0 discriminator 1
 5300 005c 7B89     		ldrh	r3, [r7, #10]
 5301 005e B3F5005F 		cmp	r3, #8192
 5302 0062 03D0     		beq	.L338
 5303              		.loc 1 1122 0 discriminator 2
 5304 0064 7B89     		ldrh	r3, [r7, #10]
 5305 0066 B3F5405F 		cmp	r3, #12288
 5306 006a 02D1     		bne	.L339
 5307              	.L338:
 5308              		.loc 1 1122 0 discriminator 1
 5309 006c 4FF00103 		mov	r3, #1
 5310 0070 01E0     		b	.L340
 5311              	.L339:
 5312              		.loc 1 1122 0 discriminator 3
 5313 0072 4FF00003 		mov	r3, #0
 5314              	.L340:
 5315              		.loc 1 1122 0 discriminator 4
 5316 0076 1846     		mov	r0, r3
 5317 0078 FFF7FEFF 		bl	assert_param
1123:../libs/StdPeripheralDriver/src/stm32f10x_tim.c ****   assert_param(IS_TIM_EXT_POLARITY(TIM_ExtTRGPolarity));
 5318              		.loc 1 1123 0 is_stmt 1 discriminator 4
 5319 007c 3B89     		ldrh	r3, [r7, #8]
 5320 007e B3F5004F 		cmp	r3, #32768
 5321 0082 02D0     		beq	.L341
 5322              		.loc 1 1123 0 is_stmt 0 discriminator 2
 5323 0084 3B89     		ldrh	r3, [r7, #8]
 5324 0086 002B     		cmp	r3, #0
 5325 0088 02D1     		bne	.L342
 5326              	.L341:
 5327              		.loc 1 1123 0 discriminator 1
 5328 008a 4FF00103 		mov	r3, #1
 5329 008e 01E0     		b	.L343
 5330              	.L342:
 5331              		.loc 1 1123 0 discriminator 3
 5332 0090 4FF00003 		mov	r3, #0
 5333              	.L343:
 5334              		.loc 1 1123 0 discriminator 4
 5335 0094 1846     		mov	r0, r3
 5336 0096 FFF7FEFF 		bl	assert_param
1124:../libs/StdPeripheralDriver/src/stm32f10x_tim.c ****   assert_param(IS_TIM_EXT_FILTER(ExtTRGFilter));
 5337              		.loc 1 1124 0 is_stmt 1 discriminator 4
 5338 009a FB88     		ldrh	r3, [r7, #6]
 5339 009c 0F2B     		cmp	r3, #15
 5340 009e 8CBF     		ite	hi
 5341 00a0 0023     		movhi	r3, #0
 5342 00a2 0123     		movls	r3, #1
 5343 00a4 DBB2     		uxtb	r3, r3
 5344 00a6 1846     		mov	r0, r3
 5345 00a8 FFF7FEFF 		bl	assert_param
1125:../libs/StdPeripheralDriver/src/stm32f10x_tim.c ****   /* Configure the ETR Clock source */
1126:../libs/StdPeripheralDriver/src/stm32f10x_tim.c ****   TIM_ETRConfig(TIMx, TIM_ExtTRGPrescaler, TIM_ExtTRGPolarity, ExtTRGFilter);
 5346              		.loc 1 1126 0 discriminator 4
 5347 00ac 7989     		ldrh	r1, [r7, #10]
 5348 00ae 3A89     		ldrh	r2, [r7, #8]
 5349 00b0 FB88     		ldrh	r3, [r7, #6]
 5350 00b2 F868     		ldr	r0, [r7, #12]
 5351 00b4 FFF7FEFF 		bl	TIM_ETRConfig
1127:../libs/StdPeripheralDriver/src/stm32f10x_tim.c ****   /* Enable the External clock mode2 */
1128:../libs/StdPeripheralDriver/src/stm32f10x_tim.c ****   TIMx->SMCR |= TIM_SMCR_ECE;
 5352              		.loc 1 1128 0 discriminator 4
 5353 00b8 FB68     		ldr	r3, [r7, #12]
 5354 00ba 1B89     		ldrh	r3, [r3, #8]	@ movhi
 5355 00bc 9BB2     		uxth	r3, r3
 5356 00be 43F48043 		orr	r3, r3, #16384
 5357 00c2 9AB2     		uxth	r2, r3
 5358 00c4 FB68     		ldr	r3, [r7, #12]
 5359 00c6 1A81     		strh	r2, [r3, #8]	@ movhi
1129:../libs/StdPeripheralDriver/src/stm32f10x_tim.c **** }
 5360              		.loc 1 1129 0 discriminator 4
 5361 00c8 07F11007 		add	r7, r7, #16
 5362 00cc BD46     		mov	sp, r7
 5363 00ce 80BD     		pop	{r7, pc}
 5364              	.L345:
 5365              		.align	2
 5366              	.L344:
 5367 00d0 002C0140 		.word	1073818624
 5368 00d4 00040040 		.word	1073742848
 5369 00d8 00080040 		.word	1073743872
 5370 00dc 000C0040 		.word	1073744896
 5371 00e0 00340140 		.word	1073820672
 5372              		.cfi_endproc
 5373              	.LFE52:
 5375              		.section	.text.TIM_ETRConfig,"ax",%progbits
 5376              		.align	2
 5377              		.global	TIM_ETRConfig
 5378              		.thumb
 5379              		.thumb_func
 5381              	TIM_ETRConfig:
 5382              	.LFB53:
1130:../libs/StdPeripheralDriver/src/stm32f10x_tim.c **** 
1131:../libs/StdPeripheralDriver/src/stm32f10x_tim.c **** /**
1132:../libs/StdPeripheralDriver/src/stm32f10x_tim.c ****   * @brief  Configures the TIMx External Trigger (ETR).
1133:../libs/StdPeripheralDriver/src/stm32f10x_tim.c ****   * @param  TIMx: where x can be  1, 2, 3, 4, 5 or 8 to select the TIM peripheral.
1134:../libs/StdPeripheralDriver/src/stm32f10x_tim.c ****   * @param  TIM_ExtTRGPrescaler: The external Trigger Prescaler.
1135:../libs/StdPeripheralDriver/src/stm32f10x_tim.c ****   *   This parameter can be one of the following values:
1136:../libs/StdPeripheralDriver/src/stm32f10x_tim.c ****   *     @arg TIM_ExtTRGPSC_OFF: ETRP Prescaler OFF.
1137:../libs/StdPeripheralDriver/src/stm32f10x_tim.c ****   *     @arg TIM_ExtTRGPSC_DIV2: ETRP frequency divided by 2.
1138:../libs/StdPeripheralDriver/src/stm32f10x_tim.c ****   *     @arg TIM_ExtTRGPSC_DIV4: ETRP frequency divided by 4.
1139:../libs/StdPeripheralDriver/src/stm32f10x_tim.c ****   *     @arg TIM_ExtTRGPSC_DIV8: ETRP frequency divided by 8.
1140:../libs/StdPeripheralDriver/src/stm32f10x_tim.c ****   * @param  TIM_ExtTRGPolarity: The external Trigger Polarity.
1141:../libs/StdPeripheralDriver/src/stm32f10x_tim.c ****   *   This parameter can be one of the following values:
1142:../libs/StdPeripheralDriver/src/stm32f10x_tim.c ****   *     @arg TIM_ExtTRGPolarity_Inverted: active low or falling edge active.
1143:../libs/StdPeripheralDriver/src/stm32f10x_tim.c ****   *     @arg TIM_ExtTRGPolarity_NonInverted: active high or rising edge active.
1144:../libs/StdPeripheralDriver/src/stm32f10x_tim.c ****   * @param  ExtTRGFilter: External Trigger Filter.
1145:../libs/StdPeripheralDriver/src/stm32f10x_tim.c ****   *   This parameter must be a value between 0x00 and 0x0F
1146:../libs/StdPeripheralDriver/src/stm32f10x_tim.c ****   * @retval None
1147:../libs/StdPeripheralDriver/src/stm32f10x_tim.c ****   */
1148:../libs/StdPeripheralDriver/src/stm32f10x_tim.c **** void TIM_ETRConfig(TIM_TypeDef* TIMx, uint16_t TIM_ExtTRGPrescaler, uint16_t TIM_ExtTRGPolarity,
1149:../libs/StdPeripheralDriver/src/stm32f10x_tim.c ****                    uint16_t ExtTRGFilter)
1150:../libs/StdPeripheralDriver/src/stm32f10x_tim.c **** {
 5383              		.loc 1 1150 0
 5384              		.cfi_startproc
 5385              		@ args = 0, pretend = 0, frame = 24
 5386              		@ frame_needed = 1, uses_anonymous_args = 0
 5387 0000 80B5     		push	{r7, lr}
 5388              	.LCFI72:
 5389              		.cfi_def_cfa_offset 8
 5390              		.cfi_offset 7, -8
 5391              		.cfi_offset 14, -4
 5392 0002 86B0     		sub	sp, sp, #24
 5393              	.LCFI73:
 5394              		.cfi_def_cfa_offset 32
 5395 0004 00AF     		add	r7, sp, #0
 5396              	.LCFI74:
 5397              		.cfi_def_cfa_register 7
 5398 0006 F860     		str	r0, [r7, #12]
 5399 0008 7981     		strh	r1, [r7, #10]	@ movhi
 5400 000a 3A81     		strh	r2, [r7, #8]	@ movhi
 5401 000c FB80     		strh	r3, [r7, #6]	@ movhi
1151:../libs/StdPeripheralDriver/src/stm32f10x_tim.c ****   uint16_t tmpsmcr = 0;
 5402              		.loc 1 1151 0
 5403 000e 4FF00003 		mov	r3, #0
 5404 0012 FB82     		strh	r3, [r7, #22]	@ movhi
1152:../libs/StdPeripheralDriver/src/stm32f10x_tim.c ****   /* Check the parameters */
1153:../libs/StdPeripheralDriver/src/stm32f10x_tim.c ****   assert_param(IS_TIM_LIST3_PERIPH(TIMx));
 5405              		.loc 1 1153 0
 5406 0014 FA68     		ldr	r2, [r7, #12]
 5407 0016 344B     		ldr	r3, .L356
 5408 0018 9A42     		cmp	r2, r3
 5409 001a 13D0     		beq	.L347
 5410              		.loc 1 1153 0 is_stmt 0 discriminator 2
 5411 001c FB68     		ldr	r3, [r7, #12]
 5412 001e B3F1804F 		cmp	r3, #1073741824
 5413 0022 0FD0     		beq	.L347
 5414              		.loc 1 1153 0 discriminator 1
 5415 0024 FA68     		ldr	r2, [r7, #12]
 5416 0026 314B     		ldr	r3, .L356+4
 5417 0028 9A42     		cmp	r2, r3
 5418 002a 0BD0     		beq	.L347
 5419              		.loc 1 1153 0 discriminator 2
 5420 002c FA68     		ldr	r2, [r7, #12]
 5421 002e 304B     		ldr	r3, .L356+8
 5422 0030 9A42     		cmp	r2, r3
 5423 0032 07D0     		beq	.L347
 5424              		.loc 1 1153 0 discriminator 3
 5425 0034 FA68     		ldr	r2, [r7, #12]
 5426 0036 2F4B     		ldr	r3, .L356+12
 5427 0038 9A42     		cmp	r2, r3
 5428 003a 03D0     		beq	.L347
 5429              		.loc 1 1153 0 discriminator 4
 5430 003c FA68     		ldr	r2, [r7, #12]
 5431 003e 2E4B     		ldr	r3, .L356+16
 5432 0040 9A42     		cmp	r2, r3
 5433 0042 02D1     		bne	.L348
 5434              	.L347:
 5435              		.loc 1 1153 0 discriminator 1
 5436 0044 4FF00103 		mov	r3, #1
 5437 0048 01E0     		b	.L349
 5438              	.L348:
 5439              		.loc 1 1153 0 discriminator 3
 5440 004a 4FF00003 		mov	r3, #0
 5441              	.L349:
 5442              		.loc 1 1153 0 discriminator 4
 5443 004e 1846     		mov	r0, r3
 5444 0050 FFF7FEFF 		bl	assert_param
1154:../libs/StdPeripheralDriver/src/stm32f10x_tim.c ****   assert_param(IS_TIM_EXT_PRESCALER(TIM_ExtTRGPrescaler));
 5445              		.loc 1 1154 0 is_stmt 1 discriminator 4
 5446 0054 7B89     		ldrh	r3, [r7, #10]
 5447 0056 002B     		cmp	r3, #0
 5448 0058 0BD0     		beq	.L350
 5449              		.loc 1 1154 0 is_stmt 0 discriminator 2
 5450 005a 7B89     		ldrh	r3, [r7, #10]
 5451 005c B3F5805F 		cmp	r3, #4096
 5452 0060 07D0     		beq	.L350
 5453              		.loc 1 1154 0 discriminator 1
 5454 0062 7B89     		ldrh	r3, [r7, #10]
 5455 0064 B3F5005F 		cmp	r3, #8192
 5456 0068 03D0     		beq	.L350
 5457              		.loc 1 1154 0 discriminator 2
 5458 006a 7B89     		ldrh	r3, [r7, #10]
 5459 006c B3F5405F 		cmp	r3, #12288
 5460 0070 02D1     		bne	.L351
 5461              	.L350:
 5462              		.loc 1 1154 0 discriminator 1
 5463 0072 4FF00103 		mov	r3, #1
 5464 0076 01E0     		b	.L352
 5465              	.L351:
 5466              		.loc 1 1154 0 discriminator 3
 5467 0078 4FF00003 		mov	r3, #0
 5468              	.L352:
 5469              		.loc 1 1154 0 discriminator 4
 5470 007c 1846     		mov	r0, r3
 5471 007e FFF7FEFF 		bl	assert_param
1155:../libs/StdPeripheralDriver/src/stm32f10x_tim.c ****   assert_param(IS_TIM_EXT_POLARITY(TIM_ExtTRGPolarity));
 5472              		.loc 1 1155 0 is_stmt 1 discriminator 4
 5473 0082 3B89     		ldrh	r3, [r7, #8]
 5474 0084 B3F5004F 		cmp	r3, #32768
 5475 0088 02D0     		beq	.L353
 5476              		.loc 1 1155 0 is_stmt 0 discriminator 2
 5477 008a 3B89     		ldrh	r3, [r7, #8]
 5478 008c 002B     		cmp	r3, #0
 5479 008e 02D1     		bne	.L354
 5480              	.L353:
 5481              		.loc 1 1155 0 discriminator 1
 5482 0090 4FF00103 		mov	r3, #1
 5483 0094 01E0     		b	.L355
 5484              	.L354:
 5485              		.loc 1 1155 0 discriminator 3
 5486 0096 4FF00003 		mov	r3, #0
 5487              	.L355:
 5488              		.loc 1 1155 0 discriminator 4
 5489 009a 1846     		mov	r0, r3
 5490 009c FFF7FEFF 		bl	assert_param
1156:../libs/StdPeripheralDriver/src/stm32f10x_tim.c ****   assert_param(IS_TIM_EXT_FILTER(ExtTRGFilter));
 5491              		.loc 1 1156 0 is_stmt 1 discriminator 4
 5492 00a0 FB88     		ldrh	r3, [r7, #6]
 5493 00a2 0F2B     		cmp	r3, #15
 5494 00a4 8CBF     		ite	hi
 5495 00a6 0023     		movhi	r3, #0
 5496 00a8 0123     		movls	r3, #1
 5497 00aa DBB2     		uxtb	r3, r3
 5498 00ac 1846     		mov	r0, r3
 5499 00ae FFF7FEFF 		bl	assert_param
1157:../libs/StdPeripheralDriver/src/stm32f10x_tim.c ****   tmpsmcr = TIMx->SMCR;
 5500              		.loc 1 1157 0 discriminator 4
 5501 00b2 FB68     		ldr	r3, [r7, #12]
 5502 00b4 1B89     		ldrh	r3, [r3, #8]	@ movhi
 5503 00b6 FB82     		strh	r3, [r7, #22]	@ movhi
1158:../libs/StdPeripheralDriver/src/stm32f10x_tim.c ****   /* Reset the ETR Bits */
1159:../libs/StdPeripheralDriver/src/stm32f10x_tim.c ****   tmpsmcr &= SMCR_ETR_Mask;
 5504              		.loc 1 1159 0 discriminator 4
 5505 00b8 FB8A     		ldrh	r3, [r7, #22]	@ movhi
 5506 00ba DBB2     		uxtb	r3, r3
 5507 00bc FB82     		strh	r3, [r7, #22]	@ movhi
1160:../libs/StdPeripheralDriver/src/stm32f10x_tim.c ****   /* Set the Prescaler, the Filter value and the Polarity */
1161:../libs/StdPeripheralDriver/src/stm32f10x_tim.c ****   tmpsmcr |= (uint16_t)(TIM_ExtTRGPrescaler | (uint16_t)(TIM_ExtTRGPolarity | (uint16_t)(ExtTRGFilt
 5508              		.loc 1 1161 0 discriminator 4
 5509 00be FB88     		ldrh	r3, [r7, #6]	@ movhi
 5510 00c0 4FEA0323 		lsl	r3, r3, #8
 5511 00c4 9AB2     		uxth	r2, r3
 5512 00c6 3B89     		ldrh	r3, [r7, #8]	@ movhi
 5513 00c8 1343     		orrs	r3, r3, r2
 5514 00ca 9AB2     		uxth	r2, r3
 5515 00cc 7B89     		ldrh	r3, [r7, #10]	@ movhi
 5516 00ce 1343     		orrs	r3, r3, r2
 5517 00d0 9AB2     		uxth	r2, r3
 5518 00d2 FB8A     		ldrh	r3, [r7, #22]	@ movhi
 5519 00d4 1343     		orrs	r3, r3, r2
 5520 00d6 FB82     		strh	r3, [r7, #22]	@ movhi
1162:../libs/StdPeripheralDriver/src/stm32f10x_tim.c ****   /* Write to TIMx SMCR */
1163:../libs/StdPeripheralDriver/src/stm32f10x_tim.c ****   TIMx->SMCR = tmpsmcr;
 5521              		.loc 1 1163 0 discriminator 4
 5522 00d8 FB68     		ldr	r3, [r7, #12]
 5523 00da FA8A     		ldrh	r2, [r7, #22]	@ movhi
 5524 00dc 1A81     		strh	r2, [r3, #8]	@ movhi
1164:../libs/StdPeripheralDriver/src/stm32f10x_tim.c **** }
 5525              		.loc 1 1164 0 discriminator 4
 5526 00de 07F11807 		add	r7, r7, #24
 5527 00e2 BD46     		mov	sp, r7
 5528 00e4 80BD     		pop	{r7, pc}
 5529              	.L357:
 5530 00e6 00BF     		.align	2
 5531              	.L356:
 5532 00e8 002C0140 		.word	1073818624
 5533 00ec 00040040 		.word	1073742848
 5534 00f0 00080040 		.word	1073743872
 5535 00f4 000C0040 		.word	1073744896
 5536 00f8 00340140 		.word	1073820672
 5537              		.cfi_endproc
 5538              	.LFE53:
 5540              		.section	.text.TIM_PrescalerConfig,"ax",%progbits
 5541              		.align	2
 5542              		.global	TIM_PrescalerConfig
 5543              		.thumb
 5544              		.thumb_func
 5546              	TIM_PrescalerConfig:
 5547              	.LFB54:
1165:../libs/StdPeripheralDriver/src/stm32f10x_tim.c **** 
1166:../libs/StdPeripheralDriver/src/stm32f10x_tim.c **** /**
1167:../libs/StdPeripheralDriver/src/stm32f10x_tim.c ****   * @brief  Configures the TIMx Prescaler.
1168:../libs/StdPeripheralDriver/src/stm32f10x_tim.c ****   * @param  TIMx: where x can be 1 to 17 to select the TIM peripheral.
1169:../libs/StdPeripheralDriver/src/stm32f10x_tim.c ****   * @param  Prescaler: specifies the Prescaler Register value
1170:../libs/StdPeripheralDriver/src/stm32f10x_tim.c ****   * @param  TIM_PSCReloadMode: specifies the TIM Prescaler Reload mode
1171:../libs/StdPeripheralDriver/src/stm32f10x_tim.c ****   *   This parameter can be one of the following values:
1172:../libs/StdPeripheralDriver/src/stm32f10x_tim.c ****   *     @arg TIM_PSCReloadMode_Update: The Prescaler is loaded at the update event.
1173:../libs/StdPeripheralDriver/src/stm32f10x_tim.c ****   *     @arg TIM_PSCReloadMode_Immediate: The Prescaler is loaded immediately.
1174:../libs/StdPeripheralDriver/src/stm32f10x_tim.c ****   * @retval None
1175:../libs/StdPeripheralDriver/src/stm32f10x_tim.c ****   */
1176:../libs/StdPeripheralDriver/src/stm32f10x_tim.c **** void TIM_PrescalerConfig(TIM_TypeDef* TIMx, uint16_t Prescaler, uint16_t TIM_PSCReloadMode)
1177:../libs/StdPeripheralDriver/src/stm32f10x_tim.c **** {
 5548              		.loc 1 1177 0
 5549              		.cfi_startproc
 5550              		@ args = 0, pretend = 0, frame = 8
 5551              		@ frame_needed = 1, uses_anonymous_args = 0
 5552 0000 80B5     		push	{r7, lr}
 5553              	.LCFI75:
 5554              		.cfi_def_cfa_offset 8
 5555              		.cfi_offset 7, -8
 5556              		.cfi_offset 14, -4
 5557 0002 82B0     		sub	sp, sp, #8
 5558              	.LCFI76:
 5559              		.cfi_def_cfa_offset 16
 5560 0004 00AF     		add	r7, sp, #0
 5561              	.LCFI77:
 5562              		.cfi_def_cfa_register 7
 5563 0006 7860     		str	r0, [r7, #4]
 5564 0008 1346     		mov	r3, r2
 5565 000a 0A46     		mov	r2, r1	@ movhi
 5566 000c 7A80     		strh	r2, [r7, #2]	@ movhi
 5567 000e 3B80     		strh	r3, [r7, #0]	@ movhi
1178:../libs/StdPeripheralDriver/src/stm32f10x_tim.c ****   /* Check the parameters */
1179:../libs/StdPeripheralDriver/src/stm32f10x_tim.c ****   assert_param(IS_TIM_ALL_PERIPH(TIMx));
 5568              		.loc 1 1179 0
 5569 0010 7A68     		ldr	r2, [r7, #4]
 5570 0012 314B     		ldr	r3, .L365
 5571 0014 9A42     		cmp	r2, r3
 5572 0016 3FD0     		beq	.L359
 5573              		.loc 1 1179 0 is_stmt 0 discriminator 2
 5574 0018 7B68     		ldr	r3, [r7, #4]
 5575 001a B3F1804F 		cmp	r3, #1073741824
 5576 001e 3BD0     		beq	.L359
 5577              		.loc 1 1179 0 discriminator 1
 5578 0020 7A68     		ldr	r2, [r7, #4]
 5579 0022 2E4B     		ldr	r3, .L365+4
 5580 0024 9A42     		cmp	r2, r3
 5581 0026 37D0     		beq	.L359
 5582              		.loc 1 1179 0 discriminator 2
 5583 0028 7A68     		ldr	r2, [r7, #4]
 5584 002a 2D4B     		ldr	r3, .L365+8
 5585 002c 9A42     		cmp	r2, r3
 5586 002e 33D0     		beq	.L359
 5587              		.loc 1 1179 0 discriminator 3
 5588 0030 7A68     		ldr	r2, [r7, #4]
 5589 0032 2C4B     		ldr	r3, .L365+12
 5590 0034 9A42     		cmp	r2, r3
 5591 0036 2FD0     		beq	.L359
 5592              		.loc 1 1179 0 discriminator 4
 5593 0038 7A68     		ldr	r2, [r7, #4]
 5594 003a 2B4B     		ldr	r3, .L365+16
 5595 003c 9A42     		cmp	r2, r3
 5596 003e 2BD0     		beq	.L359
 5597              		.loc 1 1179 0 discriminator 5
 5598 0040 7A68     		ldr	r2, [r7, #4]
 5599 0042 2A4B     		ldr	r3, .L365+20
 5600 0044 9A42     		cmp	r2, r3
 5601 0046 27D0     		beq	.L359
 5602              		.loc 1 1179 0 discriminator 6
 5603 0048 7A68     		ldr	r2, [r7, #4]
 5604 004a 294B     		ldr	r3, .L365+24
 5605 004c 9A42     		cmp	r2, r3
 5606 004e 23D0     		beq	.L359
 5607              		.loc 1 1179 0 discriminator 7
 5608 0050 7A68     		ldr	r2, [r7, #4]
 5609 0052 284B     		ldr	r3, .L365+28
 5610 0054 9A42     		cmp	r2, r3
 5611 0056 1FD0     		beq	.L359
 5612              		.loc 1 1179 0 discriminator 8
 5613 0058 7A68     		ldr	r2, [r7, #4]
 5614 005a 274B     		ldr	r3, .L365+32
 5615 005c 9A42     		cmp	r2, r3
 5616 005e 1BD0     		beq	.L359
 5617              		.loc 1 1179 0 discriminator 9
 5618 0060 7A68     		ldr	r2, [r7, #4]
 5619 0062 264B     		ldr	r3, .L365+36
 5620 0064 9A42     		cmp	r2, r3
 5621 0066 17D0     		beq	.L359
 5622              		.loc 1 1179 0 discriminator 10
 5623 0068 7A68     		ldr	r2, [r7, #4]
 5624 006a 254B     		ldr	r3, .L365+40
 5625 006c 9A42     		cmp	r2, r3
 5626 006e 13D0     		beq	.L359
 5627              		.loc 1 1179 0 discriminator 11
 5628 0070 7A68     		ldr	r2, [r7, #4]
 5629 0072 244B     		ldr	r3, .L365+44
 5630 0074 9A42     		cmp	r2, r3
 5631 0076 0FD0     		beq	.L359
 5632              		.loc 1 1179 0 discriminator 12
 5633 0078 7A68     		ldr	r2, [r7, #4]
 5634 007a 234B     		ldr	r3, .L365+48
 5635 007c 9A42     		cmp	r2, r3
 5636 007e 0BD0     		beq	.L359
 5637              		.loc 1 1179 0 discriminator 13
 5638 0080 7A68     		ldr	r2, [r7, #4]
 5639 0082 224B     		ldr	r3, .L365+52
 5640 0084 9A42     		cmp	r2, r3
 5641 0086 07D0     		beq	.L359
 5642              		.loc 1 1179 0 discriminator 14
 5643 0088 7A68     		ldr	r2, [r7, #4]
 5644 008a 214B     		ldr	r3, .L365+56
 5645 008c 9A42     		cmp	r2, r3
 5646 008e 03D0     		beq	.L359
 5647              		.loc 1 1179 0 discriminator 15
 5648 0090 7A68     		ldr	r2, [r7, #4]
 5649 0092 204B     		ldr	r3, .L365+60
 5650 0094 9A42     		cmp	r2, r3
 5651 0096 02D1     		bne	.L360
 5652              	.L359:
 5653              		.loc 1 1179 0 discriminator 1
 5654 0098 4FF00103 		mov	r3, #1
 5655 009c 01E0     		b	.L361
 5656              	.L360:
 5657              		.loc 1 1179 0 discriminator 3
 5658 009e 4FF00003 		mov	r3, #0
 5659              	.L361:
 5660              		.loc 1 1179 0 discriminator 4
 5661 00a2 1846     		mov	r0, r3
 5662 00a4 FFF7FEFF 		bl	assert_param
1180:../libs/StdPeripheralDriver/src/stm32f10x_tim.c ****   assert_param(IS_TIM_PRESCALER_RELOAD(TIM_PSCReloadMode));
 5663              		.loc 1 1180 0 is_stmt 1 discriminator 4
 5664 00a8 3B88     		ldrh	r3, [r7, #0]
 5665 00aa 002B     		cmp	r3, #0
 5666 00ac 02D0     		beq	.L362
 5667              		.loc 1 1180 0 is_stmt 0 discriminator 2
 5668 00ae 3B88     		ldrh	r3, [r7, #0]
 5669 00b0 012B     		cmp	r3, #1
 5670 00b2 02D1     		bne	.L363
 5671              	.L362:
 5672              		.loc 1 1180 0 discriminator 1
 5673 00b4 4FF00103 		mov	r3, #1
 5674 00b8 01E0     		b	.L364
 5675              	.L363:
 5676              		.loc 1 1180 0 discriminator 3
 5677 00ba 4FF00003 		mov	r3, #0
 5678              	.L364:
 5679              		.loc 1 1180 0 discriminator 4
 5680 00be 1846     		mov	r0, r3
 5681 00c0 FFF7FEFF 		bl	assert_param
1181:../libs/StdPeripheralDriver/src/stm32f10x_tim.c ****   /* Set the Prescaler value */
1182:../libs/StdPeripheralDriver/src/stm32f10x_tim.c ****   TIMx->PSC = Prescaler;
 5682              		.loc 1 1182 0 is_stmt 1 discriminator 4
 5683 00c4 7B68     		ldr	r3, [r7, #4]
 5684 00c6 7A88     		ldrh	r2, [r7, #2]	@ movhi
 5685 00c8 1A85     		strh	r2, [r3, #40]	@ movhi
1183:../libs/StdPeripheralDriver/src/stm32f10x_tim.c ****   /* Set or reset the UG Bit */
1184:../libs/StdPeripheralDriver/src/stm32f10x_tim.c ****   TIMx->EGR = TIM_PSCReloadMode;
 5686              		.loc 1 1184 0 discriminator 4
 5687 00ca 7B68     		ldr	r3, [r7, #4]
 5688 00cc 3A88     		ldrh	r2, [r7, #0]	@ movhi
 5689 00ce 9A82     		strh	r2, [r3, #20]	@ movhi
1185:../libs/StdPeripheralDriver/src/stm32f10x_tim.c **** }
 5690              		.loc 1 1185 0 discriminator 4
 5691 00d0 07F10807 		add	r7, r7, #8
 5692 00d4 BD46     		mov	sp, r7
 5693 00d6 80BD     		pop	{r7, pc}
 5694              	.L366:
 5695              		.align	2
 5696              	.L365:
 5697 00d8 002C0140 		.word	1073818624
 5698 00dc 00040040 		.word	1073742848
 5699 00e0 00080040 		.word	1073743872
 5700 00e4 000C0040 		.word	1073744896
 5701 00e8 00100040 		.word	1073745920
 5702 00ec 00140040 		.word	1073746944
 5703 00f0 00340140 		.word	1073820672
 5704 00f4 004C0140 		.word	1073826816
 5705 00f8 00500140 		.word	1073827840
 5706 00fc 00540140 		.word	1073828864
 5707 0100 00180040 		.word	1073747968
 5708 0104 001C0040 		.word	1073748992
 5709 0108 00200040 		.word	1073750016
 5710 010c 00400140 		.word	1073823744
 5711 0110 00440140 		.word	1073824768
 5712 0114 00480140 		.word	1073825792
 5713              		.cfi_endproc
 5714              	.LFE54:
 5716              		.section	.text.TIM_CounterModeConfig,"ax",%progbits
 5717              		.align	2
 5718              		.global	TIM_CounterModeConfig
 5719              		.thumb
 5720              		.thumb_func
 5722              	TIM_CounterModeConfig:
 5723              	.LFB55:
1186:../libs/StdPeripheralDriver/src/stm32f10x_tim.c **** 
1187:../libs/StdPeripheralDriver/src/stm32f10x_tim.c **** /**
1188:../libs/StdPeripheralDriver/src/stm32f10x_tim.c ****   * @brief  Specifies the TIMx Counter Mode to be used.
1189:../libs/StdPeripheralDriver/src/stm32f10x_tim.c ****   * @param  TIMx: where x can be  1, 2, 3, 4, 5 or 8 to select the TIM peripheral.
1190:../libs/StdPeripheralDriver/src/stm32f10x_tim.c ****   * @param  TIM_CounterMode: specifies the Counter Mode to be used
1191:../libs/StdPeripheralDriver/src/stm32f10x_tim.c ****   *   This parameter can be one of the following values:
1192:../libs/StdPeripheralDriver/src/stm32f10x_tim.c ****   *     @arg TIM_CounterMode_Up: TIM Up Counting Mode
1193:../libs/StdPeripheralDriver/src/stm32f10x_tim.c ****   *     @arg TIM_CounterMode_Down: TIM Down Counting Mode
1194:../libs/StdPeripheralDriver/src/stm32f10x_tim.c ****   *     @arg TIM_CounterMode_CenterAligned1: TIM Center Aligned Mode1
1195:../libs/StdPeripheralDriver/src/stm32f10x_tim.c ****   *     @arg TIM_CounterMode_CenterAligned2: TIM Center Aligned Mode2
1196:../libs/StdPeripheralDriver/src/stm32f10x_tim.c ****   *     @arg TIM_CounterMode_CenterAligned3: TIM Center Aligned Mode3
1197:../libs/StdPeripheralDriver/src/stm32f10x_tim.c ****   * @retval None
1198:../libs/StdPeripheralDriver/src/stm32f10x_tim.c ****   */
1199:../libs/StdPeripheralDriver/src/stm32f10x_tim.c **** void TIM_CounterModeConfig(TIM_TypeDef* TIMx, uint16_t TIM_CounterMode)
1200:../libs/StdPeripheralDriver/src/stm32f10x_tim.c **** {
 5724              		.loc 1 1200 0
 5725              		.cfi_startproc
 5726              		@ args = 0, pretend = 0, frame = 16
 5727              		@ frame_needed = 1, uses_anonymous_args = 0
 5728 0000 80B5     		push	{r7, lr}
 5729              	.LCFI78:
 5730              		.cfi_def_cfa_offset 8
 5731              		.cfi_offset 7, -8
 5732              		.cfi_offset 14, -4
 5733 0002 84B0     		sub	sp, sp, #16
 5734              	.LCFI79:
 5735              		.cfi_def_cfa_offset 24
 5736 0004 00AF     		add	r7, sp, #0
 5737              	.LCFI80:
 5738              		.cfi_def_cfa_register 7
 5739 0006 7860     		str	r0, [r7, #4]
 5740 0008 0B46     		mov	r3, r1
 5741 000a 7B80     		strh	r3, [r7, #2]	@ movhi
1201:../libs/StdPeripheralDriver/src/stm32f10x_tim.c ****   uint16_t tmpcr1 = 0;
 5742              		.loc 1 1201 0
 5743 000c 4FF00003 		mov	r3, #0
 5744 0010 FB81     		strh	r3, [r7, #14]	@ movhi
1202:../libs/StdPeripheralDriver/src/stm32f10x_tim.c ****   /* Check the parameters */
1203:../libs/StdPeripheralDriver/src/stm32f10x_tim.c ****   assert_param(IS_TIM_LIST3_PERIPH(TIMx));
 5745              		.loc 1 1203 0
 5746 0012 7A68     		ldr	r2, [r7, #4]
 5747 0014 234B     		ldr	r3, .L374
 5748 0016 9A42     		cmp	r2, r3
 5749 0018 13D0     		beq	.L368
 5750              		.loc 1 1203 0 is_stmt 0 discriminator 2
 5751 001a 7B68     		ldr	r3, [r7, #4]
 5752 001c B3F1804F 		cmp	r3, #1073741824
 5753 0020 0FD0     		beq	.L368
 5754              		.loc 1 1203 0 discriminator 1
 5755 0022 7A68     		ldr	r2, [r7, #4]
 5756 0024 204B     		ldr	r3, .L374+4
 5757 0026 9A42     		cmp	r2, r3
 5758 0028 0BD0     		beq	.L368
 5759              		.loc 1 1203 0 discriminator 2
 5760 002a 7A68     		ldr	r2, [r7, #4]
 5761 002c 1F4B     		ldr	r3, .L374+8
 5762 002e 9A42     		cmp	r2, r3
 5763 0030 07D0     		beq	.L368
 5764              		.loc 1 1203 0 discriminator 3
 5765 0032 7A68     		ldr	r2, [r7, #4]
 5766 0034 1E4B     		ldr	r3, .L374+12
 5767 0036 9A42     		cmp	r2, r3
 5768 0038 03D0     		beq	.L368
 5769              		.loc 1 1203 0 discriminator 4
 5770 003a 7A68     		ldr	r2, [r7, #4]
 5771 003c 1D4B     		ldr	r3, .L374+16
 5772 003e 9A42     		cmp	r2, r3
 5773 0040 02D1     		bne	.L369
 5774              	.L368:
 5775              		.loc 1 1203 0 discriminator 1
 5776 0042 4FF00103 		mov	r3, #1
 5777 0046 01E0     		b	.L370
 5778              	.L369:
 5779              		.loc 1 1203 0 discriminator 3
 5780 0048 4FF00003 		mov	r3, #0
 5781              	.L370:
 5782              		.loc 1 1203 0 discriminator 4
 5783 004c 1846     		mov	r0, r3
 5784 004e FFF7FEFF 		bl	assert_param
1204:../libs/StdPeripheralDriver/src/stm32f10x_tim.c ****   assert_param(IS_TIM_COUNTER_MODE(TIM_CounterMode));
 5785              		.loc 1 1204 0 is_stmt 1 discriminator 4
 5786 0052 7B88     		ldrh	r3, [r7, #2]
 5787 0054 002B     		cmp	r3, #0
 5788 0056 0BD0     		beq	.L371
 5789              		.loc 1 1204 0 is_stmt 0 discriminator 2
 5790 0058 7B88     		ldrh	r3, [r7, #2]
 5791 005a 102B     		cmp	r3, #16
 5792 005c 08D0     		beq	.L371
 5793              		.loc 1 1204 0 discriminator 1
 5794 005e 7B88     		ldrh	r3, [r7, #2]
 5795 0060 202B     		cmp	r3, #32
 5796 0062 05D0     		beq	.L371
 5797              		.loc 1 1204 0 discriminator 2
 5798 0064 7B88     		ldrh	r3, [r7, #2]
 5799 0066 402B     		cmp	r3, #64
 5800 0068 02D0     		beq	.L371
 5801              		.loc 1 1204 0 discriminator 3
 5802 006a 7B88     		ldrh	r3, [r7, #2]
 5803 006c 602B     		cmp	r3, #96
 5804 006e 02D1     		bne	.L372
 5805              	.L371:
 5806              		.loc 1 1204 0 discriminator 1
 5807 0070 4FF00103 		mov	r3, #1
 5808 0074 01E0     		b	.L373
 5809              	.L372:
 5810              		.loc 1 1204 0 discriminator 3
 5811 0076 4FF00003 		mov	r3, #0
 5812              	.L373:
 5813              		.loc 1 1204 0 discriminator 4
 5814 007a 1846     		mov	r0, r3
 5815 007c FFF7FEFF 		bl	assert_param
1205:../libs/StdPeripheralDriver/src/stm32f10x_tim.c ****   tmpcr1 = TIMx->CR1;
 5816              		.loc 1 1205 0 is_stmt 1 discriminator 4
 5817 0080 7B68     		ldr	r3, [r7, #4]
 5818 0082 1B88     		ldrh	r3, [r3, #0]	@ movhi
 5819 0084 FB81     		strh	r3, [r7, #14]	@ movhi
1206:../libs/StdPeripheralDriver/src/stm32f10x_tim.c ****   /* Reset the CMS and DIR Bits */
1207:../libs/StdPeripheralDriver/src/stm32f10x_tim.c ****   tmpcr1 &= (uint16_t)(~((uint16_t)(TIM_CR1_DIR | TIM_CR1_CMS)));
 5820              		.loc 1 1207 0 discriminator 4
 5821 0086 FB89     		ldrh	r3, [r7, #14]	@ movhi
 5822 0088 23F07003 		bic	r3, r3, #112
 5823 008c FB81     		strh	r3, [r7, #14]	@ movhi
1208:../libs/StdPeripheralDriver/src/stm32f10x_tim.c ****   /* Set the Counter Mode */
1209:../libs/StdPeripheralDriver/src/stm32f10x_tim.c ****   tmpcr1 |= TIM_CounterMode;
 5824              		.loc 1 1209 0 discriminator 4
 5825 008e FA89     		ldrh	r2, [r7, #14]	@ movhi
 5826 0090 7B88     		ldrh	r3, [r7, #2]	@ movhi
 5827 0092 1343     		orrs	r3, r3, r2
 5828 0094 FB81     		strh	r3, [r7, #14]	@ movhi
1210:../libs/StdPeripheralDriver/src/stm32f10x_tim.c ****   /* Write to TIMx CR1 register */
1211:../libs/StdPeripheralDriver/src/stm32f10x_tim.c ****   TIMx->CR1 = tmpcr1;
 5829              		.loc 1 1211 0 discriminator 4
 5830 0096 7B68     		ldr	r3, [r7, #4]
 5831 0098 FA89     		ldrh	r2, [r7, #14]	@ movhi
 5832 009a 1A80     		strh	r2, [r3, #0]	@ movhi
1212:../libs/StdPeripheralDriver/src/stm32f10x_tim.c **** }
 5833              		.loc 1 1212 0 discriminator 4
 5834 009c 07F11007 		add	r7, r7, #16
 5835 00a0 BD46     		mov	sp, r7
 5836 00a2 80BD     		pop	{r7, pc}
 5837              	.L375:
 5838              		.align	2
 5839              	.L374:
 5840 00a4 002C0140 		.word	1073818624
 5841 00a8 00040040 		.word	1073742848
 5842 00ac 00080040 		.word	1073743872
 5843 00b0 000C0040 		.word	1073744896
 5844 00b4 00340140 		.word	1073820672
 5845              		.cfi_endproc
 5846              	.LFE55:
 5848              		.section	.text.TIM_SelectInputTrigger,"ax",%progbits
 5849              		.align	2
 5850              		.global	TIM_SelectInputTrigger
 5851              		.thumb
 5852              		.thumb_func
 5854              	TIM_SelectInputTrigger:
 5855              	.LFB56:
1213:../libs/StdPeripheralDriver/src/stm32f10x_tim.c **** 
1214:../libs/StdPeripheralDriver/src/stm32f10x_tim.c **** /**
1215:../libs/StdPeripheralDriver/src/stm32f10x_tim.c ****   * @brief  Selects the Input Trigger source
1216:../libs/StdPeripheralDriver/src/stm32f10x_tim.c ****   * @param  TIMx: where x can be  1, 2, 3, 4, 5, 8, 9, 12 or 15 to select the TIM peripheral.
1217:../libs/StdPeripheralDriver/src/stm32f10x_tim.c ****   * @param  TIM_InputTriggerSource: The Input Trigger source.
1218:../libs/StdPeripheralDriver/src/stm32f10x_tim.c ****   *   This parameter can be one of the following values:
1219:../libs/StdPeripheralDriver/src/stm32f10x_tim.c ****   *     @arg TIM_TS_ITR0: Internal Trigger 0
1220:../libs/StdPeripheralDriver/src/stm32f10x_tim.c ****   *     @arg TIM_TS_ITR1: Internal Trigger 1
1221:../libs/StdPeripheralDriver/src/stm32f10x_tim.c ****   *     @arg TIM_TS_ITR2: Internal Trigger 2
1222:../libs/StdPeripheralDriver/src/stm32f10x_tim.c ****   *     @arg TIM_TS_ITR3: Internal Trigger 3
1223:../libs/StdPeripheralDriver/src/stm32f10x_tim.c ****   *     @arg TIM_TS_TI1F_ED: TI1 Edge Detector
1224:../libs/StdPeripheralDriver/src/stm32f10x_tim.c ****   *     @arg TIM_TS_TI1FP1: Filtered Timer Input 1
1225:../libs/StdPeripheralDriver/src/stm32f10x_tim.c ****   *     @arg TIM_TS_TI2FP2: Filtered Timer Input 2
1226:../libs/StdPeripheralDriver/src/stm32f10x_tim.c ****   *     @arg TIM_TS_ETRF: External Trigger input
1227:../libs/StdPeripheralDriver/src/stm32f10x_tim.c ****   * @retval None
1228:../libs/StdPeripheralDriver/src/stm32f10x_tim.c ****   */
1229:../libs/StdPeripheralDriver/src/stm32f10x_tim.c **** void TIM_SelectInputTrigger(TIM_TypeDef* TIMx, uint16_t TIM_InputTriggerSource)
1230:../libs/StdPeripheralDriver/src/stm32f10x_tim.c **** {
 5856              		.loc 1 1230 0
 5857              		.cfi_startproc
 5858              		@ args = 0, pretend = 0, frame = 16
 5859              		@ frame_needed = 1, uses_anonymous_args = 0
 5860 0000 80B5     		push	{r7, lr}
 5861              	.LCFI81:
 5862              		.cfi_def_cfa_offset 8
 5863              		.cfi_offset 7, -8
 5864              		.cfi_offset 14, -4
 5865 0002 84B0     		sub	sp, sp, #16
 5866              	.LCFI82:
 5867              		.cfi_def_cfa_offset 24
 5868 0004 00AF     		add	r7, sp, #0
 5869              	.LCFI83:
 5870              		.cfi_def_cfa_register 7
 5871 0006 7860     		str	r0, [r7, #4]
 5872 0008 0B46     		mov	r3, r1
 5873 000a 7B80     		strh	r3, [r7, #2]	@ movhi
1231:../libs/StdPeripheralDriver/src/stm32f10x_tim.c ****   uint16_t tmpsmcr = 0;
 5874              		.loc 1 1231 0
 5875 000c 4FF00003 		mov	r3, #0
 5876 0010 FB81     		strh	r3, [r7, #14]	@ movhi
1232:../libs/StdPeripheralDriver/src/stm32f10x_tim.c ****   /* Check the parameters */
1233:../libs/StdPeripheralDriver/src/stm32f10x_tim.c ****   assert_param(IS_TIM_LIST6_PERIPH(TIMx));
 5877              		.loc 1 1233 0
 5878 0012 7A68     		ldr	r2, [r7, #4]
 5879 0014 2E4B     		ldr	r3, .L383
 5880 0016 9A42     		cmp	r2, r3
 5881 0018 1FD0     		beq	.L377
 5882              		.loc 1 1233 0 is_stmt 0 discriminator 2
 5883 001a 7B68     		ldr	r3, [r7, #4]
 5884 001c B3F1804F 		cmp	r3, #1073741824
 5885 0020 1BD0     		beq	.L377
 5886              		.loc 1 1233 0 discriminator 1
 5887 0022 7A68     		ldr	r2, [r7, #4]
 5888 0024 2B4B     		ldr	r3, .L383+4
 5889 0026 9A42     		cmp	r2, r3
 5890 0028 17D0     		beq	.L377
 5891              		.loc 1 1233 0 discriminator 2
 5892 002a 7A68     		ldr	r2, [r7, #4]
 5893 002c 2A4B     		ldr	r3, .L383+8
 5894 002e 9A42     		cmp	r2, r3
 5895 0030 13D0     		beq	.L377
 5896              		.loc 1 1233 0 discriminator 3
 5897 0032 7A68     		ldr	r2, [r7, #4]
 5898 0034 294B     		ldr	r3, .L383+12
 5899 0036 9A42     		cmp	r2, r3
 5900 0038 0FD0     		beq	.L377
 5901              		.loc 1 1233 0 discriminator 4
 5902 003a 7A68     		ldr	r2, [r7, #4]
 5903 003c 284B     		ldr	r3, .L383+16
 5904 003e 9A42     		cmp	r2, r3
 5905 0040 0BD0     		beq	.L377
 5906              		.loc 1 1233 0 discriminator 5
 5907 0042 7A68     		ldr	r2, [r7, #4]
 5908 0044 274B     		ldr	r3, .L383+20
 5909 0046 9A42     		cmp	r2, r3
 5910 0048 07D0     		beq	.L377
 5911              		.loc 1 1233 0 discriminator 6
 5912 004a 7A68     		ldr	r2, [r7, #4]
 5913 004c 264B     		ldr	r3, .L383+24
 5914 004e 9A42     		cmp	r2, r3
 5915 0050 03D0     		beq	.L377
 5916              		.loc 1 1233 0 discriminator 7
 5917 0052 7A68     		ldr	r2, [r7, #4]
 5918 0054 254B     		ldr	r3, .L383+28
 5919 0056 9A42     		cmp	r2, r3
 5920 0058 02D1     		bne	.L378
 5921              	.L377:
 5922              		.loc 1 1233 0 discriminator 1
 5923 005a 4FF00103 		mov	r3, #1
 5924 005e 01E0     		b	.L379
 5925              	.L378:
 5926              		.loc 1 1233 0 discriminator 3
 5927 0060 4FF00003 		mov	r3, #0
 5928              	.L379:
 5929              		.loc 1 1233 0 discriminator 4
 5930 0064 1846     		mov	r0, r3
 5931 0066 FFF7FEFF 		bl	assert_param
1234:../libs/StdPeripheralDriver/src/stm32f10x_tim.c ****   assert_param(IS_TIM_TRIGGER_SELECTION(TIM_InputTriggerSource));
 5932              		.loc 1 1234 0 is_stmt 1 discriminator 4
 5933 006a 7B88     		ldrh	r3, [r7, #2]
 5934 006c 002B     		cmp	r3, #0
 5935 006e 14D0     		beq	.L380
 5936              		.loc 1 1234 0 is_stmt 0 discriminator 2
 5937 0070 7B88     		ldrh	r3, [r7, #2]
 5938 0072 102B     		cmp	r3, #16
 5939 0074 11D0     		beq	.L380
 5940              		.loc 1 1234 0 discriminator 1
 5941 0076 7B88     		ldrh	r3, [r7, #2]
 5942 0078 202B     		cmp	r3, #32
 5943 007a 0ED0     		beq	.L380
 5944              		.loc 1 1234 0 discriminator 2
 5945 007c 7B88     		ldrh	r3, [r7, #2]
 5946 007e 302B     		cmp	r3, #48
 5947 0080 0BD0     		beq	.L380
 5948              		.loc 1 1234 0 discriminator 3
 5949 0082 7B88     		ldrh	r3, [r7, #2]
 5950 0084 402B     		cmp	r3, #64
 5951 0086 08D0     		beq	.L380
 5952              		.loc 1 1234 0 discriminator 4
 5953 0088 7B88     		ldrh	r3, [r7, #2]
 5954 008a 502B     		cmp	r3, #80
 5955 008c 05D0     		beq	.L380
 5956              		.loc 1 1234 0 discriminator 5
 5957 008e 7B88     		ldrh	r3, [r7, #2]
 5958 0090 602B     		cmp	r3, #96
 5959 0092 02D0     		beq	.L380
 5960              		.loc 1 1234 0 discriminator 6
 5961 0094 7B88     		ldrh	r3, [r7, #2]
 5962 0096 702B     		cmp	r3, #112
 5963 0098 02D1     		bne	.L381
 5964              	.L380:
 5965              		.loc 1 1234 0 discriminator 1
 5966 009a 4FF00103 		mov	r3, #1
 5967 009e 01E0     		b	.L382
 5968              	.L381:
 5969              		.loc 1 1234 0 discriminator 3
 5970 00a0 4FF00003 		mov	r3, #0
 5971              	.L382:
 5972              		.loc 1 1234 0 discriminator 4
 5973 00a4 1846     		mov	r0, r3
 5974 00a6 FFF7FEFF 		bl	assert_param
1235:../libs/StdPeripheralDriver/src/stm32f10x_tim.c ****   /* Get the TIMx SMCR register value */
1236:../libs/StdPeripheralDriver/src/stm32f10x_tim.c ****   tmpsmcr = TIMx->SMCR;
 5975              		.loc 1 1236 0 is_stmt 1 discriminator 4
 5976 00aa 7B68     		ldr	r3, [r7, #4]
 5977 00ac 1B89     		ldrh	r3, [r3, #8]	@ movhi
 5978 00ae FB81     		strh	r3, [r7, #14]	@ movhi
1237:../libs/StdPeripheralDriver/src/stm32f10x_tim.c ****   /* Reset the TS Bits */
1238:../libs/StdPeripheralDriver/src/stm32f10x_tim.c ****   tmpsmcr &= (uint16_t)(~((uint16_t)TIM_SMCR_TS));
 5979              		.loc 1 1238 0 discriminator 4
 5980 00b0 FB89     		ldrh	r3, [r7, #14]	@ movhi
 5981 00b2 23F07003 		bic	r3, r3, #112
 5982 00b6 FB81     		strh	r3, [r7, #14]	@ movhi
1239:../libs/StdPeripheralDriver/src/stm32f10x_tim.c ****   /* Set the Input Trigger source */
1240:../libs/StdPeripheralDriver/src/stm32f10x_tim.c ****   tmpsmcr |= TIM_InputTriggerSource;
 5983              		.loc 1 1240 0 discriminator 4
 5984 00b8 FA89     		ldrh	r2, [r7, #14]	@ movhi
 5985 00ba 7B88     		ldrh	r3, [r7, #2]	@ movhi
 5986 00bc 1343     		orrs	r3, r3, r2
 5987 00be FB81     		strh	r3, [r7, #14]	@ movhi
1241:../libs/StdPeripheralDriver/src/stm32f10x_tim.c ****   /* Write to TIMx SMCR */
1242:../libs/StdPeripheralDriver/src/stm32f10x_tim.c ****   TIMx->SMCR = tmpsmcr;
 5988              		.loc 1 1242 0 discriminator 4
 5989 00c0 7B68     		ldr	r3, [r7, #4]
 5990 00c2 FA89     		ldrh	r2, [r7, #14]	@ movhi
 5991 00c4 1A81     		strh	r2, [r3, #8]	@ movhi
1243:../libs/StdPeripheralDriver/src/stm32f10x_tim.c **** }
 5992              		.loc 1 1243 0 discriminator 4
 5993 00c6 07F11007 		add	r7, r7, #16
 5994 00ca BD46     		mov	sp, r7
 5995 00cc 80BD     		pop	{r7, pc}
 5996              	.L384:
 5997 00ce 00BF     		.align	2
 5998              	.L383:
 5999 00d0 002C0140 		.word	1073818624
 6000 00d4 00040040 		.word	1073742848
 6001 00d8 00080040 		.word	1073743872
 6002 00dc 000C0040 		.word	1073744896
 6003 00e0 00340140 		.word	1073820672
 6004 00e4 004C0140 		.word	1073826816
 6005 00e8 00180040 		.word	1073747968
 6006 00ec 00400140 		.word	1073823744
 6007              		.cfi_endproc
 6008              	.LFE56:
 6010              		.section	.text.TIM_EncoderInterfaceConfig,"ax",%progbits
 6011              		.align	2
 6012              		.global	TIM_EncoderInterfaceConfig
 6013              		.thumb
 6014              		.thumb_func
 6016              	TIM_EncoderInterfaceConfig:
 6017              	.LFB57:
1244:../libs/StdPeripheralDriver/src/stm32f10x_tim.c **** 
1245:../libs/StdPeripheralDriver/src/stm32f10x_tim.c **** /**
1246:../libs/StdPeripheralDriver/src/stm32f10x_tim.c ****   * @brief  Configures the TIMx Encoder Interface.
1247:../libs/StdPeripheralDriver/src/stm32f10x_tim.c ****   * @param  TIMx: where x can be  1, 2, 3, 4, 5 or 8 to select the TIM peripheral.
1248:../libs/StdPeripheralDriver/src/stm32f10x_tim.c ****   * @param  TIM_EncoderMode: specifies the TIMx Encoder Mode.
1249:../libs/StdPeripheralDriver/src/stm32f10x_tim.c ****   *   This parameter can be one of the following values:
1250:../libs/StdPeripheralDriver/src/stm32f10x_tim.c ****   *     @arg TIM_EncoderMode_TI1: Counter counts on TI1FP1 edge depending on TI2FP2 level.
1251:../libs/StdPeripheralDriver/src/stm32f10x_tim.c ****   *     @arg TIM_EncoderMode_TI2: Counter counts on TI2FP2 edge depending on TI1FP1 level.
1252:../libs/StdPeripheralDriver/src/stm32f10x_tim.c ****   *     @arg TIM_EncoderMode_TI12: Counter counts on both TI1FP1 and TI2FP2 edges depending
1253:../libs/StdPeripheralDriver/src/stm32f10x_tim.c ****   *                                on the level of the other input.
1254:../libs/StdPeripheralDriver/src/stm32f10x_tim.c ****   * @param  TIM_IC1Polarity: specifies the IC1 Polarity
1255:../libs/StdPeripheralDriver/src/stm32f10x_tim.c ****   *   This parameter can be one of the following values:
1256:../libs/StdPeripheralDriver/src/stm32f10x_tim.c ****   *     @arg TIM_ICPolarity_Falling: IC Falling edge.
1257:../libs/StdPeripheralDriver/src/stm32f10x_tim.c ****   *     @arg TIM_ICPolarity_Rising: IC Rising edge.
1258:../libs/StdPeripheralDriver/src/stm32f10x_tim.c ****   * @param  TIM_IC2Polarity: specifies the IC2 Polarity
1259:../libs/StdPeripheralDriver/src/stm32f10x_tim.c ****   *   This parameter can be one of the following values:
1260:../libs/StdPeripheralDriver/src/stm32f10x_tim.c ****   *     @arg TIM_ICPolarity_Falling: IC Falling edge.
1261:../libs/StdPeripheralDriver/src/stm32f10x_tim.c ****   *     @arg TIM_ICPolarity_Rising: IC Rising edge.
1262:../libs/StdPeripheralDriver/src/stm32f10x_tim.c ****   * @retval None
1263:../libs/StdPeripheralDriver/src/stm32f10x_tim.c ****   */
1264:../libs/StdPeripheralDriver/src/stm32f10x_tim.c **** void TIM_EncoderInterfaceConfig(TIM_TypeDef* TIMx, uint16_t TIM_EncoderMode,
1265:../libs/StdPeripheralDriver/src/stm32f10x_tim.c ****                                 uint16_t TIM_IC1Polarity, uint16_t TIM_IC2Polarity)
1266:../libs/StdPeripheralDriver/src/stm32f10x_tim.c **** {
 6018              		.loc 1 1266 0
 6019              		.cfi_startproc
 6020              		@ args = 0, pretend = 0, frame = 24
 6021              		@ frame_needed = 1, uses_anonymous_args = 0
 6022 0000 80B5     		push	{r7, lr}
 6023              	.LCFI84:
 6024              		.cfi_def_cfa_offset 8
 6025              		.cfi_offset 7, -8
 6026              		.cfi_offset 14, -4
 6027 0002 86B0     		sub	sp, sp, #24
 6028              	.LCFI85:
 6029              		.cfi_def_cfa_offset 32
 6030 0004 00AF     		add	r7, sp, #0
 6031              	.LCFI86:
 6032              		.cfi_def_cfa_register 7
 6033 0006 F860     		str	r0, [r7, #12]
 6034 0008 7981     		strh	r1, [r7, #10]	@ movhi
 6035 000a 3A81     		strh	r2, [r7, #8]	@ movhi
 6036 000c FB80     		strh	r3, [r7, #6]	@ movhi
1267:../libs/StdPeripheralDriver/src/stm32f10x_tim.c ****   uint16_t tmpsmcr = 0;
 6037              		.loc 1 1267 0
 6038 000e 4FF00003 		mov	r3, #0
 6039 0012 FB82     		strh	r3, [r7, #22]	@ movhi
1268:../libs/StdPeripheralDriver/src/stm32f10x_tim.c ****   uint16_t tmpccmr1 = 0;
 6040              		.loc 1 1268 0
 6041 0014 4FF00003 		mov	r3, #0
 6042 0018 BB82     		strh	r3, [r7, #20]	@ movhi
1269:../libs/StdPeripheralDriver/src/stm32f10x_tim.c ****   uint16_t tmpccer = 0;
 6043              		.loc 1 1269 0
 6044 001a 4FF00003 		mov	r3, #0
 6045 001e 7B82     		strh	r3, [r7, #18]	@ movhi
1270:../libs/StdPeripheralDriver/src/stm32f10x_tim.c ****     
1271:../libs/StdPeripheralDriver/src/stm32f10x_tim.c ****   /* Check the parameters */
1272:../libs/StdPeripheralDriver/src/stm32f10x_tim.c ****   assert_param(IS_TIM_LIST5_PERIPH(TIMx));
 6046              		.loc 1 1272 0
 6047 0020 FA68     		ldr	r2, [r7, #12]
 6048 0022 444B     		ldr	r3, .L398
 6049 0024 9A42     		cmp	r2, r3
 6050 0026 17D0     		beq	.L386
 6051              		.loc 1 1272 0 is_stmt 0 discriminator 2
 6052 0028 FB68     		ldr	r3, [r7, #12]
 6053 002a B3F1804F 		cmp	r3, #1073741824
 6054 002e 13D0     		beq	.L386
 6055              		.loc 1 1272 0 discriminator 1
 6056 0030 FA68     		ldr	r2, [r7, #12]
 6057 0032 414B     		ldr	r3, .L398+4
 6058 0034 9A42     		cmp	r2, r3
 6059 0036 0FD0     		beq	.L386
 6060              		.loc 1 1272 0 discriminator 2
 6061 0038 FA68     		ldr	r2, [r7, #12]
 6062 003a 404B     		ldr	r3, .L398+8
 6063 003c 9A42     		cmp	r2, r3
 6064 003e 0BD0     		beq	.L386
 6065              		.loc 1 1272 0 discriminator 3
 6066 0040 FA68     		ldr	r2, [r7, #12]
 6067 0042 3F4B     		ldr	r3, .L398+12
 6068 0044 9A42     		cmp	r2, r3
 6069 0046 07D0     		beq	.L386
 6070              		.loc 1 1272 0 discriminator 4
 6071 0048 FA68     		ldr	r2, [r7, #12]
 6072 004a 3E4B     		ldr	r3, .L398+16
 6073 004c 9A42     		cmp	r2, r3
 6074 004e 03D0     		beq	.L386
 6075              		.loc 1 1272 0 discriminator 5
 6076 0050 FA68     		ldr	r2, [r7, #12]
 6077 0052 3D4B     		ldr	r3, .L398+20
 6078 0054 9A42     		cmp	r2, r3
 6079 0056 02D1     		bne	.L387
 6080              	.L386:
 6081              		.loc 1 1272 0 discriminator 1
 6082 0058 4FF00103 		mov	r3, #1
 6083 005c 01E0     		b	.L388
 6084              	.L387:
 6085              		.loc 1 1272 0 discriminator 3
 6086 005e 4FF00003 		mov	r3, #0
 6087              	.L388:
 6088              		.loc 1 1272 0 discriminator 4
 6089 0062 1846     		mov	r0, r3
 6090 0064 FFF7FEFF 		bl	assert_param
1273:../libs/StdPeripheralDriver/src/stm32f10x_tim.c ****   assert_param(IS_TIM_ENCODER_MODE(TIM_EncoderMode));
 6091              		.loc 1 1273 0 is_stmt 1 discriminator 4
 6092 0068 7B89     		ldrh	r3, [r7, #10]
 6093 006a 012B     		cmp	r3, #1
 6094 006c 05D0     		beq	.L389
 6095              		.loc 1 1273 0 is_stmt 0 discriminator 2
 6096 006e 7B89     		ldrh	r3, [r7, #10]
 6097 0070 022B     		cmp	r3, #2
 6098 0072 02D0     		beq	.L389
 6099              		.loc 1 1273 0 discriminator 1
 6100 0074 7B89     		ldrh	r3, [r7, #10]
 6101 0076 032B     		cmp	r3, #3
 6102 0078 02D1     		bne	.L390
 6103              	.L389:
 6104 007a 4FF00103 		mov	r3, #1
 6105 007e 01E0     		b	.L391
 6106              	.L390:
 6107              		.loc 1 1273 0 discriminator 3
 6108 0080 4FF00003 		mov	r3, #0
 6109              	.L391:
 6110              		.loc 1 1273 0 discriminator 4
 6111 0084 1846     		mov	r0, r3
 6112 0086 FFF7FEFF 		bl	assert_param
1274:../libs/StdPeripheralDriver/src/stm32f10x_tim.c ****   assert_param(IS_TIM_IC_POLARITY(TIM_IC1Polarity));
 6113              		.loc 1 1274 0 is_stmt 1 discriminator 4
 6114 008a 3B89     		ldrh	r3, [r7, #8]
 6115 008c 002B     		cmp	r3, #0
 6116 008e 02D0     		beq	.L392
 6117              		.loc 1 1274 0 is_stmt 0 discriminator 2
 6118 0090 3B89     		ldrh	r3, [r7, #8]
 6119 0092 022B     		cmp	r3, #2
 6120 0094 02D1     		bne	.L393
 6121              	.L392:
 6122              		.loc 1 1274 0 discriminator 1
 6123 0096 4FF00103 		mov	r3, #1
 6124 009a 01E0     		b	.L394
 6125              	.L393:
 6126              		.loc 1 1274 0 discriminator 3
 6127 009c 4FF00003 		mov	r3, #0
 6128              	.L394:
 6129              		.loc 1 1274 0 discriminator 4
 6130 00a0 1846     		mov	r0, r3
 6131 00a2 FFF7FEFF 		bl	assert_param
1275:../libs/StdPeripheralDriver/src/stm32f10x_tim.c ****   assert_param(IS_TIM_IC_POLARITY(TIM_IC2Polarity));
 6132              		.loc 1 1275 0 is_stmt 1 discriminator 4
 6133 00a6 FB88     		ldrh	r3, [r7, #6]
 6134 00a8 002B     		cmp	r3, #0
 6135 00aa 02D0     		beq	.L395
 6136              		.loc 1 1275 0 is_stmt 0 discriminator 2
 6137 00ac FB88     		ldrh	r3, [r7, #6]
 6138 00ae 022B     		cmp	r3, #2
 6139 00b0 02D1     		bne	.L396
 6140              	.L395:
 6141              		.loc 1 1275 0 discriminator 1
 6142 00b2 4FF00103 		mov	r3, #1
 6143 00b6 01E0     		b	.L397
 6144              	.L396:
 6145              		.loc 1 1275 0 discriminator 3
 6146 00b8 4FF00003 		mov	r3, #0
 6147              	.L397:
 6148              		.loc 1 1275 0 discriminator 4
 6149 00bc 1846     		mov	r0, r3
 6150 00be FFF7FEFF 		bl	assert_param
1276:../libs/StdPeripheralDriver/src/stm32f10x_tim.c **** 
1277:../libs/StdPeripheralDriver/src/stm32f10x_tim.c ****   /* Get the TIMx SMCR register value */
1278:../libs/StdPeripheralDriver/src/stm32f10x_tim.c ****   tmpsmcr = TIMx->SMCR;
 6151              		.loc 1 1278 0 is_stmt 1 discriminator 4
 6152 00c2 FB68     		ldr	r3, [r7, #12]
 6153 00c4 1B89     		ldrh	r3, [r3, #8]	@ movhi
 6154 00c6 FB82     		strh	r3, [r7, #22]	@ movhi
1279:../libs/StdPeripheralDriver/src/stm32f10x_tim.c ****   
1280:../libs/StdPeripheralDriver/src/stm32f10x_tim.c ****   /* Get the TIMx CCMR1 register value */
1281:../libs/StdPeripheralDriver/src/stm32f10x_tim.c ****   tmpccmr1 = TIMx->CCMR1;
 6155              		.loc 1 1281 0 discriminator 4
 6156 00c8 FB68     		ldr	r3, [r7, #12]
 6157 00ca 1B8B     		ldrh	r3, [r3, #24]	@ movhi
 6158 00cc BB82     		strh	r3, [r7, #20]	@ movhi
1282:../libs/StdPeripheralDriver/src/stm32f10x_tim.c ****   
1283:../libs/StdPeripheralDriver/src/stm32f10x_tim.c ****   /* Get the TIMx CCER register value */
1284:../libs/StdPeripheralDriver/src/stm32f10x_tim.c ****   tmpccer = TIMx->CCER;
 6159              		.loc 1 1284 0 discriminator 4
 6160 00ce FB68     		ldr	r3, [r7, #12]
 6161 00d0 1B8C     		ldrh	r3, [r3, #32]	@ movhi
 6162 00d2 7B82     		strh	r3, [r7, #18]	@ movhi
1285:../libs/StdPeripheralDriver/src/stm32f10x_tim.c ****   
1286:../libs/StdPeripheralDriver/src/stm32f10x_tim.c ****   /* Set the encoder Mode */
1287:../libs/StdPeripheralDriver/src/stm32f10x_tim.c ****   tmpsmcr &= (uint16_t)(~((uint16_t)TIM_SMCR_SMS));
 6163              		.loc 1 1287 0 discriminator 4
 6164 00d4 FB8A     		ldrh	r3, [r7, #22]	@ movhi
 6165 00d6 23F00703 		bic	r3, r3, #7
 6166 00da FB82     		strh	r3, [r7, #22]	@ movhi
1288:../libs/StdPeripheralDriver/src/stm32f10x_tim.c ****   tmpsmcr |= TIM_EncoderMode;
 6167              		.loc 1 1288 0 discriminator 4
 6168 00dc FA8A     		ldrh	r2, [r7, #22]	@ movhi
 6169 00de 7B89     		ldrh	r3, [r7, #10]	@ movhi
 6170 00e0 1343     		orrs	r3, r3, r2
 6171 00e2 FB82     		strh	r3, [r7, #22]	@ movhi
1289:../libs/StdPeripheralDriver/src/stm32f10x_tim.c ****   
1290:../libs/StdPeripheralDriver/src/stm32f10x_tim.c ****   /* Select the Capture Compare 1 and the Capture Compare 2 as input */
1291:../libs/StdPeripheralDriver/src/stm32f10x_tim.c ****   tmpccmr1 &= (uint16_t)(((uint16_t)~((uint16_t)TIM_CCMR1_CC1S)) & (uint16_t)(~((uint16_t)TIM_CCMR1
 6172              		.loc 1 1291 0 discriminator 4
 6173 00e4 BB8A     		ldrh	r3, [r7, #20]	@ movhi
 6174 00e6 23F44073 		bic	r3, r3, #768
 6175 00ea 23F00303 		bic	r3, r3, #3
 6176 00ee BB82     		strh	r3, [r7, #20]	@ movhi
1292:../libs/StdPeripheralDriver/src/stm32f10x_tim.c ****   tmpccmr1 |= TIM_CCMR1_CC1S_0 | TIM_CCMR1_CC2S_0;
 6177              		.loc 1 1292 0 discriminator 4
 6178 00f0 BB8A     		ldrh	r3, [r7, #20]	@ movhi
 6179 00f2 43F48073 		orr	r3, r3, #256
 6180 00f6 43F00103 		orr	r3, r3, #1
 6181 00fa BB82     		strh	r3, [r7, #20]	@ movhi
1293:../libs/StdPeripheralDriver/src/stm32f10x_tim.c ****   
1294:../libs/StdPeripheralDriver/src/stm32f10x_tim.c ****   /* Set the TI1 and the TI2 Polarities */
1295:../libs/StdPeripheralDriver/src/stm32f10x_tim.c ****   tmpccer &= (uint16_t)(((uint16_t)~((uint16_t)TIM_CCER_CC1P)) & ((uint16_t)~((uint16_t)TIM_CCER_CC
 6182              		.loc 1 1295 0 discriminator 4
 6183 00fc 7B8A     		ldrh	r3, [r7, #18]	@ movhi
 6184 00fe 23F02203 		bic	r3, r3, #34
 6185 0102 7B82     		strh	r3, [r7, #18]	@ movhi
1296:../libs/StdPeripheralDriver/src/stm32f10x_tim.c ****   tmpccer |= (uint16_t)(TIM_IC1Polarity | (uint16_t)(TIM_IC2Polarity << (uint16_t)4));
 6186              		.loc 1 1296 0 discriminator 4
 6187 0104 FB88     		ldrh	r3, [r7, #6]	@ movhi
 6188 0106 4FEA0313 		lsl	r3, r3, #4
 6189 010a 9AB2     		uxth	r2, r3
 6190 010c 3B89     		ldrh	r3, [r7, #8]	@ movhi
 6191 010e 1343     		orrs	r3, r3, r2
 6192 0110 9AB2     		uxth	r2, r3
 6193 0112 7B8A     		ldrh	r3, [r7, #18]	@ movhi
 6194 0114 1343     		orrs	r3, r3, r2
 6195 0116 7B82     		strh	r3, [r7, #18]	@ movhi
1297:../libs/StdPeripheralDriver/src/stm32f10x_tim.c ****   
1298:../libs/StdPeripheralDriver/src/stm32f10x_tim.c ****   /* Write to TIMx SMCR */
1299:../libs/StdPeripheralDriver/src/stm32f10x_tim.c ****   TIMx->SMCR = tmpsmcr;
 6196              		.loc 1 1299 0 discriminator 4
 6197 0118 FB68     		ldr	r3, [r7, #12]
 6198 011a FA8A     		ldrh	r2, [r7, #22]	@ movhi
 6199 011c 1A81     		strh	r2, [r3, #8]	@ movhi
1300:../libs/StdPeripheralDriver/src/stm32f10x_tim.c ****   /* Write to TIMx CCMR1 */
1301:../libs/StdPeripheralDriver/src/stm32f10x_tim.c ****   TIMx->CCMR1 = tmpccmr1;
 6200              		.loc 1 1301 0 discriminator 4
 6201 011e FB68     		ldr	r3, [r7, #12]
 6202 0120 BA8A     		ldrh	r2, [r7, #20]	@ movhi
 6203 0122 1A83     		strh	r2, [r3, #24]	@ movhi
1302:../libs/StdPeripheralDriver/src/stm32f10x_tim.c ****   /* Write to TIMx CCER */
1303:../libs/StdPeripheralDriver/src/stm32f10x_tim.c ****   TIMx->CCER = tmpccer;
 6204              		.loc 1 1303 0 discriminator 4
 6205 0124 FB68     		ldr	r3, [r7, #12]
 6206 0126 7A8A     		ldrh	r2, [r7, #18]	@ movhi
 6207 0128 1A84     		strh	r2, [r3, #32]	@ movhi
1304:../libs/StdPeripheralDriver/src/stm32f10x_tim.c **** }
 6208              		.loc 1 1304 0 discriminator 4
 6209 012a 07F11807 		add	r7, r7, #24
 6210 012e BD46     		mov	sp, r7
 6211 0130 80BD     		pop	{r7, pc}
 6212              	.L399:
 6213 0132 00BF     		.align	2
 6214              	.L398:
 6215 0134 002C0140 		.word	1073818624
 6216 0138 00040040 		.word	1073742848
 6217 013c 00080040 		.word	1073743872
 6218 0140 000C0040 		.word	1073744896
 6219 0144 00340140 		.word	1073820672
 6220 0148 00400140 		.word	1073823744
 6221              		.cfi_endproc
 6222              	.LFE57:
 6224              		.section	.text.TIM_ForcedOC1Config,"ax",%progbits
 6225              		.align	2
 6226              		.global	TIM_ForcedOC1Config
 6227              		.thumb
 6228              		.thumb_func
 6230              	TIM_ForcedOC1Config:
 6231              	.LFB58:
1305:../libs/StdPeripheralDriver/src/stm32f10x_tim.c **** 
1306:../libs/StdPeripheralDriver/src/stm32f10x_tim.c **** /**
1307:../libs/StdPeripheralDriver/src/stm32f10x_tim.c ****   * @brief  Forces the TIMx output 1 waveform to active or inactive level.
1308:../libs/StdPeripheralDriver/src/stm32f10x_tim.c ****   * @param  TIMx: where x can be  1 to 17 except 6 and 7 to select the TIM peripheral.
1309:../libs/StdPeripheralDriver/src/stm32f10x_tim.c ****   * @param  TIM_ForcedAction: specifies the forced Action to be set to the output waveform.
1310:../libs/StdPeripheralDriver/src/stm32f10x_tim.c ****   *   This parameter can be one of the following values:
1311:../libs/StdPeripheralDriver/src/stm32f10x_tim.c ****   *     @arg TIM_ForcedAction_Active: Force active level on OC1REF
1312:../libs/StdPeripheralDriver/src/stm32f10x_tim.c ****   *     @arg TIM_ForcedAction_InActive: Force inactive level on OC1REF.
1313:../libs/StdPeripheralDriver/src/stm32f10x_tim.c ****   * @retval None
1314:../libs/StdPeripheralDriver/src/stm32f10x_tim.c ****   */
1315:../libs/StdPeripheralDriver/src/stm32f10x_tim.c **** void TIM_ForcedOC1Config(TIM_TypeDef* TIMx, uint16_t TIM_ForcedAction)
1316:../libs/StdPeripheralDriver/src/stm32f10x_tim.c **** {
 6232              		.loc 1 1316 0
 6233              		.cfi_startproc
 6234              		@ args = 0, pretend = 0, frame = 16
 6235              		@ frame_needed = 1, uses_anonymous_args = 0
 6236 0000 80B5     		push	{r7, lr}
 6237              	.LCFI87:
 6238              		.cfi_def_cfa_offset 8
 6239              		.cfi_offset 7, -8
 6240              		.cfi_offset 14, -4
 6241 0002 84B0     		sub	sp, sp, #16
 6242              	.LCFI88:
 6243              		.cfi_def_cfa_offset 24
 6244 0004 00AF     		add	r7, sp, #0
 6245              	.LCFI89:
 6246              		.cfi_def_cfa_register 7
 6247 0006 7860     		str	r0, [r7, #4]
 6248 0008 0B46     		mov	r3, r1
 6249 000a 7B80     		strh	r3, [r7, #2]	@ movhi
1317:../libs/StdPeripheralDriver/src/stm32f10x_tim.c ****   uint16_t tmpccmr1 = 0;
 6250              		.loc 1 1317 0
 6251 000c 4FF00003 		mov	r3, #0
 6252 0010 FB81     		strh	r3, [r7, #14]	@ movhi
1318:../libs/StdPeripheralDriver/src/stm32f10x_tim.c ****   /* Check the parameters */
1319:../libs/StdPeripheralDriver/src/stm32f10x_tim.c ****   assert_param(IS_TIM_LIST8_PERIPH(TIMx));
 6253              		.loc 1 1319 0
 6254 0012 7A68     		ldr	r2, [r7, #4]
 6255 0014 314B     		ldr	r3, .L407
 6256 0016 9A42     		cmp	r2, r3
 6257 0018 37D0     		beq	.L401
 6258              		.loc 1 1319 0 is_stmt 0 discriminator 2
 6259 001a 7B68     		ldr	r3, [r7, #4]
 6260 001c B3F1804F 		cmp	r3, #1073741824
 6261 0020 33D0     		beq	.L401
 6262              		.loc 1 1319 0 discriminator 1
 6263 0022 7A68     		ldr	r2, [r7, #4]
 6264 0024 2E4B     		ldr	r3, .L407+4
 6265 0026 9A42     		cmp	r2, r3
 6266 0028 2FD0     		beq	.L401
 6267              		.loc 1 1319 0 discriminator 2
 6268 002a 7A68     		ldr	r2, [r7, #4]
 6269 002c 2D4B     		ldr	r3, .L407+8
 6270 002e 9A42     		cmp	r2, r3
 6271 0030 2BD0     		beq	.L401
 6272              		.loc 1 1319 0 discriminator 3
 6273 0032 7A68     		ldr	r2, [r7, #4]
 6274 0034 2C4B     		ldr	r3, .L407+12
 6275 0036 9A42     		cmp	r2, r3
 6276 0038 27D0     		beq	.L401
 6277              		.loc 1 1319 0 discriminator 4
 6278 003a 7A68     		ldr	r2, [r7, #4]
 6279 003c 2B4B     		ldr	r3, .L407+16
 6280 003e 9A42     		cmp	r2, r3
 6281 0040 23D0     		beq	.L401
 6282              		.loc 1 1319 0 discriminator 5
 6283 0042 7A68     		ldr	r2, [r7, #4]
 6284 0044 2A4B     		ldr	r3, .L407+20
 6285 0046 9A42     		cmp	r2, r3
 6286 0048 1FD0     		beq	.L401
 6287              		.loc 1 1319 0 discriminator 6
 6288 004a 7A68     		ldr	r2, [r7, #4]
 6289 004c 294B     		ldr	r3, .L407+24
 6290 004e 9A42     		cmp	r2, r3
 6291 0050 1BD0     		beq	.L401
 6292              		.loc 1 1319 0 discriminator 7
 6293 0052 7A68     		ldr	r2, [r7, #4]
 6294 0054 284B     		ldr	r3, .L407+28
 6295 0056 9A42     		cmp	r2, r3
 6296 0058 17D0     		beq	.L401
 6297              		.loc 1 1319 0 discriminator 8
 6298 005a 7A68     		ldr	r2, [r7, #4]
 6299 005c 274B     		ldr	r3, .L407+32
 6300 005e 9A42     		cmp	r2, r3
 6301 0060 13D0     		beq	.L401
 6302              		.loc 1 1319 0 discriminator 9
 6303 0062 7A68     		ldr	r2, [r7, #4]
 6304 0064 264B     		ldr	r3, .L407+36
 6305 0066 9A42     		cmp	r2, r3
 6306 0068 0FD0     		beq	.L401
 6307              		.loc 1 1319 0 discriminator 10
 6308 006a 7A68     		ldr	r2, [r7, #4]
 6309 006c 254B     		ldr	r3, .L407+40
 6310 006e 9A42     		cmp	r2, r3
 6311 0070 0BD0     		beq	.L401
 6312              		.loc 1 1319 0 discriminator 11
 6313 0072 7A68     		ldr	r2, [r7, #4]
 6314 0074 244B     		ldr	r3, .L407+44
 6315 0076 9A42     		cmp	r2, r3
 6316 0078 07D0     		beq	.L401
 6317              		.loc 1 1319 0 discriminator 12
 6318 007a 7A68     		ldr	r2, [r7, #4]
 6319 007c 234B     		ldr	r3, .L407+48
 6320 007e 9A42     		cmp	r2, r3
 6321 0080 03D0     		beq	.L401
 6322              		.loc 1 1319 0 discriminator 13
 6323 0082 7A68     		ldr	r2, [r7, #4]
 6324 0084 224B     		ldr	r3, .L407+52
 6325 0086 9A42     		cmp	r2, r3
 6326 0088 02D1     		bne	.L402
 6327              	.L401:
 6328              		.loc 1 1319 0 discriminator 1
 6329 008a 4FF00103 		mov	r3, #1
 6330 008e 01E0     		b	.L403
 6331              	.L402:
 6332              		.loc 1 1319 0 discriminator 3
 6333 0090 4FF00003 		mov	r3, #0
 6334              	.L403:
 6335              		.loc 1 1319 0 discriminator 4
 6336 0094 1846     		mov	r0, r3
 6337 0096 FFF7FEFF 		bl	assert_param
1320:../libs/StdPeripheralDriver/src/stm32f10x_tim.c ****   assert_param(IS_TIM_FORCED_ACTION(TIM_ForcedAction));
 6338              		.loc 1 1320 0 is_stmt 1 discriminator 4
 6339 009a 7B88     		ldrh	r3, [r7, #2]
 6340 009c 502B     		cmp	r3, #80
 6341 009e 02D0     		beq	.L404
 6342              		.loc 1 1320 0 is_stmt 0 discriminator 2
 6343 00a0 7B88     		ldrh	r3, [r7, #2]
 6344 00a2 402B     		cmp	r3, #64
 6345 00a4 02D1     		bne	.L405
 6346              	.L404:
 6347              		.loc 1 1320 0 discriminator 1
 6348 00a6 4FF00103 		mov	r3, #1
 6349 00aa 01E0     		b	.L406
 6350              	.L405:
 6351              		.loc 1 1320 0 discriminator 3
 6352 00ac 4FF00003 		mov	r3, #0
 6353              	.L406:
 6354              		.loc 1 1320 0 discriminator 4
 6355 00b0 1846     		mov	r0, r3
 6356 00b2 FFF7FEFF 		bl	assert_param
1321:../libs/StdPeripheralDriver/src/stm32f10x_tim.c ****   tmpccmr1 = TIMx->CCMR1;
 6357              		.loc 1 1321 0 is_stmt 1 discriminator 4
 6358 00b6 7B68     		ldr	r3, [r7, #4]
 6359 00b8 1B8B     		ldrh	r3, [r3, #24]	@ movhi
 6360 00ba FB81     		strh	r3, [r7, #14]	@ movhi
1322:../libs/StdPeripheralDriver/src/stm32f10x_tim.c ****   /* Reset the OC1M Bits */
1323:../libs/StdPeripheralDriver/src/stm32f10x_tim.c ****   tmpccmr1 &= (uint16_t)~((uint16_t)TIM_CCMR1_OC1M);
 6361              		.loc 1 1323 0 discriminator 4
 6362 00bc FB89     		ldrh	r3, [r7, #14]	@ movhi
 6363 00be 23F07003 		bic	r3, r3, #112
 6364 00c2 FB81     		strh	r3, [r7, #14]	@ movhi
1324:../libs/StdPeripheralDriver/src/stm32f10x_tim.c ****   /* Configure The Forced output Mode */
1325:../libs/StdPeripheralDriver/src/stm32f10x_tim.c ****   tmpccmr1 |= TIM_ForcedAction;
 6365              		.loc 1 1325 0 discriminator 4
 6366 00c4 FA89     		ldrh	r2, [r7, #14]	@ movhi
 6367 00c6 7B88     		ldrh	r3, [r7, #2]	@ movhi
 6368 00c8 1343     		orrs	r3, r3, r2
 6369 00ca FB81     		strh	r3, [r7, #14]	@ movhi
1326:../libs/StdPeripheralDriver/src/stm32f10x_tim.c ****   /* Write to TIMx CCMR1 register */
1327:../libs/StdPeripheralDriver/src/stm32f10x_tim.c ****   TIMx->CCMR1 = tmpccmr1;
 6370              		.loc 1 1327 0 discriminator 4
 6371 00cc 7B68     		ldr	r3, [r7, #4]
 6372 00ce FA89     		ldrh	r2, [r7, #14]	@ movhi
 6373 00d0 1A83     		strh	r2, [r3, #24]	@ movhi
1328:../libs/StdPeripheralDriver/src/stm32f10x_tim.c **** }
 6374              		.loc 1 1328 0 discriminator 4
 6375 00d2 07F11007 		add	r7, r7, #16
 6376 00d6 BD46     		mov	sp, r7
 6377 00d8 80BD     		pop	{r7, pc}
 6378              	.L408:
 6379 00da 00BF     		.align	2
 6380              	.L407:
 6381 00dc 002C0140 		.word	1073818624
 6382 00e0 00040040 		.word	1073742848
 6383 00e4 00080040 		.word	1073743872
 6384 00e8 000C0040 		.word	1073744896
 6385 00ec 00340140 		.word	1073820672
 6386 00f0 004C0140 		.word	1073826816
 6387 00f4 00500140 		.word	1073827840
 6388 00f8 00540140 		.word	1073828864
 6389 00fc 00180040 		.word	1073747968
 6390 0100 001C0040 		.word	1073748992
 6391 0104 00200040 		.word	1073750016
 6392 0108 00400140 		.word	1073823744
 6393 010c 00440140 		.word	1073824768
 6394 0110 00480140 		.word	1073825792
 6395              		.cfi_endproc
 6396              	.LFE58:
 6398              		.section	.text.TIM_ForcedOC2Config,"ax",%progbits
 6399              		.align	2
 6400              		.global	TIM_ForcedOC2Config
 6401              		.thumb
 6402              		.thumb_func
 6404              	TIM_ForcedOC2Config:
 6405              	.LFB59:
1329:../libs/StdPeripheralDriver/src/stm32f10x_tim.c **** 
1330:../libs/StdPeripheralDriver/src/stm32f10x_tim.c **** /**
1331:../libs/StdPeripheralDriver/src/stm32f10x_tim.c ****   * @brief  Forces the TIMx output 2 waveform to active or inactive level.
1332:../libs/StdPeripheralDriver/src/stm32f10x_tim.c ****   * @param  TIMx: where x can be  1, 2, 3, 4, 5, 8, 9, 12 or 15 to select the TIM peripheral.
1333:../libs/StdPeripheralDriver/src/stm32f10x_tim.c ****   * @param  TIM_ForcedAction: specifies the forced Action to be set to the output waveform.
1334:../libs/StdPeripheralDriver/src/stm32f10x_tim.c ****   *   This parameter can be one of the following values:
1335:../libs/StdPeripheralDriver/src/stm32f10x_tim.c ****   *     @arg TIM_ForcedAction_Active: Force active level on OC2REF
1336:../libs/StdPeripheralDriver/src/stm32f10x_tim.c ****   *     @arg TIM_ForcedAction_InActive: Force inactive level on OC2REF.
1337:../libs/StdPeripheralDriver/src/stm32f10x_tim.c ****   * @retval None
1338:../libs/StdPeripheralDriver/src/stm32f10x_tim.c ****   */
1339:../libs/StdPeripheralDriver/src/stm32f10x_tim.c **** void TIM_ForcedOC2Config(TIM_TypeDef* TIMx, uint16_t TIM_ForcedAction)
1340:../libs/StdPeripheralDriver/src/stm32f10x_tim.c **** {
 6406              		.loc 1 1340 0
 6407              		.cfi_startproc
 6408              		@ args = 0, pretend = 0, frame = 16
 6409              		@ frame_needed = 1, uses_anonymous_args = 0
 6410 0000 80B5     		push	{r7, lr}
 6411              	.LCFI90:
 6412              		.cfi_def_cfa_offset 8
 6413              		.cfi_offset 7, -8
 6414              		.cfi_offset 14, -4
 6415 0002 84B0     		sub	sp, sp, #16
 6416              	.LCFI91:
 6417              		.cfi_def_cfa_offset 24
 6418 0004 00AF     		add	r7, sp, #0
 6419              	.LCFI92:
 6420              		.cfi_def_cfa_register 7
 6421 0006 7860     		str	r0, [r7, #4]
 6422 0008 0B46     		mov	r3, r1
 6423 000a 7B80     		strh	r3, [r7, #2]	@ movhi
1341:../libs/StdPeripheralDriver/src/stm32f10x_tim.c ****   uint16_t tmpccmr1 = 0;
 6424              		.loc 1 1341 0
 6425 000c 4FF00003 		mov	r3, #0
 6426 0010 FB81     		strh	r3, [r7, #14]	@ movhi
1342:../libs/StdPeripheralDriver/src/stm32f10x_tim.c ****   /* Check the parameters */
1343:../libs/StdPeripheralDriver/src/stm32f10x_tim.c ****   assert_param(IS_TIM_LIST6_PERIPH(TIMx));
 6427              		.loc 1 1343 0
 6428 0012 7A68     		ldr	r2, [r7, #4]
 6429 0014 264B     		ldr	r3, .L416
 6430 0016 9A42     		cmp	r2, r3
 6431 0018 1FD0     		beq	.L410
 6432              		.loc 1 1343 0 is_stmt 0 discriminator 2
 6433 001a 7B68     		ldr	r3, [r7, #4]
 6434 001c B3F1804F 		cmp	r3, #1073741824
 6435 0020 1BD0     		beq	.L410
 6436              		.loc 1 1343 0 discriminator 1
 6437 0022 7A68     		ldr	r2, [r7, #4]
 6438 0024 234B     		ldr	r3, .L416+4
 6439 0026 9A42     		cmp	r2, r3
 6440 0028 17D0     		beq	.L410
 6441              		.loc 1 1343 0 discriminator 2
 6442 002a 7A68     		ldr	r2, [r7, #4]
 6443 002c 224B     		ldr	r3, .L416+8
 6444 002e 9A42     		cmp	r2, r3
 6445 0030 13D0     		beq	.L410
 6446              		.loc 1 1343 0 discriminator 3
 6447 0032 7A68     		ldr	r2, [r7, #4]
 6448 0034 214B     		ldr	r3, .L416+12
 6449 0036 9A42     		cmp	r2, r3
 6450 0038 0FD0     		beq	.L410
 6451              		.loc 1 1343 0 discriminator 4
 6452 003a 7A68     		ldr	r2, [r7, #4]
 6453 003c 204B     		ldr	r3, .L416+16
 6454 003e 9A42     		cmp	r2, r3
 6455 0040 0BD0     		beq	.L410
 6456              		.loc 1 1343 0 discriminator 5
 6457 0042 7A68     		ldr	r2, [r7, #4]
 6458 0044 1F4B     		ldr	r3, .L416+20
 6459 0046 9A42     		cmp	r2, r3
 6460 0048 07D0     		beq	.L410
 6461              		.loc 1 1343 0 discriminator 6
 6462 004a 7A68     		ldr	r2, [r7, #4]
 6463 004c 1E4B     		ldr	r3, .L416+24
 6464 004e 9A42     		cmp	r2, r3
 6465 0050 03D0     		beq	.L410
 6466              		.loc 1 1343 0 discriminator 7
 6467 0052 7A68     		ldr	r2, [r7, #4]
 6468 0054 1D4B     		ldr	r3, .L416+28
 6469 0056 9A42     		cmp	r2, r3
 6470 0058 02D1     		bne	.L411
 6471              	.L410:
 6472              		.loc 1 1343 0 discriminator 1
 6473 005a 4FF00103 		mov	r3, #1
 6474 005e 01E0     		b	.L412
 6475              	.L411:
 6476              		.loc 1 1343 0 discriminator 3
 6477 0060 4FF00003 		mov	r3, #0
 6478              	.L412:
 6479              		.loc 1 1343 0 discriminator 4
 6480 0064 1846     		mov	r0, r3
 6481 0066 FFF7FEFF 		bl	assert_param
1344:../libs/StdPeripheralDriver/src/stm32f10x_tim.c ****   assert_param(IS_TIM_FORCED_ACTION(TIM_ForcedAction));
 6482              		.loc 1 1344 0 is_stmt 1 discriminator 4
 6483 006a 7B88     		ldrh	r3, [r7, #2]
 6484 006c 502B     		cmp	r3, #80
 6485 006e 02D0     		beq	.L413
 6486              		.loc 1 1344 0 is_stmt 0 discriminator 2
 6487 0070 7B88     		ldrh	r3, [r7, #2]
 6488 0072 402B     		cmp	r3, #64
 6489 0074 02D1     		bne	.L414
 6490              	.L413:
 6491              		.loc 1 1344 0 discriminator 1
 6492 0076 4FF00103 		mov	r3, #1
 6493 007a 01E0     		b	.L415
 6494              	.L414:
 6495              		.loc 1 1344 0 discriminator 3
 6496 007c 4FF00003 		mov	r3, #0
 6497              	.L415:
 6498              		.loc 1 1344 0 discriminator 4
 6499 0080 1846     		mov	r0, r3
 6500 0082 FFF7FEFF 		bl	assert_param
1345:../libs/StdPeripheralDriver/src/stm32f10x_tim.c ****   tmpccmr1 = TIMx->CCMR1;
 6501              		.loc 1 1345 0 is_stmt 1 discriminator 4
 6502 0086 7B68     		ldr	r3, [r7, #4]
 6503 0088 1B8B     		ldrh	r3, [r3, #24]	@ movhi
 6504 008a FB81     		strh	r3, [r7, #14]	@ movhi
1346:../libs/StdPeripheralDriver/src/stm32f10x_tim.c ****   /* Reset the OC2M Bits */
1347:../libs/StdPeripheralDriver/src/stm32f10x_tim.c ****   tmpccmr1 &= (uint16_t)~((uint16_t)TIM_CCMR1_OC2M);
 6505              		.loc 1 1347 0 discriminator 4
 6506 008c FB89     		ldrh	r3, [r7, #14]	@ movhi
 6507 008e 23F4E043 		bic	r3, r3, #28672
 6508 0092 FB81     		strh	r3, [r7, #14]	@ movhi
1348:../libs/StdPeripheralDriver/src/stm32f10x_tim.c ****   /* Configure The Forced output Mode */
1349:../libs/StdPeripheralDriver/src/stm32f10x_tim.c ****   tmpccmr1 |= (uint16_t)(TIM_ForcedAction << 8);
 6509              		.loc 1 1349 0 discriminator 4
 6510 0094 7B88     		ldrh	r3, [r7, #2]	@ movhi
 6511 0096 4FEA0323 		lsl	r3, r3, #8
 6512 009a 9AB2     		uxth	r2, r3
 6513 009c FB89     		ldrh	r3, [r7, #14]	@ movhi
 6514 009e 1343     		orrs	r3, r3, r2
 6515 00a0 FB81     		strh	r3, [r7, #14]	@ movhi
1350:../libs/StdPeripheralDriver/src/stm32f10x_tim.c ****   /* Write to TIMx CCMR1 register */
1351:../libs/StdPeripheralDriver/src/stm32f10x_tim.c ****   TIMx->CCMR1 = tmpccmr1;
 6516              		.loc 1 1351 0 discriminator 4
 6517 00a2 7B68     		ldr	r3, [r7, #4]
 6518 00a4 FA89     		ldrh	r2, [r7, #14]	@ movhi
 6519 00a6 1A83     		strh	r2, [r3, #24]	@ movhi
1352:../libs/StdPeripheralDriver/src/stm32f10x_tim.c **** }
 6520              		.loc 1 1352 0 discriminator 4
 6521 00a8 07F11007 		add	r7, r7, #16
 6522 00ac BD46     		mov	sp, r7
 6523 00ae 80BD     		pop	{r7, pc}
 6524              	.L417:
 6525              		.align	2
 6526              	.L416:
 6527 00b0 002C0140 		.word	1073818624
 6528 00b4 00040040 		.word	1073742848
 6529 00b8 00080040 		.word	1073743872
 6530 00bc 000C0040 		.word	1073744896
 6531 00c0 00340140 		.word	1073820672
 6532 00c4 004C0140 		.word	1073826816
 6533 00c8 00180040 		.word	1073747968
 6534 00cc 00400140 		.word	1073823744
 6535              		.cfi_endproc
 6536              	.LFE59:
 6538              		.section	.text.TIM_ForcedOC3Config,"ax",%progbits
 6539              		.align	2
 6540              		.global	TIM_ForcedOC3Config
 6541              		.thumb
 6542              		.thumb_func
 6544              	TIM_ForcedOC3Config:
 6545              	.LFB60:
1353:../libs/StdPeripheralDriver/src/stm32f10x_tim.c **** 
1354:../libs/StdPeripheralDriver/src/stm32f10x_tim.c **** /**
1355:../libs/StdPeripheralDriver/src/stm32f10x_tim.c ****   * @brief  Forces the TIMx output 3 waveform to active or inactive level.
1356:../libs/StdPeripheralDriver/src/stm32f10x_tim.c ****   * @param  TIMx: where x can be  1, 2, 3, 4, 5 or 8 to select the TIM peripheral.
1357:../libs/StdPeripheralDriver/src/stm32f10x_tim.c ****   * @param  TIM_ForcedAction: specifies the forced Action to be set to the output waveform.
1358:../libs/StdPeripheralDriver/src/stm32f10x_tim.c ****   *   This parameter can be one of the following values:
1359:../libs/StdPeripheralDriver/src/stm32f10x_tim.c ****   *     @arg TIM_ForcedAction_Active: Force active level on OC3REF
1360:../libs/StdPeripheralDriver/src/stm32f10x_tim.c ****   *     @arg TIM_ForcedAction_InActive: Force inactive level on OC3REF.
1361:../libs/StdPeripheralDriver/src/stm32f10x_tim.c ****   * @retval None
1362:../libs/StdPeripheralDriver/src/stm32f10x_tim.c ****   */
1363:../libs/StdPeripheralDriver/src/stm32f10x_tim.c **** void TIM_ForcedOC3Config(TIM_TypeDef* TIMx, uint16_t TIM_ForcedAction)
1364:../libs/StdPeripheralDriver/src/stm32f10x_tim.c **** {
 6546              		.loc 1 1364 0
 6547              		.cfi_startproc
 6548              		@ args = 0, pretend = 0, frame = 16
 6549              		@ frame_needed = 1, uses_anonymous_args = 0
 6550 0000 80B5     		push	{r7, lr}
 6551              	.LCFI93:
 6552              		.cfi_def_cfa_offset 8
 6553              		.cfi_offset 7, -8
 6554              		.cfi_offset 14, -4
 6555 0002 84B0     		sub	sp, sp, #16
 6556              	.LCFI94:
 6557              		.cfi_def_cfa_offset 24
 6558 0004 00AF     		add	r7, sp, #0
 6559              	.LCFI95:
 6560              		.cfi_def_cfa_register 7
 6561 0006 7860     		str	r0, [r7, #4]
 6562 0008 0B46     		mov	r3, r1
 6563 000a 7B80     		strh	r3, [r7, #2]	@ movhi
1365:../libs/StdPeripheralDriver/src/stm32f10x_tim.c ****   uint16_t tmpccmr2 = 0;
 6564              		.loc 1 1365 0
 6565 000c 4FF00003 		mov	r3, #0
 6566 0010 FB81     		strh	r3, [r7, #14]	@ movhi
1366:../libs/StdPeripheralDriver/src/stm32f10x_tim.c ****   /* Check the parameters */
1367:../libs/StdPeripheralDriver/src/stm32f10x_tim.c ****   assert_param(IS_TIM_LIST3_PERIPH(TIMx));
 6567              		.loc 1 1367 0
 6568 0012 7A68     		ldr	r2, [r7, #4]
 6569 0014 1F4B     		ldr	r3, .L425
 6570 0016 9A42     		cmp	r2, r3
 6571 0018 13D0     		beq	.L419
 6572              		.loc 1 1367 0 is_stmt 0 discriminator 2
 6573 001a 7B68     		ldr	r3, [r7, #4]
 6574 001c B3F1804F 		cmp	r3, #1073741824
 6575 0020 0FD0     		beq	.L419
 6576              		.loc 1 1367 0 discriminator 1
 6577 0022 7A68     		ldr	r2, [r7, #4]
 6578 0024 1C4B     		ldr	r3, .L425+4
 6579 0026 9A42     		cmp	r2, r3
 6580 0028 0BD0     		beq	.L419
 6581              		.loc 1 1367 0 discriminator 2
 6582 002a 7A68     		ldr	r2, [r7, #4]
 6583 002c 1B4B     		ldr	r3, .L425+8
 6584 002e 9A42     		cmp	r2, r3
 6585 0030 07D0     		beq	.L419
 6586              		.loc 1 1367 0 discriminator 3
 6587 0032 7A68     		ldr	r2, [r7, #4]
 6588 0034 1A4B     		ldr	r3, .L425+12
 6589 0036 9A42     		cmp	r2, r3
 6590 0038 03D0     		beq	.L419
 6591              		.loc 1 1367 0 discriminator 4
 6592 003a 7A68     		ldr	r2, [r7, #4]
 6593 003c 194B     		ldr	r3, .L425+16
 6594 003e 9A42     		cmp	r2, r3
 6595 0040 02D1     		bne	.L420
 6596              	.L419:
 6597              		.loc 1 1367 0 discriminator 1
 6598 0042 4FF00103 		mov	r3, #1
 6599 0046 01E0     		b	.L421
 6600              	.L420:
 6601              		.loc 1 1367 0 discriminator 3
 6602 0048 4FF00003 		mov	r3, #0
 6603              	.L421:
 6604              		.loc 1 1367 0 discriminator 4
 6605 004c 1846     		mov	r0, r3
 6606 004e FFF7FEFF 		bl	assert_param
1368:../libs/StdPeripheralDriver/src/stm32f10x_tim.c ****   assert_param(IS_TIM_FORCED_ACTION(TIM_ForcedAction));
 6607              		.loc 1 1368 0 is_stmt 1 discriminator 4
 6608 0052 7B88     		ldrh	r3, [r7, #2]
 6609 0054 502B     		cmp	r3, #80
 6610 0056 02D0     		beq	.L422
 6611              		.loc 1 1368 0 is_stmt 0 discriminator 2
 6612 0058 7B88     		ldrh	r3, [r7, #2]
 6613 005a 402B     		cmp	r3, #64
 6614 005c 02D1     		bne	.L423
 6615              	.L422:
 6616              		.loc 1 1368 0 discriminator 1
 6617 005e 4FF00103 		mov	r3, #1
 6618 0062 01E0     		b	.L424
 6619              	.L423:
 6620              		.loc 1 1368 0 discriminator 3
 6621 0064 4FF00003 		mov	r3, #0
 6622              	.L424:
 6623              		.loc 1 1368 0 discriminator 4
 6624 0068 1846     		mov	r0, r3
 6625 006a FFF7FEFF 		bl	assert_param
1369:../libs/StdPeripheralDriver/src/stm32f10x_tim.c ****   tmpccmr2 = TIMx->CCMR2;
 6626              		.loc 1 1369 0 is_stmt 1 discriminator 4
 6627 006e 7B68     		ldr	r3, [r7, #4]
 6628 0070 9B8B     		ldrh	r3, [r3, #28]	@ movhi
 6629 0072 FB81     		strh	r3, [r7, #14]	@ movhi
1370:../libs/StdPeripheralDriver/src/stm32f10x_tim.c ****   /* Reset the OC1M Bits */
1371:../libs/StdPeripheralDriver/src/stm32f10x_tim.c ****   tmpccmr2 &= (uint16_t)~((uint16_t)TIM_CCMR2_OC3M);
 6630              		.loc 1 1371 0 discriminator 4
 6631 0074 FB89     		ldrh	r3, [r7, #14]	@ movhi
 6632 0076 23F07003 		bic	r3, r3, #112
 6633 007a FB81     		strh	r3, [r7, #14]	@ movhi
1372:../libs/StdPeripheralDriver/src/stm32f10x_tim.c ****   /* Configure The Forced output Mode */
1373:../libs/StdPeripheralDriver/src/stm32f10x_tim.c ****   tmpccmr2 |= TIM_ForcedAction;
 6634              		.loc 1 1373 0 discriminator 4
 6635 007c FA89     		ldrh	r2, [r7, #14]	@ movhi
 6636 007e 7B88     		ldrh	r3, [r7, #2]	@ movhi
 6637 0080 1343     		orrs	r3, r3, r2
 6638 0082 FB81     		strh	r3, [r7, #14]	@ movhi
1374:../libs/StdPeripheralDriver/src/stm32f10x_tim.c ****   /* Write to TIMx CCMR2 register */
1375:../libs/StdPeripheralDriver/src/stm32f10x_tim.c ****   TIMx->CCMR2 = tmpccmr2;
 6639              		.loc 1 1375 0 discriminator 4
 6640 0084 7B68     		ldr	r3, [r7, #4]
 6641 0086 FA89     		ldrh	r2, [r7, #14]	@ movhi
 6642 0088 9A83     		strh	r2, [r3, #28]	@ movhi
1376:../libs/StdPeripheralDriver/src/stm32f10x_tim.c **** }
 6643              		.loc 1 1376 0 discriminator 4
 6644 008a 07F11007 		add	r7, r7, #16
 6645 008e BD46     		mov	sp, r7
 6646 0090 80BD     		pop	{r7, pc}
 6647              	.L426:
 6648 0092 00BF     		.align	2
 6649              	.L425:
 6650 0094 002C0140 		.word	1073818624
 6651 0098 00040040 		.word	1073742848
 6652 009c 00080040 		.word	1073743872
 6653 00a0 000C0040 		.word	1073744896
 6654 00a4 00340140 		.word	1073820672
 6655              		.cfi_endproc
 6656              	.LFE60:
 6658              		.section	.text.TIM_ForcedOC4Config,"ax",%progbits
 6659              		.align	2
 6660              		.global	TIM_ForcedOC4Config
 6661              		.thumb
 6662              		.thumb_func
 6664              	TIM_ForcedOC4Config:
 6665              	.LFB61:
1377:../libs/StdPeripheralDriver/src/stm32f10x_tim.c **** 
1378:../libs/StdPeripheralDriver/src/stm32f10x_tim.c **** /**
1379:../libs/StdPeripheralDriver/src/stm32f10x_tim.c ****   * @brief  Forces the TIMx output 4 waveform to active or inactive level.
1380:../libs/StdPeripheralDriver/src/stm32f10x_tim.c ****   * @param  TIMx: where x can be  1, 2, 3, 4, 5 or 8 to select the TIM peripheral.
1381:../libs/StdPeripheralDriver/src/stm32f10x_tim.c ****   * @param  TIM_ForcedAction: specifies the forced Action to be set to the output waveform.
1382:../libs/StdPeripheralDriver/src/stm32f10x_tim.c ****   *   This parameter can be one of the following values:
1383:../libs/StdPeripheralDriver/src/stm32f10x_tim.c ****   *     @arg TIM_ForcedAction_Active: Force active level on OC4REF
1384:../libs/StdPeripheralDriver/src/stm32f10x_tim.c ****   *     @arg TIM_ForcedAction_InActive: Force inactive level on OC4REF.
1385:../libs/StdPeripheralDriver/src/stm32f10x_tim.c ****   * @retval None
1386:../libs/StdPeripheralDriver/src/stm32f10x_tim.c ****   */
1387:../libs/StdPeripheralDriver/src/stm32f10x_tim.c **** void TIM_ForcedOC4Config(TIM_TypeDef* TIMx, uint16_t TIM_ForcedAction)
1388:../libs/StdPeripheralDriver/src/stm32f10x_tim.c **** {
 6666              		.loc 1 1388 0
 6667              		.cfi_startproc
 6668              		@ args = 0, pretend = 0, frame = 16
 6669              		@ frame_needed = 1, uses_anonymous_args = 0
 6670 0000 80B5     		push	{r7, lr}
 6671              	.LCFI96:
 6672              		.cfi_def_cfa_offset 8
 6673              		.cfi_offset 7, -8
 6674              		.cfi_offset 14, -4
 6675 0002 84B0     		sub	sp, sp, #16
 6676              	.LCFI97:
 6677              		.cfi_def_cfa_offset 24
 6678 0004 00AF     		add	r7, sp, #0
 6679              	.LCFI98:
 6680              		.cfi_def_cfa_register 7
 6681 0006 7860     		str	r0, [r7, #4]
 6682 0008 0B46     		mov	r3, r1
 6683 000a 7B80     		strh	r3, [r7, #2]	@ movhi
1389:../libs/StdPeripheralDriver/src/stm32f10x_tim.c ****   uint16_t tmpccmr2 = 0;
 6684              		.loc 1 1389 0
 6685 000c 4FF00003 		mov	r3, #0
 6686 0010 FB81     		strh	r3, [r7, #14]	@ movhi
1390:../libs/StdPeripheralDriver/src/stm32f10x_tim.c ****   /* Check the parameters */
1391:../libs/StdPeripheralDriver/src/stm32f10x_tim.c ****   assert_param(IS_TIM_LIST3_PERIPH(TIMx));
 6687              		.loc 1 1391 0
 6688 0012 7A68     		ldr	r2, [r7, #4]
 6689 0014 204B     		ldr	r3, .L434
 6690 0016 9A42     		cmp	r2, r3
 6691 0018 13D0     		beq	.L428
 6692              		.loc 1 1391 0 is_stmt 0 discriminator 2
 6693 001a 7B68     		ldr	r3, [r7, #4]
 6694 001c B3F1804F 		cmp	r3, #1073741824
 6695 0020 0FD0     		beq	.L428
 6696              		.loc 1 1391 0 discriminator 1
 6697 0022 7A68     		ldr	r2, [r7, #4]
 6698 0024 1D4B     		ldr	r3, .L434+4
 6699 0026 9A42     		cmp	r2, r3
 6700 0028 0BD0     		beq	.L428
 6701              		.loc 1 1391 0 discriminator 2
 6702 002a 7A68     		ldr	r2, [r7, #4]
 6703 002c 1C4B     		ldr	r3, .L434+8
 6704 002e 9A42     		cmp	r2, r3
 6705 0030 07D0     		beq	.L428
 6706              		.loc 1 1391 0 discriminator 3
 6707 0032 7A68     		ldr	r2, [r7, #4]
 6708 0034 1B4B     		ldr	r3, .L434+12
 6709 0036 9A42     		cmp	r2, r3
 6710 0038 03D0     		beq	.L428
 6711              		.loc 1 1391 0 discriminator 4
 6712 003a 7A68     		ldr	r2, [r7, #4]
 6713 003c 1A4B     		ldr	r3, .L434+16
 6714 003e 9A42     		cmp	r2, r3
 6715 0040 02D1     		bne	.L429
 6716              	.L428:
 6717              		.loc 1 1391 0 discriminator 1
 6718 0042 4FF00103 		mov	r3, #1
 6719 0046 01E0     		b	.L430
 6720              	.L429:
 6721              		.loc 1 1391 0 discriminator 3
 6722 0048 4FF00003 		mov	r3, #0
 6723              	.L430:
 6724              		.loc 1 1391 0 discriminator 4
 6725 004c 1846     		mov	r0, r3
 6726 004e FFF7FEFF 		bl	assert_param
1392:../libs/StdPeripheralDriver/src/stm32f10x_tim.c ****   assert_param(IS_TIM_FORCED_ACTION(TIM_ForcedAction));
 6727              		.loc 1 1392 0 is_stmt 1 discriminator 4
 6728 0052 7B88     		ldrh	r3, [r7, #2]
 6729 0054 502B     		cmp	r3, #80
 6730 0056 02D0     		beq	.L431
 6731              		.loc 1 1392 0 is_stmt 0 discriminator 2
 6732 0058 7B88     		ldrh	r3, [r7, #2]
 6733 005a 402B     		cmp	r3, #64
 6734 005c 02D1     		bne	.L432
 6735              	.L431:
 6736              		.loc 1 1392 0 discriminator 1
 6737 005e 4FF00103 		mov	r3, #1
 6738 0062 01E0     		b	.L433
 6739              	.L432:
 6740              		.loc 1 1392 0 discriminator 3
 6741 0064 4FF00003 		mov	r3, #0
 6742              	.L433:
 6743              		.loc 1 1392 0 discriminator 4
 6744 0068 1846     		mov	r0, r3
 6745 006a FFF7FEFF 		bl	assert_param
1393:../libs/StdPeripheralDriver/src/stm32f10x_tim.c ****   tmpccmr2 = TIMx->CCMR2;
 6746              		.loc 1 1393 0 is_stmt 1 discriminator 4
 6747 006e 7B68     		ldr	r3, [r7, #4]
 6748 0070 9B8B     		ldrh	r3, [r3, #28]	@ movhi
 6749 0072 FB81     		strh	r3, [r7, #14]	@ movhi
1394:../libs/StdPeripheralDriver/src/stm32f10x_tim.c ****   /* Reset the OC2M Bits */
1395:../libs/StdPeripheralDriver/src/stm32f10x_tim.c ****   tmpccmr2 &= (uint16_t)~((uint16_t)TIM_CCMR2_OC4M);
 6750              		.loc 1 1395 0 discriminator 4
 6751 0074 FB89     		ldrh	r3, [r7, #14]	@ movhi
 6752 0076 23F4E043 		bic	r3, r3, #28672
 6753 007a FB81     		strh	r3, [r7, #14]	@ movhi
1396:../libs/StdPeripheralDriver/src/stm32f10x_tim.c ****   /* Configure The Forced output Mode */
1397:../libs/StdPeripheralDriver/src/stm32f10x_tim.c ****   tmpccmr2 |= (uint16_t)(TIM_ForcedAction << 8);
 6754              		.loc 1 1397 0 discriminator 4
 6755 007c 7B88     		ldrh	r3, [r7, #2]	@ movhi
 6756 007e 4FEA0323 		lsl	r3, r3, #8
 6757 0082 9AB2     		uxth	r2, r3
 6758 0084 FB89     		ldrh	r3, [r7, #14]	@ movhi
 6759 0086 1343     		orrs	r3, r3, r2
 6760 0088 FB81     		strh	r3, [r7, #14]	@ movhi
1398:../libs/StdPeripheralDriver/src/stm32f10x_tim.c ****   /* Write to TIMx CCMR2 register */
1399:../libs/StdPeripheralDriver/src/stm32f10x_tim.c ****   TIMx->CCMR2 = tmpccmr2;
 6761              		.loc 1 1399 0 discriminator 4
 6762 008a 7B68     		ldr	r3, [r7, #4]
 6763 008c FA89     		ldrh	r2, [r7, #14]	@ movhi
 6764 008e 9A83     		strh	r2, [r3, #28]	@ movhi
1400:../libs/StdPeripheralDriver/src/stm32f10x_tim.c **** }
 6765              		.loc 1 1400 0 discriminator 4
 6766 0090 07F11007 		add	r7, r7, #16
 6767 0094 BD46     		mov	sp, r7
 6768 0096 80BD     		pop	{r7, pc}
 6769              	.L435:
 6770              		.align	2
 6771              	.L434:
 6772 0098 002C0140 		.word	1073818624
 6773 009c 00040040 		.word	1073742848
 6774 00a0 00080040 		.word	1073743872
 6775 00a4 000C0040 		.word	1073744896
 6776 00a8 00340140 		.word	1073820672
 6777              		.cfi_endproc
 6778              	.LFE61:
 6780              		.section	.text.TIM_ARRPreloadConfig,"ax",%progbits
 6781              		.align	2
 6782              		.global	TIM_ARRPreloadConfig
 6783              		.thumb
 6784              		.thumb_func
 6786              	TIM_ARRPreloadConfig:
 6787              	.LFB62:
1401:../libs/StdPeripheralDriver/src/stm32f10x_tim.c **** 
1402:../libs/StdPeripheralDriver/src/stm32f10x_tim.c **** /**
1403:../libs/StdPeripheralDriver/src/stm32f10x_tim.c ****   * @brief  Enables or disables TIMx peripheral Preload register on ARR.
1404:../libs/StdPeripheralDriver/src/stm32f10x_tim.c ****   * @param  TIMx: where x can be  1 to 17 to select the TIM peripheral.
1405:../libs/StdPeripheralDriver/src/stm32f10x_tim.c ****   * @param  NewState: new state of the TIMx peripheral Preload register
1406:../libs/StdPeripheralDriver/src/stm32f10x_tim.c ****   *   This parameter can be: ENABLE or DISABLE.
1407:../libs/StdPeripheralDriver/src/stm32f10x_tim.c ****   * @retval None
1408:../libs/StdPeripheralDriver/src/stm32f10x_tim.c ****   */
1409:../libs/StdPeripheralDriver/src/stm32f10x_tim.c **** void TIM_ARRPreloadConfig(TIM_TypeDef* TIMx, FunctionalState NewState)
1410:../libs/StdPeripheralDriver/src/stm32f10x_tim.c **** {
 6788              		.loc 1 1410 0
 6789              		.cfi_startproc
 6790              		@ args = 0, pretend = 0, frame = 8
 6791              		@ frame_needed = 1, uses_anonymous_args = 0
 6792 0000 80B5     		push	{r7, lr}
 6793              	.LCFI99:
 6794              		.cfi_def_cfa_offset 8
 6795              		.cfi_offset 7, -8
 6796              		.cfi_offset 14, -4
 6797 0002 82B0     		sub	sp, sp, #8
 6798              	.LCFI100:
 6799              		.cfi_def_cfa_offset 16
 6800 0004 00AF     		add	r7, sp, #0
 6801              	.LCFI101:
 6802              		.cfi_def_cfa_register 7
 6803 0006 7860     		str	r0, [r7, #4]
 6804 0008 0B46     		mov	r3, r1
 6805 000a FB70     		strb	r3, [r7, #3]
1411:../libs/StdPeripheralDriver/src/stm32f10x_tim.c ****   /* Check the parameters */
1412:../libs/StdPeripheralDriver/src/stm32f10x_tim.c ****   assert_param(IS_TIM_ALL_PERIPH(TIMx));
 6806              		.loc 1 1412 0
 6807 000c 7A68     		ldr	r2, [r7, #4]
 6808 000e 384B     		ldr	r3, .L445
 6809 0010 9A42     		cmp	r2, r3
 6810 0012 3FD0     		beq	.L437
 6811              		.loc 1 1412 0 is_stmt 0 discriminator 2
 6812 0014 7B68     		ldr	r3, [r7, #4]
 6813 0016 B3F1804F 		cmp	r3, #1073741824
 6814 001a 3BD0     		beq	.L437
 6815              		.loc 1 1412 0 discriminator 1
 6816 001c 7A68     		ldr	r2, [r7, #4]
 6817 001e 354B     		ldr	r3, .L445+4
 6818 0020 9A42     		cmp	r2, r3
 6819 0022 37D0     		beq	.L437
 6820              		.loc 1 1412 0 discriminator 2
 6821 0024 7A68     		ldr	r2, [r7, #4]
 6822 0026 344B     		ldr	r3, .L445+8
 6823 0028 9A42     		cmp	r2, r3
 6824 002a 33D0     		beq	.L437
 6825              		.loc 1 1412 0 discriminator 3
 6826 002c 7A68     		ldr	r2, [r7, #4]
 6827 002e 334B     		ldr	r3, .L445+12
 6828 0030 9A42     		cmp	r2, r3
 6829 0032 2FD0     		beq	.L437
 6830              		.loc 1 1412 0 discriminator 4
 6831 0034 7A68     		ldr	r2, [r7, #4]
 6832 0036 324B     		ldr	r3, .L445+16
 6833 0038 9A42     		cmp	r2, r3
 6834 003a 2BD0     		beq	.L437
 6835              		.loc 1 1412 0 discriminator 5
 6836 003c 7A68     		ldr	r2, [r7, #4]
 6837 003e 314B     		ldr	r3, .L445+20
 6838 0040 9A42     		cmp	r2, r3
 6839 0042 27D0     		beq	.L437
 6840              		.loc 1 1412 0 discriminator 6
 6841 0044 7A68     		ldr	r2, [r7, #4]
 6842 0046 304B     		ldr	r3, .L445+24
 6843 0048 9A42     		cmp	r2, r3
 6844 004a 23D0     		beq	.L437
 6845              		.loc 1 1412 0 discriminator 7
 6846 004c 7A68     		ldr	r2, [r7, #4]
 6847 004e 2F4B     		ldr	r3, .L445+28
 6848 0050 9A42     		cmp	r2, r3
 6849 0052 1FD0     		beq	.L437
 6850              		.loc 1 1412 0 discriminator 8
 6851 0054 7A68     		ldr	r2, [r7, #4]
 6852 0056 2E4B     		ldr	r3, .L445+32
 6853 0058 9A42     		cmp	r2, r3
 6854 005a 1BD0     		beq	.L437
 6855              		.loc 1 1412 0 discriminator 9
 6856 005c 7A68     		ldr	r2, [r7, #4]
 6857 005e 2D4B     		ldr	r3, .L445+36
 6858 0060 9A42     		cmp	r2, r3
 6859 0062 17D0     		beq	.L437
 6860              		.loc 1 1412 0 discriminator 10
 6861 0064 7A68     		ldr	r2, [r7, #4]
 6862 0066 2C4B     		ldr	r3, .L445+40
 6863 0068 9A42     		cmp	r2, r3
 6864 006a 13D0     		beq	.L437
 6865              		.loc 1 1412 0 discriminator 11
 6866 006c 7A68     		ldr	r2, [r7, #4]
 6867 006e 2B4B     		ldr	r3, .L445+44
 6868 0070 9A42     		cmp	r2, r3
 6869 0072 0FD0     		beq	.L437
 6870              		.loc 1 1412 0 discriminator 12
 6871 0074 7A68     		ldr	r2, [r7, #4]
 6872 0076 2A4B     		ldr	r3, .L445+48
 6873 0078 9A42     		cmp	r2, r3
 6874 007a 0BD0     		beq	.L437
 6875              		.loc 1 1412 0 discriminator 13
 6876 007c 7A68     		ldr	r2, [r7, #4]
 6877 007e 294B     		ldr	r3, .L445+52
 6878 0080 9A42     		cmp	r2, r3
 6879 0082 07D0     		beq	.L437
 6880              		.loc 1 1412 0 discriminator 14
 6881 0084 7A68     		ldr	r2, [r7, #4]
 6882 0086 284B     		ldr	r3, .L445+56
 6883 0088 9A42     		cmp	r2, r3
 6884 008a 03D0     		beq	.L437
 6885              		.loc 1 1412 0 discriminator 15
 6886 008c 7A68     		ldr	r2, [r7, #4]
 6887 008e 274B     		ldr	r3, .L445+60
 6888 0090 9A42     		cmp	r2, r3
 6889 0092 02D1     		bne	.L438
 6890              	.L437:
 6891              		.loc 1 1412 0 discriminator 1
 6892 0094 4FF00103 		mov	r3, #1
 6893 0098 01E0     		b	.L439
 6894              	.L438:
 6895              		.loc 1 1412 0 discriminator 3
 6896 009a 4FF00003 		mov	r3, #0
 6897              	.L439:
 6898              		.loc 1 1412 0 discriminator 4
 6899 009e 1846     		mov	r0, r3
 6900 00a0 FFF7FEFF 		bl	assert_param
1413:../libs/StdPeripheralDriver/src/stm32f10x_tim.c ****   assert_param(IS_FUNCTIONAL_STATE(NewState));
 6901              		.loc 1 1413 0 is_stmt 1 discriminator 4
 6902 00a4 FB78     		ldrb	r3, [r7, #3]	@ zero_extendqisi2
 6903 00a6 002B     		cmp	r3, #0
 6904 00a8 02D0     		beq	.L440
 6905              		.loc 1 1413 0 is_stmt 0 discriminator 2
 6906 00aa FB78     		ldrb	r3, [r7, #3]	@ zero_extendqisi2
 6907 00ac 012B     		cmp	r3, #1
 6908 00ae 02D1     		bne	.L441
 6909              	.L440:
 6910              		.loc 1 1413 0 discriminator 1
 6911 00b0 4FF00103 		mov	r3, #1
 6912 00b4 01E0     		b	.L442
 6913              	.L441:
 6914              		.loc 1 1413 0 discriminator 3
 6915 00b6 4FF00003 		mov	r3, #0
 6916              	.L442:
 6917              		.loc 1 1413 0 discriminator 4
 6918 00ba 1846     		mov	r0, r3
 6919 00bc FFF7FEFF 		bl	assert_param
1414:../libs/StdPeripheralDriver/src/stm32f10x_tim.c ****   if (NewState != DISABLE)
 6920              		.loc 1 1414 0 is_stmt 1 discriminator 4
 6921 00c0 FB78     		ldrb	r3, [r7, #3]	@ zero_extendqisi2
 6922 00c2 002B     		cmp	r3, #0
 6923 00c4 08D0     		beq	.L443
1415:../libs/StdPeripheralDriver/src/stm32f10x_tim.c ****   {
1416:../libs/StdPeripheralDriver/src/stm32f10x_tim.c ****     /* Set the ARR Preload Bit */
1417:../libs/StdPeripheralDriver/src/stm32f10x_tim.c ****     TIMx->CR1 |= TIM_CR1_ARPE;
 6924              		.loc 1 1417 0
 6925 00c6 7B68     		ldr	r3, [r7, #4]
 6926 00c8 1B88     		ldrh	r3, [r3, #0]	@ movhi
 6927 00ca 9BB2     		uxth	r3, r3
 6928 00cc 43F08003 		orr	r3, r3, #128
 6929 00d0 9AB2     		uxth	r2, r3
 6930 00d2 7B68     		ldr	r3, [r7, #4]
 6931 00d4 1A80     		strh	r2, [r3, #0]	@ movhi
 6932 00d6 07E0     		b	.L436
 6933              	.L443:
1418:../libs/StdPeripheralDriver/src/stm32f10x_tim.c ****   }
1419:../libs/StdPeripheralDriver/src/stm32f10x_tim.c ****   else
1420:../libs/StdPeripheralDriver/src/stm32f10x_tim.c ****   {
1421:../libs/StdPeripheralDriver/src/stm32f10x_tim.c ****     /* Reset the ARR Preload Bit */
1422:../libs/StdPeripheralDriver/src/stm32f10x_tim.c ****     TIMx->CR1 &= (uint16_t)~((uint16_t)TIM_CR1_ARPE);
 6934              		.loc 1 1422 0
 6935 00d8 7B68     		ldr	r3, [r7, #4]
 6936 00da 1B88     		ldrh	r3, [r3, #0]	@ movhi
 6937 00dc 9BB2     		uxth	r3, r3
 6938 00de 23F08003 		bic	r3, r3, #128
 6939 00e2 9AB2     		uxth	r2, r3
 6940 00e4 7B68     		ldr	r3, [r7, #4]
 6941 00e6 1A80     		strh	r2, [r3, #0]	@ movhi
 6942              	.L436:
1423:../libs/StdPeripheralDriver/src/stm32f10x_tim.c ****   }
1424:../libs/StdPeripheralDriver/src/stm32f10x_tim.c **** }
 6943              		.loc 1 1424 0
 6944 00e8 07F10807 		add	r7, r7, #8
 6945 00ec BD46     		mov	sp, r7
 6946 00ee 80BD     		pop	{r7, pc}
 6947              	.L446:
 6948              		.align	2
 6949              	.L445:
 6950 00f0 002C0140 		.word	1073818624
 6951 00f4 00040040 		.word	1073742848
 6952 00f8 00080040 		.word	1073743872
 6953 00fc 000C0040 		.word	1073744896
 6954 0100 00100040 		.word	1073745920
 6955 0104 00140040 		.word	1073746944
 6956 0108 00340140 		.word	1073820672
 6957 010c 004C0140 		.word	1073826816
 6958 0110 00500140 		.word	1073827840
 6959 0114 00540140 		.word	1073828864
 6960 0118 00180040 		.word	1073747968
 6961 011c 001C0040 		.word	1073748992
 6962 0120 00200040 		.word	1073750016
 6963 0124 00400140 		.word	1073823744
 6964 0128 00440140 		.word	1073824768
 6965 012c 00480140 		.word	1073825792
 6966              		.cfi_endproc
 6967              	.LFE62:
 6969              		.section	.text.TIM_SelectCOM,"ax",%progbits
 6970              		.align	2
 6971              		.global	TIM_SelectCOM
 6972              		.thumb
 6973              		.thumb_func
 6975              	TIM_SelectCOM:
 6976              	.LFB63:
1425:../libs/StdPeripheralDriver/src/stm32f10x_tim.c **** 
1426:../libs/StdPeripheralDriver/src/stm32f10x_tim.c **** /**
1427:../libs/StdPeripheralDriver/src/stm32f10x_tim.c ****   * @brief  Selects the TIM peripheral Commutation event.
1428:../libs/StdPeripheralDriver/src/stm32f10x_tim.c ****   * @param  TIMx: where x can be  1, 8, 15, 16 or 17 to select the TIMx peripheral
1429:../libs/StdPeripheralDriver/src/stm32f10x_tim.c ****   * @param  NewState: new state of the Commutation event.
1430:../libs/StdPeripheralDriver/src/stm32f10x_tim.c ****   *   This parameter can be: ENABLE or DISABLE.
1431:../libs/StdPeripheralDriver/src/stm32f10x_tim.c ****   * @retval None
1432:../libs/StdPeripheralDriver/src/stm32f10x_tim.c ****   */
1433:../libs/StdPeripheralDriver/src/stm32f10x_tim.c **** void TIM_SelectCOM(TIM_TypeDef* TIMx, FunctionalState NewState)
1434:../libs/StdPeripheralDriver/src/stm32f10x_tim.c **** {
 6977              		.loc 1 1434 0
 6978              		.cfi_startproc
 6979              		@ args = 0, pretend = 0, frame = 8
 6980              		@ frame_needed = 1, uses_anonymous_args = 0
 6981 0000 80B5     		push	{r7, lr}
 6982              	.LCFI102:
 6983              		.cfi_def_cfa_offset 8
 6984              		.cfi_offset 7, -8
 6985              		.cfi_offset 14, -4
 6986 0002 82B0     		sub	sp, sp, #8
 6987              	.LCFI103:
 6988              		.cfi_def_cfa_offset 16
 6989 0004 00AF     		add	r7, sp, #0
 6990              	.LCFI104:
 6991              		.cfi_def_cfa_register 7
 6992 0006 7860     		str	r0, [r7, #4]
 6993 0008 0B46     		mov	r3, r1
 6994 000a FB70     		strb	r3, [r7, #3]
1435:../libs/StdPeripheralDriver/src/stm32f10x_tim.c ****   /* Check the parameters */
1436:../libs/StdPeripheralDriver/src/stm32f10x_tim.c ****   assert_param(IS_TIM_LIST2_PERIPH(TIMx));
 6995              		.loc 1 1436 0
 6996 000c 7A68     		ldr	r2, [r7, #4]
 6997 000e 204B     		ldr	r3, .L456
 6998 0010 9A42     		cmp	r2, r3
 6999 0012 0FD0     		beq	.L448
 7000              		.loc 1 1436 0 is_stmt 0 discriminator 2
 7001 0014 7A68     		ldr	r2, [r7, #4]
 7002 0016 1F4B     		ldr	r3, .L456+4
 7003 0018 9A42     		cmp	r2, r3
 7004 001a 0BD0     		beq	.L448
 7005              		.loc 1 1436 0 discriminator 1
 7006 001c 7A68     		ldr	r2, [r7, #4]
 7007 001e 1E4B     		ldr	r3, .L456+8
 7008 0020 9A42     		cmp	r2, r3
 7009 0022 07D0     		beq	.L448
 7010              		.loc 1 1436 0 discriminator 2
 7011 0024 7A68     		ldr	r2, [r7, #4]
 7012 0026 1D4B     		ldr	r3, .L456+12
 7013 0028 9A42     		cmp	r2, r3
 7014 002a 03D0     		beq	.L448
 7015              		.loc 1 1436 0 discriminator 3
 7016 002c 7A68     		ldr	r2, [r7, #4]
 7017 002e 1C4B     		ldr	r3, .L456+16
 7018 0030 9A42     		cmp	r2, r3
 7019 0032 02D1     		bne	.L449
 7020              	.L448:
 7021              		.loc 1 1436 0 discriminator 1
 7022 0034 4FF00103 		mov	r3, #1
 7023 0038 01E0     		b	.L450
 7024              	.L449:
 7025              		.loc 1 1436 0 discriminator 3
 7026 003a 4FF00003 		mov	r3, #0
 7027              	.L450:
 7028              		.loc 1 1436 0 discriminator 4
 7029 003e 1846     		mov	r0, r3
 7030 0040 FFF7FEFF 		bl	assert_param
1437:../libs/StdPeripheralDriver/src/stm32f10x_tim.c ****   assert_param(IS_FUNCTIONAL_STATE(NewState));
 7031              		.loc 1 1437 0 is_stmt 1 discriminator 4
 7032 0044 FB78     		ldrb	r3, [r7, #3]	@ zero_extendqisi2
 7033 0046 002B     		cmp	r3, #0
 7034 0048 02D0     		beq	.L451
 7035              		.loc 1 1437 0 is_stmt 0 discriminator 2
 7036 004a FB78     		ldrb	r3, [r7, #3]	@ zero_extendqisi2
 7037 004c 012B     		cmp	r3, #1
 7038 004e 02D1     		bne	.L452
 7039              	.L451:
 7040              		.loc 1 1437 0 discriminator 1
 7041 0050 4FF00103 		mov	r3, #1
 7042 0054 01E0     		b	.L453
 7043              	.L452:
 7044              		.loc 1 1437 0 discriminator 3
 7045 0056 4FF00003 		mov	r3, #0
 7046              	.L453:
 7047              		.loc 1 1437 0 discriminator 4
 7048 005a 1846     		mov	r0, r3
 7049 005c FFF7FEFF 		bl	assert_param
1438:../libs/StdPeripheralDriver/src/stm32f10x_tim.c ****   if (NewState != DISABLE)
 7050              		.loc 1 1438 0 is_stmt 1 discriminator 4
 7051 0060 FB78     		ldrb	r3, [r7, #3]	@ zero_extendqisi2
 7052 0062 002B     		cmp	r3, #0
 7053 0064 08D0     		beq	.L454
1439:../libs/StdPeripheralDriver/src/stm32f10x_tim.c ****   {
1440:../libs/StdPeripheralDriver/src/stm32f10x_tim.c ****     /* Set the COM Bit */
1441:../libs/StdPeripheralDriver/src/stm32f10x_tim.c ****     TIMx->CR2 |= TIM_CR2_CCUS;
 7054              		.loc 1 1441 0
 7055 0066 7B68     		ldr	r3, [r7, #4]
 7056 0068 9B88     		ldrh	r3, [r3, #4]	@ movhi
 7057 006a 9BB2     		uxth	r3, r3
 7058 006c 43F00403 		orr	r3, r3, #4
 7059 0070 9AB2     		uxth	r2, r3
 7060 0072 7B68     		ldr	r3, [r7, #4]
 7061 0074 9A80     		strh	r2, [r3, #4]	@ movhi
 7062 0076 07E0     		b	.L447
 7063              	.L454:
1442:../libs/StdPeripheralDriver/src/stm32f10x_tim.c ****   }
1443:../libs/StdPeripheralDriver/src/stm32f10x_tim.c ****   else
1444:../libs/StdPeripheralDriver/src/stm32f10x_tim.c ****   {
1445:../libs/StdPeripheralDriver/src/stm32f10x_tim.c ****     /* Reset the COM Bit */
1446:../libs/StdPeripheralDriver/src/stm32f10x_tim.c ****     TIMx->CR2 &= (uint16_t)~((uint16_t)TIM_CR2_CCUS);
 7064              		.loc 1 1446 0
 7065 0078 7B68     		ldr	r3, [r7, #4]
 7066 007a 9B88     		ldrh	r3, [r3, #4]	@ movhi
 7067 007c 9BB2     		uxth	r3, r3
 7068 007e 23F00403 		bic	r3, r3, #4
 7069 0082 9AB2     		uxth	r2, r3
 7070 0084 7B68     		ldr	r3, [r7, #4]
 7071 0086 9A80     		strh	r2, [r3, #4]	@ movhi
 7072              	.L447:
1447:../libs/StdPeripheralDriver/src/stm32f10x_tim.c ****   }
1448:../libs/StdPeripheralDriver/src/stm32f10x_tim.c **** }
 7073              		.loc 1 1448 0
 7074 0088 07F10807 		add	r7, r7, #8
 7075 008c BD46     		mov	sp, r7
 7076 008e 80BD     		pop	{r7, pc}
 7077              	.L457:
 7078              		.align	2
 7079              	.L456:
 7080 0090 002C0140 		.word	1073818624
 7081 0094 00340140 		.word	1073820672
 7082 0098 00400140 		.word	1073823744
 7083 009c 00440140 		.word	1073824768
 7084 00a0 00480140 		.word	1073825792
 7085              		.cfi_endproc
 7086              	.LFE63:
 7088              		.section	.text.TIM_SelectCCDMA,"ax",%progbits
 7089              		.align	2
 7090              		.global	TIM_SelectCCDMA
 7091              		.thumb
 7092              		.thumb_func
 7094              	TIM_SelectCCDMA:
 7095              	.LFB64:
1449:../libs/StdPeripheralDriver/src/stm32f10x_tim.c **** 
1450:../libs/StdPeripheralDriver/src/stm32f10x_tim.c **** /**
1451:../libs/StdPeripheralDriver/src/stm32f10x_tim.c ****   * @brief  Selects the TIMx peripheral Capture Compare DMA source.
1452:../libs/StdPeripheralDriver/src/stm32f10x_tim.c ****   * @param  TIMx: where x can be  1, 2, 3, 4, 5, 8, 15, 16 or 17 to select 
1453:../libs/StdPeripheralDriver/src/stm32f10x_tim.c ****   *         the TIM peripheral.
1454:../libs/StdPeripheralDriver/src/stm32f10x_tim.c ****   * @param  NewState: new state of the Capture Compare DMA source
1455:../libs/StdPeripheralDriver/src/stm32f10x_tim.c ****   *   This parameter can be: ENABLE or DISABLE.
1456:../libs/StdPeripheralDriver/src/stm32f10x_tim.c ****   * @retval None
1457:../libs/StdPeripheralDriver/src/stm32f10x_tim.c ****   */
1458:../libs/StdPeripheralDriver/src/stm32f10x_tim.c **** void TIM_SelectCCDMA(TIM_TypeDef* TIMx, FunctionalState NewState)
1459:../libs/StdPeripheralDriver/src/stm32f10x_tim.c **** {
 7096              		.loc 1 1459 0
 7097              		.cfi_startproc
 7098              		@ args = 0, pretend = 0, frame = 8
 7099              		@ frame_needed = 1, uses_anonymous_args = 0
 7100 0000 80B5     		push	{r7, lr}
 7101              	.LCFI105:
 7102              		.cfi_def_cfa_offset 8
 7103              		.cfi_offset 7, -8
 7104              		.cfi_offset 14, -4
 7105 0002 82B0     		sub	sp, sp, #8
 7106              	.LCFI106:
 7107              		.cfi_def_cfa_offset 16
 7108 0004 00AF     		add	r7, sp, #0
 7109              	.LCFI107:
 7110              		.cfi_def_cfa_register 7
 7111 0006 7860     		str	r0, [r7, #4]
 7112 0008 0B46     		mov	r3, r1
 7113 000a FB70     		strb	r3, [r7, #3]
1460:../libs/StdPeripheralDriver/src/stm32f10x_tim.c ****   /* Check the parameters */
1461:../libs/StdPeripheralDriver/src/stm32f10x_tim.c ****   assert_param(IS_TIM_LIST4_PERIPH(TIMx));
 7114              		.loc 1 1461 0
 7115 000c 7A68     		ldr	r2, [r7, #4]
 7116 000e 284B     		ldr	r3, .L467
 7117 0010 9A42     		cmp	r2, r3
 7118 0012 1FD0     		beq	.L459
 7119              		.loc 1 1461 0 is_stmt 0 discriminator 2
 7120 0014 7B68     		ldr	r3, [r7, #4]
 7121 0016 B3F1804F 		cmp	r3, #1073741824
 7122 001a 1BD0     		beq	.L459
 7123              		.loc 1 1461 0 discriminator 1
 7124 001c 7A68     		ldr	r2, [r7, #4]
 7125 001e 254B     		ldr	r3, .L467+4
 7126 0020 9A42     		cmp	r2, r3
 7127 0022 17D0     		beq	.L459
 7128              		.loc 1 1461 0 discriminator 2
 7129 0024 7A68     		ldr	r2, [r7, #4]
 7130 0026 244B     		ldr	r3, .L467+8
 7131 0028 9A42     		cmp	r2, r3
 7132 002a 13D0     		beq	.L459
 7133              		.loc 1 1461 0 discriminator 3
 7134 002c 7A68     		ldr	r2, [r7, #4]
 7135 002e 234B     		ldr	r3, .L467+12
 7136 0030 9A42     		cmp	r2, r3
 7137 0032 0FD0     		beq	.L459
 7138              		.loc 1 1461 0 discriminator 4
 7139 0034 7A68     		ldr	r2, [r7, #4]
 7140 0036 224B     		ldr	r3, .L467+16
 7141 0038 9A42     		cmp	r2, r3
 7142 003a 0BD0     		beq	.L459
 7143              		.loc 1 1461 0 discriminator 5
 7144 003c 7A68     		ldr	r2, [r7, #4]
 7145 003e 214B     		ldr	r3, .L467+20
 7146 0040 9A42     		cmp	r2, r3
 7147 0042 07D0     		beq	.L459
 7148              		.loc 1 1461 0 discriminator 6
 7149 0044 7A68     		ldr	r2, [r7, #4]
 7150 0046 204B     		ldr	r3, .L467+24
 7151 0048 9A42     		cmp	r2, r3
 7152 004a 03D0     		beq	.L459
 7153              		.loc 1 1461 0 discriminator 7
 7154 004c 7A68     		ldr	r2, [r7, #4]
 7155 004e 1F4B     		ldr	r3, .L467+28
 7156 0050 9A42     		cmp	r2, r3
 7157 0052 02D1     		bne	.L460
 7158              	.L459:
 7159              		.loc 1 1461 0 discriminator 1
 7160 0054 4FF00103 		mov	r3, #1
 7161 0058 01E0     		b	.L461
 7162              	.L460:
 7163              		.loc 1 1461 0 discriminator 3
 7164 005a 4FF00003 		mov	r3, #0
 7165              	.L461:
 7166              		.loc 1 1461 0 discriminator 4
 7167 005e 1846     		mov	r0, r3
 7168 0060 FFF7FEFF 		bl	assert_param
1462:../libs/StdPeripheralDriver/src/stm32f10x_tim.c ****   assert_param(IS_FUNCTIONAL_STATE(NewState));
 7169              		.loc 1 1462 0 is_stmt 1 discriminator 4
 7170 0064 FB78     		ldrb	r3, [r7, #3]	@ zero_extendqisi2
 7171 0066 002B     		cmp	r3, #0
 7172 0068 02D0     		beq	.L462
 7173              		.loc 1 1462 0 is_stmt 0 discriminator 2
 7174 006a FB78     		ldrb	r3, [r7, #3]	@ zero_extendqisi2
 7175 006c 012B     		cmp	r3, #1
 7176 006e 02D1     		bne	.L463
 7177              	.L462:
 7178              		.loc 1 1462 0 discriminator 1
 7179 0070 4FF00103 		mov	r3, #1
 7180 0074 01E0     		b	.L464
 7181              	.L463:
 7182              		.loc 1 1462 0 discriminator 3
 7183 0076 4FF00003 		mov	r3, #0
 7184              	.L464:
 7185              		.loc 1 1462 0 discriminator 4
 7186 007a 1846     		mov	r0, r3
 7187 007c FFF7FEFF 		bl	assert_param
1463:../libs/StdPeripheralDriver/src/stm32f10x_tim.c ****   if (NewState != DISABLE)
 7188              		.loc 1 1463 0 is_stmt 1 discriminator 4
 7189 0080 FB78     		ldrb	r3, [r7, #3]	@ zero_extendqisi2
 7190 0082 002B     		cmp	r3, #0
 7191 0084 08D0     		beq	.L465
1464:../libs/StdPeripheralDriver/src/stm32f10x_tim.c ****   {
1465:../libs/StdPeripheralDriver/src/stm32f10x_tim.c ****     /* Set the CCDS Bit */
1466:../libs/StdPeripheralDriver/src/stm32f10x_tim.c ****     TIMx->CR2 |= TIM_CR2_CCDS;
 7192              		.loc 1 1466 0
 7193 0086 7B68     		ldr	r3, [r7, #4]
 7194 0088 9B88     		ldrh	r3, [r3, #4]	@ movhi
 7195 008a 9BB2     		uxth	r3, r3
 7196 008c 43F00803 		orr	r3, r3, #8
 7197 0090 9AB2     		uxth	r2, r3
 7198 0092 7B68     		ldr	r3, [r7, #4]
 7199 0094 9A80     		strh	r2, [r3, #4]	@ movhi
 7200 0096 07E0     		b	.L458
 7201              	.L465:
1467:../libs/StdPeripheralDriver/src/stm32f10x_tim.c ****   }
1468:../libs/StdPeripheralDriver/src/stm32f10x_tim.c ****   else
1469:../libs/StdPeripheralDriver/src/stm32f10x_tim.c ****   {
1470:../libs/StdPeripheralDriver/src/stm32f10x_tim.c ****     /* Reset the CCDS Bit */
1471:../libs/StdPeripheralDriver/src/stm32f10x_tim.c ****     TIMx->CR2 &= (uint16_t)~((uint16_t)TIM_CR2_CCDS);
 7202              		.loc 1 1471 0
 7203 0098 7B68     		ldr	r3, [r7, #4]
 7204 009a 9B88     		ldrh	r3, [r3, #4]	@ movhi
 7205 009c 9BB2     		uxth	r3, r3
 7206 009e 23F00803 		bic	r3, r3, #8
 7207 00a2 9AB2     		uxth	r2, r3
 7208 00a4 7B68     		ldr	r3, [r7, #4]
 7209 00a6 9A80     		strh	r2, [r3, #4]	@ movhi
 7210              	.L458:
1472:../libs/StdPeripheralDriver/src/stm32f10x_tim.c ****   }
1473:../libs/StdPeripheralDriver/src/stm32f10x_tim.c **** }
 7211              		.loc 1 1473 0
 7212 00a8 07F10807 		add	r7, r7, #8
 7213 00ac BD46     		mov	sp, r7
 7214 00ae 80BD     		pop	{r7, pc}
 7215              	.L468:
 7216              		.align	2
 7217              	.L467:
 7218 00b0 002C0140 		.word	1073818624
 7219 00b4 00040040 		.word	1073742848
 7220 00b8 00080040 		.word	1073743872
 7221 00bc 000C0040 		.word	1073744896
 7222 00c0 00340140 		.word	1073820672
 7223 00c4 00400140 		.word	1073823744
 7224 00c8 00440140 		.word	1073824768
 7225 00cc 00480140 		.word	1073825792
 7226              		.cfi_endproc
 7227              	.LFE64:
 7229              		.section	.text.TIM_CCPreloadControl,"ax",%progbits
 7230              		.align	2
 7231              		.global	TIM_CCPreloadControl
 7232              		.thumb
 7233              		.thumb_func
 7235              	TIM_CCPreloadControl:
 7236              	.LFB65:
1474:../libs/StdPeripheralDriver/src/stm32f10x_tim.c **** 
1475:../libs/StdPeripheralDriver/src/stm32f10x_tim.c **** /**
1476:../libs/StdPeripheralDriver/src/stm32f10x_tim.c ****   * @brief  Sets or Resets the TIM peripheral Capture Compare Preload Control bit.
1477:../libs/StdPeripheralDriver/src/stm32f10x_tim.c ****   * @param  TIMx: where x can be   1, 2, 3, 4, 5, 8 or 15 
1478:../libs/StdPeripheralDriver/src/stm32f10x_tim.c ****   *         to select the TIMx peripheral
1479:../libs/StdPeripheralDriver/src/stm32f10x_tim.c ****   * @param  NewState: new state of the Capture Compare Preload Control bit
1480:../libs/StdPeripheralDriver/src/stm32f10x_tim.c ****   *   This parameter can be: ENABLE or DISABLE.
1481:../libs/StdPeripheralDriver/src/stm32f10x_tim.c ****   * @retval None
1482:../libs/StdPeripheralDriver/src/stm32f10x_tim.c ****   */
1483:../libs/StdPeripheralDriver/src/stm32f10x_tim.c **** void TIM_CCPreloadControl(TIM_TypeDef* TIMx, FunctionalState NewState)
1484:../libs/StdPeripheralDriver/src/stm32f10x_tim.c **** { 
 7237              		.loc 1 1484 0
 7238              		.cfi_startproc
 7239              		@ args = 0, pretend = 0, frame = 8
 7240              		@ frame_needed = 1, uses_anonymous_args = 0
 7241 0000 80B5     		push	{r7, lr}
 7242              	.LCFI108:
 7243              		.cfi_def_cfa_offset 8
 7244              		.cfi_offset 7, -8
 7245              		.cfi_offset 14, -4
 7246 0002 82B0     		sub	sp, sp, #8
 7247              	.LCFI109:
 7248              		.cfi_def_cfa_offset 16
 7249 0004 00AF     		add	r7, sp, #0
 7250              	.LCFI110:
 7251              		.cfi_def_cfa_register 7
 7252 0006 7860     		str	r0, [r7, #4]
 7253 0008 0B46     		mov	r3, r1
 7254 000a FB70     		strb	r3, [r7, #3]
1485:../libs/StdPeripheralDriver/src/stm32f10x_tim.c ****   /* Check the parameters */
1486:../libs/StdPeripheralDriver/src/stm32f10x_tim.c ****   assert_param(IS_TIM_LIST5_PERIPH(TIMx));
 7255              		.loc 1 1486 0
 7256 000c 7A68     		ldr	r2, [r7, #4]
 7257 000e 244B     		ldr	r3, .L478
 7258 0010 9A42     		cmp	r2, r3
 7259 0012 17D0     		beq	.L470
 7260              		.loc 1 1486 0 is_stmt 0 discriminator 2
 7261 0014 7B68     		ldr	r3, [r7, #4]
 7262 0016 B3F1804F 		cmp	r3, #1073741824
 7263 001a 13D0     		beq	.L470
 7264              		.loc 1 1486 0 discriminator 1
 7265 001c 7A68     		ldr	r2, [r7, #4]
 7266 001e 214B     		ldr	r3, .L478+4
 7267 0020 9A42     		cmp	r2, r3
 7268 0022 0FD0     		beq	.L470
 7269              		.loc 1 1486 0 discriminator 2
 7270 0024 7A68     		ldr	r2, [r7, #4]
 7271 0026 204B     		ldr	r3, .L478+8
 7272 0028 9A42     		cmp	r2, r3
 7273 002a 0BD0     		beq	.L470
 7274              		.loc 1 1486 0 discriminator 3
 7275 002c 7A68     		ldr	r2, [r7, #4]
 7276 002e 1F4B     		ldr	r3, .L478+12
 7277 0030 9A42     		cmp	r2, r3
 7278 0032 07D0     		beq	.L470
 7279              		.loc 1 1486 0 discriminator 4
 7280 0034 7A68     		ldr	r2, [r7, #4]
 7281 0036 1E4B     		ldr	r3, .L478+16
 7282 0038 9A42     		cmp	r2, r3
 7283 003a 03D0     		beq	.L470
 7284              		.loc 1 1486 0 discriminator 5
 7285 003c 7A68     		ldr	r2, [r7, #4]
 7286 003e 1D4B     		ldr	r3, .L478+20
 7287 0040 9A42     		cmp	r2, r3
 7288 0042 02D1     		bne	.L471
 7289              	.L470:
 7290              		.loc 1 1486 0 discriminator 1
 7291 0044 4FF00103 		mov	r3, #1
 7292 0048 01E0     		b	.L472
 7293              	.L471:
 7294              		.loc 1 1486 0 discriminator 3
 7295 004a 4FF00003 		mov	r3, #0
 7296              	.L472:
 7297              		.loc 1 1486 0 discriminator 4
 7298 004e 1846     		mov	r0, r3
 7299 0050 FFF7FEFF 		bl	assert_param
1487:../libs/StdPeripheralDriver/src/stm32f10x_tim.c ****   assert_param(IS_FUNCTIONAL_STATE(NewState));
 7300              		.loc 1 1487 0 is_stmt 1 discriminator 4
 7301 0054 FB78     		ldrb	r3, [r7, #3]	@ zero_extendqisi2
 7302 0056 002B     		cmp	r3, #0
 7303 0058 02D0     		beq	.L473
 7304              		.loc 1 1487 0 is_stmt 0 discriminator 2
 7305 005a FB78     		ldrb	r3, [r7, #3]	@ zero_extendqisi2
 7306 005c 012B     		cmp	r3, #1
 7307 005e 02D1     		bne	.L474
 7308              	.L473:
 7309              		.loc 1 1487 0 discriminator 1
 7310 0060 4FF00103 		mov	r3, #1
 7311 0064 01E0     		b	.L475
 7312              	.L474:
 7313              		.loc 1 1487 0 discriminator 3
 7314 0066 4FF00003 		mov	r3, #0
 7315              	.L475:
 7316              		.loc 1 1487 0 discriminator 4
 7317 006a 1846     		mov	r0, r3
 7318 006c FFF7FEFF 		bl	assert_param
1488:../libs/StdPeripheralDriver/src/stm32f10x_tim.c ****   if (NewState != DISABLE)
 7319              		.loc 1 1488 0 is_stmt 1 discriminator 4
 7320 0070 FB78     		ldrb	r3, [r7, #3]	@ zero_extendqisi2
 7321 0072 002B     		cmp	r3, #0
 7322 0074 08D0     		beq	.L476
1489:../libs/StdPeripheralDriver/src/stm32f10x_tim.c ****   {
1490:../libs/StdPeripheralDriver/src/stm32f10x_tim.c ****     /* Set the CCPC Bit */
1491:../libs/StdPeripheralDriver/src/stm32f10x_tim.c ****     TIMx->CR2 |= TIM_CR2_CCPC;
 7323              		.loc 1 1491 0
 7324 0076 7B68     		ldr	r3, [r7, #4]
 7325 0078 9B88     		ldrh	r3, [r3, #4]	@ movhi
 7326 007a 9BB2     		uxth	r3, r3
 7327 007c 43F00103 		orr	r3, r3, #1
 7328 0080 9AB2     		uxth	r2, r3
 7329 0082 7B68     		ldr	r3, [r7, #4]
 7330 0084 9A80     		strh	r2, [r3, #4]	@ movhi
 7331 0086 07E0     		b	.L469
 7332              	.L476:
1492:../libs/StdPeripheralDriver/src/stm32f10x_tim.c ****   }
1493:../libs/StdPeripheralDriver/src/stm32f10x_tim.c ****   else
1494:../libs/StdPeripheralDriver/src/stm32f10x_tim.c ****   {
1495:../libs/StdPeripheralDriver/src/stm32f10x_tim.c ****     /* Reset the CCPC Bit */
1496:../libs/StdPeripheralDriver/src/stm32f10x_tim.c ****     TIMx->CR2 &= (uint16_t)~((uint16_t)TIM_CR2_CCPC);
 7333              		.loc 1 1496 0
 7334 0088 7B68     		ldr	r3, [r7, #4]
 7335 008a 9B88     		ldrh	r3, [r3, #4]	@ movhi
 7336 008c 9BB2     		uxth	r3, r3
 7337 008e 23F00103 		bic	r3, r3, #1
 7338 0092 9AB2     		uxth	r2, r3
 7339 0094 7B68     		ldr	r3, [r7, #4]
 7340 0096 9A80     		strh	r2, [r3, #4]	@ movhi
 7341              	.L469:
1497:../libs/StdPeripheralDriver/src/stm32f10x_tim.c ****   }
1498:../libs/StdPeripheralDriver/src/stm32f10x_tim.c **** }
 7342              		.loc 1 1498 0
 7343 0098 07F10807 		add	r7, r7, #8
 7344 009c BD46     		mov	sp, r7
 7345 009e 80BD     		pop	{r7, pc}
 7346              	.L479:
 7347              		.align	2
 7348              	.L478:
 7349 00a0 002C0140 		.word	1073818624
 7350 00a4 00040040 		.word	1073742848
 7351 00a8 00080040 		.word	1073743872
 7352 00ac 000C0040 		.word	1073744896
 7353 00b0 00340140 		.word	1073820672
 7354 00b4 00400140 		.word	1073823744
 7355              		.cfi_endproc
 7356              	.LFE65:
 7358              		.section	.text.TIM_OC1PreloadConfig,"ax",%progbits
 7359              		.align	2
 7360              		.global	TIM_OC1PreloadConfig
 7361              		.thumb
 7362              		.thumb_func
 7364              	TIM_OC1PreloadConfig:
 7365              	.LFB66:
1499:../libs/StdPeripheralDriver/src/stm32f10x_tim.c **** 
1500:../libs/StdPeripheralDriver/src/stm32f10x_tim.c **** /**
1501:../libs/StdPeripheralDriver/src/stm32f10x_tim.c ****   * @brief  Enables or disables the TIMx peripheral Preload register on CCR1.
1502:../libs/StdPeripheralDriver/src/stm32f10x_tim.c ****   * @param  TIMx: where x can be  1 to 17 except 6 and 7 to select the TIM peripheral.
1503:../libs/StdPeripheralDriver/src/stm32f10x_tim.c ****   * @param  TIM_OCPreload: new state of the TIMx peripheral Preload register
1504:../libs/StdPeripheralDriver/src/stm32f10x_tim.c ****   *   This parameter can be one of the following values:
1505:../libs/StdPeripheralDriver/src/stm32f10x_tim.c ****   *     @arg TIM_OCPreload_Enable
1506:../libs/StdPeripheralDriver/src/stm32f10x_tim.c ****   *     @arg TIM_OCPreload_Disable
1507:../libs/StdPeripheralDriver/src/stm32f10x_tim.c ****   * @retval None
1508:../libs/StdPeripheralDriver/src/stm32f10x_tim.c ****   */
1509:../libs/StdPeripheralDriver/src/stm32f10x_tim.c **** void TIM_OC1PreloadConfig(TIM_TypeDef* TIMx, uint16_t TIM_OCPreload)
1510:../libs/StdPeripheralDriver/src/stm32f10x_tim.c **** {
 7366              		.loc 1 1510 0
 7367              		.cfi_startproc
 7368              		@ args = 0, pretend = 0, frame = 16
 7369              		@ frame_needed = 1, uses_anonymous_args = 0
 7370 0000 80B5     		push	{r7, lr}
 7371              	.LCFI111:
 7372              		.cfi_def_cfa_offset 8
 7373              		.cfi_offset 7, -8
 7374              		.cfi_offset 14, -4
 7375 0002 84B0     		sub	sp, sp, #16
 7376              	.LCFI112:
 7377              		.cfi_def_cfa_offset 24
 7378 0004 00AF     		add	r7, sp, #0
 7379              	.LCFI113:
 7380              		.cfi_def_cfa_register 7
 7381 0006 7860     		str	r0, [r7, #4]
 7382 0008 0B46     		mov	r3, r1
 7383 000a 7B80     		strh	r3, [r7, #2]	@ movhi
1511:../libs/StdPeripheralDriver/src/stm32f10x_tim.c ****   uint16_t tmpccmr1 = 0;
 7384              		.loc 1 1511 0
 7385 000c 4FF00003 		mov	r3, #0
 7386 0010 FB81     		strh	r3, [r7, #14]	@ movhi
1512:../libs/StdPeripheralDriver/src/stm32f10x_tim.c ****   /* Check the parameters */
1513:../libs/StdPeripheralDriver/src/stm32f10x_tim.c ****   assert_param(IS_TIM_LIST8_PERIPH(TIMx));
 7387              		.loc 1 1513 0
 7388 0012 7A68     		ldr	r2, [r7, #4]
 7389 0014 314B     		ldr	r3, .L487
 7390 0016 9A42     		cmp	r2, r3
 7391 0018 37D0     		beq	.L481
 7392              		.loc 1 1513 0 is_stmt 0 discriminator 2
 7393 001a 7B68     		ldr	r3, [r7, #4]
 7394 001c B3F1804F 		cmp	r3, #1073741824
 7395 0020 33D0     		beq	.L481
 7396              		.loc 1 1513 0 discriminator 1
 7397 0022 7A68     		ldr	r2, [r7, #4]
 7398 0024 2E4B     		ldr	r3, .L487+4
 7399 0026 9A42     		cmp	r2, r3
 7400 0028 2FD0     		beq	.L481
 7401              		.loc 1 1513 0 discriminator 2
 7402 002a 7A68     		ldr	r2, [r7, #4]
 7403 002c 2D4B     		ldr	r3, .L487+8
 7404 002e 9A42     		cmp	r2, r3
 7405 0030 2BD0     		beq	.L481
 7406              		.loc 1 1513 0 discriminator 3
 7407 0032 7A68     		ldr	r2, [r7, #4]
 7408 0034 2C4B     		ldr	r3, .L487+12
 7409 0036 9A42     		cmp	r2, r3
 7410 0038 27D0     		beq	.L481
 7411              		.loc 1 1513 0 discriminator 4
 7412 003a 7A68     		ldr	r2, [r7, #4]
 7413 003c 2B4B     		ldr	r3, .L487+16
 7414 003e 9A42     		cmp	r2, r3
 7415 0040 23D0     		beq	.L481
 7416              		.loc 1 1513 0 discriminator 5
 7417 0042 7A68     		ldr	r2, [r7, #4]
 7418 0044 2A4B     		ldr	r3, .L487+20
 7419 0046 9A42     		cmp	r2, r3
 7420 0048 1FD0     		beq	.L481
 7421              		.loc 1 1513 0 discriminator 6
 7422 004a 7A68     		ldr	r2, [r7, #4]
 7423 004c 294B     		ldr	r3, .L487+24
 7424 004e 9A42     		cmp	r2, r3
 7425 0050 1BD0     		beq	.L481
 7426              		.loc 1 1513 0 discriminator 7
 7427 0052 7A68     		ldr	r2, [r7, #4]
 7428 0054 284B     		ldr	r3, .L487+28
 7429 0056 9A42     		cmp	r2, r3
 7430 0058 17D0     		beq	.L481
 7431              		.loc 1 1513 0 discriminator 8
 7432 005a 7A68     		ldr	r2, [r7, #4]
 7433 005c 274B     		ldr	r3, .L487+32
 7434 005e 9A42     		cmp	r2, r3
 7435 0060 13D0     		beq	.L481
 7436              		.loc 1 1513 0 discriminator 9
 7437 0062 7A68     		ldr	r2, [r7, #4]
 7438 0064 264B     		ldr	r3, .L487+36
 7439 0066 9A42     		cmp	r2, r3
 7440 0068 0FD0     		beq	.L481
 7441              		.loc 1 1513 0 discriminator 10
 7442 006a 7A68     		ldr	r2, [r7, #4]
 7443 006c 254B     		ldr	r3, .L487+40
 7444 006e 9A42     		cmp	r2, r3
 7445 0070 0BD0     		beq	.L481
 7446              		.loc 1 1513 0 discriminator 11
 7447 0072 7A68     		ldr	r2, [r7, #4]
 7448 0074 244B     		ldr	r3, .L487+44
 7449 0076 9A42     		cmp	r2, r3
 7450 0078 07D0     		beq	.L481
 7451              		.loc 1 1513 0 discriminator 12
 7452 007a 7A68     		ldr	r2, [r7, #4]
 7453 007c 234B     		ldr	r3, .L487+48
 7454 007e 9A42     		cmp	r2, r3
 7455 0080 03D0     		beq	.L481
 7456              		.loc 1 1513 0 discriminator 13
 7457 0082 7A68     		ldr	r2, [r7, #4]
 7458 0084 224B     		ldr	r3, .L487+52
 7459 0086 9A42     		cmp	r2, r3
 7460 0088 02D1     		bne	.L482
 7461              	.L481:
 7462              		.loc 1 1513 0 discriminator 1
 7463 008a 4FF00103 		mov	r3, #1
 7464 008e 01E0     		b	.L483
 7465              	.L482:
 7466              		.loc 1 1513 0 discriminator 3
 7467 0090 4FF00003 		mov	r3, #0
 7468              	.L483:
 7469              		.loc 1 1513 0 discriminator 4
 7470 0094 1846     		mov	r0, r3
 7471 0096 FFF7FEFF 		bl	assert_param
1514:../libs/StdPeripheralDriver/src/stm32f10x_tim.c ****   assert_param(IS_TIM_OCPRELOAD_STATE(TIM_OCPreload));
 7472              		.loc 1 1514 0 is_stmt 1 discriminator 4
 7473 009a 7B88     		ldrh	r3, [r7, #2]
 7474 009c 082B     		cmp	r3, #8
 7475 009e 02D0     		beq	.L484
 7476              		.loc 1 1514 0 is_stmt 0 discriminator 2
 7477 00a0 7B88     		ldrh	r3, [r7, #2]
 7478 00a2 002B     		cmp	r3, #0
 7479 00a4 02D1     		bne	.L485
 7480              	.L484:
 7481              		.loc 1 1514 0 discriminator 1
 7482 00a6 4FF00103 		mov	r3, #1
 7483 00aa 01E0     		b	.L486
 7484              	.L485:
 7485              		.loc 1 1514 0 discriminator 3
 7486 00ac 4FF00003 		mov	r3, #0
 7487              	.L486:
 7488              		.loc 1 1514 0 discriminator 4
 7489 00b0 1846     		mov	r0, r3
 7490 00b2 FFF7FEFF 		bl	assert_param
1515:../libs/StdPeripheralDriver/src/stm32f10x_tim.c ****   tmpccmr1 = TIMx->CCMR1;
 7491              		.loc 1 1515 0 is_stmt 1 discriminator 4
 7492 00b6 7B68     		ldr	r3, [r7, #4]
 7493 00b8 1B8B     		ldrh	r3, [r3, #24]	@ movhi
 7494 00ba FB81     		strh	r3, [r7, #14]	@ movhi
1516:../libs/StdPeripheralDriver/src/stm32f10x_tim.c ****   /* Reset the OC1PE Bit */
1517:../libs/StdPeripheralDriver/src/stm32f10x_tim.c ****   tmpccmr1 &= (uint16_t)~((uint16_t)TIM_CCMR1_OC1PE);
 7495              		.loc 1 1517 0 discriminator 4
 7496 00bc FB89     		ldrh	r3, [r7, #14]	@ movhi
 7497 00be 23F00803 		bic	r3, r3, #8
 7498 00c2 FB81     		strh	r3, [r7, #14]	@ movhi
1518:../libs/StdPeripheralDriver/src/stm32f10x_tim.c ****   /* Enable or Disable the Output Compare Preload feature */
1519:../libs/StdPeripheralDriver/src/stm32f10x_tim.c ****   tmpccmr1 |= TIM_OCPreload;
 7499              		.loc 1 1519 0 discriminator 4
 7500 00c4 FA89     		ldrh	r2, [r7, #14]	@ movhi
 7501 00c6 7B88     		ldrh	r3, [r7, #2]	@ movhi
 7502 00c8 1343     		orrs	r3, r3, r2
 7503 00ca FB81     		strh	r3, [r7, #14]	@ movhi
1520:../libs/StdPeripheralDriver/src/stm32f10x_tim.c ****   /* Write to TIMx CCMR1 register */
1521:../libs/StdPeripheralDriver/src/stm32f10x_tim.c ****   TIMx->CCMR1 = tmpccmr1;
 7504              		.loc 1 1521 0 discriminator 4
 7505 00cc 7B68     		ldr	r3, [r7, #4]
 7506 00ce FA89     		ldrh	r2, [r7, #14]	@ movhi
 7507 00d0 1A83     		strh	r2, [r3, #24]	@ movhi
1522:../libs/StdPeripheralDriver/src/stm32f10x_tim.c **** }
 7508              		.loc 1 1522 0 discriminator 4
 7509 00d2 07F11007 		add	r7, r7, #16
 7510 00d6 BD46     		mov	sp, r7
 7511 00d8 80BD     		pop	{r7, pc}
 7512              	.L488:
 7513 00da 00BF     		.align	2
 7514              	.L487:
 7515 00dc 002C0140 		.word	1073818624
 7516 00e0 00040040 		.word	1073742848
 7517 00e4 00080040 		.word	1073743872
 7518 00e8 000C0040 		.word	1073744896
 7519 00ec 00340140 		.word	1073820672
 7520 00f0 004C0140 		.word	1073826816
 7521 00f4 00500140 		.word	1073827840
 7522 00f8 00540140 		.word	1073828864
 7523 00fc 00180040 		.word	1073747968
 7524 0100 001C0040 		.word	1073748992
 7525 0104 00200040 		.word	1073750016
 7526 0108 00400140 		.word	1073823744
 7527 010c 00440140 		.word	1073824768
 7528 0110 00480140 		.word	1073825792
 7529              		.cfi_endproc
 7530              	.LFE66:
 7532              		.section	.text.TIM_OC2PreloadConfig,"ax",%progbits
 7533              		.align	2
 7534              		.global	TIM_OC2PreloadConfig
 7535              		.thumb
 7536              		.thumb_func
 7538              	TIM_OC2PreloadConfig:
 7539              	.LFB67:
1523:../libs/StdPeripheralDriver/src/stm32f10x_tim.c **** 
1524:../libs/StdPeripheralDriver/src/stm32f10x_tim.c **** /**
1525:../libs/StdPeripheralDriver/src/stm32f10x_tim.c ****   * @brief  Enables or disables the TIMx peripheral Preload register on CCR2.
1526:../libs/StdPeripheralDriver/src/stm32f10x_tim.c ****   * @param  TIMx: where x can be  1, 2, 3, 4, 5, 8, 9, 12 or 15 to select 
1527:../libs/StdPeripheralDriver/src/stm32f10x_tim.c ****   *         the TIM peripheral.
1528:../libs/StdPeripheralDriver/src/stm32f10x_tim.c ****   * @param  TIM_OCPreload: new state of the TIMx peripheral Preload register
1529:../libs/StdPeripheralDriver/src/stm32f10x_tim.c ****   *   This parameter can be one of the following values:
1530:../libs/StdPeripheralDriver/src/stm32f10x_tim.c ****   *     @arg TIM_OCPreload_Enable
1531:../libs/StdPeripheralDriver/src/stm32f10x_tim.c ****   *     @arg TIM_OCPreload_Disable
1532:../libs/StdPeripheralDriver/src/stm32f10x_tim.c ****   * @retval None
1533:../libs/StdPeripheralDriver/src/stm32f10x_tim.c ****   */
1534:../libs/StdPeripheralDriver/src/stm32f10x_tim.c **** void TIM_OC2PreloadConfig(TIM_TypeDef* TIMx, uint16_t TIM_OCPreload)
1535:../libs/StdPeripheralDriver/src/stm32f10x_tim.c **** {
 7540              		.loc 1 1535 0
 7541              		.cfi_startproc
 7542              		@ args = 0, pretend = 0, frame = 16
 7543              		@ frame_needed = 1, uses_anonymous_args = 0
 7544 0000 80B5     		push	{r7, lr}
 7545              	.LCFI114:
 7546              		.cfi_def_cfa_offset 8
 7547              		.cfi_offset 7, -8
 7548              		.cfi_offset 14, -4
 7549 0002 84B0     		sub	sp, sp, #16
 7550              	.LCFI115:
 7551              		.cfi_def_cfa_offset 24
 7552 0004 00AF     		add	r7, sp, #0
 7553              	.LCFI116:
 7554              		.cfi_def_cfa_register 7
 7555 0006 7860     		str	r0, [r7, #4]
 7556 0008 0B46     		mov	r3, r1
 7557 000a 7B80     		strh	r3, [r7, #2]	@ movhi
1536:../libs/StdPeripheralDriver/src/stm32f10x_tim.c ****   uint16_t tmpccmr1 = 0;
 7558              		.loc 1 1536 0
 7559 000c 4FF00003 		mov	r3, #0
 7560 0010 FB81     		strh	r3, [r7, #14]	@ movhi
1537:../libs/StdPeripheralDriver/src/stm32f10x_tim.c ****   /* Check the parameters */
1538:../libs/StdPeripheralDriver/src/stm32f10x_tim.c ****   assert_param(IS_TIM_LIST6_PERIPH(TIMx));
 7561              		.loc 1 1538 0
 7562 0012 7A68     		ldr	r2, [r7, #4]
 7563 0014 264B     		ldr	r3, .L496
 7564 0016 9A42     		cmp	r2, r3
 7565 0018 1FD0     		beq	.L490
 7566              		.loc 1 1538 0 is_stmt 0 discriminator 2
 7567 001a 7B68     		ldr	r3, [r7, #4]
 7568 001c B3F1804F 		cmp	r3, #1073741824
 7569 0020 1BD0     		beq	.L490
 7570              		.loc 1 1538 0 discriminator 1
 7571 0022 7A68     		ldr	r2, [r7, #4]
 7572 0024 234B     		ldr	r3, .L496+4
 7573 0026 9A42     		cmp	r2, r3
 7574 0028 17D0     		beq	.L490
 7575              		.loc 1 1538 0 discriminator 2
 7576 002a 7A68     		ldr	r2, [r7, #4]
 7577 002c 224B     		ldr	r3, .L496+8
 7578 002e 9A42     		cmp	r2, r3
 7579 0030 13D0     		beq	.L490
 7580              		.loc 1 1538 0 discriminator 3
 7581 0032 7A68     		ldr	r2, [r7, #4]
 7582 0034 214B     		ldr	r3, .L496+12
 7583 0036 9A42     		cmp	r2, r3
 7584 0038 0FD0     		beq	.L490
 7585              		.loc 1 1538 0 discriminator 4
 7586 003a 7A68     		ldr	r2, [r7, #4]
 7587 003c 204B     		ldr	r3, .L496+16
 7588 003e 9A42     		cmp	r2, r3
 7589 0040 0BD0     		beq	.L490
 7590              		.loc 1 1538 0 discriminator 5
 7591 0042 7A68     		ldr	r2, [r7, #4]
 7592 0044 1F4B     		ldr	r3, .L496+20
 7593 0046 9A42     		cmp	r2, r3
 7594 0048 07D0     		beq	.L490
 7595              		.loc 1 1538 0 discriminator 6
 7596 004a 7A68     		ldr	r2, [r7, #4]
 7597 004c 1E4B     		ldr	r3, .L496+24
 7598 004e 9A42     		cmp	r2, r3
 7599 0050 03D0     		beq	.L490
 7600              		.loc 1 1538 0 discriminator 7
 7601 0052 7A68     		ldr	r2, [r7, #4]
 7602 0054 1D4B     		ldr	r3, .L496+28
 7603 0056 9A42     		cmp	r2, r3
 7604 0058 02D1     		bne	.L491
 7605              	.L490:
 7606              		.loc 1 1538 0 discriminator 1
 7607 005a 4FF00103 		mov	r3, #1
 7608 005e 01E0     		b	.L492
 7609              	.L491:
 7610              		.loc 1 1538 0 discriminator 3
 7611 0060 4FF00003 		mov	r3, #0
 7612              	.L492:
 7613              		.loc 1 1538 0 discriminator 4
 7614 0064 1846     		mov	r0, r3
 7615 0066 FFF7FEFF 		bl	assert_param
1539:../libs/StdPeripheralDriver/src/stm32f10x_tim.c ****   assert_param(IS_TIM_OCPRELOAD_STATE(TIM_OCPreload));
 7616              		.loc 1 1539 0 is_stmt 1 discriminator 4
 7617 006a 7B88     		ldrh	r3, [r7, #2]
 7618 006c 082B     		cmp	r3, #8
 7619 006e 02D0     		beq	.L493
 7620              		.loc 1 1539 0 is_stmt 0 discriminator 2
 7621 0070 7B88     		ldrh	r3, [r7, #2]
 7622 0072 002B     		cmp	r3, #0
 7623 0074 02D1     		bne	.L494
 7624              	.L493:
 7625              		.loc 1 1539 0 discriminator 1
 7626 0076 4FF00103 		mov	r3, #1
 7627 007a 01E0     		b	.L495
 7628              	.L494:
 7629              		.loc 1 1539 0 discriminator 3
 7630 007c 4FF00003 		mov	r3, #0
 7631              	.L495:
 7632              		.loc 1 1539 0 discriminator 4
 7633 0080 1846     		mov	r0, r3
 7634 0082 FFF7FEFF 		bl	assert_param
1540:../libs/StdPeripheralDriver/src/stm32f10x_tim.c ****   tmpccmr1 = TIMx->CCMR1;
 7635              		.loc 1 1540 0 is_stmt 1 discriminator 4
 7636 0086 7B68     		ldr	r3, [r7, #4]
 7637 0088 1B8B     		ldrh	r3, [r3, #24]	@ movhi
 7638 008a FB81     		strh	r3, [r7, #14]	@ movhi
1541:../libs/StdPeripheralDriver/src/stm32f10x_tim.c ****   /* Reset the OC2PE Bit */
1542:../libs/StdPeripheralDriver/src/stm32f10x_tim.c ****   tmpccmr1 &= (uint16_t)~((uint16_t)TIM_CCMR1_OC2PE);
 7639              		.loc 1 1542 0 discriminator 4
 7640 008c FB89     		ldrh	r3, [r7, #14]	@ movhi
 7641 008e 23F40063 		bic	r3, r3, #2048
 7642 0092 FB81     		strh	r3, [r7, #14]	@ movhi
1543:../libs/StdPeripheralDriver/src/stm32f10x_tim.c ****   /* Enable or Disable the Output Compare Preload feature */
1544:../libs/StdPeripheralDriver/src/stm32f10x_tim.c ****   tmpccmr1 |= (uint16_t)(TIM_OCPreload << 8);
 7643              		.loc 1 1544 0 discriminator 4
 7644 0094 7B88     		ldrh	r3, [r7, #2]	@ movhi
 7645 0096 4FEA0323 		lsl	r3, r3, #8
 7646 009a 9AB2     		uxth	r2, r3
 7647 009c FB89     		ldrh	r3, [r7, #14]	@ movhi
 7648 009e 1343     		orrs	r3, r3, r2
 7649 00a0 FB81     		strh	r3, [r7, #14]	@ movhi
1545:../libs/StdPeripheralDriver/src/stm32f10x_tim.c ****   /* Write to TIMx CCMR1 register */
1546:../libs/StdPeripheralDriver/src/stm32f10x_tim.c ****   TIMx->CCMR1 = tmpccmr1;
 7650              		.loc 1 1546 0 discriminator 4
 7651 00a2 7B68     		ldr	r3, [r7, #4]
 7652 00a4 FA89     		ldrh	r2, [r7, #14]	@ movhi
 7653 00a6 1A83     		strh	r2, [r3, #24]	@ movhi
1547:../libs/StdPeripheralDriver/src/stm32f10x_tim.c **** }
 7654              		.loc 1 1547 0 discriminator 4
 7655 00a8 07F11007 		add	r7, r7, #16
 7656 00ac BD46     		mov	sp, r7
 7657 00ae 80BD     		pop	{r7, pc}
 7658              	.L497:
 7659              		.align	2
 7660              	.L496:
 7661 00b0 002C0140 		.word	1073818624
 7662 00b4 00040040 		.word	1073742848
 7663 00b8 00080040 		.word	1073743872
 7664 00bc 000C0040 		.word	1073744896
 7665 00c0 00340140 		.word	1073820672
 7666 00c4 004C0140 		.word	1073826816
 7667 00c8 00180040 		.word	1073747968
 7668 00cc 00400140 		.word	1073823744
 7669              		.cfi_endproc
 7670              	.LFE67:
 7672              		.section	.text.TIM_OC3PreloadConfig,"ax",%progbits
 7673              		.align	2
 7674              		.global	TIM_OC3PreloadConfig
 7675              		.thumb
 7676              		.thumb_func
 7678              	TIM_OC3PreloadConfig:
 7679              	.LFB68:
1548:../libs/StdPeripheralDriver/src/stm32f10x_tim.c **** 
1549:../libs/StdPeripheralDriver/src/stm32f10x_tim.c **** /**
1550:../libs/StdPeripheralDriver/src/stm32f10x_tim.c ****   * @brief  Enables or disables the TIMx peripheral Preload register on CCR3.
1551:../libs/StdPeripheralDriver/src/stm32f10x_tim.c ****   * @param  TIMx: where x can be  1, 2, 3, 4, 5 or 8 to select the TIM peripheral.
1552:../libs/StdPeripheralDriver/src/stm32f10x_tim.c ****   * @param  TIM_OCPreload: new state of the TIMx peripheral Preload register
1553:../libs/StdPeripheralDriver/src/stm32f10x_tim.c ****   *   This parameter can be one of the following values:
1554:../libs/StdPeripheralDriver/src/stm32f10x_tim.c ****   *     @arg TIM_OCPreload_Enable
1555:../libs/StdPeripheralDriver/src/stm32f10x_tim.c ****   *     @arg TIM_OCPreload_Disable
1556:../libs/StdPeripheralDriver/src/stm32f10x_tim.c ****   * @retval None
1557:../libs/StdPeripheralDriver/src/stm32f10x_tim.c ****   */
1558:../libs/StdPeripheralDriver/src/stm32f10x_tim.c **** void TIM_OC3PreloadConfig(TIM_TypeDef* TIMx, uint16_t TIM_OCPreload)
1559:../libs/StdPeripheralDriver/src/stm32f10x_tim.c **** {
 7680              		.loc 1 1559 0
 7681              		.cfi_startproc
 7682              		@ args = 0, pretend = 0, frame = 16
 7683              		@ frame_needed = 1, uses_anonymous_args = 0
 7684 0000 80B5     		push	{r7, lr}
 7685              	.LCFI117:
 7686              		.cfi_def_cfa_offset 8
 7687              		.cfi_offset 7, -8
 7688              		.cfi_offset 14, -4
 7689 0002 84B0     		sub	sp, sp, #16
 7690              	.LCFI118:
 7691              		.cfi_def_cfa_offset 24
 7692 0004 00AF     		add	r7, sp, #0
 7693              	.LCFI119:
 7694              		.cfi_def_cfa_register 7
 7695 0006 7860     		str	r0, [r7, #4]
 7696 0008 0B46     		mov	r3, r1
 7697 000a 7B80     		strh	r3, [r7, #2]	@ movhi
1560:../libs/StdPeripheralDriver/src/stm32f10x_tim.c ****   uint16_t tmpccmr2 = 0;
 7698              		.loc 1 1560 0
 7699 000c 4FF00003 		mov	r3, #0
 7700 0010 FB81     		strh	r3, [r7, #14]	@ movhi
1561:../libs/StdPeripheralDriver/src/stm32f10x_tim.c ****   /* Check the parameters */
1562:../libs/StdPeripheralDriver/src/stm32f10x_tim.c ****   assert_param(IS_TIM_LIST3_PERIPH(TIMx));
 7701              		.loc 1 1562 0
 7702 0012 7A68     		ldr	r2, [r7, #4]
 7703 0014 1F4B     		ldr	r3, .L505
 7704 0016 9A42     		cmp	r2, r3
 7705 0018 13D0     		beq	.L499
 7706              		.loc 1 1562 0 is_stmt 0 discriminator 2
 7707 001a 7B68     		ldr	r3, [r7, #4]
 7708 001c B3F1804F 		cmp	r3, #1073741824
 7709 0020 0FD0     		beq	.L499
 7710              		.loc 1 1562 0 discriminator 1
 7711 0022 7A68     		ldr	r2, [r7, #4]
 7712 0024 1C4B     		ldr	r3, .L505+4
 7713 0026 9A42     		cmp	r2, r3
 7714 0028 0BD0     		beq	.L499
 7715              		.loc 1 1562 0 discriminator 2
 7716 002a 7A68     		ldr	r2, [r7, #4]
 7717 002c 1B4B     		ldr	r3, .L505+8
 7718 002e 9A42     		cmp	r2, r3
 7719 0030 07D0     		beq	.L499
 7720              		.loc 1 1562 0 discriminator 3
 7721 0032 7A68     		ldr	r2, [r7, #4]
 7722 0034 1A4B     		ldr	r3, .L505+12
 7723 0036 9A42     		cmp	r2, r3
 7724 0038 03D0     		beq	.L499
 7725              		.loc 1 1562 0 discriminator 4
 7726 003a 7A68     		ldr	r2, [r7, #4]
 7727 003c 194B     		ldr	r3, .L505+16
 7728 003e 9A42     		cmp	r2, r3
 7729 0040 02D1     		bne	.L500
 7730              	.L499:
 7731              		.loc 1 1562 0 discriminator 1
 7732 0042 4FF00103 		mov	r3, #1
 7733 0046 01E0     		b	.L501
 7734              	.L500:
 7735              		.loc 1 1562 0 discriminator 3
 7736 0048 4FF00003 		mov	r3, #0
 7737              	.L501:
 7738              		.loc 1 1562 0 discriminator 4
 7739 004c 1846     		mov	r0, r3
 7740 004e FFF7FEFF 		bl	assert_param
1563:../libs/StdPeripheralDriver/src/stm32f10x_tim.c ****   assert_param(IS_TIM_OCPRELOAD_STATE(TIM_OCPreload));
 7741              		.loc 1 1563 0 is_stmt 1 discriminator 4
 7742 0052 7B88     		ldrh	r3, [r7, #2]
 7743 0054 082B     		cmp	r3, #8
 7744 0056 02D0     		beq	.L502
 7745              		.loc 1 1563 0 is_stmt 0 discriminator 2
 7746 0058 7B88     		ldrh	r3, [r7, #2]
 7747 005a 002B     		cmp	r3, #0
 7748 005c 02D1     		bne	.L503
 7749              	.L502:
 7750              		.loc 1 1563 0 discriminator 1
 7751 005e 4FF00103 		mov	r3, #1
 7752 0062 01E0     		b	.L504
 7753              	.L503:
 7754              		.loc 1 1563 0 discriminator 3
 7755 0064 4FF00003 		mov	r3, #0
 7756              	.L504:
 7757              		.loc 1 1563 0 discriminator 4
 7758 0068 1846     		mov	r0, r3
 7759 006a FFF7FEFF 		bl	assert_param
1564:../libs/StdPeripheralDriver/src/stm32f10x_tim.c ****   tmpccmr2 = TIMx->CCMR2;
 7760              		.loc 1 1564 0 is_stmt 1 discriminator 4
 7761 006e 7B68     		ldr	r3, [r7, #4]
 7762 0070 9B8B     		ldrh	r3, [r3, #28]	@ movhi
 7763 0072 FB81     		strh	r3, [r7, #14]	@ movhi
1565:../libs/StdPeripheralDriver/src/stm32f10x_tim.c ****   /* Reset the OC3PE Bit */
1566:../libs/StdPeripheralDriver/src/stm32f10x_tim.c ****   tmpccmr2 &= (uint16_t)~((uint16_t)TIM_CCMR2_OC3PE);
 7764              		.loc 1 1566 0 discriminator 4
 7765 0074 FB89     		ldrh	r3, [r7, #14]	@ movhi
 7766 0076 23F00803 		bic	r3, r3, #8
 7767 007a FB81     		strh	r3, [r7, #14]	@ movhi
1567:../libs/StdPeripheralDriver/src/stm32f10x_tim.c ****   /* Enable or Disable the Output Compare Preload feature */
1568:../libs/StdPeripheralDriver/src/stm32f10x_tim.c ****   tmpccmr2 |= TIM_OCPreload;
 7768              		.loc 1 1568 0 discriminator 4
 7769 007c FA89     		ldrh	r2, [r7, #14]	@ movhi
 7770 007e 7B88     		ldrh	r3, [r7, #2]	@ movhi
 7771 0080 1343     		orrs	r3, r3, r2
 7772 0082 FB81     		strh	r3, [r7, #14]	@ movhi
1569:../libs/StdPeripheralDriver/src/stm32f10x_tim.c ****   /* Write to TIMx CCMR2 register */
1570:../libs/StdPeripheralDriver/src/stm32f10x_tim.c ****   TIMx->CCMR2 = tmpccmr2;
 7773              		.loc 1 1570 0 discriminator 4
 7774 0084 7B68     		ldr	r3, [r7, #4]
 7775 0086 FA89     		ldrh	r2, [r7, #14]	@ movhi
 7776 0088 9A83     		strh	r2, [r3, #28]	@ movhi
1571:../libs/StdPeripheralDriver/src/stm32f10x_tim.c **** }
 7777              		.loc 1 1571 0 discriminator 4
 7778 008a 07F11007 		add	r7, r7, #16
 7779 008e BD46     		mov	sp, r7
 7780 0090 80BD     		pop	{r7, pc}
 7781              	.L506:
 7782 0092 00BF     		.align	2
 7783              	.L505:
 7784 0094 002C0140 		.word	1073818624
 7785 0098 00040040 		.word	1073742848
 7786 009c 00080040 		.word	1073743872
 7787 00a0 000C0040 		.word	1073744896
 7788 00a4 00340140 		.word	1073820672
 7789              		.cfi_endproc
 7790              	.LFE68:
 7792              		.section	.text.TIM_OC4PreloadConfig,"ax",%progbits
 7793              		.align	2
 7794              		.global	TIM_OC4PreloadConfig
 7795              		.thumb
 7796              		.thumb_func
 7798              	TIM_OC4PreloadConfig:
 7799              	.LFB69:
1572:../libs/StdPeripheralDriver/src/stm32f10x_tim.c **** 
1573:../libs/StdPeripheralDriver/src/stm32f10x_tim.c **** /**
1574:../libs/StdPeripheralDriver/src/stm32f10x_tim.c ****   * @brief  Enables or disables the TIMx peripheral Preload register on CCR4.
1575:../libs/StdPeripheralDriver/src/stm32f10x_tim.c ****   * @param  TIMx: where x can be  1, 2, 3, 4, 5 or 8 to select the TIM peripheral.
1576:../libs/StdPeripheralDriver/src/stm32f10x_tim.c ****   * @param  TIM_OCPreload: new state of the TIMx peripheral Preload register
1577:../libs/StdPeripheralDriver/src/stm32f10x_tim.c ****   *   This parameter can be one of the following values:
1578:../libs/StdPeripheralDriver/src/stm32f10x_tim.c ****   *     @arg TIM_OCPreload_Enable
1579:../libs/StdPeripheralDriver/src/stm32f10x_tim.c ****   *     @arg TIM_OCPreload_Disable
1580:../libs/StdPeripheralDriver/src/stm32f10x_tim.c ****   * @retval None
1581:../libs/StdPeripheralDriver/src/stm32f10x_tim.c ****   */
1582:../libs/StdPeripheralDriver/src/stm32f10x_tim.c **** void TIM_OC4PreloadConfig(TIM_TypeDef* TIMx, uint16_t TIM_OCPreload)
1583:../libs/StdPeripheralDriver/src/stm32f10x_tim.c **** {
 7800              		.loc 1 1583 0
 7801              		.cfi_startproc
 7802              		@ args = 0, pretend = 0, frame = 16
 7803              		@ frame_needed = 1, uses_anonymous_args = 0
 7804 0000 80B5     		push	{r7, lr}
 7805              	.LCFI120:
 7806              		.cfi_def_cfa_offset 8
 7807              		.cfi_offset 7, -8
 7808              		.cfi_offset 14, -4
 7809 0002 84B0     		sub	sp, sp, #16
 7810              	.LCFI121:
 7811              		.cfi_def_cfa_offset 24
 7812 0004 00AF     		add	r7, sp, #0
 7813              	.LCFI122:
 7814              		.cfi_def_cfa_register 7
 7815 0006 7860     		str	r0, [r7, #4]
 7816 0008 0B46     		mov	r3, r1
 7817 000a 7B80     		strh	r3, [r7, #2]	@ movhi
1584:../libs/StdPeripheralDriver/src/stm32f10x_tim.c ****   uint16_t tmpccmr2 = 0;
 7818              		.loc 1 1584 0
 7819 000c 4FF00003 		mov	r3, #0
 7820 0010 FB81     		strh	r3, [r7, #14]	@ movhi
1585:../libs/StdPeripheralDriver/src/stm32f10x_tim.c ****   /* Check the parameters */
1586:../libs/StdPeripheralDriver/src/stm32f10x_tim.c ****   assert_param(IS_TIM_LIST3_PERIPH(TIMx));
 7821              		.loc 1 1586 0
 7822 0012 7A68     		ldr	r2, [r7, #4]
 7823 0014 204B     		ldr	r3, .L514
 7824 0016 9A42     		cmp	r2, r3
 7825 0018 13D0     		beq	.L508
 7826              		.loc 1 1586 0 is_stmt 0 discriminator 2
 7827 001a 7B68     		ldr	r3, [r7, #4]
 7828 001c B3F1804F 		cmp	r3, #1073741824
 7829 0020 0FD0     		beq	.L508
 7830              		.loc 1 1586 0 discriminator 1
 7831 0022 7A68     		ldr	r2, [r7, #4]
 7832 0024 1D4B     		ldr	r3, .L514+4
 7833 0026 9A42     		cmp	r2, r3
 7834 0028 0BD0     		beq	.L508
 7835              		.loc 1 1586 0 discriminator 2
 7836 002a 7A68     		ldr	r2, [r7, #4]
 7837 002c 1C4B     		ldr	r3, .L514+8
 7838 002e 9A42     		cmp	r2, r3
 7839 0030 07D0     		beq	.L508
 7840              		.loc 1 1586 0 discriminator 3
 7841 0032 7A68     		ldr	r2, [r7, #4]
 7842 0034 1B4B     		ldr	r3, .L514+12
 7843 0036 9A42     		cmp	r2, r3
 7844 0038 03D0     		beq	.L508
 7845              		.loc 1 1586 0 discriminator 4
 7846 003a 7A68     		ldr	r2, [r7, #4]
 7847 003c 1A4B     		ldr	r3, .L514+16
 7848 003e 9A42     		cmp	r2, r3
 7849 0040 02D1     		bne	.L509
 7850              	.L508:
 7851              		.loc 1 1586 0 discriminator 1
 7852 0042 4FF00103 		mov	r3, #1
 7853 0046 01E0     		b	.L510
 7854              	.L509:
 7855              		.loc 1 1586 0 discriminator 3
 7856 0048 4FF00003 		mov	r3, #0
 7857              	.L510:
 7858              		.loc 1 1586 0 discriminator 4
 7859 004c 1846     		mov	r0, r3
 7860 004e FFF7FEFF 		bl	assert_param
1587:../libs/StdPeripheralDriver/src/stm32f10x_tim.c ****   assert_param(IS_TIM_OCPRELOAD_STATE(TIM_OCPreload));
 7861              		.loc 1 1587 0 is_stmt 1 discriminator 4
 7862 0052 7B88     		ldrh	r3, [r7, #2]
 7863 0054 082B     		cmp	r3, #8
 7864 0056 02D0     		beq	.L511
 7865              		.loc 1 1587 0 is_stmt 0 discriminator 2
 7866 0058 7B88     		ldrh	r3, [r7, #2]
 7867 005a 002B     		cmp	r3, #0
 7868 005c 02D1     		bne	.L512
 7869              	.L511:
 7870              		.loc 1 1587 0 discriminator 1
 7871 005e 4FF00103 		mov	r3, #1
 7872 0062 01E0     		b	.L513
 7873              	.L512:
 7874              		.loc 1 1587 0 discriminator 3
 7875 0064 4FF00003 		mov	r3, #0
 7876              	.L513:
 7877              		.loc 1 1587 0 discriminator 4
 7878 0068 1846     		mov	r0, r3
 7879 006a FFF7FEFF 		bl	assert_param
1588:../libs/StdPeripheralDriver/src/stm32f10x_tim.c ****   tmpccmr2 = TIMx->CCMR2;
 7880              		.loc 1 1588 0 is_stmt 1 discriminator 4
 7881 006e 7B68     		ldr	r3, [r7, #4]
 7882 0070 9B8B     		ldrh	r3, [r3, #28]	@ movhi
 7883 0072 FB81     		strh	r3, [r7, #14]	@ movhi
1589:../libs/StdPeripheralDriver/src/stm32f10x_tim.c ****   /* Reset the OC4PE Bit */
1590:../libs/StdPeripheralDriver/src/stm32f10x_tim.c ****   tmpccmr2 &= (uint16_t)~((uint16_t)TIM_CCMR2_OC4PE);
 7884              		.loc 1 1590 0 discriminator 4
 7885 0074 FB89     		ldrh	r3, [r7, #14]	@ movhi
 7886 0076 23F40063 		bic	r3, r3, #2048
 7887 007a FB81     		strh	r3, [r7, #14]	@ movhi
1591:../libs/StdPeripheralDriver/src/stm32f10x_tim.c ****   /* Enable or Disable the Output Compare Preload feature */
1592:../libs/StdPeripheralDriver/src/stm32f10x_tim.c ****   tmpccmr2 |= (uint16_t)(TIM_OCPreload << 8);
 7888              		.loc 1 1592 0 discriminator 4
 7889 007c 7B88     		ldrh	r3, [r7, #2]	@ movhi
 7890 007e 4FEA0323 		lsl	r3, r3, #8
 7891 0082 9AB2     		uxth	r2, r3
 7892 0084 FB89     		ldrh	r3, [r7, #14]	@ movhi
 7893 0086 1343     		orrs	r3, r3, r2
 7894 0088 FB81     		strh	r3, [r7, #14]	@ movhi
1593:../libs/StdPeripheralDriver/src/stm32f10x_tim.c ****   /* Write to TIMx CCMR2 register */
1594:../libs/StdPeripheralDriver/src/stm32f10x_tim.c ****   TIMx->CCMR2 = tmpccmr2;
 7895              		.loc 1 1594 0 discriminator 4
 7896 008a 7B68     		ldr	r3, [r7, #4]
 7897 008c FA89     		ldrh	r2, [r7, #14]	@ movhi
 7898 008e 9A83     		strh	r2, [r3, #28]	@ movhi
1595:../libs/StdPeripheralDriver/src/stm32f10x_tim.c **** }
 7899              		.loc 1 1595 0 discriminator 4
 7900 0090 07F11007 		add	r7, r7, #16
 7901 0094 BD46     		mov	sp, r7
 7902 0096 80BD     		pop	{r7, pc}
 7903              	.L515:
 7904              		.align	2
 7905              	.L514:
 7906 0098 002C0140 		.word	1073818624
 7907 009c 00040040 		.word	1073742848
 7908 00a0 00080040 		.word	1073743872
 7909 00a4 000C0040 		.word	1073744896
 7910 00a8 00340140 		.word	1073820672
 7911              		.cfi_endproc
 7912              	.LFE69:
 7914              		.section	.text.TIM_OC1FastConfig,"ax",%progbits
 7915              		.align	2
 7916              		.global	TIM_OC1FastConfig
 7917              		.thumb
 7918              		.thumb_func
 7920              	TIM_OC1FastConfig:
 7921              	.LFB70:
1596:../libs/StdPeripheralDriver/src/stm32f10x_tim.c **** 
1597:../libs/StdPeripheralDriver/src/stm32f10x_tim.c **** /**
1598:../libs/StdPeripheralDriver/src/stm32f10x_tim.c ****   * @brief  Configures the TIMx Output Compare 1 Fast feature.
1599:../libs/StdPeripheralDriver/src/stm32f10x_tim.c ****   * @param  TIMx: where x can be  1 to 17 except 6 and 7 to select the TIM peripheral.
1600:../libs/StdPeripheralDriver/src/stm32f10x_tim.c ****   * @param  TIM_OCFast: new state of the Output Compare Fast Enable Bit.
1601:../libs/StdPeripheralDriver/src/stm32f10x_tim.c ****   *   This parameter can be one of the following values:
1602:../libs/StdPeripheralDriver/src/stm32f10x_tim.c ****   *     @arg TIM_OCFast_Enable: TIM output compare fast enable
1603:../libs/StdPeripheralDriver/src/stm32f10x_tim.c ****   *     @arg TIM_OCFast_Disable: TIM output compare fast disable
1604:../libs/StdPeripheralDriver/src/stm32f10x_tim.c ****   * @retval None
1605:../libs/StdPeripheralDriver/src/stm32f10x_tim.c ****   */
1606:../libs/StdPeripheralDriver/src/stm32f10x_tim.c **** void TIM_OC1FastConfig(TIM_TypeDef* TIMx, uint16_t TIM_OCFast)
1607:../libs/StdPeripheralDriver/src/stm32f10x_tim.c **** {
 7922              		.loc 1 1607 0
 7923              		.cfi_startproc
 7924              		@ args = 0, pretend = 0, frame = 16
 7925              		@ frame_needed = 1, uses_anonymous_args = 0
 7926 0000 80B5     		push	{r7, lr}
 7927              	.LCFI123:
 7928              		.cfi_def_cfa_offset 8
 7929              		.cfi_offset 7, -8
 7930              		.cfi_offset 14, -4
 7931 0002 84B0     		sub	sp, sp, #16
 7932              	.LCFI124:
 7933              		.cfi_def_cfa_offset 24
 7934 0004 00AF     		add	r7, sp, #0
 7935              	.LCFI125:
 7936              		.cfi_def_cfa_register 7
 7937 0006 7860     		str	r0, [r7, #4]
 7938 0008 0B46     		mov	r3, r1
 7939 000a 7B80     		strh	r3, [r7, #2]	@ movhi
1608:../libs/StdPeripheralDriver/src/stm32f10x_tim.c ****   uint16_t tmpccmr1 = 0;
 7940              		.loc 1 1608 0
 7941 000c 4FF00003 		mov	r3, #0
 7942 0010 FB81     		strh	r3, [r7, #14]	@ movhi
1609:../libs/StdPeripheralDriver/src/stm32f10x_tim.c ****   /* Check the parameters */
1610:../libs/StdPeripheralDriver/src/stm32f10x_tim.c ****   assert_param(IS_TIM_LIST8_PERIPH(TIMx));
 7943              		.loc 1 1610 0
 7944 0012 7A68     		ldr	r2, [r7, #4]
 7945 0014 314B     		ldr	r3, .L523
 7946 0016 9A42     		cmp	r2, r3
 7947 0018 37D0     		beq	.L517
 7948              		.loc 1 1610 0 is_stmt 0 discriminator 2
 7949 001a 7B68     		ldr	r3, [r7, #4]
 7950 001c B3F1804F 		cmp	r3, #1073741824
 7951 0020 33D0     		beq	.L517
 7952              		.loc 1 1610 0 discriminator 1
 7953 0022 7A68     		ldr	r2, [r7, #4]
 7954 0024 2E4B     		ldr	r3, .L523+4
 7955 0026 9A42     		cmp	r2, r3
 7956 0028 2FD0     		beq	.L517
 7957              		.loc 1 1610 0 discriminator 2
 7958 002a 7A68     		ldr	r2, [r7, #4]
 7959 002c 2D4B     		ldr	r3, .L523+8
 7960 002e 9A42     		cmp	r2, r3
 7961 0030 2BD0     		beq	.L517
 7962              		.loc 1 1610 0 discriminator 3
 7963 0032 7A68     		ldr	r2, [r7, #4]
 7964 0034 2C4B     		ldr	r3, .L523+12
 7965 0036 9A42     		cmp	r2, r3
 7966 0038 27D0     		beq	.L517
 7967              		.loc 1 1610 0 discriminator 4
 7968 003a 7A68     		ldr	r2, [r7, #4]
 7969 003c 2B4B     		ldr	r3, .L523+16
 7970 003e 9A42     		cmp	r2, r3
 7971 0040 23D0     		beq	.L517
 7972              		.loc 1 1610 0 discriminator 5
 7973 0042 7A68     		ldr	r2, [r7, #4]
 7974 0044 2A4B     		ldr	r3, .L523+20
 7975 0046 9A42     		cmp	r2, r3
 7976 0048 1FD0     		beq	.L517
 7977              		.loc 1 1610 0 discriminator 6
 7978 004a 7A68     		ldr	r2, [r7, #4]
 7979 004c 294B     		ldr	r3, .L523+24
 7980 004e 9A42     		cmp	r2, r3
 7981 0050 1BD0     		beq	.L517
 7982              		.loc 1 1610 0 discriminator 7
 7983 0052 7A68     		ldr	r2, [r7, #4]
 7984 0054 284B     		ldr	r3, .L523+28
 7985 0056 9A42     		cmp	r2, r3
 7986 0058 17D0     		beq	.L517
 7987              		.loc 1 1610 0 discriminator 8
 7988 005a 7A68     		ldr	r2, [r7, #4]
 7989 005c 274B     		ldr	r3, .L523+32
 7990 005e 9A42     		cmp	r2, r3
 7991 0060 13D0     		beq	.L517
 7992              		.loc 1 1610 0 discriminator 9
 7993 0062 7A68     		ldr	r2, [r7, #4]
 7994 0064 264B     		ldr	r3, .L523+36
 7995 0066 9A42     		cmp	r2, r3
 7996 0068 0FD0     		beq	.L517
 7997              		.loc 1 1610 0 discriminator 10
 7998 006a 7A68     		ldr	r2, [r7, #4]
 7999 006c 254B     		ldr	r3, .L523+40
 8000 006e 9A42     		cmp	r2, r3
 8001 0070 0BD0     		beq	.L517
 8002              		.loc 1 1610 0 discriminator 11
 8003 0072 7A68     		ldr	r2, [r7, #4]
 8004 0074 244B     		ldr	r3, .L523+44
 8005 0076 9A42     		cmp	r2, r3
 8006 0078 07D0     		beq	.L517
 8007              		.loc 1 1610 0 discriminator 12
 8008 007a 7A68     		ldr	r2, [r7, #4]
 8009 007c 234B     		ldr	r3, .L523+48
 8010 007e 9A42     		cmp	r2, r3
 8011 0080 03D0     		beq	.L517
 8012              		.loc 1 1610 0 discriminator 13
 8013 0082 7A68     		ldr	r2, [r7, #4]
 8014 0084 224B     		ldr	r3, .L523+52
 8015 0086 9A42     		cmp	r2, r3
 8016 0088 02D1     		bne	.L518
 8017              	.L517:
 8018              		.loc 1 1610 0 discriminator 1
 8019 008a 4FF00103 		mov	r3, #1
 8020 008e 01E0     		b	.L519
 8021              	.L518:
 8022              		.loc 1 1610 0 discriminator 3
 8023 0090 4FF00003 		mov	r3, #0
 8024              	.L519:
 8025              		.loc 1 1610 0 discriminator 4
 8026 0094 1846     		mov	r0, r3
 8027 0096 FFF7FEFF 		bl	assert_param
1611:../libs/StdPeripheralDriver/src/stm32f10x_tim.c ****   assert_param(IS_TIM_OCFAST_STATE(TIM_OCFast));
 8028              		.loc 1 1611 0 is_stmt 1 discriminator 4
 8029 009a 7B88     		ldrh	r3, [r7, #2]
 8030 009c 042B     		cmp	r3, #4
 8031 009e 02D0     		beq	.L520
 8032              		.loc 1 1611 0 is_stmt 0 discriminator 2
 8033 00a0 7B88     		ldrh	r3, [r7, #2]
 8034 00a2 002B     		cmp	r3, #0
 8035 00a4 02D1     		bne	.L521
 8036              	.L520:
 8037              		.loc 1 1611 0 discriminator 1
 8038 00a6 4FF00103 		mov	r3, #1
 8039 00aa 01E0     		b	.L522
 8040              	.L521:
 8041              		.loc 1 1611 0 discriminator 3
 8042 00ac 4FF00003 		mov	r3, #0
 8043              	.L522:
 8044              		.loc 1 1611 0 discriminator 4
 8045 00b0 1846     		mov	r0, r3
 8046 00b2 FFF7FEFF 		bl	assert_param
1612:../libs/StdPeripheralDriver/src/stm32f10x_tim.c ****   /* Get the TIMx CCMR1 register value */
1613:../libs/StdPeripheralDriver/src/stm32f10x_tim.c ****   tmpccmr1 = TIMx->CCMR1;
 8047              		.loc 1 1613 0 is_stmt 1 discriminator 4
 8048 00b6 7B68     		ldr	r3, [r7, #4]
 8049 00b8 1B8B     		ldrh	r3, [r3, #24]	@ movhi
 8050 00ba FB81     		strh	r3, [r7, #14]	@ movhi
1614:../libs/StdPeripheralDriver/src/stm32f10x_tim.c ****   /* Reset the OC1FE Bit */
1615:../libs/StdPeripheralDriver/src/stm32f10x_tim.c ****   tmpccmr1 &= (uint16_t)~((uint16_t)TIM_CCMR1_OC1FE);
 8051              		.loc 1 1615 0 discriminator 4
 8052 00bc FB89     		ldrh	r3, [r7, #14]	@ movhi
 8053 00be 23F00403 		bic	r3, r3, #4
 8054 00c2 FB81     		strh	r3, [r7, #14]	@ movhi
1616:../libs/StdPeripheralDriver/src/stm32f10x_tim.c ****   /* Enable or Disable the Output Compare Fast Bit */
1617:../libs/StdPeripheralDriver/src/stm32f10x_tim.c ****   tmpccmr1 |= TIM_OCFast;
 8055              		.loc 1 1617 0 discriminator 4
 8056 00c4 FA89     		ldrh	r2, [r7, #14]	@ movhi
 8057 00c6 7B88     		ldrh	r3, [r7, #2]	@ movhi
 8058 00c8 1343     		orrs	r3, r3, r2
 8059 00ca FB81     		strh	r3, [r7, #14]	@ movhi
1618:../libs/StdPeripheralDriver/src/stm32f10x_tim.c ****   /* Write to TIMx CCMR1 */
1619:../libs/StdPeripheralDriver/src/stm32f10x_tim.c ****   TIMx->CCMR1 = tmpccmr1;
 8060              		.loc 1 1619 0 discriminator 4
 8061 00cc 7B68     		ldr	r3, [r7, #4]
 8062 00ce FA89     		ldrh	r2, [r7, #14]	@ movhi
 8063 00d0 1A83     		strh	r2, [r3, #24]	@ movhi
1620:../libs/StdPeripheralDriver/src/stm32f10x_tim.c **** }
 8064              		.loc 1 1620 0 discriminator 4
 8065 00d2 07F11007 		add	r7, r7, #16
 8066 00d6 BD46     		mov	sp, r7
 8067 00d8 80BD     		pop	{r7, pc}
 8068              	.L524:
 8069 00da 00BF     		.align	2
 8070              	.L523:
 8071 00dc 002C0140 		.word	1073818624
 8072 00e0 00040040 		.word	1073742848
 8073 00e4 00080040 		.word	1073743872
 8074 00e8 000C0040 		.word	1073744896
 8075 00ec 00340140 		.word	1073820672
 8076 00f0 004C0140 		.word	1073826816
 8077 00f4 00500140 		.word	1073827840
 8078 00f8 00540140 		.word	1073828864
 8079 00fc 00180040 		.word	1073747968
 8080 0100 001C0040 		.word	1073748992
 8081 0104 00200040 		.word	1073750016
 8082 0108 00400140 		.word	1073823744
 8083 010c 00440140 		.word	1073824768
 8084 0110 00480140 		.word	1073825792
 8085              		.cfi_endproc
 8086              	.LFE70:
 8088              		.section	.text.TIM_OC2FastConfig,"ax",%progbits
 8089              		.align	2
 8090              		.global	TIM_OC2FastConfig
 8091              		.thumb
 8092              		.thumb_func
 8094              	TIM_OC2FastConfig:
 8095              	.LFB71:
1621:../libs/StdPeripheralDriver/src/stm32f10x_tim.c **** 
1622:../libs/StdPeripheralDriver/src/stm32f10x_tim.c **** /**
1623:../libs/StdPeripheralDriver/src/stm32f10x_tim.c ****   * @brief  Configures the TIMx Output Compare 2 Fast feature.
1624:../libs/StdPeripheralDriver/src/stm32f10x_tim.c ****   * @param  TIMx: where x can be  1, 2, 3, 4, 5, 8, 9, 12 or 15 to select 
1625:../libs/StdPeripheralDriver/src/stm32f10x_tim.c ****   *         the TIM peripheral.
1626:../libs/StdPeripheralDriver/src/stm32f10x_tim.c ****   * @param  TIM_OCFast: new state of the Output Compare Fast Enable Bit.
1627:../libs/StdPeripheralDriver/src/stm32f10x_tim.c ****   *   This parameter can be one of the following values:
1628:../libs/StdPeripheralDriver/src/stm32f10x_tim.c ****   *     @arg TIM_OCFast_Enable: TIM output compare fast enable
1629:../libs/StdPeripheralDriver/src/stm32f10x_tim.c ****   *     @arg TIM_OCFast_Disable: TIM output compare fast disable
1630:../libs/StdPeripheralDriver/src/stm32f10x_tim.c ****   * @retval None
1631:../libs/StdPeripheralDriver/src/stm32f10x_tim.c ****   */
1632:../libs/StdPeripheralDriver/src/stm32f10x_tim.c **** void TIM_OC2FastConfig(TIM_TypeDef* TIMx, uint16_t TIM_OCFast)
1633:../libs/StdPeripheralDriver/src/stm32f10x_tim.c **** {
 8096              		.loc 1 1633 0
 8097              		.cfi_startproc
 8098              		@ args = 0, pretend = 0, frame = 16
 8099              		@ frame_needed = 1, uses_anonymous_args = 0
 8100 0000 80B5     		push	{r7, lr}
 8101              	.LCFI126:
 8102              		.cfi_def_cfa_offset 8
 8103              		.cfi_offset 7, -8
 8104              		.cfi_offset 14, -4
 8105 0002 84B0     		sub	sp, sp, #16
 8106              	.LCFI127:
 8107              		.cfi_def_cfa_offset 24
 8108 0004 00AF     		add	r7, sp, #0
 8109              	.LCFI128:
 8110              		.cfi_def_cfa_register 7
 8111 0006 7860     		str	r0, [r7, #4]
 8112 0008 0B46     		mov	r3, r1
 8113 000a 7B80     		strh	r3, [r7, #2]	@ movhi
1634:../libs/StdPeripheralDriver/src/stm32f10x_tim.c ****   uint16_t tmpccmr1 = 0;
 8114              		.loc 1 1634 0
 8115 000c 4FF00003 		mov	r3, #0
 8116 0010 FB81     		strh	r3, [r7, #14]	@ movhi
1635:../libs/StdPeripheralDriver/src/stm32f10x_tim.c ****   /* Check the parameters */
1636:../libs/StdPeripheralDriver/src/stm32f10x_tim.c ****   assert_param(IS_TIM_LIST6_PERIPH(TIMx));
 8117              		.loc 1 1636 0
 8118 0012 7A68     		ldr	r2, [r7, #4]
 8119 0014 264B     		ldr	r3, .L532
 8120 0016 9A42     		cmp	r2, r3
 8121 0018 1FD0     		beq	.L526
 8122              		.loc 1 1636 0 is_stmt 0 discriminator 2
 8123 001a 7B68     		ldr	r3, [r7, #4]
 8124 001c B3F1804F 		cmp	r3, #1073741824
 8125 0020 1BD0     		beq	.L526
 8126              		.loc 1 1636 0 discriminator 1
 8127 0022 7A68     		ldr	r2, [r7, #4]
 8128 0024 234B     		ldr	r3, .L532+4
 8129 0026 9A42     		cmp	r2, r3
 8130 0028 17D0     		beq	.L526
 8131              		.loc 1 1636 0 discriminator 2
 8132 002a 7A68     		ldr	r2, [r7, #4]
 8133 002c 224B     		ldr	r3, .L532+8
 8134 002e 9A42     		cmp	r2, r3
 8135 0030 13D0     		beq	.L526
 8136              		.loc 1 1636 0 discriminator 3
 8137 0032 7A68     		ldr	r2, [r7, #4]
 8138 0034 214B     		ldr	r3, .L532+12
 8139 0036 9A42     		cmp	r2, r3
 8140 0038 0FD0     		beq	.L526
 8141              		.loc 1 1636 0 discriminator 4
 8142 003a 7A68     		ldr	r2, [r7, #4]
 8143 003c 204B     		ldr	r3, .L532+16
 8144 003e 9A42     		cmp	r2, r3
 8145 0040 0BD0     		beq	.L526
 8146              		.loc 1 1636 0 discriminator 5
 8147 0042 7A68     		ldr	r2, [r7, #4]
 8148 0044 1F4B     		ldr	r3, .L532+20
 8149 0046 9A42     		cmp	r2, r3
 8150 0048 07D0     		beq	.L526
 8151              		.loc 1 1636 0 discriminator 6
 8152 004a 7A68     		ldr	r2, [r7, #4]
 8153 004c 1E4B     		ldr	r3, .L532+24
 8154 004e 9A42     		cmp	r2, r3
 8155 0050 03D0     		beq	.L526
 8156              		.loc 1 1636 0 discriminator 7
 8157 0052 7A68     		ldr	r2, [r7, #4]
 8158 0054 1D4B     		ldr	r3, .L532+28
 8159 0056 9A42     		cmp	r2, r3
 8160 0058 02D1     		bne	.L527
 8161              	.L526:
 8162              		.loc 1 1636 0 discriminator 1
 8163 005a 4FF00103 		mov	r3, #1
 8164 005e 01E0     		b	.L528
 8165              	.L527:
 8166              		.loc 1 1636 0 discriminator 3
 8167 0060 4FF00003 		mov	r3, #0
 8168              	.L528:
 8169              		.loc 1 1636 0 discriminator 4
 8170 0064 1846     		mov	r0, r3
 8171 0066 FFF7FEFF 		bl	assert_param
1637:../libs/StdPeripheralDriver/src/stm32f10x_tim.c ****   assert_param(IS_TIM_OCFAST_STATE(TIM_OCFast));
 8172              		.loc 1 1637 0 is_stmt 1 discriminator 4
 8173 006a 7B88     		ldrh	r3, [r7, #2]
 8174 006c 042B     		cmp	r3, #4
 8175 006e 02D0     		beq	.L529
 8176              		.loc 1 1637 0 is_stmt 0 discriminator 2
 8177 0070 7B88     		ldrh	r3, [r7, #2]
 8178 0072 002B     		cmp	r3, #0
 8179 0074 02D1     		bne	.L530
 8180              	.L529:
 8181              		.loc 1 1637 0 discriminator 1
 8182 0076 4FF00103 		mov	r3, #1
 8183 007a 01E0     		b	.L531
 8184              	.L530:
 8185              		.loc 1 1637 0 discriminator 3
 8186 007c 4FF00003 		mov	r3, #0
 8187              	.L531:
 8188              		.loc 1 1637 0 discriminator 4
 8189 0080 1846     		mov	r0, r3
 8190 0082 FFF7FEFF 		bl	assert_param
1638:../libs/StdPeripheralDriver/src/stm32f10x_tim.c ****   /* Get the TIMx CCMR1 register value */
1639:../libs/StdPeripheralDriver/src/stm32f10x_tim.c ****   tmpccmr1 = TIMx->CCMR1;
 8191              		.loc 1 1639 0 is_stmt 1 discriminator 4
 8192 0086 7B68     		ldr	r3, [r7, #4]
 8193 0088 1B8B     		ldrh	r3, [r3, #24]	@ movhi
 8194 008a FB81     		strh	r3, [r7, #14]	@ movhi
1640:../libs/StdPeripheralDriver/src/stm32f10x_tim.c ****   /* Reset the OC2FE Bit */
1641:../libs/StdPeripheralDriver/src/stm32f10x_tim.c ****   tmpccmr1 &= (uint16_t)~((uint16_t)TIM_CCMR1_OC2FE);
 8195              		.loc 1 1641 0 discriminator 4
 8196 008c FB89     		ldrh	r3, [r7, #14]	@ movhi
 8197 008e 23F48063 		bic	r3, r3, #1024
 8198 0092 FB81     		strh	r3, [r7, #14]	@ movhi
1642:../libs/StdPeripheralDriver/src/stm32f10x_tim.c ****   /* Enable or Disable the Output Compare Fast Bit */
1643:../libs/StdPeripheralDriver/src/stm32f10x_tim.c ****   tmpccmr1 |= (uint16_t)(TIM_OCFast << 8);
 8199              		.loc 1 1643 0 discriminator 4
 8200 0094 7B88     		ldrh	r3, [r7, #2]	@ movhi
 8201 0096 4FEA0323 		lsl	r3, r3, #8
 8202 009a 9AB2     		uxth	r2, r3
 8203 009c FB89     		ldrh	r3, [r7, #14]	@ movhi
 8204 009e 1343     		orrs	r3, r3, r2
 8205 00a0 FB81     		strh	r3, [r7, #14]	@ movhi
1644:../libs/StdPeripheralDriver/src/stm32f10x_tim.c ****   /* Write to TIMx CCMR1 */
1645:../libs/StdPeripheralDriver/src/stm32f10x_tim.c ****   TIMx->CCMR1 = tmpccmr1;
 8206              		.loc 1 1645 0 discriminator 4
 8207 00a2 7B68     		ldr	r3, [r7, #4]
 8208 00a4 FA89     		ldrh	r2, [r7, #14]	@ movhi
 8209 00a6 1A83     		strh	r2, [r3, #24]	@ movhi
1646:../libs/StdPeripheralDriver/src/stm32f10x_tim.c **** }
 8210              		.loc 1 1646 0 discriminator 4
 8211 00a8 07F11007 		add	r7, r7, #16
 8212 00ac BD46     		mov	sp, r7
 8213 00ae 80BD     		pop	{r7, pc}
 8214              	.L533:
 8215              		.align	2
 8216              	.L532:
 8217 00b0 002C0140 		.word	1073818624
 8218 00b4 00040040 		.word	1073742848
 8219 00b8 00080040 		.word	1073743872
 8220 00bc 000C0040 		.word	1073744896
 8221 00c0 00340140 		.word	1073820672
 8222 00c4 004C0140 		.word	1073826816
 8223 00c8 00180040 		.word	1073747968
 8224 00cc 00400140 		.word	1073823744
 8225              		.cfi_endproc
 8226              	.LFE71:
 8228              		.section	.text.TIM_OC3FastConfig,"ax",%progbits
 8229              		.align	2
 8230              		.global	TIM_OC3FastConfig
 8231              		.thumb
 8232              		.thumb_func
 8234              	TIM_OC3FastConfig:
 8235              	.LFB72:
1647:../libs/StdPeripheralDriver/src/stm32f10x_tim.c **** 
1648:../libs/StdPeripheralDriver/src/stm32f10x_tim.c **** /**
1649:../libs/StdPeripheralDriver/src/stm32f10x_tim.c ****   * @brief  Configures the TIMx Output Compare 3 Fast feature.
1650:../libs/StdPeripheralDriver/src/stm32f10x_tim.c ****   * @param  TIMx: where x can be  1, 2, 3, 4, 5 or 8 to select the TIM peripheral.
1651:../libs/StdPeripheralDriver/src/stm32f10x_tim.c ****   * @param  TIM_OCFast: new state of the Output Compare Fast Enable Bit.
1652:../libs/StdPeripheralDriver/src/stm32f10x_tim.c ****   *   This parameter can be one of the following values:
1653:../libs/StdPeripheralDriver/src/stm32f10x_tim.c ****   *     @arg TIM_OCFast_Enable: TIM output compare fast enable
1654:../libs/StdPeripheralDriver/src/stm32f10x_tim.c ****   *     @arg TIM_OCFast_Disable: TIM output compare fast disable
1655:../libs/StdPeripheralDriver/src/stm32f10x_tim.c ****   * @retval None
1656:../libs/StdPeripheralDriver/src/stm32f10x_tim.c ****   */
1657:../libs/StdPeripheralDriver/src/stm32f10x_tim.c **** void TIM_OC3FastConfig(TIM_TypeDef* TIMx, uint16_t TIM_OCFast)
1658:../libs/StdPeripheralDriver/src/stm32f10x_tim.c **** {
 8236              		.loc 1 1658 0
 8237              		.cfi_startproc
 8238              		@ args = 0, pretend = 0, frame = 16
 8239              		@ frame_needed = 1, uses_anonymous_args = 0
 8240 0000 80B5     		push	{r7, lr}
 8241              	.LCFI129:
 8242              		.cfi_def_cfa_offset 8
 8243              		.cfi_offset 7, -8
 8244              		.cfi_offset 14, -4
 8245 0002 84B0     		sub	sp, sp, #16
 8246              	.LCFI130:
 8247              		.cfi_def_cfa_offset 24
 8248 0004 00AF     		add	r7, sp, #0
 8249              	.LCFI131:
 8250              		.cfi_def_cfa_register 7
 8251 0006 7860     		str	r0, [r7, #4]
 8252 0008 0B46     		mov	r3, r1
 8253 000a 7B80     		strh	r3, [r7, #2]	@ movhi
1659:../libs/StdPeripheralDriver/src/stm32f10x_tim.c ****   uint16_t tmpccmr2 = 0;
 8254              		.loc 1 1659 0
 8255 000c 4FF00003 		mov	r3, #0
 8256 0010 FB81     		strh	r3, [r7, #14]	@ movhi
1660:../libs/StdPeripheralDriver/src/stm32f10x_tim.c ****   /* Check the parameters */
1661:../libs/StdPeripheralDriver/src/stm32f10x_tim.c ****   assert_param(IS_TIM_LIST3_PERIPH(TIMx));
 8257              		.loc 1 1661 0
 8258 0012 7A68     		ldr	r2, [r7, #4]
 8259 0014 1F4B     		ldr	r3, .L541
 8260 0016 9A42     		cmp	r2, r3
 8261 0018 13D0     		beq	.L535
 8262              		.loc 1 1661 0 is_stmt 0 discriminator 2
 8263 001a 7B68     		ldr	r3, [r7, #4]
 8264 001c B3F1804F 		cmp	r3, #1073741824
 8265 0020 0FD0     		beq	.L535
 8266              		.loc 1 1661 0 discriminator 1
 8267 0022 7A68     		ldr	r2, [r7, #4]
 8268 0024 1C4B     		ldr	r3, .L541+4
 8269 0026 9A42     		cmp	r2, r3
 8270 0028 0BD0     		beq	.L535
 8271              		.loc 1 1661 0 discriminator 2
 8272 002a 7A68     		ldr	r2, [r7, #4]
 8273 002c 1B4B     		ldr	r3, .L541+8
 8274 002e 9A42     		cmp	r2, r3
 8275 0030 07D0     		beq	.L535
 8276              		.loc 1 1661 0 discriminator 3
 8277 0032 7A68     		ldr	r2, [r7, #4]
 8278 0034 1A4B     		ldr	r3, .L541+12
 8279 0036 9A42     		cmp	r2, r3
 8280 0038 03D0     		beq	.L535
 8281              		.loc 1 1661 0 discriminator 4
 8282 003a 7A68     		ldr	r2, [r7, #4]
 8283 003c 194B     		ldr	r3, .L541+16
 8284 003e 9A42     		cmp	r2, r3
 8285 0040 02D1     		bne	.L536
 8286              	.L535:
 8287              		.loc 1 1661 0 discriminator 1
 8288 0042 4FF00103 		mov	r3, #1
 8289 0046 01E0     		b	.L537
 8290              	.L536:
 8291              		.loc 1 1661 0 discriminator 3
 8292 0048 4FF00003 		mov	r3, #0
 8293              	.L537:
 8294              		.loc 1 1661 0 discriminator 4
 8295 004c 1846     		mov	r0, r3
 8296 004e FFF7FEFF 		bl	assert_param
1662:../libs/StdPeripheralDriver/src/stm32f10x_tim.c ****   assert_param(IS_TIM_OCFAST_STATE(TIM_OCFast));
 8297              		.loc 1 1662 0 is_stmt 1 discriminator 4
 8298 0052 7B88     		ldrh	r3, [r7, #2]
 8299 0054 042B     		cmp	r3, #4
 8300 0056 02D0     		beq	.L538
 8301              		.loc 1 1662 0 is_stmt 0 discriminator 2
 8302 0058 7B88     		ldrh	r3, [r7, #2]
 8303 005a 002B     		cmp	r3, #0
 8304 005c 02D1     		bne	.L539
 8305              	.L538:
 8306              		.loc 1 1662 0 discriminator 1
 8307 005e 4FF00103 		mov	r3, #1
 8308 0062 01E0     		b	.L540
 8309              	.L539:
 8310              		.loc 1 1662 0 discriminator 3
 8311 0064 4FF00003 		mov	r3, #0
 8312              	.L540:
 8313              		.loc 1 1662 0 discriminator 4
 8314 0068 1846     		mov	r0, r3
 8315 006a FFF7FEFF 		bl	assert_param
1663:../libs/StdPeripheralDriver/src/stm32f10x_tim.c ****   /* Get the TIMx CCMR2 register value */
1664:../libs/StdPeripheralDriver/src/stm32f10x_tim.c ****   tmpccmr2 = TIMx->CCMR2;
 8316              		.loc 1 1664 0 is_stmt 1 discriminator 4
 8317 006e 7B68     		ldr	r3, [r7, #4]
 8318 0070 9B8B     		ldrh	r3, [r3, #28]	@ movhi
 8319 0072 FB81     		strh	r3, [r7, #14]	@ movhi
1665:../libs/StdPeripheralDriver/src/stm32f10x_tim.c ****   /* Reset the OC3FE Bit */
1666:../libs/StdPeripheralDriver/src/stm32f10x_tim.c ****   tmpccmr2 &= (uint16_t)~((uint16_t)TIM_CCMR2_OC3FE);
 8320              		.loc 1 1666 0 discriminator 4
 8321 0074 FB89     		ldrh	r3, [r7, #14]	@ movhi
 8322 0076 23F00403 		bic	r3, r3, #4
 8323 007a FB81     		strh	r3, [r7, #14]	@ movhi
1667:../libs/StdPeripheralDriver/src/stm32f10x_tim.c ****   /* Enable or Disable the Output Compare Fast Bit */
1668:../libs/StdPeripheralDriver/src/stm32f10x_tim.c ****   tmpccmr2 |= TIM_OCFast;
 8324              		.loc 1 1668 0 discriminator 4
 8325 007c FA89     		ldrh	r2, [r7, #14]	@ movhi
 8326 007e 7B88     		ldrh	r3, [r7, #2]	@ movhi
 8327 0080 1343     		orrs	r3, r3, r2
 8328 0082 FB81     		strh	r3, [r7, #14]	@ movhi
1669:../libs/StdPeripheralDriver/src/stm32f10x_tim.c ****   /* Write to TIMx CCMR2 */
1670:../libs/StdPeripheralDriver/src/stm32f10x_tim.c ****   TIMx->CCMR2 = tmpccmr2;
 8329              		.loc 1 1670 0 discriminator 4
 8330 0084 7B68     		ldr	r3, [r7, #4]
 8331 0086 FA89     		ldrh	r2, [r7, #14]	@ movhi
 8332 0088 9A83     		strh	r2, [r3, #28]	@ movhi
1671:../libs/StdPeripheralDriver/src/stm32f10x_tim.c **** }
 8333              		.loc 1 1671 0 discriminator 4
 8334 008a 07F11007 		add	r7, r7, #16
 8335 008e BD46     		mov	sp, r7
 8336 0090 80BD     		pop	{r7, pc}
 8337              	.L542:
 8338 0092 00BF     		.align	2
 8339              	.L541:
 8340 0094 002C0140 		.word	1073818624
 8341 0098 00040040 		.word	1073742848
 8342 009c 00080040 		.word	1073743872
 8343 00a0 000C0040 		.word	1073744896
 8344 00a4 00340140 		.word	1073820672
 8345              		.cfi_endproc
 8346              	.LFE72:
 8348              		.section	.text.TIM_OC4FastConfig,"ax",%progbits
 8349              		.align	2
 8350              		.global	TIM_OC4FastConfig
 8351              		.thumb
 8352              		.thumb_func
 8354              	TIM_OC4FastConfig:
 8355              	.LFB73:
1672:../libs/StdPeripheralDriver/src/stm32f10x_tim.c **** 
1673:../libs/StdPeripheralDriver/src/stm32f10x_tim.c **** /**
1674:../libs/StdPeripheralDriver/src/stm32f10x_tim.c ****   * @brief  Configures the TIMx Output Compare 4 Fast feature.
1675:../libs/StdPeripheralDriver/src/stm32f10x_tim.c ****   * @param  TIMx: where x can be  1, 2, 3, 4, 5 or 8 to select the TIM peripheral.
1676:../libs/StdPeripheralDriver/src/stm32f10x_tim.c ****   * @param  TIM_OCFast: new state of the Output Compare Fast Enable Bit.
1677:../libs/StdPeripheralDriver/src/stm32f10x_tim.c ****   *   This parameter can be one of the following values:
1678:../libs/StdPeripheralDriver/src/stm32f10x_tim.c ****   *     @arg TIM_OCFast_Enable: TIM output compare fast enable
1679:../libs/StdPeripheralDriver/src/stm32f10x_tim.c ****   *     @arg TIM_OCFast_Disable: TIM output compare fast disable
1680:../libs/StdPeripheralDriver/src/stm32f10x_tim.c ****   * @retval None
1681:../libs/StdPeripheralDriver/src/stm32f10x_tim.c ****   */
1682:../libs/StdPeripheralDriver/src/stm32f10x_tim.c **** void TIM_OC4FastConfig(TIM_TypeDef* TIMx, uint16_t TIM_OCFast)
1683:../libs/StdPeripheralDriver/src/stm32f10x_tim.c **** {
 8356              		.loc 1 1683 0
 8357              		.cfi_startproc
 8358              		@ args = 0, pretend = 0, frame = 16
 8359              		@ frame_needed = 1, uses_anonymous_args = 0
 8360 0000 80B5     		push	{r7, lr}
 8361              	.LCFI132:
 8362              		.cfi_def_cfa_offset 8
 8363              		.cfi_offset 7, -8
 8364              		.cfi_offset 14, -4
 8365 0002 84B0     		sub	sp, sp, #16
 8366              	.LCFI133:
 8367              		.cfi_def_cfa_offset 24
 8368 0004 00AF     		add	r7, sp, #0
 8369              	.LCFI134:
 8370              		.cfi_def_cfa_register 7
 8371 0006 7860     		str	r0, [r7, #4]
 8372 0008 0B46     		mov	r3, r1
 8373 000a 7B80     		strh	r3, [r7, #2]	@ movhi
1684:../libs/StdPeripheralDriver/src/stm32f10x_tim.c ****   uint16_t tmpccmr2 = 0;
 8374              		.loc 1 1684 0
 8375 000c 4FF00003 		mov	r3, #0
 8376 0010 FB81     		strh	r3, [r7, #14]	@ movhi
1685:../libs/StdPeripheralDriver/src/stm32f10x_tim.c ****   /* Check the parameters */
1686:../libs/StdPeripheralDriver/src/stm32f10x_tim.c ****   assert_param(IS_TIM_LIST3_PERIPH(TIMx));
 8377              		.loc 1 1686 0
 8378 0012 7A68     		ldr	r2, [r7, #4]
 8379 0014 204B     		ldr	r3, .L550
 8380 0016 9A42     		cmp	r2, r3
 8381 0018 13D0     		beq	.L544
 8382              		.loc 1 1686 0 is_stmt 0 discriminator 2
 8383 001a 7B68     		ldr	r3, [r7, #4]
 8384 001c B3F1804F 		cmp	r3, #1073741824
 8385 0020 0FD0     		beq	.L544
 8386              		.loc 1 1686 0 discriminator 1
 8387 0022 7A68     		ldr	r2, [r7, #4]
 8388 0024 1D4B     		ldr	r3, .L550+4
 8389 0026 9A42     		cmp	r2, r3
 8390 0028 0BD0     		beq	.L544
 8391              		.loc 1 1686 0 discriminator 2
 8392 002a 7A68     		ldr	r2, [r7, #4]
 8393 002c 1C4B     		ldr	r3, .L550+8
 8394 002e 9A42     		cmp	r2, r3
 8395 0030 07D0     		beq	.L544
 8396              		.loc 1 1686 0 discriminator 3
 8397 0032 7A68     		ldr	r2, [r7, #4]
 8398 0034 1B4B     		ldr	r3, .L550+12
 8399 0036 9A42     		cmp	r2, r3
 8400 0038 03D0     		beq	.L544
 8401              		.loc 1 1686 0 discriminator 4
 8402 003a 7A68     		ldr	r2, [r7, #4]
 8403 003c 1A4B     		ldr	r3, .L550+16
 8404 003e 9A42     		cmp	r2, r3
 8405 0040 02D1     		bne	.L545
 8406              	.L544:
 8407              		.loc 1 1686 0 discriminator 1
 8408 0042 4FF00103 		mov	r3, #1
 8409 0046 01E0     		b	.L546
 8410              	.L545:
 8411              		.loc 1 1686 0 discriminator 3
 8412 0048 4FF00003 		mov	r3, #0
 8413              	.L546:
 8414              		.loc 1 1686 0 discriminator 4
 8415 004c 1846     		mov	r0, r3
 8416 004e FFF7FEFF 		bl	assert_param
1687:../libs/StdPeripheralDriver/src/stm32f10x_tim.c ****   assert_param(IS_TIM_OCFAST_STATE(TIM_OCFast));
 8417              		.loc 1 1687 0 is_stmt 1 discriminator 4
 8418 0052 7B88     		ldrh	r3, [r7, #2]
 8419 0054 042B     		cmp	r3, #4
 8420 0056 02D0     		beq	.L547
 8421              		.loc 1 1687 0 is_stmt 0 discriminator 2
 8422 0058 7B88     		ldrh	r3, [r7, #2]
 8423 005a 002B     		cmp	r3, #0
 8424 005c 02D1     		bne	.L548
 8425              	.L547:
 8426              		.loc 1 1687 0 discriminator 1
 8427 005e 4FF00103 		mov	r3, #1
 8428 0062 01E0     		b	.L549
 8429              	.L548:
 8430              		.loc 1 1687 0 discriminator 3
 8431 0064 4FF00003 		mov	r3, #0
 8432              	.L549:
 8433              		.loc 1 1687 0 discriminator 4
 8434 0068 1846     		mov	r0, r3
 8435 006a FFF7FEFF 		bl	assert_param
1688:../libs/StdPeripheralDriver/src/stm32f10x_tim.c ****   /* Get the TIMx CCMR2 register value */
1689:../libs/StdPeripheralDriver/src/stm32f10x_tim.c ****   tmpccmr2 = TIMx->CCMR2;
 8436              		.loc 1 1689 0 is_stmt 1 discriminator 4
 8437 006e 7B68     		ldr	r3, [r7, #4]
 8438 0070 9B8B     		ldrh	r3, [r3, #28]	@ movhi
 8439 0072 FB81     		strh	r3, [r7, #14]	@ movhi
1690:../libs/StdPeripheralDriver/src/stm32f10x_tim.c ****   /* Reset the OC4FE Bit */
1691:../libs/StdPeripheralDriver/src/stm32f10x_tim.c ****   tmpccmr2 &= (uint16_t)~((uint16_t)TIM_CCMR2_OC4FE);
 8440              		.loc 1 1691 0 discriminator 4
 8441 0074 FB89     		ldrh	r3, [r7, #14]	@ movhi
 8442 0076 23F48063 		bic	r3, r3, #1024
 8443 007a FB81     		strh	r3, [r7, #14]	@ movhi
1692:../libs/StdPeripheralDriver/src/stm32f10x_tim.c ****   /* Enable or Disable the Output Compare Fast Bit */
1693:../libs/StdPeripheralDriver/src/stm32f10x_tim.c ****   tmpccmr2 |= (uint16_t)(TIM_OCFast << 8);
 8444              		.loc 1 1693 0 discriminator 4
 8445 007c 7B88     		ldrh	r3, [r7, #2]	@ movhi
 8446 007e 4FEA0323 		lsl	r3, r3, #8
 8447 0082 9AB2     		uxth	r2, r3
 8448 0084 FB89     		ldrh	r3, [r7, #14]	@ movhi
 8449 0086 1343     		orrs	r3, r3, r2
 8450 0088 FB81     		strh	r3, [r7, #14]	@ movhi
1694:../libs/StdPeripheralDriver/src/stm32f10x_tim.c ****   /* Write to TIMx CCMR2 */
1695:../libs/StdPeripheralDriver/src/stm32f10x_tim.c ****   TIMx->CCMR2 = tmpccmr2;
 8451              		.loc 1 1695 0 discriminator 4
 8452 008a 7B68     		ldr	r3, [r7, #4]
 8453 008c FA89     		ldrh	r2, [r7, #14]	@ movhi
 8454 008e 9A83     		strh	r2, [r3, #28]	@ movhi
1696:../libs/StdPeripheralDriver/src/stm32f10x_tim.c **** }
 8455              		.loc 1 1696 0 discriminator 4
 8456 0090 07F11007 		add	r7, r7, #16
 8457 0094 BD46     		mov	sp, r7
 8458 0096 80BD     		pop	{r7, pc}
 8459              	.L551:
 8460              		.align	2
 8461              	.L550:
 8462 0098 002C0140 		.word	1073818624
 8463 009c 00040040 		.word	1073742848
 8464 00a0 00080040 		.word	1073743872
 8465 00a4 000C0040 		.word	1073744896
 8466 00a8 00340140 		.word	1073820672
 8467              		.cfi_endproc
 8468              	.LFE73:
 8470              		.section	.text.TIM_ClearOC1Ref,"ax",%progbits
 8471              		.align	2
 8472              		.global	TIM_ClearOC1Ref
 8473              		.thumb
 8474              		.thumb_func
 8476              	TIM_ClearOC1Ref:
 8477              	.LFB74:
1697:../libs/StdPeripheralDriver/src/stm32f10x_tim.c **** 
1698:../libs/StdPeripheralDriver/src/stm32f10x_tim.c **** /**
1699:../libs/StdPeripheralDriver/src/stm32f10x_tim.c ****   * @brief  Clears or safeguards the OCREF1 signal on an external event
1700:../libs/StdPeripheralDriver/src/stm32f10x_tim.c ****   * @param  TIMx: where x can be  1, 2, 3, 4, 5 or 8 to select the TIM peripheral.
1701:../libs/StdPeripheralDriver/src/stm32f10x_tim.c ****   * @param  TIM_OCClear: new state of the Output Compare Clear Enable Bit.
1702:../libs/StdPeripheralDriver/src/stm32f10x_tim.c ****   *   This parameter can be one of the following values:
1703:../libs/StdPeripheralDriver/src/stm32f10x_tim.c ****   *     @arg TIM_OCClear_Enable: TIM Output clear enable
1704:../libs/StdPeripheralDriver/src/stm32f10x_tim.c ****   *     @arg TIM_OCClear_Disable: TIM Output clear disable
1705:../libs/StdPeripheralDriver/src/stm32f10x_tim.c ****   * @retval None
1706:../libs/StdPeripheralDriver/src/stm32f10x_tim.c ****   */
1707:../libs/StdPeripheralDriver/src/stm32f10x_tim.c **** void TIM_ClearOC1Ref(TIM_TypeDef* TIMx, uint16_t TIM_OCClear)
1708:../libs/StdPeripheralDriver/src/stm32f10x_tim.c **** {
 8478              		.loc 1 1708 0
 8479              		.cfi_startproc
 8480              		@ args = 0, pretend = 0, frame = 16
 8481              		@ frame_needed = 1, uses_anonymous_args = 0
 8482 0000 80B5     		push	{r7, lr}
 8483              	.LCFI135:
 8484              		.cfi_def_cfa_offset 8
 8485              		.cfi_offset 7, -8
 8486              		.cfi_offset 14, -4
 8487 0002 84B0     		sub	sp, sp, #16
 8488              	.LCFI136:
 8489              		.cfi_def_cfa_offset 24
 8490 0004 00AF     		add	r7, sp, #0
 8491              	.LCFI137:
 8492              		.cfi_def_cfa_register 7
 8493 0006 7860     		str	r0, [r7, #4]
 8494 0008 0B46     		mov	r3, r1
 8495 000a 7B80     		strh	r3, [r7, #2]	@ movhi
1709:../libs/StdPeripheralDriver/src/stm32f10x_tim.c ****   uint16_t tmpccmr1 = 0;
 8496              		.loc 1 1709 0
 8497 000c 4FF00003 		mov	r3, #0
 8498 0010 FB81     		strh	r3, [r7, #14]	@ movhi
1710:../libs/StdPeripheralDriver/src/stm32f10x_tim.c ****   /* Check the parameters */
1711:../libs/StdPeripheralDriver/src/stm32f10x_tim.c ****   assert_param(IS_TIM_LIST3_PERIPH(TIMx));
 8499              		.loc 1 1711 0
 8500 0012 7A68     		ldr	r2, [r7, #4]
 8501 0014 1F4B     		ldr	r3, .L559
 8502 0016 9A42     		cmp	r2, r3
 8503 0018 13D0     		beq	.L553
 8504              		.loc 1 1711 0 is_stmt 0 discriminator 2
 8505 001a 7B68     		ldr	r3, [r7, #4]
 8506 001c B3F1804F 		cmp	r3, #1073741824
 8507 0020 0FD0     		beq	.L553
 8508              		.loc 1 1711 0 discriminator 1
 8509 0022 7A68     		ldr	r2, [r7, #4]
 8510 0024 1C4B     		ldr	r3, .L559+4
 8511 0026 9A42     		cmp	r2, r3
 8512 0028 0BD0     		beq	.L553
 8513              		.loc 1 1711 0 discriminator 2
 8514 002a 7A68     		ldr	r2, [r7, #4]
 8515 002c 1B4B     		ldr	r3, .L559+8
 8516 002e 9A42     		cmp	r2, r3
 8517 0030 07D0     		beq	.L553
 8518              		.loc 1 1711 0 discriminator 3
 8519 0032 7A68     		ldr	r2, [r7, #4]
 8520 0034 1A4B     		ldr	r3, .L559+12
 8521 0036 9A42     		cmp	r2, r3
 8522 0038 03D0     		beq	.L553
 8523              		.loc 1 1711 0 discriminator 4
 8524 003a 7A68     		ldr	r2, [r7, #4]
 8525 003c 194B     		ldr	r3, .L559+16
 8526 003e 9A42     		cmp	r2, r3
 8527 0040 02D1     		bne	.L554
 8528              	.L553:
 8529              		.loc 1 1711 0 discriminator 1
 8530 0042 4FF00103 		mov	r3, #1
 8531 0046 01E0     		b	.L555
 8532              	.L554:
 8533              		.loc 1 1711 0 discriminator 3
 8534 0048 4FF00003 		mov	r3, #0
 8535              	.L555:
 8536              		.loc 1 1711 0 discriminator 4
 8537 004c 1846     		mov	r0, r3
 8538 004e FFF7FEFF 		bl	assert_param
1712:../libs/StdPeripheralDriver/src/stm32f10x_tim.c ****   assert_param(IS_TIM_OCCLEAR_STATE(TIM_OCClear));
 8539              		.loc 1 1712 0 is_stmt 1 discriminator 4
 8540 0052 7B88     		ldrh	r3, [r7, #2]
 8541 0054 802B     		cmp	r3, #128
 8542 0056 02D0     		beq	.L556
 8543              		.loc 1 1712 0 is_stmt 0 discriminator 2
 8544 0058 7B88     		ldrh	r3, [r7, #2]
 8545 005a 002B     		cmp	r3, #0
 8546 005c 02D1     		bne	.L557
 8547              	.L556:
 8548              		.loc 1 1712 0 discriminator 1
 8549 005e 4FF00103 		mov	r3, #1
 8550 0062 01E0     		b	.L558
 8551              	.L557:
 8552              		.loc 1 1712 0 discriminator 3
 8553 0064 4FF00003 		mov	r3, #0
 8554              	.L558:
 8555              		.loc 1 1712 0 discriminator 4
 8556 0068 1846     		mov	r0, r3
 8557 006a FFF7FEFF 		bl	assert_param
1713:../libs/StdPeripheralDriver/src/stm32f10x_tim.c **** 
1714:../libs/StdPeripheralDriver/src/stm32f10x_tim.c ****   tmpccmr1 = TIMx->CCMR1;
 8558              		.loc 1 1714 0 is_stmt 1 discriminator 4
 8559 006e 7B68     		ldr	r3, [r7, #4]
 8560 0070 1B8B     		ldrh	r3, [r3, #24]	@ movhi
 8561 0072 FB81     		strh	r3, [r7, #14]	@ movhi
1715:../libs/StdPeripheralDriver/src/stm32f10x_tim.c **** 
1716:../libs/StdPeripheralDriver/src/stm32f10x_tim.c ****   /* Reset the OC1CE Bit */
1717:../libs/StdPeripheralDriver/src/stm32f10x_tim.c ****   tmpccmr1 &= (uint16_t)~((uint16_t)TIM_CCMR1_OC1CE);
 8562              		.loc 1 1717 0 discriminator 4
 8563 0074 FB89     		ldrh	r3, [r7, #14]	@ movhi
 8564 0076 23F08003 		bic	r3, r3, #128
 8565 007a FB81     		strh	r3, [r7, #14]	@ movhi
1718:../libs/StdPeripheralDriver/src/stm32f10x_tim.c ****   /* Enable or Disable the Output Compare Clear Bit */
1719:../libs/StdPeripheralDriver/src/stm32f10x_tim.c ****   tmpccmr1 |= TIM_OCClear;
 8566              		.loc 1 1719 0 discriminator 4
 8567 007c FA89     		ldrh	r2, [r7, #14]	@ movhi
 8568 007e 7B88     		ldrh	r3, [r7, #2]	@ movhi
 8569 0080 1343     		orrs	r3, r3, r2
 8570 0082 FB81     		strh	r3, [r7, #14]	@ movhi
1720:../libs/StdPeripheralDriver/src/stm32f10x_tim.c ****   /* Write to TIMx CCMR1 register */
1721:../libs/StdPeripheralDriver/src/stm32f10x_tim.c ****   TIMx->CCMR1 = tmpccmr1;
 8571              		.loc 1 1721 0 discriminator 4
 8572 0084 7B68     		ldr	r3, [r7, #4]
 8573 0086 FA89     		ldrh	r2, [r7, #14]	@ movhi
 8574 0088 1A83     		strh	r2, [r3, #24]	@ movhi
1722:../libs/StdPeripheralDriver/src/stm32f10x_tim.c **** }
 8575              		.loc 1 1722 0 discriminator 4
 8576 008a 07F11007 		add	r7, r7, #16
 8577 008e BD46     		mov	sp, r7
 8578 0090 80BD     		pop	{r7, pc}
 8579              	.L560:
 8580 0092 00BF     		.align	2
 8581              	.L559:
 8582 0094 002C0140 		.word	1073818624
 8583 0098 00040040 		.word	1073742848
 8584 009c 00080040 		.word	1073743872
 8585 00a0 000C0040 		.word	1073744896
 8586 00a4 00340140 		.word	1073820672
 8587              		.cfi_endproc
 8588              	.LFE74:
 8590              		.section	.text.TIM_ClearOC2Ref,"ax",%progbits
 8591              		.align	2
 8592              		.global	TIM_ClearOC2Ref
 8593              		.thumb
 8594              		.thumb_func
 8596              	TIM_ClearOC2Ref:
 8597              	.LFB75:
1723:../libs/StdPeripheralDriver/src/stm32f10x_tim.c **** 
1724:../libs/StdPeripheralDriver/src/stm32f10x_tim.c **** /**
1725:../libs/StdPeripheralDriver/src/stm32f10x_tim.c ****   * @brief  Clears or safeguards the OCREF2 signal on an external event
1726:../libs/StdPeripheralDriver/src/stm32f10x_tim.c ****   * @param  TIMx: where x can be  1, 2, 3, 4, 5 or 8 to select the TIM peripheral.
1727:../libs/StdPeripheralDriver/src/stm32f10x_tim.c ****   * @param  TIM_OCClear: new state of the Output Compare Clear Enable Bit.
1728:../libs/StdPeripheralDriver/src/stm32f10x_tim.c ****   *   This parameter can be one of the following values:
1729:../libs/StdPeripheralDriver/src/stm32f10x_tim.c ****   *     @arg TIM_OCClear_Enable: TIM Output clear enable
1730:../libs/StdPeripheralDriver/src/stm32f10x_tim.c ****   *     @arg TIM_OCClear_Disable: TIM Output clear disable
1731:../libs/StdPeripheralDriver/src/stm32f10x_tim.c ****   * @retval None
1732:../libs/StdPeripheralDriver/src/stm32f10x_tim.c ****   */
1733:../libs/StdPeripheralDriver/src/stm32f10x_tim.c **** void TIM_ClearOC2Ref(TIM_TypeDef* TIMx, uint16_t TIM_OCClear)
1734:../libs/StdPeripheralDriver/src/stm32f10x_tim.c **** {
 8598              		.loc 1 1734 0
 8599              		.cfi_startproc
 8600              		@ args = 0, pretend = 0, frame = 16
 8601              		@ frame_needed = 1, uses_anonymous_args = 0
 8602 0000 80B5     		push	{r7, lr}
 8603              	.LCFI138:
 8604              		.cfi_def_cfa_offset 8
 8605              		.cfi_offset 7, -8
 8606              		.cfi_offset 14, -4
 8607 0002 84B0     		sub	sp, sp, #16
 8608              	.LCFI139:
 8609              		.cfi_def_cfa_offset 24
 8610 0004 00AF     		add	r7, sp, #0
 8611              	.LCFI140:
 8612              		.cfi_def_cfa_register 7
 8613 0006 7860     		str	r0, [r7, #4]
 8614 0008 0B46     		mov	r3, r1
 8615 000a 7B80     		strh	r3, [r7, #2]	@ movhi
1735:../libs/StdPeripheralDriver/src/stm32f10x_tim.c ****   uint16_t tmpccmr1 = 0;
 8616              		.loc 1 1735 0
 8617 000c 4FF00003 		mov	r3, #0
 8618 0010 FB81     		strh	r3, [r7, #14]	@ movhi
1736:../libs/StdPeripheralDriver/src/stm32f10x_tim.c ****   /* Check the parameters */
1737:../libs/StdPeripheralDriver/src/stm32f10x_tim.c ****   assert_param(IS_TIM_LIST3_PERIPH(TIMx));
 8619              		.loc 1 1737 0
 8620 0012 7A68     		ldr	r2, [r7, #4]
 8621 0014 214B     		ldr	r3, .L568
 8622 0016 9A42     		cmp	r2, r3
 8623 0018 13D0     		beq	.L562
 8624              		.loc 1 1737 0 is_stmt 0 discriminator 2
 8625 001a 7B68     		ldr	r3, [r7, #4]
 8626 001c B3F1804F 		cmp	r3, #1073741824
 8627 0020 0FD0     		beq	.L562
 8628              		.loc 1 1737 0 discriminator 1
 8629 0022 7A68     		ldr	r2, [r7, #4]
 8630 0024 1E4B     		ldr	r3, .L568+4
 8631 0026 9A42     		cmp	r2, r3
 8632 0028 0BD0     		beq	.L562
 8633              		.loc 1 1737 0 discriminator 2
 8634 002a 7A68     		ldr	r2, [r7, #4]
 8635 002c 1D4B     		ldr	r3, .L568+8
 8636 002e 9A42     		cmp	r2, r3
 8637 0030 07D0     		beq	.L562
 8638              		.loc 1 1737 0 discriminator 3
 8639 0032 7A68     		ldr	r2, [r7, #4]
 8640 0034 1C4B     		ldr	r3, .L568+12
 8641 0036 9A42     		cmp	r2, r3
 8642 0038 03D0     		beq	.L562
 8643              		.loc 1 1737 0 discriminator 4
 8644 003a 7A68     		ldr	r2, [r7, #4]
 8645 003c 1B4B     		ldr	r3, .L568+16
 8646 003e 9A42     		cmp	r2, r3
 8647 0040 02D1     		bne	.L563
 8648              	.L562:
 8649              		.loc 1 1737 0 discriminator 1
 8650 0042 4FF00103 		mov	r3, #1
 8651 0046 01E0     		b	.L564
 8652              	.L563:
 8653              		.loc 1 1737 0 discriminator 3
 8654 0048 4FF00003 		mov	r3, #0
 8655              	.L564:
 8656              		.loc 1 1737 0 discriminator 4
 8657 004c 1846     		mov	r0, r3
 8658 004e FFF7FEFF 		bl	assert_param
1738:../libs/StdPeripheralDriver/src/stm32f10x_tim.c ****   assert_param(IS_TIM_OCCLEAR_STATE(TIM_OCClear));
 8659              		.loc 1 1738 0 is_stmt 1 discriminator 4
 8660 0052 7B88     		ldrh	r3, [r7, #2]
 8661 0054 802B     		cmp	r3, #128
 8662 0056 02D0     		beq	.L565
 8663              		.loc 1 1738 0 is_stmt 0 discriminator 2
 8664 0058 7B88     		ldrh	r3, [r7, #2]
 8665 005a 002B     		cmp	r3, #0
 8666 005c 02D1     		bne	.L566
 8667              	.L565:
 8668              		.loc 1 1738 0 discriminator 1
 8669 005e 4FF00103 		mov	r3, #1
 8670 0062 01E0     		b	.L567
 8671              	.L566:
 8672              		.loc 1 1738 0 discriminator 3
 8673 0064 4FF00003 		mov	r3, #0
 8674              	.L567:
 8675              		.loc 1 1738 0 discriminator 4
 8676 0068 1846     		mov	r0, r3
 8677 006a FFF7FEFF 		bl	assert_param
1739:../libs/StdPeripheralDriver/src/stm32f10x_tim.c ****   tmpccmr1 = TIMx->CCMR1;
 8678              		.loc 1 1739 0 is_stmt 1 discriminator 4
 8679 006e 7B68     		ldr	r3, [r7, #4]
 8680 0070 1B8B     		ldrh	r3, [r3, #24]	@ movhi
 8681 0072 FB81     		strh	r3, [r7, #14]	@ movhi
1740:../libs/StdPeripheralDriver/src/stm32f10x_tim.c ****   /* Reset the OC2CE Bit */
1741:../libs/StdPeripheralDriver/src/stm32f10x_tim.c ****   tmpccmr1 &= (uint16_t)~((uint16_t)TIM_CCMR1_OC2CE);
 8682              		.loc 1 1741 0 discriminator 4
 8683 0074 FB89     		ldrh	r3, [r7, #14]	@ movhi
 8684 0076 4FEA4343 		lsl	r3, r3, #17
 8685 007a 4FEA5343 		lsr	r3, r3, #17
 8686 007e FB81     		strh	r3, [r7, #14]	@ movhi
1742:../libs/StdPeripheralDriver/src/stm32f10x_tim.c ****   /* Enable or Disable the Output Compare Clear Bit */
1743:../libs/StdPeripheralDriver/src/stm32f10x_tim.c ****   tmpccmr1 |= (uint16_t)(TIM_OCClear << 8);
 8687              		.loc 1 1743 0 discriminator 4
 8688 0080 7B88     		ldrh	r3, [r7, #2]	@ movhi
 8689 0082 4FEA0323 		lsl	r3, r3, #8
 8690 0086 9AB2     		uxth	r2, r3
 8691 0088 FB89     		ldrh	r3, [r7, #14]	@ movhi
 8692 008a 1343     		orrs	r3, r3, r2
 8693 008c FB81     		strh	r3, [r7, #14]	@ movhi
1744:../libs/StdPeripheralDriver/src/stm32f10x_tim.c ****   /* Write to TIMx CCMR1 register */
1745:../libs/StdPeripheralDriver/src/stm32f10x_tim.c ****   TIMx->CCMR1 = tmpccmr1;
 8694              		.loc 1 1745 0 discriminator 4
 8695 008e 7B68     		ldr	r3, [r7, #4]
 8696 0090 FA89     		ldrh	r2, [r7, #14]	@ movhi
 8697 0092 1A83     		strh	r2, [r3, #24]	@ movhi
1746:../libs/StdPeripheralDriver/src/stm32f10x_tim.c **** }
 8698              		.loc 1 1746 0 discriminator 4
 8699 0094 07F11007 		add	r7, r7, #16
 8700 0098 BD46     		mov	sp, r7
 8701 009a 80BD     		pop	{r7, pc}
 8702              	.L569:
 8703              		.align	2
 8704              	.L568:
 8705 009c 002C0140 		.word	1073818624
 8706 00a0 00040040 		.word	1073742848
 8707 00a4 00080040 		.word	1073743872
 8708 00a8 000C0040 		.word	1073744896
 8709 00ac 00340140 		.word	1073820672
 8710              		.cfi_endproc
 8711              	.LFE75:
 8713              		.section	.text.TIM_ClearOC3Ref,"ax",%progbits
 8714              		.align	2
 8715              		.global	TIM_ClearOC3Ref
 8716              		.thumb
 8717              		.thumb_func
 8719              	TIM_ClearOC3Ref:
 8720              	.LFB76:
1747:../libs/StdPeripheralDriver/src/stm32f10x_tim.c **** 
1748:../libs/StdPeripheralDriver/src/stm32f10x_tim.c **** /**
1749:../libs/StdPeripheralDriver/src/stm32f10x_tim.c ****   * @brief  Clears or safeguards the OCREF3 signal on an external event
1750:../libs/StdPeripheralDriver/src/stm32f10x_tim.c ****   * @param  TIMx: where x can be  1, 2, 3, 4, 5 or 8 to select the TIM peripheral.
1751:../libs/StdPeripheralDriver/src/stm32f10x_tim.c ****   * @param  TIM_OCClear: new state of the Output Compare Clear Enable Bit.
1752:../libs/StdPeripheralDriver/src/stm32f10x_tim.c ****   *   This parameter can be one of the following values:
1753:../libs/StdPeripheralDriver/src/stm32f10x_tim.c ****   *     @arg TIM_OCClear_Enable: TIM Output clear enable
1754:../libs/StdPeripheralDriver/src/stm32f10x_tim.c ****   *     @arg TIM_OCClear_Disable: TIM Output clear disable
1755:../libs/StdPeripheralDriver/src/stm32f10x_tim.c ****   * @retval None
1756:../libs/StdPeripheralDriver/src/stm32f10x_tim.c ****   */
1757:../libs/StdPeripheralDriver/src/stm32f10x_tim.c **** void TIM_ClearOC3Ref(TIM_TypeDef* TIMx, uint16_t TIM_OCClear)
1758:../libs/StdPeripheralDriver/src/stm32f10x_tim.c **** {
 8721              		.loc 1 1758 0
 8722              		.cfi_startproc
 8723              		@ args = 0, pretend = 0, frame = 16
 8724              		@ frame_needed = 1, uses_anonymous_args = 0
 8725 0000 80B5     		push	{r7, lr}
 8726              	.LCFI141:
 8727              		.cfi_def_cfa_offset 8
 8728              		.cfi_offset 7, -8
 8729              		.cfi_offset 14, -4
 8730 0002 84B0     		sub	sp, sp, #16
 8731              	.LCFI142:
 8732              		.cfi_def_cfa_offset 24
 8733 0004 00AF     		add	r7, sp, #0
 8734              	.LCFI143:
 8735              		.cfi_def_cfa_register 7
 8736 0006 7860     		str	r0, [r7, #4]
 8737 0008 0B46     		mov	r3, r1
 8738 000a 7B80     		strh	r3, [r7, #2]	@ movhi
1759:../libs/StdPeripheralDriver/src/stm32f10x_tim.c ****   uint16_t tmpccmr2 = 0;
 8739              		.loc 1 1759 0
 8740 000c 4FF00003 		mov	r3, #0
 8741 0010 FB81     		strh	r3, [r7, #14]	@ movhi
1760:../libs/StdPeripheralDriver/src/stm32f10x_tim.c ****   /* Check the parameters */
1761:../libs/StdPeripheralDriver/src/stm32f10x_tim.c ****   assert_param(IS_TIM_LIST3_PERIPH(TIMx));
 8742              		.loc 1 1761 0
 8743 0012 7A68     		ldr	r2, [r7, #4]
 8744 0014 1F4B     		ldr	r3, .L577
 8745 0016 9A42     		cmp	r2, r3
 8746 0018 13D0     		beq	.L571
 8747              		.loc 1 1761 0 is_stmt 0 discriminator 2
 8748 001a 7B68     		ldr	r3, [r7, #4]
 8749 001c B3F1804F 		cmp	r3, #1073741824
 8750 0020 0FD0     		beq	.L571
 8751              		.loc 1 1761 0 discriminator 1
 8752 0022 7A68     		ldr	r2, [r7, #4]
 8753 0024 1C4B     		ldr	r3, .L577+4
 8754 0026 9A42     		cmp	r2, r3
 8755 0028 0BD0     		beq	.L571
 8756              		.loc 1 1761 0 discriminator 2
 8757 002a 7A68     		ldr	r2, [r7, #4]
 8758 002c 1B4B     		ldr	r3, .L577+8
 8759 002e 9A42     		cmp	r2, r3
 8760 0030 07D0     		beq	.L571
 8761              		.loc 1 1761 0 discriminator 3
 8762 0032 7A68     		ldr	r2, [r7, #4]
 8763 0034 1A4B     		ldr	r3, .L577+12
 8764 0036 9A42     		cmp	r2, r3
 8765 0038 03D0     		beq	.L571
 8766              		.loc 1 1761 0 discriminator 4
 8767 003a 7A68     		ldr	r2, [r7, #4]
 8768 003c 194B     		ldr	r3, .L577+16
 8769 003e 9A42     		cmp	r2, r3
 8770 0040 02D1     		bne	.L572
 8771              	.L571:
 8772              		.loc 1 1761 0 discriminator 1
 8773 0042 4FF00103 		mov	r3, #1
 8774 0046 01E0     		b	.L573
 8775              	.L572:
 8776              		.loc 1 1761 0 discriminator 3
 8777 0048 4FF00003 		mov	r3, #0
 8778              	.L573:
 8779              		.loc 1 1761 0 discriminator 4
 8780 004c 1846     		mov	r0, r3
 8781 004e FFF7FEFF 		bl	assert_param
1762:../libs/StdPeripheralDriver/src/stm32f10x_tim.c ****   assert_param(IS_TIM_OCCLEAR_STATE(TIM_OCClear));
 8782              		.loc 1 1762 0 is_stmt 1 discriminator 4
 8783 0052 7B88     		ldrh	r3, [r7, #2]
 8784 0054 802B     		cmp	r3, #128
 8785 0056 02D0     		beq	.L574
 8786              		.loc 1 1762 0 is_stmt 0 discriminator 2
 8787 0058 7B88     		ldrh	r3, [r7, #2]
 8788 005a 002B     		cmp	r3, #0
 8789 005c 02D1     		bne	.L575
 8790              	.L574:
 8791              		.loc 1 1762 0 discriminator 1
 8792 005e 4FF00103 		mov	r3, #1
 8793 0062 01E0     		b	.L576
 8794              	.L575:
 8795              		.loc 1 1762 0 discriminator 3
 8796 0064 4FF00003 		mov	r3, #0
 8797              	.L576:
 8798              		.loc 1 1762 0 discriminator 4
 8799 0068 1846     		mov	r0, r3
 8800 006a FFF7FEFF 		bl	assert_param
1763:../libs/StdPeripheralDriver/src/stm32f10x_tim.c ****   tmpccmr2 = TIMx->CCMR2;
 8801              		.loc 1 1763 0 is_stmt 1 discriminator 4
 8802 006e 7B68     		ldr	r3, [r7, #4]
 8803 0070 9B8B     		ldrh	r3, [r3, #28]	@ movhi
 8804 0072 FB81     		strh	r3, [r7, #14]	@ movhi
1764:../libs/StdPeripheralDriver/src/stm32f10x_tim.c ****   /* Reset the OC3CE Bit */
1765:../libs/StdPeripheralDriver/src/stm32f10x_tim.c ****   tmpccmr2 &= (uint16_t)~((uint16_t)TIM_CCMR2_OC3CE);
 8805              		.loc 1 1765 0 discriminator 4
 8806 0074 FB89     		ldrh	r3, [r7, #14]	@ movhi
 8807 0076 23F08003 		bic	r3, r3, #128
 8808 007a FB81     		strh	r3, [r7, #14]	@ movhi
1766:../libs/StdPeripheralDriver/src/stm32f10x_tim.c ****   /* Enable or Disable the Output Compare Clear Bit */
1767:../libs/StdPeripheralDriver/src/stm32f10x_tim.c ****   tmpccmr2 |= TIM_OCClear;
 8809              		.loc 1 1767 0 discriminator 4
 8810 007c FA89     		ldrh	r2, [r7, #14]	@ movhi
 8811 007e 7B88     		ldrh	r3, [r7, #2]	@ movhi
 8812 0080 1343     		orrs	r3, r3, r2
 8813 0082 FB81     		strh	r3, [r7, #14]	@ movhi
1768:../libs/StdPeripheralDriver/src/stm32f10x_tim.c ****   /* Write to TIMx CCMR2 register */
1769:../libs/StdPeripheralDriver/src/stm32f10x_tim.c ****   TIMx->CCMR2 = tmpccmr2;
 8814              		.loc 1 1769 0 discriminator 4
 8815 0084 7B68     		ldr	r3, [r7, #4]
 8816 0086 FA89     		ldrh	r2, [r7, #14]	@ movhi
 8817 0088 9A83     		strh	r2, [r3, #28]	@ movhi
1770:../libs/StdPeripheralDriver/src/stm32f10x_tim.c **** }
 8818              		.loc 1 1770 0 discriminator 4
 8819 008a 07F11007 		add	r7, r7, #16
 8820 008e BD46     		mov	sp, r7
 8821 0090 80BD     		pop	{r7, pc}
 8822              	.L578:
 8823 0092 00BF     		.align	2
 8824              	.L577:
 8825 0094 002C0140 		.word	1073818624
 8826 0098 00040040 		.word	1073742848
 8827 009c 00080040 		.word	1073743872
 8828 00a0 000C0040 		.word	1073744896
 8829 00a4 00340140 		.word	1073820672
 8830              		.cfi_endproc
 8831              	.LFE76:
 8833              		.section	.text.TIM_ClearOC4Ref,"ax",%progbits
 8834              		.align	2
 8835              		.global	TIM_ClearOC4Ref
 8836              		.thumb
 8837              		.thumb_func
 8839              	TIM_ClearOC4Ref:
 8840              	.LFB77:
1771:../libs/StdPeripheralDriver/src/stm32f10x_tim.c **** 
1772:../libs/StdPeripheralDriver/src/stm32f10x_tim.c **** /**
1773:../libs/StdPeripheralDriver/src/stm32f10x_tim.c ****   * @brief  Clears or safeguards the OCREF4 signal on an external event
1774:../libs/StdPeripheralDriver/src/stm32f10x_tim.c ****   * @param  TIMx: where x can be  1, 2, 3, 4, 5 or 8 to select the TIM peripheral.
1775:../libs/StdPeripheralDriver/src/stm32f10x_tim.c ****   * @param  TIM_OCClear: new state of the Output Compare Clear Enable Bit.
1776:../libs/StdPeripheralDriver/src/stm32f10x_tim.c ****   *   This parameter can be one of the following values:
1777:../libs/StdPeripheralDriver/src/stm32f10x_tim.c ****   *     @arg TIM_OCClear_Enable: TIM Output clear enable
1778:../libs/StdPeripheralDriver/src/stm32f10x_tim.c ****   *     @arg TIM_OCClear_Disable: TIM Output clear disable
1779:../libs/StdPeripheralDriver/src/stm32f10x_tim.c ****   * @retval None
1780:../libs/StdPeripheralDriver/src/stm32f10x_tim.c ****   */
1781:../libs/StdPeripheralDriver/src/stm32f10x_tim.c **** void TIM_ClearOC4Ref(TIM_TypeDef* TIMx, uint16_t TIM_OCClear)
1782:../libs/StdPeripheralDriver/src/stm32f10x_tim.c **** {
 8841              		.loc 1 1782 0
 8842              		.cfi_startproc
 8843              		@ args = 0, pretend = 0, frame = 16
 8844              		@ frame_needed = 1, uses_anonymous_args = 0
 8845 0000 80B5     		push	{r7, lr}
 8846              	.LCFI144:
 8847              		.cfi_def_cfa_offset 8
 8848              		.cfi_offset 7, -8
 8849              		.cfi_offset 14, -4
 8850 0002 84B0     		sub	sp, sp, #16
 8851              	.LCFI145:
 8852              		.cfi_def_cfa_offset 24
 8853 0004 00AF     		add	r7, sp, #0
 8854              	.LCFI146:
 8855              		.cfi_def_cfa_register 7
 8856 0006 7860     		str	r0, [r7, #4]
 8857 0008 0B46     		mov	r3, r1
 8858 000a 7B80     		strh	r3, [r7, #2]	@ movhi
1783:../libs/StdPeripheralDriver/src/stm32f10x_tim.c ****   uint16_t tmpccmr2 = 0;
 8859              		.loc 1 1783 0
 8860 000c 4FF00003 		mov	r3, #0
 8861 0010 FB81     		strh	r3, [r7, #14]	@ movhi
1784:../libs/StdPeripheralDriver/src/stm32f10x_tim.c ****   /* Check the parameters */
1785:../libs/StdPeripheralDriver/src/stm32f10x_tim.c ****   assert_param(IS_TIM_LIST3_PERIPH(TIMx));
 8862              		.loc 1 1785 0
 8863 0012 7A68     		ldr	r2, [r7, #4]
 8864 0014 214B     		ldr	r3, .L586
 8865 0016 9A42     		cmp	r2, r3
 8866 0018 13D0     		beq	.L580
 8867              		.loc 1 1785 0 is_stmt 0 discriminator 2
 8868 001a 7B68     		ldr	r3, [r7, #4]
 8869 001c B3F1804F 		cmp	r3, #1073741824
 8870 0020 0FD0     		beq	.L580
 8871              		.loc 1 1785 0 discriminator 1
 8872 0022 7A68     		ldr	r2, [r7, #4]
 8873 0024 1E4B     		ldr	r3, .L586+4
 8874 0026 9A42     		cmp	r2, r3
 8875 0028 0BD0     		beq	.L580
 8876              		.loc 1 1785 0 discriminator 2
 8877 002a 7A68     		ldr	r2, [r7, #4]
 8878 002c 1D4B     		ldr	r3, .L586+8
 8879 002e 9A42     		cmp	r2, r3
 8880 0030 07D0     		beq	.L580
 8881              		.loc 1 1785 0 discriminator 3
 8882 0032 7A68     		ldr	r2, [r7, #4]
 8883 0034 1C4B     		ldr	r3, .L586+12
 8884 0036 9A42     		cmp	r2, r3
 8885 0038 03D0     		beq	.L580
 8886              		.loc 1 1785 0 discriminator 4
 8887 003a 7A68     		ldr	r2, [r7, #4]
 8888 003c 1B4B     		ldr	r3, .L586+16
 8889 003e 9A42     		cmp	r2, r3
 8890 0040 02D1     		bne	.L581
 8891              	.L580:
 8892              		.loc 1 1785 0 discriminator 1
 8893 0042 4FF00103 		mov	r3, #1
 8894 0046 01E0     		b	.L582
 8895              	.L581:
 8896              		.loc 1 1785 0 discriminator 3
 8897 0048 4FF00003 		mov	r3, #0
 8898              	.L582:
 8899              		.loc 1 1785 0 discriminator 4
 8900 004c 1846     		mov	r0, r3
 8901 004e FFF7FEFF 		bl	assert_param
1786:../libs/StdPeripheralDriver/src/stm32f10x_tim.c ****   assert_param(IS_TIM_OCCLEAR_STATE(TIM_OCClear));
 8902              		.loc 1 1786 0 is_stmt 1 discriminator 4
 8903 0052 7B88     		ldrh	r3, [r7, #2]
 8904 0054 802B     		cmp	r3, #128
 8905 0056 02D0     		beq	.L583
 8906              		.loc 1 1786 0 is_stmt 0 discriminator 2
 8907 0058 7B88     		ldrh	r3, [r7, #2]
 8908 005a 002B     		cmp	r3, #0
 8909 005c 02D1     		bne	.L584
 8910              	.L583:
 8911              		.loc 1 1786 0 discriminator 1
 8912 005e 4FF00103 		mov	r3, #1
 8913 0062 01E0     		b	.L585
 8914              	.L584:
 8915              		.loc 1 1786 0 discriminator 3
 8916 0064 4FF00003 		mov	r3, #0
 8917              	.L585:
 8918              		.loc 1 1786 0 discriminator 4
 8919 0068 1846     		mov	r0, r3
 8920 006a FFF7FEFF 		bl	assert_param
1787:../libs/StdPeripheralDriver/src/stm32f10x_tim.c ****   tmpccmr2 = TIMx->CCMR2;
 8921              		.loc 1 1787 0 is_stmt 1 discriminator 4
 8922 006e 7B68     		ldr	r3, [r7, #4]
 8923 0070 9B8B     		ldrh	r3, [r3, #28]	@ movhi
 8924 0072 FB81     		strh	r3, [r7, #14]	@ movhi
1788:../libs/StdPeripheralDriver/src/stm32f10x_tim.c ****   /* Reset the OC4CE Bit */
1789:../libs/StdPeripheralDriver/src/stm32f10x_tim.c ****   tmpccmr2 &= (uint16_t)~((uint16_t)TIM_CCMR2_OC4CE);
 8925              		.loc 1 1789 0 discriminator 4
 8926 0074 FB89     		ldrh	r3, [r7, #14]	@ movhi
 8927 0076 4FEA4343 		lsl	r3, r3, #17
 8928 007a 4FEA5343 		lsr	r3, r3, #17
 8929 007e FB81     		strh	r3, [r7, #14]	@ movhi
1790:../libs/StdPeripheralDriver/src/stm32f10x_tim.c ****   /* Enable or Disable the Output Compare Clear Bit */
1791:../libs/StdPeripheralDriver/src/stm32f10x_tim.c ****   tmpccmr2 |= (uint16_t)(TIM_OCClear << 8);
 8930              		.loc 1 1791 0 discriminator 4
 8931 0080 7B88     		ldrh	r3, [r7, #2]	@ movhi
 8932 0082 4FEA0323 		lsl	r3, r3, #8
 8933 0086 9AB2     		uxth	r2, r3
 8934 0088 FB89     		ldrh	r3, [r7, #14]	@ movhi
 8935 008a 1343     		orrs	r3, r3, r2
 8936 008c FB81     		strh	r3, [r7, #14]	@ movhi
1792:../libs/StdPeripheralDriver/src/stm32f10x_tim.c ****   /* Write to TIMx CCMR2 register */
1793:../libs/StdPeripheralDriver/src/stm32f10x_tim.c ****   TIMx->CCMR2 = tmpccmr2;
 8937              		.loc 1 1793 0 discriminator 4
 8938 008e 7B68     		ldr	r3, [r7, #4]
 8939 0090 FA89     		ldrh	r2, [r7, #14]	@ movhi
 8940 0092 9A83     		strh	r2, [r3, #28]	@ movhi
1794:../libs/StdPeripheralDriver/src/stm32f10x_tim.c **** }
 8941              		.loc 1 1794 0 discriminator 4
 8942 0094 07F11007 		add	r7, r7, #16
 8943 0098 BD46     		mov	sp, r7
 8944 009a 80BD     		pop	{r7, pc}
 8945              	.L587:
 8946              		.align	2
 8947              	.L586:
 8948 009c 002C0140 		.word	1073818624
 8949 00a0 00040040 		.word	1073742848
 8950 00a4 00080040 		.word	1073743872
 8951 00a8 000C0040 		.word	1073744896
 8952 00ac 00340140 		.word	1073820672
 8953              		.cfi_endproc
 8954              	.LFE77:
 8956              		.section	.text.TIM_OC1PolarityConfig,"ax",%progbits
 8957              		.align	2
 8958              		.global	TIM_OC1PolarityConfig
 8959              		.thumb
 8960              		.thumb_func
 8962              	TIM_OC1PolarityConfig:
 8963              	.LFB78:
1795:../libs/StdPeripheralDriver/src/stm32f10x_tim.c **** 
1796:../libs/StdPeripheralDriver/src/stm32f10x_tim.c **** /**
1797:../libs/StdPeripheralDriver/src/stm32f10x_tim.c ****   * @brief  Configures the TIMx channel 1 polarity.
1798:../libs/StdPeripheralDriver/src/stm32f10x_tim.c ****   * @param  TIMx: where x can be 1 to 17 except 6 and 7 to select the TIM peripheral.
1799:../libs/StdPeripheralDriver/src/stm32f10x_tim.c ****   * @param  TIM_OCPolarity: specifies the OC1 Polarity
1800:../libs/StdPeripheralDriver/src/stm32f10x_tim.c ****   *   This parameter can be one of the following values:
1801:../libs/StdPeripheralDriver/src/stm32f10x_tim.c ****   *     @arg TIM_OCPolarity_High: Output Compare active high
1802:../libs/StdPeripheralDriver/src/stm32f10x_tim.c ****   *     @arg TIM_OCPolarity_Low: Output Compare active low
1803:../libs/StdPeripheralDriver/src/stm32f10x_tim.c ****   * @retval None
1804:../libs/StdPeripheralDriver/src/stm32f10x_tim.c ****   */
1805:../libs/StdPeripheralDriver/src/stm32f10x_tim.c **** void TIM_OC1PolarityConfig(TIM_TypeDef* TIMx, uint16_t TIM_OCPolarity)
1806:../libs/StdPeripheralDriver/src/stm32f10x_tim.c **** {
 8964              		.loc 1 1806 0
 8965              		.cfi_startproc
 8966              		@ args = 0, pretend = 0, frame = 16
 8967              		@ frame_needed = 1, uses_anonymous_args = 0
 8968 0000 80B5     		push	{r7, lr}
 8969              	.LCFI147:
 8970              		.cfi_def_cfa_offset 8
 8971              		.cfi_offset 7, -8
 8972              		.cfi_offset 14, -4
 8973 0002 84B0     		sub	sp, sp, #16
 8974              	.LCFI148:
 8975              		.cfi_def_cfa_offset 24
 8976 0004 00AF     		add	r7, sp, #0
 8977              	.LCFI149:
 8978              		.cfi_def_cfa_register 7
 8979 0006 7860     		str	r0, [r7, #4]
 8980 0008 0B46     		mov	r3, r1
 8981 000a 7B80     		strh	r3, [r7, #2]	@ movhi
1807:../libs/StdPeripheralDriver/src/stm32f10x_tim.c ****   uint16_t tmpccer = 0;
 8982              		.loc 1 1807 0
 8983 000c 4FF00003 		mov	r3, #0
 8984 0010 FB81     		strh	r3, [r7, #14]	@ movhi
1808:../libs/StdPeripheralDriver/src/stm32f10x_tim.c ****   /* Check the parameters */
1809:../libs/StdPeripheralDriver/src/stm32f10x_tim.c ****   assert_param(IS_TIM_LIST8_PERIPH(TIMx));
 8985              		.loc 1 1809 0
 8986 0012 7A68     		ldr	r2, [r7, #4]
 8987 0014 314B     		ldr	r3, .L595
 8988 0016 9A42     		cmp	r2, r3
 8989 0018 37D0     		beq	.L589
 8990              		.loc 1 1809 0 is_stmt 0 discriminator 2
 8991 001a 7B68     		ldr	r3, [r7, #4]
 8992 001c B3F1804F 		cmp	r3, #1073741824
 8993 0020 33D0     		beq	.L589
 8994              		.loc 1 1809 0 discriminator 1
 8995 0022 7A68     		ldr	r2, [r7, #4]
 8996 0024 2E4B     		ldr	r3, .L595+4
 8997 0026 9A42     		cmp	r2, r3
 8998 0028 2FD0     		beq	.L589
 8999              		.loc 1 1809 0 discriminator 2
 9000 002a 7A68     		ldr	r2, [r7, #4]
 9001 002c 2D4B     		ldr	r3, .L595+8
 9002 002e 9A42     		cmp	r2, r3
 9003 0030 2BD0     		beq	.L589
 9004              		.loc 1 1809 0 discriminator 3
 9005 0032 7A68     		ldr	r2, [r7, #4]
 9006 0034 2C4B     		ldr	r3, .L595+12
 9007 0036 9A42     		cmp	r2, r3
 9008 0038 27D0     		beq	.L589
 9009              		.loc 1 1809 0 discriminator 4
 9010 003a 7A68     		ldr	r2, [r7, #4]
 9011 003c 2B4B     		ldr	r3, .L595+16
 9012 003e 9A42     		cmp	r2, r3
 9013 0040 23D0     		beq	.L589
 9014              		.loc 1 1809 0 discriminator 5
 9015 0042 7A68     		ldr	r2, [r7, #4]
 9016 0044 2A4B     		ldr	r3, .L595+20
 9017 0046 9A42     		cmp	r2, r3
 9018 0048 1FD0     		beq	.L589
 9019              		.loc 1 1809 0 discriminator 6
 9020 004a 7A68     		ldr	r2, [r7, #4]
 9021 004c 294B     		ldr	r3, .L595+24
 9022 004e 9A42     		cmp	r2, r3
 9023 0050 1BD0     		beq	.L589
 9024              		.loc 1 1809 0 discriminator 7
 9025 0052 7A68     		ldr	r2, [r7, #4]
 9026 0054 284B     		ldr	r3, .L595+28
 9027 0056 9A42     		cmp	r2, r3
 9028 0058 17D0     		beq	.L589
 9029              		.loc 1 1809 0 discriminator 8
 9030 005a 7A68     		ldr	r2, [r7, #4]
 9031 005c 274B     		ldr	r3, .L595+32
 9032 005e 9A42     		cmp	r2, r3
 9033 0060 13D0     		beq	.L589
 9034              		.loc 1 1809 0 discriminator 9
 9035 0062 7A68     		ldr	r2, [r7, #4]
 9036 0064 264B     		ldr	r3, .L595+36
 9037 0066 9A42     		cmp	r2, r3
 9038 0068 0FD0     		beq	.L589
 9039              		.loc 1 1809 0 discriminator 10
 9040 006a 7A68     		ldr	r2, [r7, #4]
 9041 006c 254B     		ldr	r3, .L595+40
 9042 006e 9A42     		cmp	r2, r3
 9043 0070 0BD0     		beq	.L589
 9044              		.loc 1 1809 0 discriminator 11
 9045 0072 7A68     		ldr	r2, [r7, #4]
 9046 0074 244B     		ldr	r3, .L595+44
 9047 0076 9A42     		cmp	r2, r3
 9048 0078 07D0     		beq	.L589
 9049              		.loc 1 1809 0 discriminator 12
 9050 007a 7A68     		ldr	r2, [r7, #4]
 9051 007c 234B     		ldr	r3, .L595+48
 9052 007e 9A42     		cmp	r2, r3
 9053 0080 03D0     		beq	.L589
 9054              		.loc 1 1809 0 discriminator 13
 9055 0082 7A68     		ldr	r2, [r7, #4]
 9056 0084 224B     		ldr	r3, .L595+52
 9057 0086 9A42     		cmp	r2, r3
 9058 0088 02D1     		bne	.L590
 9059              	.L589:
 9060              		.loc 1 1809 0 discriminator 1
 9061 008a 4FF00103 		mov	r3, #1
 9062 008e 01E0     		b	.L591
 9063              	.L590:
 9064              		.loc 1 1809 0 discriminator 3
 9065 0090 4FF00003 		mov	r3, #0
 9066              	.L591:
 9067              		.loc 1 1809 0 discriminator 4
 9068 0094 1846     		mov	r0, r3
 9069 0096 FFF7FEFF 		bl	assert_param
1810:../libs/StdPeripheralDriver/src/stm32f10x_tim.c ****   assert_param(IS_TIM_OC_POLARITY(TIM_OCPolarity));
 9070              		.loc 1 1810 0 is_stmt 1 discriminator 4
 9071 009a 7B88     		ldrh	r3, [r7, #2]
 9072 009c 002B     		cmp	r3, #0
 9073 009e 02D0     		beq	.L592
 9074              		.loc 1 1810 0 is_stmt 0 discriminator 2
 9075 00a0 7B88     		ldrh	r3, [r7, #2]
 9076 00a2 022B     		cmp	r3, #2
 9077 00a4 02D1     		bne	.L593
 9078              	.L592:
 9079              		.loc 1 1810 0 discriminator 1
 9080 00a6 4FF00103 		mov	r3, #1
 9081 00aa 01E0     		b	.L594
 9082              	.L593:
 9083              		.loc 1 1810 0 discriminator 3
 9084 00ac 4FF00003 		mov	r3, #0
 9085              	.L594:
 9086              		.loc 1 1810 0 discriminator 4
 9087 00b0 1846     		mov	r0, r3
 9088 00b2 FFF7FEFF 		bl	assert_param
1811:../libs/StdPeripheralDriver/src/stm32f10x_tim.c ****   tmpccer = TIMx->CCER;
 9089              		.loc 1 1811 0 is_stmt 1 discriminator 4
 9090 00b6 7B68     		ldr	r3, [r7, #4]
 9091 00b8 1B8C     		ldrh	r3, [r3, #32]	@ movhi
 9092 00ba FB81     		strh	r3, [r7, #14]	@ movhi
1812:../libs/StdPeripheralDriver/src/stm32f10x_tim.c ****   /* Set or Reset the CC1P Bit */
1813:../libs/StdPeripheralDriver/src/stm32f10x_tim.c ****   tmpccer &= (uint16_t)~((uint16_t)TIM_CCER_CC1P);
 9093              		.loc 1 1813 0 discriminator 4
 9094 00bc FB89     		ldrh	r3, [r7, #14]	@ movhi
 9095 00be 23F00203 		bic	r3, r3, #2
 9096 00c2 FB81     		strh	r3, [r7, #14]	@ movhi
1814:../libs/StdPeripheralDriver/src/stm32f10x_tim.c ****   tmpccer |= TIM_OCPolarity;
 9097              		.loc 1 1814 0 discriminator 4
 9098 00c4 FA89     		ldrh	r2, [r7, #14]	@ movhi
 9099 00c6 7B88     		ldrh	r3, [r7, #2]	@ movhi
 9100 00c8 1343     		orrs	r3, r3, r2
 9101 00ca FB81     		strh	r3, [r7, #14]	@ movhi
1815:../libs/StdPeripheralDriver/src/stm32f10x_tim.c ****   /* Write to TIMx CCER register */
1816:../libs/StdPeripheralDriver/src/stm32f10x_tim.c ****   TIMx->CCER = tmpccer;
 9102              		.loc 1 1816 0 discriminator 4
 9103 00cc 7B68     		ldr	r3, [r7, #4]
 9104 00ce FA89     		ldrh	r2, [r7, #14]	@ movhi
 9105 00d0 1A84     		strh	r2, [r3, #32]	@ movhi
1817:../libs/StdPeripheralDriver/src/stm32f10x_tim.c **** }
 9106              		.loc 1 1817 0 discriminator 4
 9107 00d2 07F11007 		add	r7, r7, #16
 9108 00d6 BD46     		mov	sp, r7
 9109 00d8 80BD     		pop	{r7, pc}
 9110              	.L596:
 9111 00da 00BF     		.align	2
 9112              	.L595:
 9113 00dc 002C0140 		.word	1073818624
 9114 00e0 00040040 		.word	1073742848
 9115 00e4 00080040 		.word	1073743872
 9116 00e8 000C0040 		.word	1073744896
 9117 00ec 00340140 		.word	1073820672
 9118 00f0 004C0140 		.word	1073826816
 9119 00f4 00500140 		.word	1073827840
 9120 00f8 00540140 		.word	1073828864
 9121 00fc 00180040 		.word	1073747968
 9122 0100 001C0040 		.word	1073748992
 9123 0104 00200040 		.word	1073750016
 9124 0108 00400140 		.word	1073823744
 9125 010c 00440140 		.word	1073824768
 9126 0110 00480140 		.word	1073825792
 9127              		.cfi_endproc
 9128              	.LFE78:
 9130              		.section	.text.TIM_OC1NPolarityConfig,"ax",%progbits
 9131              		.align	2
 9132              		.global	TIM_OC1NPolarityConfig
 9133              		.thumb
 9134              		.thumb_func
 9136              	TIM_OC1NPolarityConfig:
 9137              	.LFB79:
1818:../libs/StdPeripheralDriver/src/stm32f10x_tim.c **** 
1819:../libs/StdPeripheralDriver/src/stm32f10x_tim.c **** /**
1820:../libs/StdPeripheralDriver/src/stm32f10x_tim.c ****   * @brief  Configures the TIMx Channel 1N polarity.
1821:../libs/StdPeripheralDriver/src/stm32f10x_tim.c ****   * @param  TIMx: where x can be 1, 8, 15, 16 or 17 to select the TIM peripheral.
1822:../libs/StdPeripheralDriver/src/stm32f10x_tim.c ****   * @param  TIM_OCNPolarity: specifies the OC1N Polarity
1823:../libs/StdPeripheralDriver/src/stm32f10x_tim.c ****   *   This parameter can be one of the following values:
1824:../libs/StdPeripheralDriver/src/stm32f10x_tim.c ****   *     @arg TIM_OCNPolarity_High: Output Compare active high
1825:../libs/StdPeripheralDriver/src/stm32f10x_tim.c ****   *     @arg TIM_OCNPolarity_Low: Output Compare active low
1826:../libs/StdPeripheralDriver/src/stm32f10x_tim.c ****   * @retval None
1827:../libs/StdPeripheralDriver/src/stm32f10x_tim.c ****   */
1828:../libs/StdPeripheralDriver/src/stm32f10x_tim.c **** void TIM_OC1NPolarityConfig(TIM_TypeDef* TIMx, uint16_t TIM_OCNPolarity)
1829:../libs/StdPeripheralDriver/src/stm32f10x_tim.c **** {
 9138              		.loc 1 1829 0
 9139              		.cfi_startproc
 9140              		@ args = 0, pretend = 0, frame = 16
 9141              		@ frame_needed = 1, uses_anonymous_args = 0
 9142 0000 80B5     		push	{r7, lr}
 9143              	.LCFI150:
 9144              		.cfi_def_cfa_offset 8
 9145              		.cfi_offset 7, -8
 9146              		.cfi_offset 14, -4
 9147 0002 84B0     		sub	sp, sp, #16
 9148              	.LCFI151:
 9149              		.cfi_def_cfa_offset 24
 9150 0004 00AF     		add	r7, sp, #0
 9151              	.LCFI152:
 9152              		.cfi_def_cfa_register 7
 9153 0006 7860     		str	r0, [r7, #4]
 9154 0008 0B46     		mov	r3, r1
 9155 000a 7B80     		strh	r3, [r7, #2]	@ movhi
1830:../libs/StdPeripheralDriver/src/stm32f10x_tim.c ****   uint16_t tmpccer = 0;
 9156              		.loc 1 1830 0
 9157 000c 4FF00003 		mov	r3, #0
 9158 0010 FB81     		strh	r3, [r7, #14]	@ movhi
1831:../libs/StdPeripheralDriver/src/stm32f10x_tim.c ****   /* Check the parameters */
1832:../libs/StdPeripheralDriver/src/stm32f10x_tim.c ****   assert_param(IS_TIM_LIST2_PERIPH(TIMx));
 9159              		.loc 1 1832 0
 9160 0012 7A68     		ldr	r2, [r7, #4]
 9161 0014 1D4B     		ldr	r3, .L604
 9162 0016 9A42     		cmp	r2, r3
 9163 0018 0FD0     		beq	.L598
 9164              		.loc 1 1832 0 is_stmt 0 discriminator 2
 9165 001a 7A68     		ldr	r2, [r7, #4]
 9166 001c 1C4B     		ldr	r3, .L604+4
 9167 001e 9A42     		cmp	r2, r3
 9168 0020 0BD0     		beq	.L598
 9169              		.loc 1 1832 0 discriminator 1
 9170 0022 7A68     		ldr	r2, [r7, #4]
 9171 0024 1B4B     		ldr	r3, .L604+8
 9172 0026 9A42     		cmp	r2, r3
 9173 0028 07D0     		beq	.L598
 9174              		.loc 1 1832 0 discriminator 2
 9175 002a 7A68     		ldr	r2, [r7, #4]
 9176 002c 1A4B     		ldr	r3, .L604+12
 9177 002e 9A42     		cmp	r2, r3
 9178 0030 03D0     		beq	.L598
 9179              		.loc 1 1832 0 discriminator 3
 9180 0032 7A68     		ldr	r2, [r7, #4]
 9181 0034 194B     		ldr	r3, .L604+16
 9182 0036 9A42     		cmp	r2, r3
 9183 0038 02D1     		bne	.L599
 9184              	.L598:
 9185              		.loc 1 1832 0 discriminator 1
 9186 003a 4FF00103 		mov	r3, #1
 9187 003e 01E0     		b	.L600
 9188              	.L599:
 9189              		.loc 1 1832 0 discriminator 3
 9190 0040 4FF00003 		mov	r3, #0
 9191              	.L600:
 9192              		.loc 1 1832 0 discriminator 4
 9193 0044 1846     		mov	r0, r3
 9194 0046 FFF7FEFF 		bl	assert_param
1833:../libs/StdPeripheralDriver/src/stm32f10x_tim.c ****   assert_param(IS_TIM_OCN_POLARITY(TIM_OCNPolarity));
 9195              		.loc 1 1833 0 is_stmt 1 discriminator 4
 9196 004a 7B88     		ldrh	r3, [r7, #2]
 9197 004c 002B     		cmp	r3, #0
 9198 004e 02D0     		beq	.L601
 9199              		.loc 1 1833 0 is_stmt 0 discriminator 2
 9200 0050 7B88     		ldrh	r3, [r7, #2]
 9201 0052 082B     		cmp	r3, #8
 9202 0054 02D1     		bne	.L602
 9203              	.L601:
 9204              		.loc 1 1833 0 discriminator 1
 9205 0056 4FF00103 		mov	r3, #1
 9206 005a 01E0     		b	.L603
 9207              	.L602:
 9208              		.loc 1 1833 0 discriminator 3
 9209 005c 4FF00003 		mov	r3, #0
 9210              	.L603:
 9211              		.loc 1 1833 0 discriminator 4
 9212 0060 1846     		mov	r0, r3
 9213 0062 FFF7FEFF 		bl	assert_param
1834:../libs/StdPeripheralDriver/src/stm32f10x_tim.c ****    
1835:../libs/StdPeripheralDriver/src/stm32f10x_tim.c ****   tmpccer = TIMx->CCER;
 9214              		.loc 1 1835 0 is_stmt 1 discriminator 4
 9215 0066 7B68     		ldr	r3, [r7, #4]
 9216 0068 1B8C     		ldrh	r3, [r3, #32]	@ movhi
 9217 006a FB81     		strh	r3, [r7, #14]	@ movhi
1836:../libs/StdPeripheralDriver/src/stm32f10x_tim.c ****   /* Set or Reset the CC1NP Bit */
1837:../libs/StdPeripheralDriver/src/stm32f10x_tim.c ****   tmpccer &= (uint16_t)~((uint16_t)TIM_CCER_CC1NP);
 9218              		.loc 1 1837 0 discriminator 4
 9219 006c FB89     		ldrh	r3, [r7, #14]	@ movhi
 9220 006e 23F00803 		bic	r3, r3, #8
 9221 0072 FB81     		strh	r3, [r7, #14]	@ movhi
1838:../libs/StdPeripheralDriver/src/stm32f10x_tim.c ****   tmpccer |= TIM_OCNPolarity;
 9222              		.loc 1 1838 0 discriminator 4
 9223 0074 FA89     		ldrh	r2, [r7, #14]	@ movhi
 9224 0076 7B88     		ldrh	r3, [r7, #2]	@ movhi
 9225 0078 1343     		orrs	r3, r3, r2
 9226 007a FB81     		strh	r3, [r7, #14]	@ movhi
1839:../libs/StdPeripheralDriver/src/stm32f10x_tim.c ****   /* Write to TIMx CCER register */
1840:../libs/StdPeripheralDriver/src/stm32f10x_tim.c ****   TIMx->CCER = tmpccer;
 9227              		.loc 1 1840 0 discriminator 4
 9228 007c 7B68     		ldr	r3, [r7, #4]
 9229 007e FA89     		ldrh	r2, [r7, #14]	@ movhi
 9230 0080 1A84     		strh	r2, [r3, #32]	@ movhi
1841:../libs/StdPeripheralDriver/src/stm32f10x_tim.c **** }
 9231              		.loc 1 1841 0 discriminator 4
 9232 0082 07F11007 		add	r7, r7, #16
 9233 0086 BD46     		mov	sp, r7
 9234 0088 80BD     		pop	{r7, pc}
 9235              	.L605:
 9236 008a 00BF     		.align	2
 9237              	.L604:
 9238 008c 002C0140 		.word	1073818624
 9239 0090 00340140 		.word	1073820672
 9240 0094 00400140 		.word	1073823744
 9241 0098 00440140 		.word	1073824768
 9242 009c 00480140 		.word	1073825792
 9243              		.cfi_endproc
 9244              	.LFE79:
 9246              		.section	.text.TIM_OC2PolarityConfig,"ax",%progbits
 9247              		.align	2
 9248              		.global	TIM_OC2PolarityConfig
 9249              		.thumb
 9250              		.thumb_func
 9252              	TIM_OC2PolarityConfig:
 9253              	.LFB80:
1842:../libs/StdPeripheralDriver/src/stm32f10x_tim.c **** 
1843:../libs/StdPeripheralDriver/src/stm32f10x_tim.c **** /**
1844:../libs/StdPeripheralDriver/src/stm32f10x_tim.c ****   * @brief  Configures the TIMx channel 2 polarity.
1845:../libs/StdPeripheralDriver/src/stm32f10x_tim.c ****   * @param  TIMx: where x can be 1, 2, 3, 4, 5, 8, 9, 12 or 15 to select the TIM peripheral.
1846:../libs/StdPeripheralDriver/src/stm32f10x_tim.c ****   * @param  TIM_OCPolarity: specifies the OC2 Polarity
1847:../libs/StdPeripheralDriver/src/stm32f10x_tim.c ****   *   This parameter can be one of the following values:
1848:../libs/StdPeripheralDriver/src/stm32f10x_tim.c ****   *     @arg TIM_OCPolarity_High: Output Compare active high
1849:../libs/StdPeripheralDriver/src/stm32f10x_tim.c ****   *     @arg TIM_OCPolarity_Low: Output Compare active low
1850:../libs/StdPeripheralDriver/src/stm32f10x_tim.c ****   * @retval None
1851:../libs/StdPeripheralDriver/src/stm32f10x_tim.c ****   */
1852:../libs/StdPeripheralDriver/src/stm32f10x_tim.c **** void TIM_OC2PolarityConfig(TIM_TypeDef* TIMx, uint16_t TIM_OCPolarity)
1853:../libs/StdPeripheralDriver/src/stm32f10x_tim.c **** {
 9254              		.loc 1 1853 0
 9255              		.cfi_startproc
 9256              		@ args = 0, pretend = 0, frame = 16
 9257              		@ frame_needed = 1, uses_anonymous_args = 0
 9258 0000 80B5     		push	{r7, lr}
 9259              	.LCFI153:
 9260              		.cfi_def_cfa_offset 8
 9261              		.cfi_offset 7, -8
 9262              		.cfi_offset 14, -4
 9263 0002 84B0     		sub	sp, sp, #16
 9264              	.LCFI154:
 9265              		.cfi_def_cfa_offset 24
 9266 0004 00AF     		add	r7, sp, #0
 9267              	.LCFI155:
 9268              		.cfi_def_cfa_register 7
 9269 0006 7860     		str	r0, [r7, #4]
 9270 0008 0B46     		mov	r3, r1
 9271 000a 7B80     		strh	r3, [r7, #2]	@ movhi
1854:../libs/StdPeripheralDriver/src/stm32f10x_tim.c ****   uint16_t tmpccer = 0;
 9272              		.loc 1 1854 0
 9273 000c 4FF00003 		mov	r3, #0
 9274 0010 FB81     		strh	r3, [r7, #14]	@ movhi
1855:../libs/StdPeripheralDriver/src/stm32f10x_tim.c ****   /* Check the parameters */
1856:../libs/StdPeripheralDriver/src/stm32f10x_tim.c ****   assert_param(IS_TIM_LIST6_PERIPH(TIMx));
 9275              		.loc 1 1856 0
 9276 0012 7A68     		ldr	r2, [r7, #4]
 9277 0014 264B     		ldr	r3, .L613
 9278 0016 9A42     		cmp	r2, r3
 9279 0018 1FD0     		beq	.L607
 9280              		.loc 1 1856 0 is_stmt 0 discriminator 2
 9281 001a 7B68     		ldr	r3, [r7, #4]
 9282 001c B3F1804F 		cmp	r3, #1073741824
 9283 0020 1BD0     		beq	.L607
 9284              		.loc 1 1856 0 discriminator 1
 9285 0022 7A68     		ldr	r2, [r7, #4]
 9286 0024 234B     		ldr	r3, .L613+4
 9287 0026 9A42     		cmp	r2, r3
 9288 0028 17D0     		beq	.L607
 9289              		.loc 1 1856 0 discriminator 2
 9290 002a 7A68     		ldr	r2, [r7, #4]
 9291 002c 224B     		ldr	r3, .L613+8
 9292 002e 9A42     		cmp	r2, r3
 9293 0030 13D0     		beq	.L607
 9294              		.loc 1 1856 0 discriminator 3
 9295 0032 7A68     		ldr	r2, [r7, #4]
 9296 0034 214B     		ldr	r3, .L613+12
 9297 0036 9A42     		cmp	r2, r3
 9298 0038 0FD0     		beq	.L607
 9299              		.loc 1 1856 0 discriminator 4
 9300 003a 7A68     		ldr	r2, [r7, #4]
 9301 003c 204B     		ldr	r3, .L613+16
 9302 003e 9A42     		cmp	r2, r3
 9303 0040 0BD0     		beq	.L607
 9304              		.loc 1 1856 0 discriminator 5
 9305 0042 7A68     		ldr	r2, [r7, #4]
 9306 0044 1F4B     		ldr	r3, .L613+20
 9307 0046 9A42     		cmp	r2, r3
 9308 0048 07D0     		beq	.L607
 9309              		.loc 1 1856 0 discriminator 6
 9310 004a 7A68     		ldr	r2, [r7, #4]
 9311 004c 1E4B     		ldr	r3, .L613+24
 9312 004e 9A42     		cmp	r2, r3
 9313 0050 03D0     		beq	.L607
 9314              		.loc 1 1856 0 discriminator 7
 9315 0052 7A68     		ldr	r2, [r7, #4]
 9316 0054 1D4B     		ldr	r3, .L613+28
 9317 0056 9A42     		cmp	r2, r3
 9318 0058 02D1     		bne	.L608
 9319              	.L607:
 9320              		.loc 1 1856 0 discriminator 1
 9321 005a 4FF00103 		mov	r3, #1
 9322 005e 01E0     		b	.L609
 9323              	.L608:
 9324              		.loc 1 1856 0 discriminator 3
 9325 0060 4FF00003 		mov	r3, #0
 9326              	.L609:
 9327              		.loc 1 1856 0 discriminator 4
 9328 0064 1846     		mov	r0, r3
 9329 0066 FFF7FEFF 		bl	assert_param
1857:../libs/StdPeripheralDriver/src/stm32f10x_tim.c ****   assert_param(IS_TIM_OC_POLARITY(TIM_OCPolarity));
 9330              		.loc 1 1857 0 is_stmt 1 discriminator 4
 9331 006a 7B88     		ldrh	r3, [r7, #2]
 9332 006c 002B     		cmp	r3, #0
 9333 006e 02D0     		beq	.L610
 9334              		.loc 1 1857 0 is_stmt 0 discriminator 2
 9335 0070 7B88     		ldrh	r3, [r7, #2]
 9336 0072 022B     		cmp	r3, #2
 9337 0074 02D1     		bne	.L611
 9338              	.L610:
 9339              		.loc 1 1857 0 discriminator 1
 9340 0076 4FF00103 		mov	r3, #1
 9341 007a 01E0     		b	.L612
 9342              	.L611:
 9343              		.loc 1 1857 0 discriminator 3
 9344 007c 4FF00003 		mov	r3, #0
 9345              	.L612:
 9346              		.loc 1 1857 0 discriminator 4
 9347 0080 1846     		mov	r0, r3
 9348 0082 FFF7FEFF 		bl	assert_param
1858:../libs/StdPeripheralDriver/src/stm32f10x_tim.c ****   tmpccer = TIMx->CCER;
 9349              		.loc 1 1858 0 is_stmt 1 discriminator 4
 9350 0086 7B68     		ldr	r3, [r7, #4]
 9351 0088 1B8C     		ldrh	r3, [r3, #32]	@ movhi
 9352 008a FB81     		strh	r3, [r7, #14]	@ movhi
1859:../libs/StdPeripheralDriver/src/stm32f10x_tim.c ****   /* Set or Reset the CC2P Bit */
1860:../libs/StdPeripheralDriver/src/stm32f10x_tim.c ****   tmpccer &= (uint16_t)~((uint16_t)TIM_CCER_CC2P);
 9353              		.loc 1 1860 0 discriminator 4
 9354 008c FB89     		ldrh	r3, [r7, #14]	@ movhi
 9355 008e 23F02003 		bic	r3, r3, #32
 9356 0092 FB81     		strh	r3, [r7, #14]	@ movhi
1861:../libs/StdPeripheralDriver/src/stm32f10x_tim.c ****   tmpccer |= (uint16_t)(TIM_OCPolarity << 4);
 9357              		.loc 1 1861 0 discriminator 4
 9358 0094 7B88     		ldrh	r3, [r7, #2]	@ movhi
 9359 0096 4FEA0313 		lsl	r3, r3, #4
 9360 009a 9AB2     		uxth	r2, r3
 9361 009c FB89     		ldrh	r3, [r7, #14]	@ movhi
 9362 009e 1343     		orrs	r3, r3, r2
 9363 00a0 FB81     		strh	r3, [r7, #14]	@ movhi
1862:../libs/StdPeripheralDriver/src/stm32f10x_tim.c ****   /* Write to TIMx CCER register */
1863:../libs/StdPeripheralDriver/src/stm32f10x_tim.c ****   TIMx->CCER = tmpccer;
 9364              		.loc 1 1863 0 discriminator 4
 9365 00a2 7B68     		ldr	r3, [r7, #4]
 9366 00a4 FA89     		ldrh	r2, [r7, #14]	@ movhi
 9367 00a6 1A84     		strh	r2, [r3, #32]	@ movhi
1864:../libs/StdPeripheralDriver/src/stm32f10x_tim.c **** }
 9368              		.loc 1 1864 0 discriminator 4
 9369 00a8 07F11007 		add	r7, r7, #16
 9370 00ac BD46     		mov	sp, r7
 9371 00ae 80BD     		pop	{r7, pc}
 9372              	.L614:
 9373              		.align	2
 9374              	.L613:
 9375 00b0 002C0140 		.word	1073818624
 9376 00b4 00040040 		.word	1073742848
 9377 00b8 00080040 		.word	1073743872
 9378 00bc 000C0040 		.word	1073744896
 9379 00c0 00340140 		.word	1073820672
 9380 00c4 004C0140 		.word	1073826816
 9381 00c8 00180040 		.word	1073747968
 9382 00cc 00400140 		.word	1073823744
 9383              		.cfi_endproc
 9384              	.LFE80:
 9386              		.section	.text.TIM_OC2NPolarityConfig,"ax",%progbits
 9387              		.align	2
 9388              		.global	TIM_OC2NPolarityConfig
 9389              		.thumb
 9390              		.thumb_func
 9392              	TIM_OC2NPolarityConfig:
 9393              	.LFB81:
1865:../libs/StdPeripheralDriver/src/stm32f10x_tim.c **** 
1866:../libs/StdPeripheralDriver/src/stm32f10x_tim.c **** /**
1867:../libs/StdPeripheralDriver/src/stm32f10x_tim.c ****   * @brief  Configures the TIMx Channel 2N polarity.
1868:../libs/StdPeripheralDriver/src/stm32f10x_tim.c ****   * @param  TIMx: where x can be 1 or 8 to select the TIM peripheral.
1869:../libs/StdPeripheralDriver/src/stm32f10x_tim.c ****   * @param  TIM_OCNPolarity: specifies the OC2N Polarity
1870:../libs/StdPeripheralDriver/src/stm32f10x_tim.c ****   *   This parameter can be one of the following values:
1871:../libs/StdPeripheralDriver/src/stm32f10x_tim.c ****   *     @arg TIM_OCNPolarity_High: Output Compare active high
1872:../libs/StdPeripheralDriver/src/stm32f10x_tim.c ****   *     @arg TIM_OCNPolarity_Low: Output Compare active low
1873:../libs/StdPeripheralDriver/src/stm32f10x_tim.c ****   * @retval None
1874:../libs/StdPeripheralDriver/src/stm32f10x_tim.c ****   */
1875:../libs/StdPeripheralDriver/src/stm32f10x_tim.c **** void TIM_OC2NPolarityConfig(TIM_TypeDef* TIMx, uint16_t TIM_OCNPolarity)
1876:../libs/StdPeripheralDriver/src/stm32f10x_tim.c **** {
 9394              		.loc 1 1876 0
 9395              		.cfi_startproc
 9396              		@ args = 0, pretend = 0, frame = 16
 9397              		@ frame_needed = 1, uses_anonymous_args = 0
 9398 0000 80B5     		push	{r7, lr}
 9399              	.LCFI156:
 9400              		.cfi_def_cfa_offset 8
 9401              		.cfi_offset 7, -8
 9402              		.cfi_offset 14, -4
 9403 0002 84B0     		sub	sp, sp, #16
 9404              	.LCFI157:
 9405              		.cfi_def_cfa_offset 24
 9406 0004 00AF     		add	r7, sp, #0
 9407              	.LCFI158:
 9408              		.cfi_def_cfa_register 7
 9409 0006 7860     		str	r0, [r7, #4]
 9410 0008 0B46     		mov	r3, r1
 9411 000a 7B80     		strh	r3, [r7, #2]	@ movhi
1877:../libs/StdPeripheralDriver/src/stm32f10x_tim.c ****   uint16_t tmpccer = 0;
 9412              		.loc 1 1877 0
 9413 000c 4FF00003 		mov	r3, #0
 9414 0010 FB81     		strh	r3, [r7, #14]	@ movhi
1878:../libs/StdPeripheralDriver/src/stm32f10x_tim.c ****   /* Check the parameters */
1879:../libs/StdPeripheralDriver/src/stm32f10x_tim.c ****   assert_param(IS_TIM_LIST1_PERIPH(TIMx));
 9415              		.loc 1 1879 0
 9416 0012 7A68     		ldr	r2, [r7, #4]
 9417 0014 184B     		ldr	r3, .L622
 9418 0016 9A42     		cmp	r2, r3
 9419 0018 03D0     		beq	.L616
 9420              		.loc 1 1879 0 is_stmt 0 discriminator 2
 9421 001a 7A68     		ldr	r2, [r7, #4]
 9422 001c 174B     		ldr	r3, .L622+4
 9423 001e 9A42     		cmp	r2, r3
 9424 0020 02D1     		bne	.L617
 9425              	.L616:
 9426              		.loc 1 1879 0 discriminator 1
 9427 0022 4FF00103 		mov	r3, #1
 9428 0026 01E0     		b	.L618
 9429              	.L617:
 9430              		.loc 1 1879 0 discriminator 3
 9431 0028 4FF00003 		mov	r3, #0
 9432              	.L618:
 9433              		.loc 1 1879 0 discriminator 4
 9434 002c 1846     		mov	r0, r3
 9435 002e FFF7FEFF 		bl	assert_param
1880:../libs/StdPeripheralDriver/src/stm32f10x_tim.c ****   assert_param(IS_TIM_OCN_POLARITY(TIM_OCNPolarity));
 9436              		.loc 1 1880 0 is_stmt 1 discriminator 4
 9437 0032 7B88     		ldrh	r3, [r7, #2]
 9438 0034 002B     		cmp	r3, #0
 9439 0036 02D0     		beq	.L619
 9440              		.loc 1 1880 0 is_stmt 0 discriminator 2
 9441 0038 7B88     		ldrh	r3, [r7, #2]
 9442 003a 082B     		cmp	r3, #8
 9443 003c 02D1     		bne	.L620
 9444              	.L619:
 9445              		.loc 1 1880 0 discriminator 1
 9446 003e 4FF00103 		mov	r3, #1
 9447 0042 01E0     		b	.L621
 9448              	.L620:
 9449              		.loc 1 1880 0 discriminator 3
 9450 0044 4FF00003 		mov	r3, #0
 9451              	.L621:
 9452              		.loc 1 1880 0 discriminator 4
 9453 0048 1846     		mov	r0, r3
 9454 004a FFF7FEFF 		bl	assert_param
1881:../libs/StdPeripheralDriver/src/stm32f10x_tim.c ****   
1882:../libs/StdPeripheralDriver/src/stm32f10x_tim.c ****   tmpccer = TIMx->CCER;
 9455              		.loc 1 1882 0 is_stmt 1 discriminator 4
 9456 004e 7B68     		ldr	r3, [r7, #4]
 9457 0050 1B8C     		ldrh	r3, [r3, #32]	@ movhi
 9458 0052 FB81     		strh	r3, [r7, #14]	@ movhi
1883:../libs/StdPeripheralDriver/src/stm32f10x_tim.c ****   /* Set or Reset the CC2NP Bit */
1884:../libs/StdPeripheralDriver/src/stm32f10x_tim.c ****   tmpccer &= (uint16_t)~((uint16_t)TIM_CCER_CC2NP);
 9459              		.loc 1 1884 0 discriminator 4
 9460 0054 FB89     		ldrh	r3, [r7, #14]	@ movhi
 9461 0056 23F08003 		bic	r3, r3, #128
 9462 005a FB81     		strh	r3, [r7, #14]	@ movhi
1885:../libs/StdPeripheralDriver/src/stm32f10x_tim.c ****   tmpccer |= (uint16_t)(TIM_OCNPolarity << 4);
 9463              		.loc 1 1885 0 discriminator 4
 9464 005c 7B88     		ldrh	r3, [r7, #2]	@ movhi
 9465 005e 4FEA0313 		lsl	r3, r3, #4
 9466 0062 9AB2     		uxth	r2, r3
 9467 0064 FB89     		ldrh	r3, [r7, #14]	@ movhi
 9468 0066 1343     		orrs	r3, r3, r2
 9469 0068 FB81     		strh	r3, [r7, #14]	@ movhi
1886:../libs/StdPeripheralDriver/src/stm32f10x_tim.c ****   /* Write to TIMx CCER register */
1887:../libs/StdPeripheralDriver/src/stm32f10x_tim.c ****   TIMx->CCER = tmpccer;
 9470              		.loc 1 1887 0 discriminator 4
 9471 006a 7B68     		ldr	r3, [r7, #4]
 9472 006c FA89     		ldrh	r2, [r7, #14]	@ movhi
 9473 006e 1A84     		strh	r2, [r3, #32]	@ movhi
1888:../libs/StdPeripheralDriver/src/stm32f10x_tim.c **** }
 9474              		.loc 1 1888 0 discriminator 4
 9475 0070 07F11007 		add	r7, r7, #16
 9476 0074 BD46     		mov	sp, r7
 9477 0076 80BD     		pop	{r7, pc}
 9478              	.L623:
 9479              		.align	2
 9480              	.L622:
 9481 0078 002C0140 		.word	1073818624
 9482 007c 00340140 		.word	1073820672
 9483              		.cfi_endproc
 9484              	.LFE81:
 9486              		.section	.text.TIM_OC3PolarityConfig,"ax",%progbits
 9487              		.align	2
 9488              		.global	TIM_OC3PolarityConfig
 9489              		.thumb
 9490              		.thumb_func
 9492              	TIM_OC3PolarityConfig:
 9493              	.LFB82:
1889:../libs/StdPeripheralDriver/src/stm32f10x_tim.c **** 
1890:../libs/StdPeripheralDriver/src/stm32f10x_tim.c **** /**
1891:../libs/StdPeripheralDriver/src/stm32f10x_tim.c ****   * @brief  Configures the TIMx channel 3 polarity.
1892:../libs/StdPeripheralDriver/src/stm32f10x_tim.c ****   * @param  TIMx: where x can be 1, 2, 3, 4, 5 or 8 to select the TIM peripheral.
1893:../libs/StdPeripheralDriver/src/stm32f10x_tim.c ****   * @param  TIM_OCPolarity: specifies the OC3 Polarity
1894:../libs/StdPeripheralDriver/src/stm32f10x_tim.c ****   *   This parameter can be one of the following values:
1895:../libs/StdPeripheralDriver/src/stm32f10x_tim.c ****   *     @arg TIM_OCPolarity_High: Output Compare active high
1896:../libs/StdPeripheralDriver/src/stm32f10x_tim.c ****   *     @arg TIM_OCPolarity_Low: Output Compare active low
1897:../libs/StdPeripheralDriver/src/stm32f10x_tim.c ****   * @retval None
1898:../libs/StdPeripheralDriver/src/stm32f10x_tim.c ****   */
1899:../libs/StdPeripheralDriver/src/stm32f10x_tim.c **** void TIM_OC3PolarityConfig(TIM_TypeDef* TIMx, uint16_t TIM_OCPolarity)
1900:../libs/StdPeripheralDriver/src/stm32f10x_tim.c **** {
 9494              		.loc 1 1900 0
 9495              		.cfi_startproc
 9496              		@ args = 0, pretend = 0, frame = 16
 9497              		@ frame_needed = 1, uses_anonymous_args = 0
 9498 0000 80B5     		push	{r7, lr}
 9499              	.LCFI159:
 9500              		.cfi_def_cfa_offset 8
 9501              		.cfi_offset 7, -8
 9502              		.cfi_offset 14, -4
 9503 0002 84B0     		sub	sp, sp, #16
 9504              	.LCFI160:
 9505              		.cfi_def_cfa_offset 24
 9506 0004 00AF     		add	r7, sp, #0
 9507              	.LCFI161:
 9508              		.cfi_def_cfa_register 7
 9509 0006 7860     		str	r0, [r7, #4]
 9510 0008 0B46     		mov	r3, r1
 9511 000a 7B80     		strh	r3, [r7, #2]	@ movhi
1901:../libs/StdPeripheralDriver/src/stm32f10x_tim.c ****   uint16_t tmpccer = 0;
 9512              		.loc 1 1901 0
 9513 000c 4FF00003 		mov	r3, #0
 9514 0010 FB81     		strh	r3, [r7, #14]	@ movhi
1902:../libs/StdPeripheralDriver/src/stm32f10x_tim.c ****   /* Check the parameters */
1903:../libs/StdPeripheralDriver/src/stm32f10x_tim.c ****   assert_param(IS_TIM_LIST3_PERIPH(TIMx));
 9515              		.loc 1 1903 0
 9516 0012 7A68     		ldr	r2, [r7, #4]
 9517 0014 204B     		ldr	r3, .L631
 9518 0016 9A42     		cmp	r2, r3
 9519 0018 13D0     		beq	.L625
 9520              		.loc 1 1903 0 is_stmt 0 discriminator 2
 9521 001a 7B68     		ldr	r3, [r7, #4]
 9522 001c B3F1804F 		cmp	r3, #1073741824
 9523 0020 0FD0     		beq	.L625
 9524              		.loc 1 1903 0 discriminator 1
 9525 0022 7A68     		ldr	r2, [r7, #4]
 9526 0024 1D4B     		ldr	r3, .L631+4
 9527 0026 9A42     		cmp	r2, r3
 9528 0028 0BD0     		beq	.L625
 9529              		.loc 1 1903 0 discriminator 2
 9530 002a 7A68     		ldr	r2, [r7, #4]
 9531 002c 1C4B     		ldr	r3, .L631+8
 9532 002e 9A42     		cmp	r2, r3
 9533 0030 07D0     		beq	.L625
 9534              		.loc 1 1903 0 discriminator 3
 9535 0032 7A68     		ldr	r2, [r7, #4]
 9536 0034 1B4B     		ldr	r3, .L631+12
 9537 0036 9A42     		cmp	r2, r3
 9538 0038 03D0     		beq	.L625
 9539              		.loc 1 1903 0 discriminator 4
 9540 003a 7A68     		ldr	r2, [r7, #4]
 9541 003c 1A4B     		ldr	r3, .L631+16
 9542 003e 9A42     		cmp	r2, r3
 9543 0040 02D1     		bne	.L626
 9544              	.L625:
 9545              		.loc 1 1903 0 discriminator 1
 9546 0042 4FF00103 		mov	r3, #1
 9547 0046 01E0     		b	.L627
 9548              	.L626:
 9549              		.loc 1 1903 0 discriminator 3
 9550 0048 4FF00003 		mov	r3, #0
 9551              	.L627:
 9552              		.loc 1 1903 0 discriminator 4
 9553 004c 1846     		mov	r0, r3
 9554 004e FFF7FEFF 		bl	assert_param
1904:../libs/StdPeripheralDriver/src/stm32f10x_tim.c ****   assert_param(IS_TIM_OC_POLARITY(TIM_OCPolarity));
 9555              		.loc 1 1904 0 is_stmt 1 discriminator 4
 9556 0052 7B88     		ldrh	r3, [r7, #2]
 9557 0054 002B     		cmp	r3, #0
 9558 0056 02D0     		beq	.L628
 9559              		.loc 1 1904 0 is_stmt 0 discriminator 2
 9560 0058 7B88     		ldrh	r3, [r7, #2]
 9561 005a 022B     		cmp	r3, #2
 9562 005c 02D1     		bne	.L629
 9563              	.L628:
 9564              		.loc 1 1904 0 discriminator 1
 9565 005e 4FF00103 		mov	r3, #1
 9566 0062 01E0     		b	.L630
 9567              	.L629:
 9568              		.loc 1 1904 0 discriminator 3
 9569 0064 4FF00003 		mov	r3, #0
 9570              	.L630:
 9571              		.loc 1 1904 0 discriminator 4
 9572 0068 1846     		mov	r0, r3
 9573 006a FFF7FEFF 		bl	assert_param
1905:../libs/StdPeripheralDriver/src/stm32f10x_tim.c ****   tmpccer = TIMx->CCER;
 9574              		.loc 1 1905 0 is_stmt 1 discriminator 4
 9575 006e 7B68     		ldr	r3, [r7, #4]
 9576 0070 1B8C     		ldrh	r3, [r3, #32]	@ movhi
 9577 0072 FB81     		strh	r3, [r7, #14]	@ movhi
1906:../libs/StdPeripheralDriver/src/stm32f10x_tim.c ****   /* Set or Reset the CC3P Bit */
1907:../libs/StdPeripheralDriver/src/stm32f10x_tim.c ****   tmpccer &= (uint16_t)~((uint16_t)TIM_CCER_CC3P);
 9578              		.loc 1 1907 0 discriminator 4
 9579 0074 FB89     		ldrh	r3, [r7, #14]	@ movhi
 9580 0076 23F40073 		bic	r3, r3, #512
 9581 007a FB81     		strh	r3, [r7, #14]	@ movhi
1908:../libs/StdPeripheralDriver/src/stm32f10x_tim.c ****   tmpccer |= (uint16_t)(TIM_OCPolarity << 8);
 9582              		.loc 1 1908 0 discriminator 4
 9583 007c 7B88     		ldrh	r3, [r7, #2]	@ movhi
 9584 007e 4FEA0323 		lsl	r3, r3, #8
 9585 0082 9AB2     		uxth	r2, r3
 9586 0084 FB89     		ldrh	r3, [r7, #14]	@ movhi
 9587 0086 1343     		orrs	r3, r3, r2
 9588 0088 FB81     		strh	r3, [r7, #14]	@ movhi
1909:../libs/StdPeripheralDriver/src/stm32f10x_tim.c ****   /* Write to TIMx CCER register */
1910:../libs/StdPeripheralDriver/src/stm32f10x_tim.c ****   TIMx->CCER = tmpccer;
 9589              		.loc 1 1910 0 discriminator 4
 9590 008a 7B68     		ldr	r3, [r7, #4]
 9591 008c FA89     		ldrh	r2, [r7, #14]	@ movhi
 9592 008e 1A84     		strh	r2, [r3, #32]	@ movhi
1911:../libs/StdPeripheralDriver/src/stm32f10x_tim.c **** }
 9593              		.loc 1 1911 0 discriminator 4
 9594 0090 07F11007 		add	r7, r7, #16
 9595 0094 BD46     		mov	sp, r7
 9596 0096 80BD     		pop	{r7, pc}
 9597              	.L632:
 9598              		.align	2
 9599              	.L631:
 9600 0098 002C0140 		.word	1073818624
 9601 009c 00040040 		.word	1073742848
 9602 00a0 00080040 		.word	1073743872
 9603 00a4 000C0040 		.word	1073744896
 9604 00a8 00340140 		.word	1073820672
 9605              		.cfi_endproc
 9606              	.LFE82:
 9608              		.section	.text.TIM_OC3NPolarityConfig,"ax",%progbits
 9609              		.align	2
 9610              		.global	TIM_OC3NPolarityConfig
 9611              		.thumb
 9612              		.thumb_func
 9614              	TIM_OC3NPolarityConfig:
 9615              	.LFB83:
1912:../libs/StdPeripheralDriver/src/stm32f10x_tim.c **** 
1913:../libs/StdPeripheralDriver/src/stm32f10x_tim.c **** /**
1914:../libs/StdPeripheralDriver/src/stm32f10x_tim.c ****   * @brief  Configures the TIMx Channel 3N polarity.
1915:../libs/StdPeripheralDriver/src/stm32f10x_tim.c ****   * @param  TIMx: where x can be 1 or 8 to select the TIM peripheral.
1916:../libs/StdPeripheralDriver/src/stm32f10x_tim.c ****   * @param  TIM_OCNPolarity: specifies the OC3N Polarity
1917:../libs/StdPeripheralDriver/src/stm32f10x_tim.c ****   *   This parameter can be one of the following values:
1918:../libs/StdPeripheralDriver/src/stm32f10x_tim.c ****   *     @arg TIM_OCNPolarity_High: Output Compare active high
1919:../libs/StdPeripheralDriver/src/stm32f10x_tim.c ****   *     @arg TIM_OCNPolarity_Low: Output Compare active low
1920:../libs/StdPeripheralDriver/src/stm32f10x_tim.c ****   * @retval None
1921:../libs/StdPeripheralDriver/src/stm32f10x_tim.c ****   */
1922:../libs/StdPeripheralDriver/src/stm32f10x_tim.c **** void TIM_OC3NPolarityConfig(TIM_TypeDef* TIMx, uint16_t TIM_OCNPolarity)
1923:../libs/StdPeripheralDriver/src/stm32f10x_tim.c **** {
 9616              		.loc 1 1923 0
 9617              		.cfi_startproc
 9618              		@ args = 0, pretend = 0, frame = 16
 9619              		@ frame_needed = 1, uses_anonymous_args = 0
 9620 0000 80B5     		push	{r7, lr}
 9621              	.LCFI162:
 9622              		.cfi_def_cfa_offset 8
 9623              		.cfi_offset 7, -8
 9624              		.cfi_offset 14, -4
 9625 0002 84B0     		sub	sp, sp, #16
 9626              	.LCFI163:
 9627              		.cfi_def_cfa_offset 24
 9628 0004 00AF     		add	r7, sp, #0
 9629              	.LCFI164:
 9630              		.cfi_def_cfa_register 7
 9631 0006 7860     		str	r0, [r7, #4]
 9632 0008 0B46     		mov	r3, r1
 9633 000a 7B80     		strh	r3, [r7, #2]	@ movhi
1924:../libs/StdPeripheralDriver/src/stm32f10x_tim.c ****   uint16_t tmpccer = 0;
 9634              		.loc 1 1924 0
 9635 000c 4FF00003 		mov	r3, #0
 9636 0010 FB81     		strh	r3, [r7, #14]	@ movhi
1925:../libs/StdPeripheralDriver/src/stm32f10x_tim.c ****  
1926:../libs/StdPeripheralDriver/src/stm32f10x_tim.c ****   /* Check the parameters */
1927:../libs/StdPeripheralDriver/src/stm32f10x_tim.c ****   assert_param(IS_TIM_LIST1_PERIPH(TIMx));
 9637              		.loc 1 1927 0
 9638 0012 7A68     		ldr	r2, [r7, #4]
 9639 0014 184B     		ldr	r3, .L640
 9640 0016 9A42     		cmp	r2, r3
 9641 0018 03D0     		beq	.L634
 9642              		.loc 1 1927 0 is_stmt 0 discriminator 2
 9643 001a 7A68     		ldr	r2, [r7, #4]
 9644 001c 174B     		ldr	r3, .L640+4
 9645 001e 9A42     		cmp	r2, r3
 9646 0020 02D1     		bne	.L635
 9647              	.L634:
 9648              		.loc 1 1927 0 discriminator 1
 9649 0022 4FF00103 		mov	r3, #1
 9650 0026 01E0     		b	.L636
 9651              	.L635:
 9652              		.loc 1 1927 0 discriminator 3
 9653 0028 4FF00003 		mov	r3, #0
 9654              	.L636:
 9655              		.loc 1 1927 0 discriminator 4
 9656 002c 1846     		mov	r0, r3
 9657 002e FFF7FEFF 		bl	assert_param
1928:../libs/StdPeripheralDriver/src/stm32f10x_tim.c ****   assert_param(IS_TIM_OCN_POLARITY(TIM_OCNPolarity));
 9658              		.loc 1 1928 0 is_stmt 1 discriminator 4
 9659 0032 7B88     		ldrh	r3, [r7, #2]
 9660 0034 002B     		cmp	r3, #0
 9661 0036 02D0     		beq	.L637
 9662              		.loc 1 1928 0 is_stmt 0 discriminator 2
 9663 0038 7B88     		ldrh	r3, [r7, #2]
 9664 003a 082B     		cmp	r3, #8
 9665 003c 02D1     		bne	.L638
 9666              	.L637:
 9667              		.loc 1 1928 0 discriminator 1
 9668 003e 4FF00103 		mov	r3, #1
 9669 0042 01E0     		b	.L639
 9670              	.L638:
 9671              		.loc 1 1928 0 discriminator 3
 9672 0044 4FF00003 		mov	r3, #0
 9673              	.L639:
 9674              		.loc 1 1928 0 discriminator 4
 9675 0048 1846     		mov	r0, r3
 9676 004a FFF7FEFF 		bl	assert_param
1929:../libs/StdPeripheralDriver/src/stm32f10x_tim.c ****     
1930:../libs/StdPeripheralDriver/src/stm32f10x_tim.c ****   tmpccer = TIMx->CCER;
 9677              		.loc 1 1930 0 is_stmt 1 discriminator 4
 9678 004e 7B68     		ldr	r3, [r7, #4]
 9679 0050 1B8C     		ldrh	r3, [r3, #32]	@ movhi
 9680 0052 FB81     		strh	r3, [r7, #14]	@ movhi
1931:../libs/StdPeripheralDriver/src/stm32f10x_tim.c ****   /* Set or Reset the CC3NP Bit */
1932:../libs/StdPeripheralDriver/src/stm32f10x_tim.c ****   tmpccer &= (uint16_t)~((uint16_t)TIM_CCER_CC3NP);
 9681              		.loc 1 1932 0 discriminator 4
 9682 0054 FB89     		ldrh	r3, [r7, #14]	@ movhi
 9683 0056 23F40063 		bic	r3, r3, #2048
 9684 005a FB81     		strh	r3, [r7, #14]	@ movhi
1933:../libs/StdPeripheralDriver/src/stm32f10x_tim.c ****   tmpccer |= (uint16_t)(TIM_OCNPolarity << 8);
 9685              		.loc 1 1933 0 discriminator 4
 9686 005c 7B88     		ldrh	r3, [r7, #2]	@ movhi
 9687 005e 4FEA0323 		lsl	r3, r3, #8
 9688 0062 9AB2     		uxth	r2, r3
 9689 0064 FB89     		ldrh	r3, [r7, #14]	@ movhi
 9690 0066 1343     		orrs	r3, r3, r2
 9691 0068 FB81     		strh	r3, [r7, #14]	@ movhi
1934:../libs/StdPeripheralDriver/src/stm32f10x_tim.c ****   /* Write to TIMx CCER register */
1935:../libs/StdPeripheralDriver/src/stm32f10x_tim.c ****   TIMx->CCER = tmpccer;
 9692              		.loc 1 1935 0 discriminator 4
 9693 006a 7B68     		ldr	r3, [r7, #4]
 9694 006c FA89     		ldrh	r2, [r7, #14]	@ movhi
 9695 006e 1A84     		strh	r2, [r3, #32]	@ movhi
1936:../libs/StdPeripheralDriver/src/stm32f10x_tim.c **** }
 9696              		.loc 1 1936 0 discriminator 4
 9697 0070 07F11007 		add	r7, r7, #16
 9698 0074 BD46     		mov	sp, r7
 9699 0076 80BD     		pop	{r7, pc}
 9700              	.L641:
 9701              		.align	2
 9702              	.L640:
 9703 0078 002C0140 		.word	1073818624
 9704 007c 00340140 		.word	1073820672
 9705              		.cfi_endproc
 9706              	.LFE83:
 9708              		.section	.text.TIM_OC4PolarityConfig,"ax",%progbits
 9709              		.align	2
 9710              		.global	TIM_OC4PolarityConfig
 9711              		.thumb
 9712              		.thumb_func
 9714              	TIM_OC4PolarityConfig:
 9715              	.LFB84:
1937:../libs/StdPeripheralDriver/src/stm32f10x_tim.c **** 
1938:../libs/StdPeripheralDriver/src/stm32f10x_tim.c **** /**
1939:../libs/StdPeripheralDriver/src/stm32f10x_tim.c ****   * @brief  Configures the TIMx channel 4 polarity.
1940:../libs/StdPeripheralDriver/src/stm32f10x_tim.c ****   * @param  TIMx: where x can be 1, 2, 3, 4, 5 or 8 to select the TIM peripheral.
1941:../libs/StdPeripheralDriver/src/stm32f10x_tim.c ****   * @param  TIM_OCPolarity: specifies the OC4 Polarity
1942:../libs/StdPeripheralDriver/src/stm32f10x_tim.c ****   *   This parameter can be one of the following values:
1943:../libs/StdPeripheralDriver/src/stm32f10x_tim.c ****   *     @arg TIM_OCPolarity_High: Output Compare active high
1944:../libs/StdPeripheralDriver/src/stm32f10x_tim.c ****   *     @arg TIM_OCPolarity_Low: Output Compare active low
1945:../libs/StdPeripheralDriver/src/stm32f10x_tim.c ****   * @retval None
1946:../libs/StdPeripheralDriver/src/stm32f10x_tim.c ****   */
1947:../libs/StdPeripheralDriver/src/stm32f10x_tim.c **** void TIM_OC4PolarityConfig(TIM_TypeDef* TIMx, uint16_t TIM_OCPolarity)
1948:../libs/StdPeripheralDriver/src/stm32f10x_tim.c **** {
 9716              		.loc 1 1948 0
 9717              		.cfi_startproc
 9718              		@ args = 0, pretend = 0, frame = 16
 9719              		@ frame_needed = 1, uses_anonymous_args = 0
 9720 0000 80B5     		push	{r7, lr}
 9721              	.LCFI165:
 9722              		.cfi_def_cfa_offset 8
 9723              		.cfi_offset 7, -8
 9724              		.cfi_offset 14, -4
 9725 0002 84B0     		sub	sp, sp, #16
 9726              	.LCFI166:
 9727              		.cfi_def_cfa_offset 24
 9728 0004 00AF     		add	r7, sp, #0
 9729              	.LCFI167:
 9730              		.cfi_def_cfa_register 7
 9731 0006 7860     		str	r0, [r7, #4]
 9732 0008 0B46     		mov	r3, r1
 9733 000a 7B80     		strh	r3, [r7, #2]	@ movhi
1949:../libs/StdPeripheralDriver/src/stm32f10x_tim.c ****   uint16_t tmpccer = 0;
 9734              		.loc 1 1949 0
 9735 000c 4FF00003 		mov	r3, #0
 9736 0010 FB81     		strh	r3, [r7, #14]	@ movhi
1950:../libs/StdPeripheralDriver/src/stm32f10x_tim.c ****   /* Check the parameters */
1951:../libs/StdPeripheralDriver/src/stm32f10x_tim.c ****   assert_param(IS_TIM_LIST3_PERIPH(TIMx));
 9737              		.loc 1 1951 0
 9738 0012 7A68     		ldr	r2, [r7, #4]
 9739 0014 204B     		ldr	r3, .L649
 9740 0016 9A42     		cmp	r2, r3
 9741 0018 13D0     		beq	.L643
 9742              		.loc 1 1951 0 is_stmt 0 discriminator 2
 9743 001a 7B68     		ldr	r3, [r7, #4]
 9744 001c B3F1804F 		cmp	r3, #1073741824
 9745 0020 0FD0     		beq	.L643
 9746              		.loc 1 1951 0 discriminator 1
 9747 0022 7A68     		ldr	r2, [r7, #4]
 9748 0024 1D4B     		ldr	r3, .L649+4
 9749 0026 9A42     		cmp	r2, r3
 9750 0028 0BD0     		beq	.L643
 9751              		.loc 1 1951 0 discriminator 2
 9752 002a 7A68     		ldr	r2, [r7, #4]
 9753 002c 1C4B     		ldr	r3, .L649+8
 9754 002e 9A42     		cmp	r2, r3
 9755 0030 07D0     		beq	.L643
 9756              		.loc 1 1951 0 discriminator 3
 9757 0032 7A68     		ldr	r2, [r7, #4]
 9758 0034 1B4B     		ldr	r3, .L649+12
 9759 0036 9A42     		cmp	r2, r3
 9760 0038 03D0     		beq	.L643
 9761              		.loc 1 1951 0 discriminator 4
 9762 003a 7A68     		ldr	r2, [r7, #4]
 9763 003c 1A4B     		ldr	r3, .L649+16
 9764 003e 9A42     		cmp	r2, r3
 9765 0040 02D1     		bne	.L644
 9766              	.L643:
 9767              		.loc 1 1951 0 discriminator 1
 9768 0042 4FF00103 		mov	r3, #1
 9769 0046 01E0     		b	.L645
 9770              	.L644:
 9771              		.loc 1 1951 0 discriminator 3
 9772 0048 4FF00003 		mov	r3, #0
 9773              	.L645:
 9774              		.loc 1 1951 0 discriminator 4
 9775 004c 1846     		mov	r0, r3
 9776 004e FFF7FEFF 		bl	assert_param
1952:../libs/StdPeripheralDriver/src/stm32f10x_tim.c ****   assert_param(IS_TIM_OC_POLARITY(TIM_OCPolarity));
 9777              		.loc 1 1952 0 is_stmt 1 discriminator 4
 9778 0052 7B88     		ldrh	r3, [r7, #2]
 9779 0054 002B     		cmp	r3, #0
 9780 0056 02D0     		beq	.L646
 9781              		.loc 1 1952 0 is_stmt 0 discriminator 2
 9782 0058 7B88     		ldrh	r3, [r7, #2]
 9783 005a 022B     		cmp	r3, #2
 9784 005c 02D1     		bne	.L647
 9785              	.L646:
 9786              		.loc 1 1952 0 discriminator 1
 9787 005e 4FF00103 		mov	r3, #1
 9788 0062 01E0     		b	.L648
 9789              	.L647:
 9790              		.loc 1 1952 0 discriminator 3
 9791 0064 4FF00003 		mov	r3, #0
 9792              	.L648:
 9793              		.loc 1 1952 0 discriminator 4
 9794 0068 1846     		mov	r0, r3
 9795 006a FFF7FEFF 		bl	assert_param
1953:../libs/StdPeripheralDriver/src/stm32f10x_tim.c ****   tmpccer = TIMx->CCER;
 9796              		.loc 1 1953 0 is_stmt 1 discriminator 4
 9797 006e 7B68     		ldr	r3, [r7, #4]
 9798 0070 1B8C     		ldrh	r3, [r3, #32]	@ movhi
 9799 0072 FB81     		strh	r3, [r7, #14]	@ movhi
1954:../libs/StdPeripheralDriver/src/stm32f10x_tim.c ****   /* Set or Reset the CC4P Bit */
1955:../libs/StdPeripheralDriver/src/stm32f10x_tim.c ****   tmpccer &= (uint16_t)~((uint16_t)TIM_CCER_CC4P);
 9800              		.loc 1 1955 0 discriminator 4
 9801 0074 FB89     		ldrh	r3, [r7, #14]	@ movhi
 9802 0076 23F40053 		bic	r3, r3, #8192
 9803 007a FB81     		strh	r3, [r7, #14]	@ movhi
1956:../libs/StdPeripheralDriver/src/stm32f10x_tim.c ****   tmpccer |= (uint16_t)(TIM_OCPolarity << 12);
 9804              		.loc 1 1956 0 discriminator 4
 9805 007c 7B88     		ldrh	r3, [r7, #2]	@ movhi
 9806 007e 4FEA0333 		lsl	r3, r3, #12
 9807 0082 9AB2     		uxth	r2, r3
 9808 0084 FB89     		ldrh	r3, [r7, #14]	@ movhi
 9809 0086 1343     		orrs	r3, r3, r2
 9810 0088 FB81     		strh	r3, [r7, #14]	@ movhi
1957:../libs/StdPeripheralDriver/src/stm32f10x_tim.c ****   /* Write to TIMx CCER register */
1958:../libs/StdPeripheralDriver/src/stm32f10x_tim.c ****   TIMx->CCER = tmpccer;
 9811              		.loc 1 1958 0 discriminator 4
 9812 008a 7B68     		ldr	r3, [r7, #4]
 9813 008c FA89     		ldrh	r2, [r7, #14]	@ movhi
 9814 008e 1A84     		strh	r2, [r3, #32]	@ movhi
1959:../libs/StdPeripheralDriver/src/stm32f10x_tim.c **** }
 9815              		.loc 1 1959 0 discriminator 4
 9816 0090 07F11007 		add	r7, r7, #16
 9817 0094 BD46     		mov	sp, r7
 9818 0096 80BD     		pop	{r7, pc}
 9819              	.L650:
 9820              		.align	2
 9821              	.L649:
 9822 0098 002C0140 		.word	1073818624
 9823 009c 00040040 		.word	1073742848
 9824 00a0 00080040 		.word	1073743872
 9825 00a4 000C0040 		.word	1073744896
 9826 00a8 00340140 		.word	1073820672
 9827              		.cfi_endproc
 9828              	.LFE84:
 9830              		.section	.text.TIM_CCxCmd,"ax",%progbits
 9831              		.align	2
 9832              		.global	TIM_CCxCmd
 9833              		.thumb
 9834              		.thumb_func
 9836              	TIM_CCxCmd:
 9837              	.LFB85:
1960:../libs/StdPeripheralDriver/src/stm32f10x_tim.c **** 
1961:../libs/StdPeripheralDriver/src/stm32f10x_tim.c **** /**
1962:../libs/StdPeripheralDriver/src/stm32f10x_tim.c ****   * @brief  Enables or disables the TIM Capture Compare Channel x.
1963:../libs/StdPeripheralDriver/src/stm32f10x_tim.c ****   * @param  TIMx: where x can be 1 to 17 except 6 and 7 to select the TIM peripheral.
1964:../libs/StdPeripheralDriver/src/stm32f10x_tim.c ****   * @param  TIM_Channel: specifies the TIM Channel
1965:../libs/StdPeripheralDriver/src/stm32f10x_tim.c ****   *   This parameter can be one of the following values:
1966:../libs/StdPeripheralDriver/src/stm32f10x_tim.c ****   *     @arg TIM_Channel_1: TIM Channel 1
1967:../libs/StdPeripheralDriver/src/stm32f10x_tim.c ****   *     @arg TIM_Channel_2: TIM Channel 2
1968:../libs/StdPeripheralDriver/src/stm32f10x_tim.c ****   *     @arg TIM_Channel_3: TIM Channel 3
1969:../libs/StdPeripheralDriver/src/stm32f10x_tim.c ****   *     @arg TIM_Channel_4: TIM Channel 4
1970:../libs/StdPeripheralDriver/src/stm32f10x_tim.c ****   * @param  TIM_CCx: specifies the TIM Channel CCxE bit new state.
1971:../libs/StdPeripheralDriver/src/stm32f10x_tim.c ****   *   This parameter can be: TIM_CCx_Enable or TIM_CCx_Disable. 
1972:../libs/StdPeripheralDriver/src/stm32f10x_tim.c ****   * @retval None
1973:../libs/StdPeripheralDriver/src/stm32f10x_tim.c ****   */
1974:../libs/StdPeripheralDriver/src/stm32f10x_tim.c **** void TIM_CCxCmd(TIM_TypeDef* TIMx, uint16_t TIM_Channel, uint16_t TIM_CCx)
1975:../libs/StdPeripheralDriver/src/stm32f10x_tim.c **** {
 9838              		.loc 1 1975 0
 9839              		.cfi_startproc
 9840              		@ args = 0, pretend = 0, frame = 16
 9841              		@ frame_needed = 1, uses_anonymous_args = 0
 9842 0000 80B5     		push	{r7, lr}
 9843              	.LCFI168:
 9844              		.cfi_def_cfa_offset 8
 9845              		.cfi_offset 7, -8
 9846              		.cfi_offset 14, -4
 9847 0002 84B0     		sub	sp, sp, #16
 9848              	.LCFI169:
 9849              		.cfi_def_cfa_offset 24
 9850 0004 00AF     		add	r7, sp, #0
 9851              	.LCFI170:
 9852              		.cfi_def_cfa_register 7
 9853 0006 7860     		str	r0, [r7, #4]
 9854 0008 1346     		mov	r3, r2
 9855 000a 0A46     		mov	r2, r1	@ movhi
 9856 000c 7A80     		strh	r2, [r7, #2]	@ movhi
 9857 000e 3B80     		strh	r3, [r7, #0]	@ movhi
1976:../libs/StdPeripheralDriver/src/stm32f10x_tim.c ****   uint16_t tmp = 0;
 9858              		.loc 1 1976 0
 9859 0010 4FF00003 		mov	r3, #0
 9860 0014 FB81     		strh	r3, [r7, #14]	@ movhi
1977:../libs/StdPeripheralDriver/src/stm32f10x_tim.c **** 
1978:../libs/StdPeripheralDriver/src/stm32f10x_tim.c ****   /* Check the parameters */
1979:../libs/StdPeripheralDriver/src/stm32f10x_tim.c ****   assert_param(IS_TIM_LIST8_PERIPH(TIMx));
 9861              		.loc 1 1979 0
 9862 0016 7A68     		ldr	r2, [r7, #4]
 9863 0018 424B     		ldr	r3, .L661
 9864 001a 9A42     		cmp	r2, r3
 9865 001c 37D0     		beq	.L652
 9866              		.loc 1 1979 0 is_stmt 0 discriminator 2
 9867 001e 7B68     		ldr	r3, [r7, #4]
 9868 0020 B3F1804F 		cmp	r3, #1073741824
 9869 0024 33D0     		beq	.L652
 9870              		.loc 1 1979 0 discriminator 1
 9871 0026 7A68     		ldr	r2, [r7, #4]
 9872 0028 3F4B     		ldr	r3, .L661+4
 9873 002a 9A42     		cmp	r2, r3
 9874 002c 2FD0     		beq	.L652
 9875              		.loc 1 1979 0 discriminator 2
 9876 002e 7A68     		ldr	r2, [r7, #4]
 9877 0030 3E4B     		ldr	r3, .L661+8
 9878 0032 9A42     		cmp	r2, r3
 9879 0034 2BD0     		beq	.L652
 9880              		.loc 1 1979 0 discriminator 3
 9881 0036 7A68     		ldr	r2, [r7, #4]
 9882 0038 3D4B     		ldr	r3, .L661+12
 9883 003a 9A42     		cmp	r2, r3
 9884 003c 27D0     		beq	.L652
 9885              		.loc 1 1979 0 discriminator 4
 9886 003e 7A68     		ldr	r2, [r7, #4]
 9887 0040 3C4B     		ldr	r3, .L661+16
 9888 0042 9A42     		cmp	r2, r3
 9889 0044 23D0     		beq	.L652
 9890              		.loc 1 1979 0 discriminator 5
 9891 0046 7A68     		ldr	r2, [r7, #4]
 9892 0048 3B4B     		ldr	r3, .L661+20
 9893 004a 9A42     		cmp	r2, r3
 9894 004c 1FD0     		beq	.L652
 9895              		.loc 1 1979 0 discriminator 6
 9896 004e 7A68     		ldr	r2, [r7, #4]
 9897 0050 3A4B     		ldr	r3, .L661+24
 9898 0052 9A42     		cmp	r2, r3
 9899 0054 1BD0     		beq	.L652
 9900              		.loc 1 1979 0 discriminator 7
 9901 0056 7A68     		ldr	r2, [r7, #4]
 9902 0058 394B     		ldr	r3, .L661+28
 9903 005a 9A42     		cmp	r2, r3
 9904 005c 17D0     		beq	.L652
 9905              		.loc 1 1979 0 discriminator 8
 9906 005e 7A68     		ldr	r2, [r7, #4]
 9907 0060 384B     		ldr	r3, .L661+32
 9908 0062 9A42     		cmp	r2, r3
 9909 0064 13D0     		beq	.L652
 9910              		.loc 1 1979 0 discriminator 9
 9911 0066 7A68     		ldr	r2, [r7, #4]
 9912 0068 374B     		ldr	r3, .L661+36
 9913 006a 9A42     		cmp	r2, r3
 9914 006c 0FD0     		beq	.L652
 9915              		.loc 1 1979 0 discriminator 10
 9916 006e 7A68     		ldr	r2, [r7, #4]
 9917 0070 364B     		ldr	r3, .L661+40
 9918 0072 9A42     		cmp	r2, r3
 9919 0074 0BD0     		beq	.L652
 9920              		.loc 1 1979 0 discriminator 11
 9921 0076 7A68     		ldr	r2, [r7, #4]
 9922 0078 354B     		ldr	r3, .L661+44
 9923 007a 9A42     		cmp	r2, r3
 9924 007c 07D0     		beq	.L652
 9925              		.loc 1 1979 0 discriminator 12
 9926 007e 7A68     		ldr	r2, [r7, #4]
 9927 0080 344B     		ldr	r3, .L661+48
 9928 0082 9A42     		cmp	r2, r3
 9929 0084 03D0     		beq	.L652
 9930              		.loc 1 1979 0 discriminator 13
 9931 0086 7A68     		ldr	r2, [r7, #4]
 9932 0088 334B     		ldr	r3, .L661+52
 9933 008a 9A42     		cmp	r2, r3
 9934 008c 02D1     		bne	.L653
 9935              	.L652:
 9936              		.loc 1 1979 0 discriminator 1
 9937 008e 4FF00103 		mov	r3, #1
 9938 0092 01E0     		b	.L654
 9939              	.L653:
 9940              		.loc 1 1979 0 discriminator 3
 9941 0094 4FF00003 		mov	r3, #0
 9942              	.L654:
 9943              		.loc 1 1979 0 discriminator 4
 9944 0098 1846     		mov	r0, r3
 9945 009a FFF7FEFF 		bl	assert_param
1980:../libs/StdPeripheralDriver/src/stm32f10x_tim.c ****   assert_param(IS_TIM_CHANNEL(TIM_Channel));
 9946              		.loc 1 1980 0 is_stmt 1 discriminator 4
 9947 009e 7B88     		ldrh	r3, [r7, #2]
 9948 00a0 002B     		cmp	r3, #0
 9949 00a2 08D0     		beq	.L655
 9950              		.loc 1 1980 0 is_stmt 0 discriminator 2
 9951 00a4 7B88     		ldrh	r3, [r7, #2]
 9952 00a6 042B     		cmp	r3, #4
 9953 00a8 05D0     		beq	.L655
 9954              		.loc 1 1980 0 discriminator 1
 9955 00aa 7B88     		ldrh	r3, [r7, #2]
 9956 00ac 082B     		cmp	r3, #8
 9957 00ae 02D0     		beq	.L655
 9958              		.loc 1 1980 0 discriminator 2
 9959 00b0 7B88     		ldrh	r3, [r7, #2]
 9960 00b2 0C2B     		cmp	r3, #12
 9961 00b4 02D1     		bne	.L656
 9962              	.L655:
 9963              		.loc 1 1980 0 discriminator 1
 9964 00b6 4FF00103 		mov	r3, #1
 9965 00ba 01E0     		b	.L657
 9966              	.L656:
 9967              		.loc 1 1980 0 discriminator 3
 9968 00bc 4FF00003 		mov	r3, #0
 9969              	.L657:
 9970              		.loc 1 1980 0 discriminator 4
 9971 00c0 1846     		mov	r0, r3
 9972 00c2 FFF7FEFF 		bl	assert_param
1981:../libs/StdPeripheralDriver/src/stm32f10x_tim.c ****   assert_param(IS_TIM_CCX(TIM_CCx));
 9973              		.loc 1 1981 0 is_stmt 1 discriminator 4
 9974 00c6 3B88     		ldrh	r3, [r7, #0]
 9975 00c8 012B     		cmp	r3, #1
 9976 00ca 02D0     		beq	.L658
 9977              		.loc 1 1981 0 is_stmt 0 discriminator 2
 9978 00cc 3B88     		ldrh	r3, [r7, #0]
 9979 00ce 002B     		cmp	r3, #0
 9980 00d0 02D1     		bne	.L659
 9981              	.L658:
 9982              		.loc 1 1981 0 discriminator 1
 9983 00d2 4FF00103 		mov	r3, #1
 9984 00d6 01E0     		b	.L660
 9985              	.L659:
 9986              		.loc 1 1981 0 discriminator 3
 9987 00d8 4FF00003 		mov	r3, #0
 9988              	.L660:
 9989              		.loc 1 1981 0 discriminator 4
 9990 00dc 1846     		mov	r0, r3
 9991 00de FFF7FEFF 		bl	assert_param
1982:../libs/StdPeripheralDriver/src/stm32f10x_tim.c **** 
1983:../libs/StdPeripheralDriver/src/stm32f10x_tim.c ****   tmp = CCER_CCE_Set << TIM_Channel;
 9992              		.loc 1 1983 0 is_stmt 1 discriminator 4
 9993 00e2 7B88     		ldrh	r3, [r7, #2]
 9994 00e4 4FF00102 		mov	r2, #1
 9995 00e8 02FA03F3 		lsl	r3, r2, r3
 9996 00ec FB81     		strh	r3, [r7, #14]	@ movhi
1984:../libs/StdPeripheralDriver/src/stm32f10x_tim.c **** 
1985:../libs/StdPeripheralDriver/src/stm32f10x_tim.c ****   /* Reset the CCxE Bit */
1986:../libs/StdPeripheralDriver/src/stm32f10x_tim.c ****   TIMx->CCER &= (uint16_t)~ tmp;
 9997              		.loc 1 1986 0 discriminator 4
 9998 00ee 7B68     		ldr	r3, [r7, #4]
 9999 00f0 1B8C     		ldrh	r3, [r3, #32]	@ movhi
 10000 00f2 9AB2     		uxth	r2, r3
 10001 00f4 FB89     		ldrh	r3, [r7, #14]	@ movhi
 10002 00f6 6FEA0303 		mvn	r3, r3
 10003 00fa 9BB2     		uxth	r3, r3
 10004 00fc 1340     		ands	r3, r3, r2
 10005 00fe 9AB2     		uxth	r2, r3
 10006 0100 7B68     		ldr	r3, [r7, #4]
 10007 0102 1A84     		strh	r2, [r3, #32]	@ movhi
1987:../libs/StdPeripheralDriver/src/stm32f10x_tim.c **** 
1988:../libs/StdPeripheralDriver/src/stm32f10x_tim.c ****   /* Set or reset the CCxE Bit */ 
1989:../libs/StdPeripheralDriver/src/stm32f10x_tim.c ****   TIMx->CCER |=  (uint16_t)(TIM_CCx << TIM_Channel);
 10008              		.loc 1 1989 0 discriminator 4
 10009 0104 7B68     		ldr	r3, [r7, #4]
 10010 0106 1B8C     		ldrh	r3, [r3, #32]	@ movhi
 10011 0108 9AB2     		uxth	r2, r3
 10012 010a 3988     		ldrh	r1, [r7, #0]
 10013 010c 7B88     		ldrh	r3, [r7, #2]
 10014 010e 01FA03F3 		lsl	r3, r1, r3
 10015 0112 9BB2     		uxth	r3, r3
 10016 0114 1343     		orrs	r3, r3, r2
 10017 0116 9AB2     		uxth	r2, r3
 10018 0118 7B68     		ldr	r3, [r7, #4]
 10019 011a 1A84     		strh	r2, [r3, #32]	@ movhi
1990:../libs/StdPeripheralDriver/src/stm32f10x_tim.c **** }
 10020              		.loc 1 1990 0 discriminator 4
 10021 011c 07F11007 		add	r7, r7, #16
 10022 0120 BD46     		mov	sp, r7
 10023 0122 80BD     		pop	{r7, pc}
 10024              	.L662:
 10025              		.align	2
 10026              	.L661:
 10027 0124 002C0140 		.word	1073818624
 10028 0128 00040040 		.word	1073742848
 10029 012c 00080040 		.word	1073743872
 10030 0130 000C0040 		.word	1073744896
 10031 0134 00340140 		.word	1073820672
 10032 0138 004C0140 		.word	1073826816
 10033 013c 00500140 		.word	1073827840
 10034 0140 00540140 		.word	1073828864
 10035 0144 00180040 		.word	1073747968
 10036 0148 001C0040 		.word	1073748992
 10037 014c 00200040 		.word	1073750016
 10038 0150 00400140 		.word	1073823744
 10039 0154 00440140 		.word	1073824768
 10040 0158 00480140 		.word	1073825792
 10041              		.cfi_endproc
 10042              	.LFE85:
 10044              		.section	.text.TIM_CCxNCmd,"ax",%progbits
 10045              		.align	2
 10046              		.global	TIM_CCxNCmd
 10047              		.thumb
 10048              		.thumb_func
 10050              	TIM_CCxNCmd:
 10051              	.LFB86:
1991:../libs/StdPeripheralDriver/src/stm32f10x_tim.c **** 
1992:../libs/StdPeripheralDriver/src/stm32f10x_tim.c **** /**
1993:../libs/StdPeripheralDriver/src/stm32f10x_tim.c ****   * @brief  Enables or disables the TIM Capture Compare Channel xN.
1994:../libs/StdPeripheralDriver/src/stm32f10x_tim.c ****   * @param  TIMx: where x can be 1, 8, 15, 16 or 17 to select the TIM peripheral.
1995:../libs/StdPeripheralDriver/src/stm32f10x_tim.c ****   * @param  TIM_Channel: specifies the TIM Channel
1996:../libs/StdPeripheralDriver/src/stm32f10x_tim.c ****   *   This parameter can be one of the following values:
1997:../libs/StdPeripheralDriver/src/stm32f10x_tim.c ****   *     @arg TIM_Channel_1: TIM Channel 1
1998:../libs/StdPeripheralDriver/src/stm32f10x_tim.c ****   *     @arg TIM_Channel_2: TIM Channel 2
1999:../libs/StdPeripheralDriver/src/stm32f10x_tim.c ****   *     @arg TIM_Channel_3: TIM Channel 3
2000:../libs/StdPeripheralDriver/src/stm32f10x_tim.c ****   * @param  TIM_CCxN: specifies the TIM Channel CCxNE bit new state.
2001:../libs/StdPeripheralDriver/src/stm32f10x_tim.c ****   *   This parameter can be: TIM_CCxN_Enable or TIM_CCxN_Disable. 
2002:../libs/StdPeripheralDriver/src/stm32f10x_tim.c ****   * @retval None
2003:../libs/StdPeripheralDriver/src/stm32f10x_tim.c ****   */
2004:../libs/StdPeripheralDriver/src/stm32f10x_tim.c **** void TIM_CCxNCmd(TIM_TypeDef* TIMx, uint16_t TIM_Channel, uint16_t TIM_CCxN)
2005:../libs/StdPeripheralDriver/src/stm32f10x_tim.c **** {
 10052              		.loc 1 2005 0
 10053              		.cfi_startproc
 10054              		@ args = 0, pretend = 0, frame = 16
 10055              		@ frame_needed = 1, uses_anonymous_args = 0
 10056 0000 80B5     		push	{r7, lr}
 10057              	.LCFI171:
 10058              		.cfi_def_cfa_offset 8
 10059              		.cfi_offset 7, -8
 10060              		.cfi_offset 14, -4
 10061 0002 84B0     		sub	sp, sp, #16
 10062              	.LCFI172:
 10063              		.cfi_def_cfa_offset 24
 10064 0004 00AF     		add	r7, sp, #0
 10065              	.LCFI173:
 10066              		.cfi_def_cfa_register 7
 10067 0006 7860     		str	r0, [r7, #4]
 10068 0008 1346     		mov	r3, r2
 10069 000a 0A46     		mov	r2, r1	@ movhi
 10070 000c 7A80     		strh	r2, [r7, #2]	@ movhi
 10071 000e 3B80     		strh	r3, [r7, #0]	@ movhi
2006:../libs/StdPeripheralDriver/src/stm32f10x_tim.c ****   uint16_t tmp = 0;
 10072              		.loc 1 2006 0
 10073 0010 4FF00003 		mov	r3, #0
 10074 0014 FB81     		strh	r3, [r7, #14]	@ movhi
2007:../libs/StdPeripheralDriver/src/stm32f10x_tim.c **** 
2008:../libs/StdPeripheralDriver/src/stm32f10x_tim.c ****   /* Check the parameters */
2009:../libs/StdPeripheralDriver/src/stm32f10x_tim.c ****   assert_param(IS_TIM_LIST2_PERIPH(TIMx));
 10075              		.loc 1 2009 0
 10076 0016 7A68     		ldr	r2, [r7, #4]
 10077 0018 2D4B     		ldr	r3, .L673
 10078 001a 9A42     		cmp	r2, r3
 10079 001c 0FD0     		beq	.L664
 10080              		.loc 1 2009 0 is_stmt 0 discriminator 2
 10081 001e 7A68     		ldr	r2, [r7, #4]
 10082 0020 2C4B     		ldr	r3, .L673+4
 10083 0022 9A42     		cmp	r2, r3
 10084 0024 0BD0     		beq	.L664
 10085              		.loc 1 2009 0 discriminator 1
 10086 0026 7A68     		ldr	r2, [r7, #4]
 10087 0028 2B4B     		ldr	r3, .L673+8
 10088 002a 9A42     		cmp	r2, r3
 10089 002c 07D0     		beq	.L664
 10090              		.loc 1 2009 0 discriminator 2
 10091 002e 7A68     		ldr	r2, [r7, #4]
 10092 0030 2A4B     		ldr	r3, .L673+12
 10093 0032 9A42     		cmp	r2, r3
 10094 0034 03D0     		beq	.L664
 10095              		.loc 1 2009 0 discriminator 3
 10096 0036 7A68     		ldr	r2, [r7, #4]
 10097 0038 294B     		ldr	r3, .L673+16
 10098 003a 9A42     		cmp	r2, r3
 10099 003c 02D1     		bne	.L665
 10100              	.L664:
 10101              		.loc 1 2009 0 discriminator 1
 10102 003e 4FF00103 		mov	r3, #1
 10103 0042 01E0     		b	.L666
 10104              	.L665:
 10105              		.loc 1 2009 0 discriminator 3
 10106 0044 4FF00003 		mov	r3, #0
 10107              	.L666:
 10108              		.loc 1 2009 0 discriminator 4
 10109 0048 1846     		mov	r0, r3
 10110 004a FFF7FEFF 		bl	assert_param
2010:../libs/StdPeripheralDriver/src/stm32f10x_tim.c ****   assert_param(IS_TIM_COMPLEMENTARY_CHANNEL(TIM_Channel));
 10111              		.loc 1 2010 0 is_stmt 1 discriminator 4
 10112 004e 7B88     		ldrh	r3, [r7, #2]
 10113 0050 002B     		cmp	r3, #0
 10114 0052 05D0     		beq	.L667
 10115              		.loc 1 2010 0 is_stmt 0 discriminator 2
 10116 0054 7B88     		ldrh	r3, [r7, #2]
 10117 0056 042B     		cmp	r3, #4
 10118 0058 02D0     		beq	.L667
 10119              		.loc 1 2010 0 discriminator 1
 10120 005a 7B88     		ldrh	r3, [r7, #2]
 10121 005c 082B     		cmp	r3, #8
 10122 005e 02D1     		bne	.L668
 10123              	.L667:
 10124 0060 4FF00103 		mov	r3, #1
 10125 0064 01E0     		b	.L669
 10126              	.L668:
 10127              		.loc 1 2010 0 discriminator 3
 10128 0066 4FF00003 		mov	r3, #0
 10129              	.L669:
 10130              		.loc 1 2010 0 discriminator 4
 10131 006a 1846     		mov	r0, r3
 10132 006c FFF7FEFF 		bl	assert_param
2011:../libs/StdPeripheralDriver/src/stm32f10x_tim.c ****   assert_param(IS_TIM_CCXN(TIM_CCxN));
 10133              		.loc 1 2011 0 is_stmt 1 discriminator 4
 10134 0070 3B88     		ldrh	r3, [r7, #0]
 10135 0072 042B     		cmp	r3, #4
 10136 0074 02D0     		beq	.L670
 10137              		.loc 1 2011 0 is_stmt 0 discriminator 2
 10138 0076 3B88     		ldrh	r3, [r7, #0]
 10139 0078 002B     		cmp	r3, #0
 10140 007a 02D1     		bne	.L671
 10141              	.L670:
 10142              		.loc 1 2011 0 discriminator 1
 10143 007c 4FF00103 		mov	r3, #1
 10144 0080 01E0     		b	.L672
 10145              	.L671:
 10146              		.loc 1 2011 0 discriminator 3
 10147 0082 4FF00003 		mov	r3, #0
 10148              	.L672:
 10149              		.loc 1 2011 0 discriminator 4
 10150 0086 1846     		mov	r0, r3
 10151 0088 FFF7FEFF 		bl	assert_param
2012:../libs/StdPeripheralDriver/src/stm32f10x_tim.c **** 
2013:../libs/StdPeripheralDriver/src/stm32f10x_tim.c ****   tmp = CCER_CCNE_Set << TIM_Channel;
 10152              		.loc 1 2013 0 is_stmt 1 discriminator 4
 10153 008c 7B88     		ldrh	r3, [r7, #2]
 10154 008e 4FF00402 		mov	r2, #4
 10155 0092 02FA03F3 		lsl	r3, r2, r3
 10156 0096 FB81     		strh	r3, [r7, #14]	@ movhi
2014:../libs/StdPeripheralDriver/src/stm32f10x_tim.c **** 
2015:../libs/StdPeripheralDriver/src/stm32f10x_tim.c ****   /* Reset the CCxNE Bit */
2016:../libs/StdPeripheralDriver/src/stm32f10x_tim.c ****   TIMx->CCER &= (uint16_t) ~tmp;
 10157              		.loc 1 2016 0 discriminator 4
 10158 0098 7B68     		ldr	r3, [r7, #4]
 10159 009a 1B8C     		ldrh	r3, [r3, #32]	@ movhi
 10160 009c 9AB2     		uxth	r2, r3
 10161 009e FB89     		ldrh	r3, [r7, #14]	@ movhi
 10162 00a0 6FEA0303 		mvn	r3, r3
 10163 00a4 9BB2     		uxth	r3, r3
 10164 00a6 1340     		ands	r3, r3, r2
 10165 00a8 9AB2     		uxth	r2, r3
 10166 00aa 7B68     		ldr	r3, [r7, #4]
 10167 00ac 1A84     		strh	r2, [r3, #32]	@ movhi
2017:../libs/StdPeripheralDriver/src/stm32f10x_tim.c **** 
2018:../libs/StdPeripheralDriver/src/stm32f10x_tim.c ****   /* Set or reset the CCxNE Bit */ 
2019:../libs/StdPeripheralDriver/src/stm32f10x_tim.c ****   TIMx->CCER |=  (uint16_t)(TIM_CCxN << TIM_Channel);
 10168              		.loc 1 2019 0 discriminator 4
 10169 00ae 7B68     		ldr	r3, [r7, #4]
 10170 00b0 1B8C     		ldrh	r3, [r3, #32]	@ movhi
 10171 00b2 9AB2     		uxth	r2, r3
 10172 00b4 3988     		ldrh	r1, [r7, #0]
 10173 00b6 7B88     		ldrh	r3, [r7, #2]
 10174 00b8 01FA03F3 		lsl	r3, r1, r3
 10175 00bc 9BB2     		uxth	r3, r3
 10176 00be 1343     		orrs	r3, r3, r2
 10177 00c0 9AB2     		uxth	r2, r3
 10178 00c2 7B68     		ldr	r3, [r7, #4]
 10179 00c4 1A84     		strh	r2, [r3, #32]	@ movhi
2020:../libs/StdPeripheralDriver/src/stm32f10x_tim.c **** }
 10180              		.loc 1 2020 0 discriminator 4
 10181 00c6 07F11007 		add	r7, r7, #16
 10182 00ca BD46     		mov	sp, r7
 10183 00cc 80BD     		pop	{r7, pc}
 10184              	.L674:
 10185 00ce 00BF     		.align	2
 10186              	.L673:
 10187 00d0 002C0140 		.word	1073818624
 10188 00d4 00340140 		.word	1073820672
 10189 00d8 00400140 		.word	1073823744
 10190 00dc 00440140 		.word	1073824768
 10191 00e0 00480140 		.word	1073825792
 10192              		.cfi_endproc
 10193              	.LFE86:
 10195              		.section	.text.TIM_SelectOCxM,"ax",%progbits
 10196              		.align	2
 10197              		.global	TIM_SelectOCxM
 10198              		.thumb
 10199              		.thumb_func
 10201              	TIM_SelectOCxM:
 10202              	.LFB87:
2021:../libs/StdPeripheralDriver/src/stm32f10x_tim.c **** 
2022:../libs/StdPeripheralDriver/src/stm32f10x_tim.c **** /**
2023:../libs/StdPeripheralDriver/src/stm32f10x_tim.c ****   * @brief  Selects the TIM Output Compare Mode.
2024:../libs/StdPeripheralDriver/src/stm32f10x_tim.c ****   * @note   This function disables the selected channel before changing the Output
2025:../libs/StdPeripheralDriver/src/stm32f10x_tim.c ****   *         Compare Mode.
2026:../libs/StdPeripheralDriver/src/stm32f10x_tim.c ****   *         User has to enable this channel using TIM_CCxCmd and TIM_CCxNCmd functions.
2027:../libs/StdPeripheralDriver/src/stm32f10x_tim.c ****   * @param  TIMx: where x can be 1 to 17 except 6 and 7 to select the TIM peripheral.
2028:../libs/StdPeripheralDriver/src/stm32f10x_tim.c ****   * @param  TIM_Channel: specifies the TIM Channel
2029:../libs/StdPeripheralDriver/src/stm32f10x_tim.c ****   *   This parameter can be one of the following values:
2030:../libs/StdPeripheralDriver/src/stm32f10x_tim.c ****   *     @arg TIM_Channel_1: TIM Channel 1
2031:../libs/StdPeripheralDriver/src/stm32f10x_tim.c ****   *     @arg TIM_Channel_2: TIM Channel 2
2032:../libs/StdPeripheralDriver/src/stm32f10x_tim.c ****   *     @arg TIM_Channel_3: TIM Channel 3
2033:../libs/StdPeripheralDriver/src/stm32f10x_tim.c ****   *     @arg TIM_Channel_4: TIM Channel 4
2034:../libs/StdPeripheralDriver/src/stm32f10x_tim.c ****   * @param  TIM_OCMode: specifies the TIM Output Compare Mode.
2035:../libs/StdPeripheralDriver/src/stm32f10x_tim.c ****   *   This parameter can be one of the following values:
2036:../libs/StdPeripheralDriver/src/stm32f10x_tim.c ****   *     @arg TIM_OCMode_Timing
2037:../libs/StdPeripheralDriver/src/stm32f10x_tim.c ****   *     @arg TIM_OCMode_Active
2038:../libs/StdPeripheralDriver/src/stm32f10x_tim.c ****   *     @arg TIM_OCMode_Toggle
2039:../libs/StdPeripheralDriver/src/stm32f10x_tim.c ****   *     @arg TIM_OCMode_PWM1
2040:../libs/StdPeripheralDriver/src/stm32f10x_tim.c ****   *     @arg TIM_OCMode_PWM2
2041:../libs/StdPeripheralDriver/src/stm32f10x_tim.c ****   *     @arg TIM_ForcedAction_Active
2042:../libs/StdPeripheralDriver/src/stm32f10x_tim.c ****   *     @arg TIM_ForcedAction_InActive
2043:../libs/StdPeripheralDriver/src/stm32f10x_tim.c ****   * @retval None
2044:../libs/StdPeripheralDriver/src/stm32f10x_tim.c ****   */
2045:../libs/StdPeripheralDriver/src/stm32f10x_tim.c **** void TIM_SelectOCxM(TIM_TypeDef* TIMx, uint16_t TIM_Channel, uint16_t TIM_OCMode)
2046:../libs/StdPeripheralDriver/src/stm32f10x_tim.c **** {
 10203              		.loc 1 2046 0
 10204              		.cfi_startproc
 10205              		@ args = 0, pretend = 0, frame = 16
 10206              		@ frame_needed = 1, uses_anonymous_args = 0
 10207 0000 80B5     		push	{r7, lr}
 10208              	.LCFI174:
 10209              		.cfi_def_cfa_offset 8
 10210              		.cfi_offset 7, -8
 10211              		.cfi_offset 14, -4
 10212 0002 84B0     		sub	sp, sp, #16
 10213              	.LCFI175:
 10214              		.cfi_def_cfa_offset 24
 10215 0004 00AF     		add	r7, sp, #0
 10216              	.LCFI176:
 10217              		.cfi_def_cfa_register 7
 10218 0006 7860     		str	r0, [r7, #4]
 10219 0008 1346     		mov	r3, r2
 10220 000a 0A46     		mov	r2, r1	@ movhi
 10221 000c 7A80     		strh	r2, [r7, #2]	@ movhi
 10222 000e 3B80     		strh	r3, [r7, #0]	@ movhi
2047:../libs/StdPeripheralDriver/src/stm32f10x_tim.c ****   uint32_t tmp = 0;
 10223              		.loc 1 2047 0
 10224 0010 4FF00003 		mov	r3, #0
 10225 0014 FB60     		str	r3, [r7, #12]
2048:../libs/StdPeripheralDriver/src/stm32f10x_tim.c ****   uint16_t tmp1 = 0;
 10226              		.loc 1 2048 0
 10227 0016 4FF00003 		mov	r3, #0
 10228 001a 7B81     		strh	r3, [r7, #10]	@ movhi
2049:../libs/StdPeripheralDriver/src/stm32f10x_tim.c **** 
2050:../libs/StdPeripheralDriver/src/stm32f10x_tim.c ****   /* Check the parameters */
2051:../libs/StdPeripheralDriver/src/stm32f10x_tim.c ****   assert_param(IS_TIM_LIST8_PERIPH(TIMx));
 10229              		.loc 1 2051 0
 10230 001c 7A68     		ldr	r2, [r7, #4]
 10231 001e 624B     		ldr	r3, .L688
 10232 0020 9A42     		cmp	r2, r3
 10233 0022 37D0     		beq	.L676
 10234              		.loc 1 2051 0 is_stmt 0 discriminator 2
 10235 0024 7B68     		ldr	r3, [r7, #4]
 10236 0026 B3F1804F 		cmp	r3, #1073741824
 10237 002a 33D0     		beq	.L676
 10238              		.loc 1 2051 0 discriminator 1
 10239 002c 7A68     		ldr	r2, [r7, #4]
 10240 002e 5F4B     		ldr	r3, .L688+4
 10241 0030 9A42     		cmp	r2, r3
 10242 0032 2FD0     		beq	.L676
 10243              		.loc 1 2051 0 discriminator 2
 10244 0034 7A68     		ldr	r2, [r7, #4]
 10245 0036 5E4B     		ldr	r3, .L688+8
 10246 0038 9A42     		cmp	r2, r3
 10247 003a 2BD0     		beq	.L676
 10248              		.loc 1 2051 0 discriminator 3
 10249 003c 7A68     		ldr	r2, [r7, #4]
 10250 003e 5D4B     		ldr	r3, .L688+12
 10251 0040 9A42     		cmp	r2, r3
 10252 0042 27D0     		beq	.L676
 10253              		.loc 1 2051 0 discriminator 4
 10254 0044 7A68     		ldr	r2, [r7, #4]
 10255 0046 5C4B     		ldr	r3, .L688+16
 10256 0048 9A42     		cmp	r2, r3
 10257 004a 23D0     		beq	.L676
 10258              		.loc 1 2051 0 discriminator 5
 10259 004c 7A68     		ldr	r2, [r7, #4]
 10260 004e 5B4B     		ldr	r3, .L688+20
 10261 0050 9A42     		cmp	r2, r3
 10262 0052 1FD0     		beq	.L676
 10263              		.loc 1 2051 0 discriminator 6
 10264 0054 7A68     		ldr	r2, [r7, #4]
 10265 0056 5A4B     		ldr	r3, .L688+24
 10266 0058 9A42     		cmp	r2, r3
 10267 005a 1BD0     		beq	.L676
 10268              		.loc 1 2051 0 discriminator 7
 10269 005c 7A68     		ldr	r2, [r7, #4]
 10270 005e 594B     		ldr	r3, .L688+28
 10271 0060 9A42     		cmp	r2, r3
 10272 0062 17D0     		beq	.L676
 10273              		.loc 1 2051 0 discriminator 8
 10274 0064 7A68     		ldr	r2, [r7, #4]
 10275 0066 584B     		ldr	r3, .L688+32
 10276 0068 9A42     		cmp	r2, r3
 10277 006a 13D0     		beq	.L676
 10278              		.loc 1 2051 0 discriminator 9
 10279 006c 7A68     		ldr	r2, [r7, #4]
 10280 006e 574B     		ldr	r3, .L688+36
 10281 0070 9A42     		cmp	r2, r3
 10282 0072 0FD0     		beq	.L676
 10283              		.loc 1 2051 0 discriminator 10
 10284 0074 7A68     		ldr	r2, [r7, #4]
 10285 0076 564B     		ldr	r3, .L688+40
 10286 0078 9A42     		cmp	r2, r3
 10287 007a 0BD0     		beq	.L676
 10288              		.loc 1 2051 0 discriminator 11
 10289 007c 7A68     		ldr	r2, [r7, #4]
 10290 007e 554B     		ldr	r3, .L688+44
 10291 0080 9A42     		cmp	r2, r3
 10292 0082 07D0     		beq	.L676
 10293              		.loc 1 2051 0 discriminator 12
 10294 0084 7A68     		ldr	r2, [r7, #4]
 10295 0086 544B     		ldr	r3, .L688+48
 10296 0088 9A42     		cmp	r2, r3
 10297 008a 03D0     		beq	.L676
 10298              		.loc 1 2051 0 discriminator 13
 10299 008c 7A68     		ldr	r2, [r7, #4]
 10300 008e 534B     		ldr	r3, .L688+52
 10301 0090 9A42     		cmp	r2, r3
 10302 0092 02D1     		bne	.L677
 10303              	.L676:
 10304              		.loc 1 2051 0 discriminator 1
 10305 0094 4FF00103 		mov	r3, #1
 10306 0098 01E0     		b	.L678
 10307              	.L677:
 10308              		.loc 1 2051 0 discriminator 3
 10309 009a 4FF00003 		mov	r3, #0
 10310              	.L678:
 10311              		.loc 1 2051 0 discriminator 4
 10312 009e 1846     		mov	r0, r3
 10313 00a0 FFF7FEFF 		bl	assert_param
2052:../libs/StdPeripheralDriver/src/stm32f10x_tim.c ****   assert_param(IS_TIM_CHANNEL(TIM_Channel));
 10314              		.loc 1 2052 0 is_stmt 1 discriminator 4
 10315 00a4 7B88     		ldrh	r3, [r7, #2]
 10316 00a6 002B     		cmp	r3, #0
 10317 00a8 08D0     		beq	.L679
 10318              		.loc 1 2052 0 is_stmt 0 discriminator 2
 10319 00aa 7B88     		ldrh	r3, [r7, #2]
 10320 00ac 042B     		cmp	r3, #4
 10321 00ae 05D0     		beq	.L679
 10322              		.loc 1 2052 0 discriminator 1
 10323 00b0 7B88     		ldrh	r3, [r7, #2]
 10324 00b2 082B     		cmp	r3, #8
 10325 00b4 02D0     		beq	.L679
 10326              		.loc 1 2052 0 discriminator 2
 10327 00b6 7B88     		ldrh	r3, [r7, #2]
 10328 00b8 0C2B     		cmp	r3, #12
 10329 00ba 02D1     		bne	.L680
 10330              	.L679:
 10331              		.loc 1 2052 0 discriminator 1
 10332 00bc 4FF00103 		mov	r3, #1
 10333 00c0 01E0     		b	.L681
 10334              	.L680:
 10335              		.loc 1 2052 0 discriminator 3
 10336 00c2 4FF00003 		mov	r3, #0
 10337              	.L681:
 10338              		.loc 1 2052 0 discriminator 4
 10339 00c6 1846     		mov	r0, r3
 10340 00c8 FFF7FEFF 		bl	assert_param
2053:../libs/StdPeripheralDriver/src/stm32f10x_tim.c ****   assert_param(IS_TIM_OCM(TIM_OCMode));
 10341              		.loc 1 2053 0 is_stmt 1 discriminator 4
 10342 00cc 3B88     		ldrh	r3, [r7, #0]
 10343 00ce 002B     		cmp	r3, #0
 10344 00d0 14D0     		beq	.L682
 10345              		.loc 1 2053 0 is_stmt 0 discriminator 2
 10346 00d2 3B88     		ldrh	r3, [r7, #0]
 10347 00d4 102B     		cmp	r3, #16
 10348 00d6 11D0     		beq	.L682
 10349              		.loc 1 2053 0 discriminator 1
 10350 00d8 3B88     		ldrh	r3, [r7, #0]
 10351 00da 202B     		cmp	r3, #32
 10352 00dc 0ED0     		beq	.L682
 10353              		.loc 1 2053 0 discriminator 2
 10354 00de 3B88     		ldrh	r3, [r7, #0]
 10355 00e0 302B     		cmp	r3, #48
 10356 00e2 0BD0     		beq	.L682
 10357              		.loc 1 2053 0 discriminator 3
 10358 00e4 3B88     		ldrh	r3, [r7, #0]
 10359 00e6 602B     		cmp	r3, #96
 10360 00e8 08D0     		beq	.L682
 10361              		.loc 1 2053 0 discriminator 4
 10362 00ea 3B88     		ldrh	r3, [r7, #0]
 10363 00ec 702B     		cmp	r3, #112
 10364 00ee 05D0     		beq	.L682
 10365              		.loc 1 2053 0 discriminator 5
 10366 00f0 3B88     		ldrh	r3, [r7, #0]
 10367 00f2 502B     		cmp	r3, #80
 10368 00f4 02D0     		beq	.L682
 10369              		.loc 1 2053 0 discriminator 6
 10370 00f6 3B88     		ldrh	r3, [r7, #0]
 10371 00f8 402B     		cmp	r3, #64
 10372 00fa 02D1     		bne	.L683
 10373              	.L682:
 10374              		.loc 1 2053 0 discriminator 1
 10375 00fc 4FF00103 		mov	r3, #1
 10376 0100 01E0     		b	.L684
 10377              	.L683:
 10378              		.loc 1 2053 0 discriminator 3
 10379 0102 4FF00003 		mov	r3, #0
 10380              	.L684:
 10381              		.loc 1 2053 0 discriminator 4
 10382 0106 1846     		mov	r0, r3
 10383 0108 FFF7FEFF 		bl	assert_param
2054:../libs/StdPeripheralDriver/src/stm32f10x_tim.c **** 
2055:../libs/StdPeripheralDriver/src/stm32f10x_tim.c ****   tmp = (uint32_t) TIMx;
 10384              		.loc 1 2055 0 is_stmt 1 discriminator 4
 10385 010c 7B68     		ldr	r3, [r7, #4]
 10386 010e FB60     		str	r3, [r7, #12]
2056:../libs/StdPeripheralDriver/src/stm32f10x_tim.c ****   tmp += CCMR_Offset;
 10387              		.loc 1 2056 0 discriminator 4
 10388 0110 FB68     		ldr	r3, [r7, #12]
 10389 0112 03F11803 		add	r3, r3, #24
 10390 0116 FB60     		str	r3, [r7, #12]
2057:../libs/StdPeripheralDriver/src/stm32f10x_tim.c **** 
2058:../libs/StdPeripheralDriver/src/stm32f10x_tim.c ****   tmp1 = CCER_CCE_Set << (uint16_t)TIM_Channel;
 10391              		.loc 1 2058 0 discriminator 4
 10392 0118 7B88     		ldrh	r3, [r7, #2]
 10393 011a 4FF00102 		mov	r2, #1
 10394 011e 02FA03F3 		lsl	r3, r2, r3
 10395 0122 7B81     		strh	r3, [r7, #10]	@ movhi
2059:../libs/StdPeripheralDriver/src/stm32f10x_tim.c **** 
2060:../libs/StdPeripheralDriver/src/stm32f10x_tim.c ****   /* Disable the Channel: Reset the CCxE Bit */
2061:../libs/StdPeripheralDriver/src/stm32f10x_tim.c ****   TIMx->CCER &= (uint16_t) ~tmp1;
 10396              		.loc 1 2061 0 discriminator 4
 10397 0124 7B68     		ldr	r3, [r7, #4]
 10398 0126 1B8C     		ldrh	r3, [r3, #32]	@ movhi
 10399 0128 9AB2     		uxth	r2, r3
 10400 012a 7B89     		ldrh	r3, [r7, #10]	@ movhi
 10401 012c 6FEA0303 		mvn	r3, r3
 10402 0130 9BB2     		uxth	r3, r3
 10403 0132 1340     		ands	r3, r3, r2
 10404 0134 9AB2     		uxth	r2, r3
 10405 0136 7B68     		ldr	r3, [r7, #4]
 10406 0138 1A84     		strh	r2, [r3, #32]	@ movhi
2062:../libs/StdPeripheralDriver/src/stm32f10x_tim.c **** 
2063:../libs/StdPeripheralDriver/src/stm32f10x_tim.c ****   if((TIM_Channel == TIM_Channel_1) ||(TIM_Channel == TIM_Channel_3))
 10407              		.loc 1 2063 0 discriminator 4
 10408 013a 7B88     		ldrh	r3, [r7, #2]
 10409 013c 002B     		cmp	r3, #0
 10410 013e 02D0     		beq	.L685
 10411              		.loc 1 2063 0 is_stmt 0 discriminator 1
 10412 0140 7B88     		ldrh	r3, [r7, #2]
 10413 0142 082B     		cmp	r3, #8
 10414 0144 13D1     		bne	.L686
 10415              	.L685:
2064:../libs/StdPeripheralDriver/src/stm32f10x_tim.c ****   {
2065:../libs/StdPeripheralDriver/src/stm32f10x_tim.c ****     tmp += (TIM_Channel>>1);
 10416              		.loc 1 2065 0 is_stmt 1
 10417 0146 7B88     		ldrh	r3, [r7, #2]
 10418 0148 4FEA5303 		lsr	r3, r3, #1
 10419 014c 9BB2     		uxth	r3, r3
 10420 014e FA68     		ldr	r2, [r7, #12]
 10421 0150 D318     		adds	r3, r2, r3
 10422 0152 FB60     		str	r3, [r7, #12]
2066:../libs/StdPeripheralDriver/src/stm32f10x_tim.c **** 
2067:../libs/StdPeripheralDriver/src/stm32f10x_tim.c ****     /* Reset the OCxM bits in the CCMRx register */
2068:../libs/StdPeripheralDriver/src/stm32f10x_tim.c ****     *(__IO uint32_t *) tmp &= (uint32_t)~((uint32_t)TIM_CCMR1_OC1M);
 10423              		.loc 1 2068 0
 10424 0154 FB68     		ldr	r3, [r7, #12]
 10425 0156 FA68     		ldr	r2, [r7, #12]
 10426 0158 1268     		ldr	r2, [r2, #0]
 10427 015a 22F07002 		bic	r2, r2, #112
 10428 015e 1A60     		str	r2, [r3, #0]
2069:../libs/StdPeripheralDriver/src/stm32f10x_tim.c ****    
2070:../libs/StdPeripheralDriver/src/stm32f10x_tim.c ****     /* Configure the OCxM bits in the CCMRx register */
2071:../libs/StdPeripheralDriver/src/stm32f10x_tim.c ****     *(__IO uint32_t *) tmp |= TIM_OCMode;
 10429              		.loc 1 2071 0
 10430 0160 FB68     		ldr	r3, [r7, #12]
 10431 0162 FA68     		ldr	r2, [r7, #12]
 10432 0164 1168     		ldr	r1, [r2, #0]
 10433 0166 3A88     		ldrh	r2, [r7, #0]
 10434 0168 0A43     		orrs	r2, r2, r1
 10435 016a 1A60     		str	r2, [r3, #0]
 10436 016c 18E0     		b	.L675
 10437              	.L686:
2072:../libs/StdPeripheralDriver/src/stm32f10x_tim.c ****   }
2073:../libs/StdPeripheralDriver/src/stm32f10x_tim.c ****   else
2074:../libs/StdPeripheralDriver/src/stm32f10x_tim.c ****   {
2075:../libs/StdPeripheralDriver/src/stm32f10x_tim.c ****     tmp += (uint16_t)(TIM_Channel - (uint16_t)4)>> (uint16_t)1;
 10438              		.loc 1 2075 0
 10439 016e 7B88     		ldrh	r3, [r7, #2]	@ movhi
 10440 0170 A3F10403 		sub	r3, r3, #4
 10441 0174 9BB2     		uxth	r3, r3
 10442 0176 4FEA5303 		lsr	r3, r3, #1
 10443 017a 9BB2     		uxth	r3, r3
 10444 017c FA68     		ldr	r2, [r7, #12]
 10445 017e D318     		adds	r3, r2, r3
 10446 0180 FB60     		str	r3, [r7, #12]
2076:../libs/StdPeripheralDriver/src/stm32f10x_tim.c **** 
2077:../libs/StdPeripheralDriver/src/stm32f10x_tim.c ****     /* Reset the OCxM bits in the CCMRx register */
2078:../libs/StdPeripheralDriver/src/stm32f10x_tim.c ****     *(__IO uint32_t *) tmp &= (uint32_t)~((uint32_t)TIM_CCMR1_OC2M);
 10447              		.loc 1 2078 0
 10448 0182 FB68     		ldr	r3, [r7, #12]
 10449 0184 FA68     		ldr	r2, [r7, #12]
 10450 0186 1268     		ldr	r2, [r2, #0]
 10451 0188 22F4E042 		bic	r2, r2, #28672
 10452 018c 1A60     		str	r2, [r3, #0]
2079:../libs/StdPeripheralDriver/src/stm32f10x_tim.c ****     
2080:../libs/StdPeripheralDriver/src/stm32f10x_tim.c ****     /* Configure the OCxM bits in the CCMRx register */
2081:../libs/StdPeripheralDriver/src/stm32f10x_tim.c ****     *(__IO uint32_t *) tmp |= (uint16_t)(TIM_OCMode << 8);
 10453              		.loc 1 2081 0
 10454 018e FB68     		ldr	r3, [r7, #12]
 10455 0190 FA68     		ldr	r2, [r7, #12]
 10456 0192 1168     		ldr	r1, [r2, #0]
 10457 0194 3A88     		ldrh	r2, [r7, #0]	@ movhi
 10458 0196 4FEA0222 		lsl	r2, r2, #8
 10459 019a 92B2     		uxth	r2, r2
 10460 019c 0A43     		orrs	r2, r2, r1
 10461 019e 1A60     		str	r2, [r3, #0]
 10462              	.L675:
2082:../libs/StdPeripheralDriver/src/stm32f10x_tim.c ****   }
2083:../libs/StdPeripheralDriver/src/stm32f10x_tim.c **** }
 10463              		.loc 1 2083 0
 10464 01a0 07F11007 		add	r7, r7, #16
 10465 01a4 BD46     		mov	sp, r7
 10466 01a6 80BD     		pop	{r7, pc}
 10467              	.L689:
 10468              		.align	2
 10469              	.L688:
 10470 01a8 002C0140 		.word	1073818624
 10471 01ac 00040040 		.word	1073742848
 10472 01b0 00080040 		.word	1073743872
 10473 01b4 000C0040 		.word	1073744896
 10474 01b8 00340140 		.word	1073820672
 10475 01bc 004C0140 		.word	1073826816
 10476 01c0 00500140 		.word	1073827840
 10477 01c4 00540140 		.word	1073828864
 10478 01c8 00180040 		.word	1073747968
 10479 01cc 001C0040 		.word	1073748992
 10480 01d0 00200040 		.word	1073750016
 10481 01d4 00400140 		.word	1073823744
 10482 01d8 00440140 		.word	1073824768
 10483 01dc 00480140 		.word	1073825792
 10484              		.cfi_endproc
 10485              	.LFE87:
 10487              		.section	.text.TIM_UpdateDisableConfig,"ax",%progbits
 10488              		.align	2
 10489              		.global	TIM_UpdateDisableConfig
 10490              		.thumb
 10491              		.thumb_func
 10493              	TIM_UpdateDisableConfig:
 10494              	.LFB88:
2084:../libs/StdPeripheralDriver/src/stm32f10x_tim.c **** 
2085:../libs/StdPeripheralDriver/src/stm32f10x_tim.c **** /**
2086:../libs/StdPeripheralDriver/src/stm32f10x_tim.c ****   * @brief  Enables or Disables the TIMx Update event.
2087:../libs/StdPeripheralDriver/src/stm32f10x_tim.c ****   * @param  TIMx: where x can be 1 to 17 to select the TIM peripheral.
2088:../libs/StdPeripheralDriver/src/stm32f10x_tim.c ****   * @param  NewState: new state of the TIMx UDIS bit
2089:../libs/StdPeripheralDriver/src/stm32f10x_tim.c ****   *   This parameter can be: ENABLE or DISABLE.
2090:../libs/StdPeripheralDriver/src/stm32f10x_tim.c ****   * @retval None
2091:../libs/StdPeripheralDriver/src/stm32f10x_tim.c ****   */
2092:../libs/StdPeripheralDriver/src/stm32f10x_tim.c **** void TIM_UpdateDisableConfig(TIM_TypeDef* TIMx, FunctionalState NewState)
2093:../libs/StdPeripheralDriver/src/stm32f10x_tim.c **** {
 10495              		.loc 1 2093 0
 10496              		.cfi_startproc
 10497              		@ args = 0, pretend = 0, frame = 8
 10498              		@ frame_needed = 1, uses_anonymous_args = 0
 10499 0000 80B5     		push	{r7, lr}
 10500              	.LCFI177:
 10501              		.cfi_def_cfa_offset 8
 10502              		.cfi_offset 7, -8
 10503              		.cfi_offset 14, -4
 10504 0002 82B0     		sub	sp, sp, #8
 10505              	.LCFI178:
 10506              		.cfi_def_cfa_offset 16
 10507 0004 00AF     		add	r7, sp, #0
 10508              	.LCFI179:
 10509              		.cfi_def_cfa_register 7
 10510 0006 7860     		str	r0, [r7, #4]
 10511 0008 0B46     		mov	r3, r1
 10512 000a FB70     		strb	r3, [r7, #3]
2094:../libs/StdPeripheralDriver/src/stm32f10x_tim.c ****   /* Check the parameters */
2095:../libs/StdPeripheralDriver/src/stm32f10x_tim.c ****   assert_param(IS_TIM_ALL_PERIPH(TIMx));
 10513              		.loc 1 2095 0
 10514 000c 7A68     		ldr	r2, [r7, #4]
 10515 000e 384B     		ldr	r3, .L699
 10516 0010 9A42     		cmp	r2, r3
 10517 0012 3FD0     		beq	.L691
 10518              		.loc 1 2095 0 is_stmt 0 discriminator 2
 10519 0014 7B68     		ldr	r3, [r7, #4]
 10520 0016 B3F1804F 		cmp	r3, #1073741824
 10521 001a 3BD0     		beq	.L691
 10522              		.loc 1 2095 0 discriminator 1
 10523 001c 7A68     		ldr	r2, [r7, #4]
 10524 001e 354B     		ldr	r3, .L699+4
 10525 0020 9A42     		cmp	r2, r3
 10526 0022 37D0     		beq	.L691
 10527              		.loc 1 2095 0 discriminator 2
 10528 0024 7A68     		ldr	r2, [r7, #4]
 10529 0026 344B     		ldr	r3, .L699+8
 10530 0028 9A42     		cmp	r2, r3
 10531 002a 33D0     		beq	.L691
 10532              		.loc 1 2095 0 discriminator 3
 10533 002c 7A68     		ldr	r2, [r7, #4]
 10534 002e 334B     		ldr	r3, .L699+12
 10535 0030 9A42     		cmp	r2, r3
 10536 0032 2FD0     		beq	.L691
 10537              		.loc 1 2095 0 discriminator 4
 10538 0034 7A68     		ldr	r2, [r7, #4]
 10539 0036 324B     		ldr	r3, .L699+16
 10540 0038 9A42     		cmp	r2, r3
 10541 003a 2BD0     		beq	.L691
 10542              		.loc 1 2095 0 discriminator 5
 10543 003c 7A68     		ldr	r2, [r7, #4]
 10544 003e 314B     		ldr	r3, .L699+20
 10545 0040 9A42     		cmp	r2, r3
 10546 0042 27D0     		beq	.L691
 10547              		.loc 1 2095 0 discriminator 6
 10548 0044 7A68     		ldr	r2, [r7, #4]
 10549 0046 304B     		ldr	r3, .L699+24
 10550 0048 9A42     		cmp	r2, r3
 10551 004a 23D0     		beq	.L691
 10552              		.loc 1 2095 0 discriminator 7
 10553 004c 7A68     		ldr	r2, [r7, #4]
 10554 004e 2F4B     		ldr	r3, .L699+28
 10555 0050 9A42     		cmp	r2, r3
 10556 0052 1FD0     		beq	.L691
 10557              		.loc 1 2095 0 discriminator 8
 10558 0054 7A68     		ldr	r2, [r7, #4]
 10559 0056 2E4B     		ldr	r3, .L699+32
 10560 0058 9A42     		cmp	r2, r3
 10561 005a 1BD0     		beq	.L691
 10562              		.loc 1 2095 0 discriminator 9
 10563 005c 7A68     		ldr	r2, [r7, #4]
 10564 005e 2D4B     		ldr	r3, .L699+36
 10565 0060 9A42     		cmp	r2, r3
 10566 0062 17D0     		beq	.L691
 10567              		.loc 1 2095 0 discriminator 10
 10568 0064 7A68     		ldr	r2, [r7, #4]
 10569 0066 2C4B     		ldr	r3, .L699+40
 10570 0068 9A42     		cmp	r2, r3
 10571 006a 13D0     		beq	.L691
 10572              		.loc 1 2095 0 discriminator 11
 10573 006c 7A68     		ldr	r2, [r7, #4]
 10574 006e 2B4B     		ldr	r3, .L699+44
 10575 0070 9A42     		cmp	r2, r3
 10576 0072 0FD0     		beq	.L691
 10577              		.loc 1 2095 0 discriminator 12
 10578 0074 7A68     		ldr	r2, [r7, #4]
 10579 0076 2A4B     		ldr	r3, .L699+48
 10580 0078 9A42     		cmp	r2, r3
 10581 007a 0BD0     		beq	.L691
 10582              		.loc 1 2095 0 discriminator 13
 10583 007c 7A68     		ldr	r2, [r7, #4]
 10584 007e 294B     		ldr	r3, .L699+52
 10585 0080 9A42     		cmp	r2, r3
 10586 0082 07D0     		beq	.L691
 10587              		.loc 1 2095 0 discriminator 14
 10588 0084 7A68     		ldr	r2, [r7, #4]
 10589 0086 284B     		ldr	r3, .L699+56
 10590 0088 9A42     		cmp	r2, r3
 10591 008a 03D0     		beq	.L691
 10592              		.loc 1 2095 0 discriminator 15
 10593 008c 7A68     		ldr	r2, [r7, #4]
 10594 008e 274B     		ldr	r3, .L699+60
 10595 0090 9A42     		cmp	r2, r3
 10596 0092 02D1     		bne	.L692
 10597              	.L691:
 10598              		.loc 1 2095 0 discriminator 1
 10599 0094 4FF00103 		mov	r3, #1
 10600 0098 01E0     		b	.L693
 10601              	.L692:
 10602              		.loc 1 2095 0 discriminator 3
 10603 009a 4FF00003 		mov	r3, #0
 10604              	.L693:
 10605              		.loc 1 2095 0 discriminator 4
 10606 009e 1846     		mov	r0, r3
 10607 00a0 FFF7FEFF 		bl	assert_param
2096:../libs/StdPeripheralDriver/src/stm32f10x_tim.c ****   assert_param(IS_FUNCTIONAL_STATE(NewState));
 10608              		.loc 1 2096 0 is_stmt 1 discriminator 4
 10609 00a4 FB78     		ldrb	r3, [r7, #3]	@ zero_extendqisi2
 10610 00a6 002B     		cmp	r3, #0
 10611 00a8 02D0     		beq	.L694
 10612              		.loc 1 2096 0 is_stmt 0 discriminator 2
 10613 00aa FB78     		ldrb	r3, [r7, #3]	@ zero_extendqisi2
 10614 00ac 012B     		cmp	r3, #1
 10615 00ae 02D1     		bne	.L695
 10616              	.L694:
 10617              		.loc 1 2096 0 discriminator 1
 10618 00b0 4FF00103 		mov	r3, #1
 10619 00b4 01E0     		b	.L696
 10620              	.L695:
 10621              		.loc 1 2096 0 discriminator 3
 10622 00b6 4FF00003 		mov	r3, #0
 10623              	.L696:
 10624              		.loc 1 2096 0 discriminator 4
 10625 00ba 1846     		mov	r0, r3
 10626 00bc FFF7FEFF 		bl	assert_param
2097:../libs/StdPeripheralDriver/src/stm32f10x_tim.c ****   if (NewState != DISABLE)
 10627              		.loc 1 2097 0 is_stmt 1 discriminator 4
 10628 00c0 FB78     		ldrb	r3, [r7, #3]	@ zero_extendqisi2
 10629 00c2 002B     		cmp	r3, #0
 10630 00c4 08D0     		beq	.L697
2098:../libs/StdPeripheralDriver/src/stm32f10x_tim.c ****   {
2099:../libs/StdPeripheralDriver/src/stm32f10x_tim.c ****     /* Set the Update Disable Bit */
2100:../libs/StdPeripheralDriver/src/stm32f10x_tim.c ****     TIMx->CR1 |= TIM_CR1_UDIS;
 10631              		.loc 1 2100 0
 10632 00c6 7B68     		ldr	r3, [r7, #4]
 10633 00c8 1B88     		ldrh	r3, [r3, #0]	@ movhi
 10634 00ca 9BB2     		uxth	r3, r3
 10635 00cc 43F00203 		orr	r3, r3, #2
 10636 00d0 9AB2     		uxth	r2, r3
 10637 00d2 7B68     		ldr	r3, [r7, #4]
 10638 00d4 1A80     		strh	r2, [r3, #0]	@ movhi
 10639 00d6 07E0     		b	.L690
 10640              	.L697:
2101:../libs/StdPeripheralDriver/src/stm32f10x_tim.c ****   }
2102:../libs/StdPeripheralDriver/src/stm32f10x_tim.c ****   else
2103:../libs/StdPeripheralDriver/src/stm32f10x_tim.c ****   {
2104:../libs/StdPeripheralDriver/src/stm32f10x_tim.c ****     /* Reset the Update Disable Bit */
2105:../libs/StdPeripheralDriver/src/stm32f10x_tim.c ****     TIMx->CR1 &= (uint16_t)~((uint16_t)TIM_CR1_UDIS);
 10641              		.loc 1 2105 0
 10642 00d8 7B68     		ldr	r3, [r7, #4]
 10643 00da 1B88     		ldrh	r3, [r3, #0]	@ movhi
 10644 00dc 9BB2     		uxth	r3, r3
 10645 00de 23F00203 		bic	r3, r3, #2
 10646 00e2 9AB2     		uxth	r2, r3
 10647 00e4 7B68     		ldr	r3, [r7, #4]
 10648 00e6 1A80     		strh	r2, [r3, #0]	@ movhi
 10649              	.L690:
2106:../libs/StdPeripheralDriver/src/stm32f10x_tim.c ****   }
2107:../libs/StdPeripheralDriver/src/stm32f10x_tim.c **** }
 10650              		.loc 1 2107 0
 10651 00e8 07F10807 		add	r7, r7, #8
 10652 00ec BD46     		mov	sp, r7
 10653 00ee 80BD     		pop	{r7, pc}
 10654              	.L700:
 10655              		.align	2
 10656              	.L699:
 10657 00f0 002C0140 		.word	1073818624
 10658 00f4 00040040 		.word	1073742848
 10659 00f8 00080040 		.word	1073743872
 10660 00fc 000C0040 		.word	1073744896
 10661 0100 00100040 		.word	1073745920
 10662 0104 00140040 		.word	1073746944
 10663 0108 00340140 		.word	1073820672
 10664 010c 004C0140 		.word	1073826816
 10665 0110 00500140 		.word	1073827840
 10666 0114 00540140 		.word	1073828864
 10667 0118 00180040 		.word	1073747968
 10668 011c 001C0040 		.word	1073748992
 10669 0120 00200040 		.word	1073750016
 10670 0124 00400140 		.word	1073823744
 10671 0128 00440140 		.word	1073824768
 10672 012c 00480140 		.word	1073825792
 10673              		.cfi_endproc
 10674              	.LFE88:
 10676              		.section	.text.TIM_UpdateRequestConfig,"ax",%progbits
 10677              		.align	2
 10678              		.global	TIM_UpdateRequestConfig
 10679              		.thumb
 10680              		.thumb_func
 10682              	TIM_UpdateRequestConfig:
 10683              	.LFB89:
2108:../libs/StdPeripheralDriver/src/stm32f10x_tim.c **** 
2109:../libs/StdPeripheralDriver/src/stm32f10x_tim.c **** /**
2110:../libs/StdPeripheralDriver/src/stm32f10x_tim.c ****   * @brief  Configures the TIMx Update Request Interrupt source.
2111:../libs/StdPeripheralDriver/src/stm32f10x_tim.c ****   * @param  TIMx: where x can be 1 to 17 to select the TIM peripheral.
2112:../libs/StdPeripheralDriver/src/stm32f10x_tim.c ****   * @param  TIM_UpdateSource: specifies the Update source.
2113:../libs/StdPeripheralDriver/src/stm32f10x_tim.c ****   *   This parameter can be one of the following values:
2114:../libs/StdPeripheralDriver/src/stm32f10x_tim.c ****   *     @arg TIM_UpdateSource_Regular: Source of update is the counter overflow/underflow
2115:../libs/StdPeripheralDriver/src/stm32f10x_tim.c ****                                        or the setting of UG bit, or an update generation
2116:../libs/StdPeripheralDriver/src/stm32f10x_tim.c ****                                        through the slave mode controller.
2117:../libs/StdPeripheralDriver/src/stm32f10x_tim.c ****   *     @arg TIM_UpdateSource_Global: Source of update is counter overflow/underflow.
2118:../libs/StdPeripheralDriver/src/stm32f10x_tim.c ****   * @retval None
2119:../libs/StdPeripheralDriver/src/stm32f10x_tim.c ****   */
2120:../libs/StdPeripheralDriver/src/stm32f10x_tim.c **** void TIM_UpdateRequestConfig(TIM_TypeDef* TIMx, uint16_t TIM_UpdateSource)
2121:../libs/StdPeripheralDriver/src/stm32f10x_tim.c **** {
 10684              		.loc 1 2121 0
 10685              		.cfi_startproc
 10686              		@ args = 0, pretend = 0, frame = 8
 10687              		@ frame_needed = 1, uses_anonymous_args = 0
 10688 0000 80B5     		push	{r7, lr}
 10689              	.LCFI180:
 10690              		.cfi_def_cfa_offset 8
 10691              		.cfi_offset 7, -8
 10692              		.cfi_offset 14, -4
 10693 0002 82B0     		sub	sp, sp, #8
 10694              	.LCFI181:
 10695              		.cfi_def_cfa_offset 16
 10696 0004 00AF     		add	r7, sp, #0
 10697              	.LCFI182:
 10698              		.cfi_def_cfa_register 7
 10699 0006 7860     		str	r0, [r7, #4]
 10700 0008 0B46     		mov	r3, r1
 10701 000a 7B80     		strh	r3, [r7, #2]	@ movhi
2122:../libs/StdPeripheralDriver/src/stm32f10x_tim.c ****   /* Check the parameters */
2123:../libs/StdPeripheralDriver/src/stm32f10x_tim.c ****   assert_param(IS_TIM_ALL_PERIPH(TIMx));
 10702              		.loc 1 2123 0
 10703 000c 7A68     		ldr	r2, [r7, #4]
 10704 000e 384B     		ldr	r3, .L710
 10705 0010 9A42     		cmp	r2, r3
 10706 0012 3FD0     		beq	.L702
 10707              		.loc 1 2123 0 is_stmt 0 discriminator 2
 10708 0014 7B68     		ldr	r3, [r7, #4]
 10709 0016 B3F1804F 		cmp	r3, #1073741824
 10710 001a 3BD0     		beq	.L702
 10711              		.loc 1 2123 0 discriminator 1
 10712 001c 7A68     		ldr	r2, [r7, #4]
 10713 001e 354B     		ldr	r3, .L710+4
 10714 0020 9A42     		cmp	r2, r3
 10715 0022 37D0     		beq	.L702
 10716              		.loc 1 2123 0 discriminator 2
 10717 0024 7A68     		ldr	r2, [r7, #4]
 10718 0026 344B     		ldr	r3, .L710+8
 10719 0028 9A42     		cmp	r2, r3
 10720 002a 33D0     		beq	.L702
 10721              		.loc 1 2123 0 discriminator 3
 10722 002c 7A68     		ldr	r2, [r7, #4]
 10723 002e 334B     		ldr	r3, .L710+12
 10724 0030 9A42     		cmp	r2, r3
 10725 0032 2FD0     		beq	.L702
 10726              		.loc 1 2123 0 discriminator 4
 10727 0034 7A68     		ldr	r2, [r7, #4]
 10728 0036 324B     		ldr	r3, .L710+16
 10729 0038 9A42     		cmp	r2, r3
 10730 003a 2BD0     		beq	.L702
 10731              		.loc 1 2123 0 discriminator 5
 10732 003c 7A68     		ldr	r2, [r7, #4]
 10733 003e 314B     		ldr	r3, .L710+20
 10734 0040 9A42     		cmp	r2, r3
 10735 0042 27D0     		beq	.L702
 10736              		.loc 1 2123 0 discriminator 6
 10737 0044 7A68     		ldr	r2, [r7, #4]
 10738 0046 304B     		ldr	r3, .L710+24
 10739 0048 9A42     		cmp	r2, r3
 10740 004a 23D0     		beq	.L702
 10741              		.loc 1 2123 0 discriminator 7
 10742 004c 7A68     		ldr	r2, [r7, #4]
 10743 004e 2F4B     		ldr	r3, .L710+28
 10744 0050 9A42     		cmp	r2, r3
 10745 0052 1FD0     		beq	.L702
 10746              		.loc 1 2123 0 discriminator 8
 10747 0054 7A68     		ldr	r2, [r7, #4]
 10748 0056 2E4B     		ldr	r3, .L710+32
 10749 0058 9A42     		cmp	r2, r3
 10750 005a 1BD0     		beq	.L702
 10751              		.loc 1 2123 0 discriminator 9
 10752 005c 7A68     		ldr	r2, [r7, #4]
 10753 005e 2D4B     		ldr	r3, .L710+36
 10754 0060 9A42     		cmp	r2, r3
 10755 0062 17D0     		beq	.L702
 10756              		.loc 1 2123 0 discriminator 10
 10757 0064 7A68     		ldr	r2, [r7, #4]
 10758 0066 2C4B     		ldr	r3, .L710+40
 10759 0068 9A42     		cmp	r2, r3
 10760 006a 13D0     		beq	.L702
 10761              		.loc 1 2123 0 discriminator 11
 10762 006c 7A68     		ldr	r2, [r7, #4]
 10763 006e 2B4B     		ldr	r3, .L710+44
 10764 0070 9A42     		cmp	r2, r3
 10765 0072 0FD0     		beq	.L702
 10766              		.loc 1 2123 0 discriminator 12
 10767 0074 7A68     		ldr	r2, [r7, #4]
 10768 0076 2A4B     		ldr	r3, .L710+48
 10769 0078 9A42     		cmp	r2, r3
 10770 007a 0BD0     		beq	.L702
 10771              		.loc 1 2123 0 discriminator 13
 10772 007c 7A68     		ldr	r2, [r7, #4]
 10773 007e 294B     		ldr	r3, .L710+52
 10774 0080 9A42     		cmp	r2, r3
 10775 0082 07D0     		beq	.L702
 10776              		.loc 1 2123 0 discriminator 14
 10777 0084 7A68     		ldr	r2, [r7, #4]
 10778 0086 284B     		ldr	r3, .L710+56
 10779 0088 9A42     		cmp	r2, r3
 10780 008a 03D0     		beq	.L702
 10781              		.loc 1 2123 0 discriminator 15
 10782 008c 7A68     		ldr	r2, [r7, #4]
 10783 008e 274B     		ldr	r3, .L710+60
 10784 0090 9A42     		cmp	r2, r3
 10785 0092 02D1     		bne	.L703
 10786              	.L702:
 10787              		.loc 1 2123 0 discriminator 1
 10788 0094 4FF00103 		mov	r3, #1
 10789 0098 01E0     		b	.L704
 10790              	.L703:
 10791              		.loc 1 2123 0 discriminator 3
 10792 009a 4FF00003 		mov	r3, #0
 10793              	.L704:
 10794              		.loc 1 2123 0 discriminator 4
 10795 009e 1846     		mov	r0, r3
 10796 00a0 FFF7FEFF 		bl	assert_param
2124:../libs/StdPeripheralDriver/src/stm32f10x_tim.c ****   assert_param(IS_TIM_UPDATE_SOURCE(TIM_UpdateSource));
 10797              		.loc 1 2124 0 is_stmt 1 discriminator 4
 10798 00a4 7B88     		ldrh	r3, [r7, #2]
 10799 00a6 002B     		cmp	r3, #0
 10800 00a8 02D0     		beq	.L705
 10801              		.loc 1 2124 0 is_stmt 0 discriminator 2
 10802 00aa 7B88     		ldrh	r3, [r7, #2]
 10803 00ac 012B     		cmp	r3, #1
 10804 00ae 02D1     		bne	.L706
 10805              	.L705:
 10806              		.loc 1 2124 0 discriminator 1
 10807 00b0 4FF00103 		mov	r3, #1
 10808 00b4 01E0     		b	.L707
 10809              	.L706:
 10810              		.loc 1 2124 0 discriminator 3
 10811 00b6 4FF00003 		mov	r3, #0
 10812              	.L707:
 10813              		.loc 1 2124 0 discriminator 4
 10814 00ba 1846     		mov	r0, r3
 10815 00bc FFF7FEFF 		bl	assert_param
2125:../libs/StdPeripheralDriver/src/stm32f10x_tim.c ****   if (TIM_UpdateSource != TIM_UpdateSource_Global)
 10816              		.loc 1 2125 0 is_stmt 1 discriminator 4
 10817 00c0 7B88     		ldrh	r3, [r7, #2]
 10818 00c2 002B     		cmp	r3, #0
 10819 00c4 08D0     		beq	.L708
2126:../libs/StdPeripheralDriver/src/stm32f10x_tim.c ****   {
2127:../libs/StdPeripheralDriver/src/stm32f10x_tim.c ****     /* Set the URS Bit */
2128:../libs/StdPeripheralDriver/src/stm32f10x_tim.c ****     TIMx->CR1 |= TIM_CR1_URS;
 10820              		.loc 1 2128 0
 10821 00c6 7B68     		ldr	r3, [r7, #4]
 10822 00c8 1B88     		ldrh	r3, [r3, #0]	@ movhi
 10823 00ca 9BB2     		uxth	r3, r3
 10824 00cc 43F00403 		orr	r3, r3, #4
 10825 00d0 9AB2     		uxth	r2, r3
 10826 00d2 7B68     		ldr	r3, [r7, #4]
 10827 00d4 1A80     		strh	r2, [r3, #0]	@ movhi
 10828 00d6 07E0     		b	.L701
 10829              	.L708:
2129:../libs/StdPeripheralDriver/src/stm32f10x_tim.c ****   }
2130:../libs/StdPeripheralDriver/src/stm32f10x_tim.c ****   else
2131:../libs/StdPeripheralDriver/src/stm32f10x_tim.c ****   {
2132:../libs/StdPeripheralDriver/src/stm32f10x_tim.c ****     /* Reset the URS Bit */
2133:../libs/StdPeripheralDriver/src/stm32f10x_tim.c ****     TIMx->CR1 &= (uint16_t)~((uint16_t)TIM_CR1_URS);
 10830              		.loc 1 2133 0
 10831 00d8 7B68     		ldr	r3, [r7, #4]
 10832 00da 1B88     		ldrh	r3, [r3, #0]	@ movhi
 10833 00dc 9BB2     		uxth	r3, r3
 10834 00de 23F00403 		bic	r3, r3, #4
 10835 00e2 9AB2     		uxth	r2, r3
 10836 00e4 7B68     		ldr	r3, [r7, #4]
 10837 00e6 1A80     		strh	r2, [r3, #0]	@ movhi
 10838              	.L701:
2134:../libs/StdPeripheralDriver/src/stm32f10x_tim.c ****   }
2135:../libs/StdPeripheralDriver/src/stm32f10x_tim.c **** }
 10839              		.loc 1 2135 0
 10840 00e8 07F10807 		add	r7, r7, #8
 10841 00ec BD46     		mov	sp, r7
 10842 00ee 80BD     		pop	{r7, pc}
 10843              	.L711:
 10844              		.align	2
 10845              	.L710:
 10846 00f0 002C0140 		.word	1073818624
 10847 00f4 00040040 		.word	1073742848
 10848 00f8 00080040 		.word	1073743872
 10849 00fc 000C0040 		.word	1073744896
 10850 0100 00100040 		.word	1073745920
 10851 0104 00140040 		.word	1073746944
 10852 0108 00340140 		.word	1073820672
 10853 010c 004C0140 		.word	1073826816
 10854 0110 00500140 		.word	1073827840
 10855 0114 00540140 		.word	1073828864
 10856 0118 00180040 		.word	1073747968
 10857 011c 001C0040 		.word	1073748992
 10858 0120 00200040 		.word	1073750016
 10859 0124 00400140 		.word	1073823744
 10860 0128 00440140 		.word	1073824768
 10861 012c 00480140 		.word	1073825792
 10862              		.cfi_endproc
 10863              	.LFE89:
 10865              		.section	.text.TIM_SelectHallSensor,"ax",%progbits
 10866              		.align	2
 10867              		.global	TIM_SelectHallSensor
 10868              		.thumb
 10869              		.thumb_func
 10871              	TIM_SelectHallSensor:
 10872              	.LFB90:
2136:../libs/StdPeripheralDriver/src/stm32f10x_tim.c **** 
2137:../libs/StdPeripheralDriver/src/stm32f10x_tim.c **** /**
2138:../libs/StdPeripheralDriver/src/stm32f10x_tim.c ****   * @brief  Enables or disables the TIMx's Hall sensor interface.
2139:../libs/StdPeripheralDriver/src/stm32f10x_tim.c ****   * @param  TIMx: where x can be 1, 2, 3, 4, 5 or 8 to select the TIM peripheral.
2140:../libs/StdPeripheralDriver/src/stm32f10x_tim.c ****   * @param  NewState: new state of the TIMx Hall sensor interface.
2141:../libs/StdPeripheralDriver/src/stm32f10x_tim.c ****   *   This parameter can be: ENABLE or DISABLE.
2142:../libs/StdPeripheralDriver/src/stm32f10x_tim.c ****   * @retval None
2143:../libs/StdPeripheralDriver/src/stm32f10x_tim.c ****   */
2144:../libs/StdPeripheralDriver/src/stm32f10x_tim.c **** void TIM_SelectHallSensor(TIM_TypeDef* TIMx, FunctionalState NewState)
2145:../libs/StdPeripheralDriver/src/stm32f10x_tim.c **** {
 10873              		.loc 1 2145 0
 10874              		.cfi_startproc
 10875              		@ args = 0, pretend = 0, frame = 8
 10876              		@ frame_needed = 1, uses_anonymous_args = 0
 10877 0000 80B5     		push	{r7, lr}
 10878              	.LCFI183:
 10879              		.cfi_def_cfa_offset 8
 10880              		.cfi_offset 7, -8
 10881              		.cfi_offset 14, -4
 10882 0002 82B0     		sub	sp, sp, #8
 10883              	.LCFI184:
 10884              		.cfi_def_cfa_offset 16
 10885 0004 00AF     		add	r7, sp, #0
 10886              	.LCFI185:
 10887              		.cfi_def_cfa_register 7
 10888 0006 7860     		str	r0, [r7, #4]
 10889 0008 0B46     		mov	r3, r1
 10890 000a FB70     		strb	r3, [r7, #3]
2146:../libs/StdPeripheralDriver/src/stm32f10x_tim.c ****   /* Check the parameters */
2147:../libs/StdPeripheralDriver/src/stm32f10x_tim.c ****   assert_param(IS_TIM_LIST6_PERIPH(TIMx));
 10891              		.loc 1 2147 0
 10892 000c 7A68     		ldr	r2, [r7, #4]
 10893 000e 284B     		ldr	r3, .L721
 10894 0010 9A42     		cmp	r2, r3
 10895 0012 1FD0     		beq	.L713
 10896              		.loc 1 2147 0 is_stmt 0 discriminator 2
 10897 0014 7B68     		ldr	r3, [r7, #4]
 10898 0016 B3F1804F 		cmp	r3, #1073741824
 10899 001a 1BD0     		beq	.L713
 10900              		.loc 1 2147 0 discriminator 1
 10901 001c 7A68     		ldr	r2, [r7, #4]
 10902 001e 254B     		ldr	r3, .L721+4
 10903 0020 9A42     		cmp	r2, r3
 10904 0022 17D0     		beq	.L713
 10905              		.loc 1 2147 0 discriminator 2
 10906 0024 7A68     		ldr	r2, [r7, #4]
 10907 0026 244B     		ldr	r3, .L721+8
 10908 0028 9A42     		cmp	r2, r3
 10909 002a 13D0     		beq	.L713
 10910              		.loc 1 2147 0 discriminator 3
 10911 002c 7A68     		ldr	r2, [r7, #4]
 10912 002e 234B     		ldr	r3, .L721+12
 10913 0030 9A42     		cmp	r2, r3
 10914 0032 0FD0     		beq	.L713
 10915              		.loc 1 2147 0 discriminator 4
 10916 0034 7A68     		ldr	r2, [r7, #4]
 10917 0036 224B     		ldr	r3, .L721+16
 10918 0038 9A42     		cmp	r2, r3
 10919 003a 0BD0     		beq	.L713
 10920              		.loc 1 2147 0 discriminator 5
 10921 003c 7A68     		ldr	r2, [r7, #4]
 10922 003e 214B     		ldr	r3, .L721+20
 10923 0040 9A42     		cmp	r2, r3
 10924 0042 07D0     		beq	.L713
 10925              		.loc 1 2147 0 discriminator 6
 10926 0044 7A68     		ldr	r2, [r7, #4]
 10927 0046 204B     		ldr	r3, .L721+24
 10928 0048 9A42     		cmp	r2, r3
 10929 004a 03D0     		beq	.L713
 10930              		.loc 1 2147 0 discriminator 7
 10931 004c 7A68     		ldr	r2, [r7, #4]
 10932 004e 1F4B     		ldr	r3, .L721+28
 10933 0050 9A42     		cmp	r2, r3
 10934 0052 02D1     		bne	.L714
 10935              	.L713:
 10936              		.loc 1 2147 0 discriminator 1
 10937 0054 4FF00103 		mov	r3, #1
 10938 0058 01E0     		b	.L715
 10939              	.L714:
 10940              		.loc 1 2147 0 discriminator 3
 10941 005a 4FF00003 		mov	r3, #0
 10942              	.L715:
 10943              		.loc 1 2147 0 discriminator 4
 10944 005e 1846     		mov	r0, r3
 10945 0060 FFF7FEFF 		bl	assert_param
2148:../libs/StdPeripheralDriver/src/stm32f10x_tim.c ****   assert_param(IS_FUNCTIONAL_STATE(NewState));
 10946              		.loc 1 2148 0 is_stmt 1 discriminator 4
 10947 0064 FB78     		ldrb	r3, [r7, #3]	@ zero_extendqisi2
 10948 0066 002B     		cmp	r3, #0
 10949 0068 02D0     		beq	.L716
 10950              		.loc 1 2148 0 is_stmt 0 discriminator 2
 10951 006a FB78     		ldrb	r3, [r7, #3]	@ zero_extendqisi2
 10952 006c 012B     		cmp	r3, #1
 10953 006e 02D1     		bne	.L717
 10954              	.L716:
 10955              		.loc 1 2148 0 discriminator 1
 10956 0070 4FF00103 		mov	r3, #1
 10957 0074 01E0     		b	.L718
 10958              	.L717:
 10959              		.loc 1 2148 0 discriminator 3
 10960 0076 4FF00003 		mov	r3, #0
 10961              	.L718:
 10962              		.loc 1 2148 0 discriminator 4
 10963 007a 1846     		mov	r0, r3
 10964 007c FFF7FEFF 		bl	assert_param
2149:../libs/StdPeripheralDriver/src/stm32f10x_tim.c ****   if (NewState != DISABLE)
 10965              		.loc 1 2149 0 is_stmt 1 discriminator 4
 10966 0080 FB78     		ldrb	r3, [r7, #3]	@ zero_extendqisi2
 10967 0082 002B     		cmp	r3, #0
 10968 0084 08D0     		beq	.L719
2150:../libs/StdPeripheralDriver/src/stm32f10x_tim.c ****   {
2151:../libs/StdPeripheralDriver/src/stm32f10x_tim.c ****     /* Set the TI1S Bit */
2152:../libs/StdPeripheralDriver/src/stm32f10x_tim.c ****     TIMx->CR2 |= TIM_CR2_TI1S;
 10969              		.loc 1 2152 0
 10970 0086 7B68     		ldr	r3, [r7, #4]
 10971 0088 9B88     		ldrh	r3, [r3, #4]	@ movhi
 10972 008a 9BB2     		uxth	r3, r3
 10973 008c 43F08003 		orr	r3, r3, #128
 10974 0090 9AB2     		uxth	r2, r3
 10975 0092 7B68     		ldr	r3, [r7, #4]
 10976 0094 9A80     		strh	r2, [r3, #4]	@ movhi
 10977 0096 07E0     		b	.L712
 10978              	.L719:
2153:../libs/StdPeripheralDriver/src/stm32f10x_tim.c ****   }
2154:../libs/StdPeripheralDriver/src/stm32f10x_tim.c ****   else
2155:../libs/StdPeripheralDriver/src/stm32f10x_tim.c ****   {
2156:../libs/StdPeripheralDriver/src/stm32f10x_tim.c ****     /* Reset the TI1S Bit */
2157:../libs/StdPeripheralDriver/src/stm32f10x_tim.c ****     TIMx->CR2 &= (uint16_t)~((uint16_t)TIM_CR2_TI1S);
 10979              		.loc 1 2157 0
 10980 0098 7B68     		ldr	r3, [r7, #4]
 10981 009a 9B88     		ldrh	r3, [r3, #4]	@ movhi
 10982 009c 9BB2     		uxth	r3, r3
 10983 009e 23F08003 		bic	r3, r3, #128
 10984 00a2 9AB2     		uxth	r2, r3
 10985 00a4 7B68     		ldr	r3, [r7, #4]
 10986 00a6 9A80     		strh	r2, [r3, #4]	@ movhi
 10987              	.L712:
2158:../libs/StdPeripheralDriver/src/stm32f10x_tim.c ****   }
2159:../libs/StdPeripheralDriver/src/stm32f10x_tim.c **** }
 10988              		.loc 1 2159 0
 10989 00a8 07F10807 		add	r7, r7, #8
 10990 00ac BD46     		mov	sp, r7
 10991 00ae 80BD     		pop	{r7, pc}
 10992              	.L722:
 10993              		.align	2
 10994              	.L721:
 10995 00b0 002C0140 		.word	1073818624
 10996 00b4 00040040 		.word	1073742848
 10997 00b8 00080040 		.word	1073743872
 10998 00bc 000C0040 		.word	1073744896
 10999 00c0 00340140 		.word	1073820672
 11000 00c4 004C0140 		.word	1073826816
 11001 00c8 00180040 		.word	1073747968
 11002 00cc 00400140 		.word	1073823744
 11003              		.cfi_endproc
 11004              	.LFE90:
 11006              		.section	.text.TIM_SelectOnePulseMode,"ax",%progbits
 11007              		.align	2
 11008              		.global	TIM_SelectOnePulseMode
 11009              		.thumb
 11010              		.thumb_func
 11012              	TIM_SelectOnePulseMode:
 11013              	.LFB91:
2160:../libs/StdPeripheralDriver/src/stm32f10x_tim.c **** 
2161:../libs/StdPeripheralDriver/src/stm32f10x_tim.c **** /**
2162:../libs/StdPeripheralDriver/src/stm32f10x_tim.c ****   * @brief  Selects the TIMx's One Pulse Mode.
2163:../libs/StdPeripheralDriver/src/stm32f10x_tim.c ****   * @param  TIMx: where x can be 1 to 17 to select the TIM peripheral.
2164:../libs/StdPeripheralDriver/src/stm32f10x_tim.c ****   * @param  TIM_OPMode: specifies the OPM Mode to be used.
2165:../libs/StdPeripheralDriver/src/stm32f10x_tim.c ****   *   This parameter can be one of the following values:
2166:../libs/StdPeripheralDriver/src/stm32f10x_tim.c ****   *     @arg TIM_OPMode_Single
2167:../libs/StdPeripheralDriver/src/stm32f10x_tim.c ****   *     @arg TIM_OPMode_Repetitive
2168:../libs/StdPeripheralDriver/src/stm32f10x_tim.c ****   * @retval None
2169:../libs/StdPeripheralDriver/src/stm32f10x_tim.c ****   */
2170:../libs/StdPeripheralDriver/src/stm32f10x_tim.c **** void TIM_SelectOnePulseMode(TIM_TypeDef* TIMx, uint16_t TIM_OPMode)
2171:../libs/StdPeripheralDriver/src/stm32f10x_tim.c **** {
 11014              		.loc 1 2171 0
 11015              		.cfi_startproc
 11016              		@ args = 0, pretend = 0, frame = 8
 11017              		@ frame_needed = 1, uses_anonymous_args = 0
 11018 0000 80B5     		push	{r7, lr}
 11019              	.LCFI186:
 11020              		.cfi_def_cfa_offset 8
 11021              		.cfi_offset 7, -8
 11022              		.cfi_offset 14, -4
 11023 0002 82B0     		sub	sp, sp, #8
 11024              	.LCFI187:
 11025              		.cfi_def_cfa_offset 16
 11026 0004 00AF     		add	r7, sp, #0
 11027              	.LCFI188:
 11028              		.cfi_def_cfa_register 7
 11029 0006 7860     		str	r0, [r7, #4]
 11030 0008 0B46     		mov	r3, r1
 11031 000a 7B80     		strh	r3, [r7, #2]	@ movhi
2172:../libs/StdPeripheralDriver/src/stm32f10x_tim.c ****   /* Check the parameters */
2173:../libs/StdPeripheralDriver/src/stm32f10x_tim.c ****   assert_param(IS_TIM_ALL_PERIPH(TIMx));
 11032              		.loc 1 2173 0
 11033 000c 7A68     		ldr	r2, [r7, #4]
 11034 000e 364B     		ldr	r3, .L730
 11035 0010 9A42     		cmp	r2, r3
 11036 0012 3FD0     		beq	.L724
 11037              		.loc 1 2173 0 is_stmt 0 discriminator 2
 11038 0014 7B68     		ldr	r3, [r7, #4]
 11039 0016 B3F1804F 		cmp	r3, #1073741824
 11040 001a 3BD0     		beq	.L724
 11041              		.loc 1 2173 0 discriminator 1
 11042 001c 7A68     		ldr	r2, [r7, #4]
 11043 001e 334B     		ldr	r3, .L730+4
 11044 0020 9A42     		cmp	r2, r3
 11045 0022 37D0     		beq	.L724
 11046              		.loc 1 2173 0 discriminator 2
 11047 0024 7A68     		ldr	r2, [r7, #4]
 11048 0026 324B     		ldr	r3, .L730+8
 11049 0028 9A42     		cmp	r2, r3
 11050 002a 33D0     		beq	.L724
 11051              		.loc 1 2173 0 discriminator 3
 11052 002c 7A68     		ldr	r2, [r7, #4]
 11053 002e 314B     		ldr	r3, .L730+12
 11054 0030 9A42     		cmp	r2, r3
 11055 0032 2FD0     		beq	.L724
 11056              		.loc 1 2173 0 discriminator 4
 11057 0034 7A68     		ldr	r2, [r7, #4]
 11058 0036 304B     		ldr	r3, .L730+16
 11059 0038 9A42     		cmp	r2, r3
 11060 003a 2BD0     		beq	.L724
 11061              		.loc 1 2173 0 discriminator 5
 11062 003c 7A68     		ldr	r2, [r7, #4]
 11063 003e 2F4B     		ldr	r3, .L730+20
 11064 0040 9A42     		cmp	r2, r3
 11065 0042 27D0     		beq	.L724
 11066              		.loc 1 2173 0 discriminator 6
 11067 0044 7A68     		ldr	r2, [r7, #4]
 11068 0046 2E4B     		ldr	r3, .L730+24
 11069 0048 9A42     		cmp	r2, r3
 11070 004a 23D0     		beq	.L724
 11071              		.loc 1 2173 0 discriminator 7
 11072 004c 7A68     		ldr	r2, [r7, #4]
 11073 004e 2D4B     		ldr	r3, .L730+28
 11074 0050 9A42     		cmp	r2, r3
 11075 0052 1FD0     		beq	.L724
 11076              		.loc 1 2173 0 discriminator 8
 11077 0054 7A68     		ldr	r2, [r7, #4]
 11078 0056 2C4B     		ldr	r3, .L730+32
 11079 0058 9A42     		cmp	r2, r3
 11080 005a 1BD0     		beq	.L724
 11081              		.loc 1 2173 0 discriminator 9
 11082 005c 7A68     		ldr	r2, [r7, #4]
 11083 005e 2B4B     		ldr	r3, .L730+36
 11084 0060 9A42     		cmp	r2, r3
 11085 0062 17D0     		beq	.L724
 11086              		.loc 1 2173 0 discriminator 10
 11087 0064 7A68     		ldr	r2, [r7, #4]
 11088 0066 2A4B     		ldr	r3, .L730+40
 11089 0068 9A42     		cmp	r2, r3
 11090 006a 13D0     		beq	.L724
 11091              		.loc 1 2173 0 discriminator 11
 11092 006c 7A68     		ldr	r2, [r7, #4]
 11093 006e 294B     		ldr	r3, .L730+44
 11094 0070 9A42     		cmp	r2, r3
 11095 0072 0FD0     		beq	.L724
 11096              		.loc 1 2173 0 discriminator 12
 11097 0074 7A68     		ldr	r2, [r7, #4]
 11098 0076 284B     		ldr	r3, .L730+48
 11099 0078 9A42     		cmp	r2, r3
 11100 007a 0BD0     		beq	.L724
 11101              		.loc 1 2173 0 discriminator 13
 11102 007c 7A68     		ldr	r2, [r7, #4]
 11103 007e 274B     		ldr	r3, .L730+52
 11104 0080 9A42     		cmp	r2, r3
 11105 0082 07D0     		beq	.L724
 11106              		.loc 1 2173 0 discriminator 14
 11107 0084 7A68     		ldr	r2, [r7, #4]
 11108 0086 264B     		ldr	r3, .L730+56
 11109 0088 9A42     		cmp	r2, r3
 11110 008a 03D0     		beq	.L724
 11111              		.loc 1 2173 0 discriminator 15
 11112 008c 7A68     		ldr	r2, [r7, #4]
 11113 008e 254B     		ldr	r3, .L730+60
 11114 0090 9A42     		cmp	r2, r3
 11115 0092 02D1     		bne	.L725
 11116              	.L724:
 11117              		.loc 1 2173 0 discriminator 1
 11118 0094 4FF00103 		mov	r3, #1
 11119 0098 01E0     		b	.L726
 11120              	.L725:
 11121              		.loc 1 2173 0 discriminator 3
 11122 009a 4FF00003 		mov	r3, #0
 11123              	.L726:
 11124              		.loc 1 2173 0 discriminator 4
 11125 009e 1846     		mov	r0, r3
 11126 00a0 FFF7FEFF 		bl	assert_param
2174:../libs/StdPeripheralDriver/src/stm32f10x_tim.c ****   assert_param(IS_TIM_OPM_MODE(TIM_OPMode));
 11127              		.loc 1 2174 0 is_stmt 1 discriminator 4
 11128 00a4 7B88     		ldrh	r3, [r7, #2]
 11129 00a6 082B     		cmp	r3, #8
 11130 00a8 02D0     		beq	.L727
 11131              		.loc 1 2174 0 is_stmt 0 discriminator 2
 11132 00aa 7B88     		ldrh	r3, [r7, #2]
 11133 00ac 002B     		cmp	r3, #0
 11134 00ae 02D1     		bne	.L728
 11135              	.L727:
 11136              		.loc 1 2174 0 discriminator 1
 11137 00b0 4FF00103 		mov	r3, #1
 11138 00b4 01E0     		b	.L729
 11139              	.L728:
 11140              		.loc 1 2174 0 discriminator 3
 11141 00b6 4FF00003 		mov	r3, #0
 11142              	.L729:
 11143              		.loc 1 2174 0 discriminator 4
 11144 00ba 1846     		mov	r0, r3
 11145 00bc FFF7FEFF 		bl	assert_param
2175:../libs/StdPeripheralDriver/src/stm32f10x_tim.c ****   /* Reset the OPM Bit */
2176:../libs/StdPeripheralDriver/src/stm32f10x_tim.c ****   TIMx->CR1 &= (uint16_t)~((uint16_t)TIM_CR1_OPM);
 11146              		.loc 1 2176 0 is_stmt 1 discriminator 4
 11147 00c0 7B68     		ldr	r3, [r7, #4]
 11148 00c2 1B88     		ldrh	r3, [r3, #0]	@ movhi
 11149 00c4 9BB2     		uxth	r3, r3
 11150 00c6 23F00803 		bic	r3, r3, #8
 11151 00ca 9AB2     		uxth	r2, r3
 11152 00cc 7B68     		ldr	r3, [r7, #4]
 11153 00ce 1A80     		strh	r2, [r3, #0]	@ movhi
2177:../libs/StdPeripheralDriver/src/stm32f10x_tim.c ****   /* Configure the OPM Mode */
2178:../libs/StdPeripheralDriver/src/stm32f10x_tim.c ****   TIMx->CR1 |= TIM_OPMode;
 11154              		.loc 1 2178 0 discriminator 4
 11155 00d0 7B68     		ldr	r3, [r7, #4]
 11156 00d2 1B88     		ldrh	r3, [r3, #0]	@ movhi
 11157 00d4 9AB2     		uxth	r2, r3
 11158 00d6 7B88     		ldrh	r3, [r7, #2]	@ movhi
 11159 00d8 1343     		orrs	r3, r3, r2
 11160 00da 9AB2     		uxth	r2, r3
 11161 00dc 7B68     		ldr	r3, [r7, #4]
 11162 00de 1A80     		strh	r2, [r3, #0]	@ movhi
2179:../libs/StdPeripheralDriver/src/stm32f10x_tim.c **** }
 11163              		.loc 1 2179 0 discriminator 4
 11164 00e0 07F10807 		add	r7, r7, #8
 11165 00e4 BD46     		mov	sp, r7
 11166 00e6 80BD     		pop	{r7, pc}
 11167              	.L731:
 11168              		.align	2
 11169              	.L730:
 11170 00e8 002C0140 		.word	1073818624
 11171 00ec 00040040 		.word	1073742848
 11172 00f0 00080040 		.word	1073743872
 11173 00f4 000C0040 		.word	1073744896
 11174 00f8 00100040 		.word	1073745920
 11175 00fc 00140040 		.word	1073746944
 11176 0100 00340140 		.word	1073820672
 11177 0104 004C0140 		.word	1073826816
 11178 0108 00500140 		.word	1073827840
 11179 010c 00540140 		.word	1073828864
 11180 0110 00180040 		.word	1073747968
 11181 0114 001C0040 		.word	1073748992
 11182 0118 00200040 		.word	1073750016
 11183 011c 00400140 		.word	1073823744
 11184 0120 00440140 		.word	1073824768
 11185 0124 00480140 		.word	1073825792
 11186              		.cfi_endproc
 11187              	.LFE91:
 11189              		.section	.text.TIM_SelectOutputTrigger,"ax",%progbits
 11190              		.align	2
 11191              		.global	TIM_SelectOutputTrigger
 11192              		.thumb
 11193              		.thumb_func
 11195              	TIM_SelectOutputTrigger:
 11196              	.LFB92:
2180:../libs/StdPeripheralDriver/src/stm32f10x_tim.c **** 
2181:../libs/StdPeripheralDriver/src/stm32f10x_tim.c **** /**
2182:../libs/StdPeripheralDriver/src/stm32f10x_tim.c ****   * @brief  Selects the TIMx Trigger Output Mode.
2183:../libs/StdPeripheralDriver/src/stm32f10x_tim.c ****   * @param  TIMx: where x can be 1, 2, 3, 4, 5, 6, 7, 8, 9, 12 or 15 to select the TIM peripheral.
2184:../libs/StdPeripheralDriver/src/stm32f10x_tim.c ****   * @param  TIM_TRGOSource: specifies the Trigger Output source.
2185:../libs/StdPeripheralDriver/src/stm32f10x_tim.c ****   *   This paramter can be one of the following values:
2186:../libs/StdPeripheralDriver/src/stm32f10x_tim.c ****   *
2187:../libs/StdPeripheralDriver/src/stm32f10x_tim.c ****   *  - For all TIMx
2188:../libs/StdPeripheralDriver/src/stm32f10x_tim.c ****   *     @arg TIM_TRGOSource_Reset:  The UG bit in the TIM_EGR register is used as the trigger outpu
2189:../libs/StdPeripheralDriver/src/stm32f10x_tim.c ****   *     @arg TIM_TRGOSource_Enable: The Counter Enable CEN is used as the trigger output (TRGO).
2190:../libs/StdPeripheralDriver/src/stm32f10x_tim.c ****   *     @arg TIM_TRGOSource_Update: The update event is selected as the trigger output (TRGO).
2191:../libs/StdPeripheralDriver/src/stm32f10x_tim.c ****   *
2192:../libs/StdPeripheralDriver/src/stm32f10x_tim.c ****   *  - For all TIMx except TIM6 and TIM7
2193:../libs/StdPeripheralDriver/src/stm32f10x_tim.c ****   *     @arg TIM_TRGOSource_OC1: The trigger output sends a positive pulse when the CC1IF flag
2194:../libs/StdPeripheralDriver/src/stm32f10x_tim.c ****   *                              is to be set, as soon as a capture or compare match occurs (TRGO).
2195:../libs/StdPeripheralDriver/src/stm32f10x_tim.c ****   *     @arg TIM_TRGOSource_OC1Ref: OC1REF signal is used as the trigger output (TRGO).
2196:../libs/StdPeripheralDriver/src/stm32f10x_tim.c ****   *     @arg TIM_TRGOSource_OC2Ref: OC2REF signal is used as the trigger output (TRGO).
2197:../libs/StdPeripheralDriver/src/stm32f10x_tim.c ****   *     @arg TIM_TRGOSource_OC3Ref: OC3REF signal is used as the trigger output (TRGO).
2198:../libs/StdPeripheralDriver/src/stm32f10x_tim.c ****   *     @arg TIM_TRGOSource_OC4Ref: OC4REF signal is used as the trigger output (TRGO).
2199:../libs/StdPeripheralDriver/src/stm32f10x_tim.c ****   *
2200:../libs/StdPeripheralDriver/src/stm32f10x_tim.c ****   * @retval None
2201:../libs/StdPeripheralDriver/src/stm32f10x_tim.c ****   */
2202:../libs/StdPeripheralDriver/src/stm32f10x_tim.c **** void TIM_SelectOutputTrigger(TIM_TypeDef* TIMx, uint16_t TIM_TRGOSource)
2203:../libs/StdPeripheralDriver/src/stm32f10x_tim.c **** {
 11197              		.loc 1 2203 0
 11198              		.cfi_startproc
 11199              		@ args = 0, pretend = 0, frame = 8
 11200              		@ frame_needed = 1, uses_anonymous_args = 0
 11201 0000 80B5     		push	{r7, lr}
 11202              	.LCFI189:
 11203              		.cfi_def_cfa_offset 8
 11204              		.cfi_offset 7, -8
 11205              		.cfi_offset 14, -4
 11206 0002 82B0     		sub	sp, sp, #8
 11207              	.LCFI190:
 11208              		.cfi_def_cfa_offset 16
 11209 0004 00AF     		add	r7, sp, #0
 11210              	.LCFI191:
 11211              		.cfi_def_cfa_register 7
 11212 0006 7860     		str	r0, [r7, #4]
 11213 0008 0B46     		mov	r3, r1
 11214 000a 7B80     		strh	r3, [r7, #2]	@ movhi
2204:../libs/StdPeripheralDriver/src/stm32f10x_tim.c ****   /* Check the parameters */
2205:../libs/StdPeripheralDriver/src/stm32f10x_tim.c ****   assert_param(IS_TIM_LIST7_PERIPH(TIMx));
 11215              		.loc 1 2205 0
 11216 000c 7A68     		ldr	r2, [r7, #4]
 11217 000e 334B     		ldr	r3, .L739
 11218 0010 9A42     		cmp	r2, r3
 11219 0012 27D0     		beq	.L733
 11220              		.loc 1 2205 0 is_stmt 0 discriminator 2
 11221 0014 7B68     		ldr	r3, [r7, #4]
 11222 0016 B3F1804F 		cmp	r3, #1073741824
 11223 001a 23D0     		beq	.L733
 11224              		.loc 1 2205 0 discriminator 1
 11225 001c 7A68     		ldr	r2, [r7, #4]
 11226 001e 304B     		ldr	r3, .L739+4
 11227 0020 9A42     		cmp	r2, r3
 11228 0022 1FD0     		beq	.L733
 11229              		.loc 1 2205 0 discriminator 2
 11230 0024 7A68     		ldr	r2, [r7, #4]
 11231 0026 2F4B     		ldr	r3, .L739+8
 11232 0028 9A42     		cmp	r2, r3
 11233 002a 1BD0     		beq	.L733
 11234              		.loc 1 2205 0 discriminator 3
 11235 002c 7A68     		ldr	r2, [r7, #4]
 11236 002e 2E4B     		ldr	r3, .L739+12
 11237 0030 9A42     		cmp	r2, r3
 11238 0032 17D0     		beq	.L733
 11239              		.loc 1 2205 0 discriminator 4
 11240 0034 7A68     		ldr	r2, [r7, #4]
 11241 0036 2D4B     		ldr	r3, .L739+16
 11242 0038 9A42     		cmp	r2, r3
 11243 003a 13D0     		beq	.L733
 11244              		.loc 1 2205 0 discriminator 5
 11245 003c 7A68     		ldr	r2, [r7, #4]
 11246 003e 2C4B     		ldr	r3, .L739+20
 11247 0040 9A42     		cmp	r2, r3
 11248 0042 0FD0     		beq	.L733
 11249              		.loc 1 2205 0 discriminator 6
 11250 0044 7A68     		ldr	r2, [r7, #4]
 11251 0046 2B4B     		ldr	r3, .L739+24
 11252 0048 9A42     		cmp	r2, r3
 11253 004a 0BD0     		beq	.L733
 11254              		.loc 1 2205 0 discriminator 7
 11255 004c 7A68     		ldr	r2, [r7, #4]
 11256 004e 2A4B     		ldr	r3, .L739+28
 11257 0050 9A42     		cmp	r2, r3
 11258 0052 07D0     		beq	.L733
 11259              		.loc 1 2205 0 discriminator 8
 11260 0054 7A68     		ldr	r2, [r7, #4]
 11261 0056 294B     		ldr	r3, .L739+32
 11262 0058 9A42     		cmp	r2, r3
 11263 005a 03D0     		beq	.L733
 11264              		.loc 1 2205 0 discriminator 9
 11265 005c 7A68     		ldr	r2, [r7, #4]
 11266 005e 284B     		ldr	r3, .L739+36
 11267 0060 9A42     		cmp	r2, r3
 11268 0062 02D1     		bne	.L734
 11269              	.L733:
 11270              		.loc 1 2205 0 discriminator 1
 11271 0064 4FF00103 		mov	r3, #1
 11272 0068 01E0     		b	.L735
 11273              	.L734:
 11274              		.loc 1 2205 0 discriminator 3
 11275 006a 4FF00003 		mov	r3, #0
 11276              	.L735:
 11277              		.loc 1 2205 0 discriminator 4
 11278 006e 1846     		mov	r0, r3
 11279 0070 FFF7FEFF 		bl	assert_param
2206:../libs/StdPeripheralDriver/src/stm32f10x_tim.c ****   assert_param(IS_TIM_TRGO_SOURCE(TIM_TRGOSource));
 11280              		.loc 1 2206 0 is_stmt 1 discriminator 4
 11281 0074 7B88     		ldrh	r3, [r7, #2]
 11282 0076 002B     		cmp	r3, #0
 11283 0078 14D0     		beq	.L736
 11284              		.loc 1 2206 0 is_stmt 0 discriminator 2
 11285 007a 7B88     		ldrh	r3, [r7, #2]
 11286 007c 102B     		cmp	r3, #16
 11287 007e 11D0     		beq	.L736
 11288              		.loc 1 2206 0 discriminator 1
 11289 0080 7B88     		ldrh	r3, [r7, #2]
 11290 0082 202B     		cmp	r3, #32
 11291 0084 0ED0     		beq	.L736
 11292              		.loc 1 2206 0 discriminator 2
 11293 0086 7B88     		ldrh	r3, [r7, #2]
 11294 0088 302B     		cmp	r3, #48
 11295 008a 0BD0     		beq	.L736
 11296              		.loc 1 2206 0 discriminator 3
 11297 008c 7B88     		ldrh	r3, [r7, #2]
 11298 008e 402B     		cmp	r3, #64
 11299 0090 08D0     		beq	.L736
 11300              		.loc 1 2206 0 discriminator 4
 11301 0092 7B88     		ldrh	r3, [r7, #2]
 11302 0094 502B     		cmp	r3, #80
 11303 0096 05D0     		beq	.L736
 11304              		.loc 1 2206 0 discriminator 5
 11305 0098 7B88     		ldrh	r3, [r7, #2]
 11306 009a 602B     		cmp	r3, #96
 11307 009c 02D0     		beq	.L736
 11308              		.loc 1 2206 0 discriminator 6
 11309 009e 7B88     		ldrh	r3, [r7, #2]
 11310 00a0 702B     		cmp	r3, #112
 11311 00a2 02D1     		bne	.L737
 11312              	.L736:
 11313              		.loc 1 2206 0 discriminator 1
 11314 00a4 4FF00103 		mov	r3, #1
 11315 00a8 01E0     		b	.L738
 11316              	.L737:
 11317              		.loc 1 2206 0 discriminator 3
 11318 00aa 4FF00003 		mov	r3, #0
 11319              	.L738:
 11320              		.loc 1 2206 0 discriminator 4
 11321 00ae 1846     		mov	r0, r3
 11322 00b0 FFF7FEFF 		bl	assert_param
2207:../libs/StdPeripheralDriver/src/stm32f10x_tim.c ****   /* Reset the MMS Bits */
2208:../libs/StdPeripheralDriver/src/stm32f10x_tim.c ****   TIMx->CR2 &= (uint16_t)~((uint16_t)TIM_CR2_MMS);
 11323              		.loc 1 2208 0 is_stmt 1 discriminator 4
 11324 00b4 7B68     		ldr	r3, [r7, #4]
 11325 00b6 9B88     		ldrh	r3, [r3, #4]	@ movhi
 11326 00b8 9BB2     		uxth	r3, r3
 11327 00ba 23F07003 		bic	r3, r3, #112
 11328 00be 9AB2     		uxth	r2, r3
 11329 00c0 7B68     		ldr	r3, [r7, #4]
 11330 00c2 9A80     		strh	r2, [r3, #4]	@ movhi
2209:../libs/StdPeripheralDriver/src/stm32f10x_tim.c ****   /* Select the TRGO source */
2210:../libs/StdPeripheralDriver/src/stm32f10x_tim.c ****   TIMx->CR2 |=  TIM_TRGOSource;
 11331              		.loc 1 2210 0 discriminator 4
 11332 00c4 7B68     		ldr	r3, [r7, #4]
 11333 00c6 9B88     		ldrh	r3, [r3, #4]	@ movhi
 11334 00c8 9AB2     		uxth	r2, r3
 11335 00ca 7B88     		ldrh	r3, [r7, #2]	@ movhi
 11336 00cc 1343     		orrs	r3, r3, r2
 11337 00ce 9AB2     		uxth	r2, r3
 11338 00d0 7B68     		ldr	r3, [r7, #4]
 11339 00d2 9A80     		strh	r2, [r3, #4]	@ movhi
2211:../libs/StdPeripheralDriver/src/stm32f10x_tim.c **** }
 11340              		.loc 1 2211 0 discriminator 4
 11341 00d4 07F10807 		add	r7, r7, #8
 11342 00d8 BD46     		mov	sp, r7
 11343 00da 80BD     		pop	{r7, pc}
 11344              	.L740:
 11345              		.align	2
 11346              	.L739:
 11347 00dc 002C0140 		.word	1073818624
 11348 00e0 00040040 		.word	1073742848
 11349 00e4 00080040 		.word	1073743872
 11350 00e8 000C0040 		.word	1073744896
 11351 00ec 00100040 		.word	1073745920
 11352 00f0 00140040 		.word	1073746944
 11353 00f4 00340140 		.word	1073820672
 11354 00f8 004C0140 		.word	1073826816
 11355 00fc 00180040 		.word	1073747968
 11356 0100 00400140 		.word	1073823744
 11357              		.cfi_endproc
 11358              	.LFE92:
 11360              		.section	.text.TIM_SelectSlaveMode,"ax",%progbits
 11361              		.align	2
 11362              		.global	TIM_SelectSlaveMode
 11363              		.thumb
 11364              		.thumb_func
 11366              	TIM_SelectSlaveMode:
 11367              	.LFB93:
2212:../libs/StdPeripheralDriver/src/stm32f10x_tim.c **** 
2213:../libs/StdPeripheralDriver/src/stm32f10x_tim.c **** /**
2214:../libs/StdPeripheralDriver/src/stm32f10x_tim.c ****   * @brief  Selects the TIMx Slave Mode.
2215:../libs/StdPeripheralDriver/src/stm32f10x_tim.c ****   * @param  TIMx: where x can be 1, 2, 3, 4, 5, 8, 9, 12 or 15 to select the TIM peripheral.
2216:../libs/StdPeripheralDriver/src/stm32f10x_tim.c ****   * @param  TIM_SlaveMode: specifies the Timer Slave Mode.
2217:../libs/StdPeripheralDriver/src/stm32f10x_tim.c ****   *   This parameter can be one of the following values:
2218:../libs/StdPeripheralDriver/src/stm32f10x_tim.c ****   *     @arg TIM_SlaveMode_Reset: Rising edge of the selected trigger signal (TRGI) re-initializes
2219:../libs/StdPeripheralDriver/src/stm32f10x_tim.c ****   *                               the counter and triggers an update of the registers.
2220:../libs/StdPeripheralDriver/src/stm32f10x_tim.c ****   *     @arg TIM_SlaveMode_Gated:     The counter clock is enabled when the trigger signal (TRGI) i
2221:../libs/StdPeripheralDriver/src/stm32f10x_tim.c ****   *     @arg TIM_SlaveMode_Trigger:   The counter starts at a rising edge of the trigger TRGI.
2222:../libs/StdPeripheralDriver/src/stm32f10x_tim.c ****   *     @arg TIM_SlaveMode_External1: Rising edges of the selected trigger (TRGI) clock the counter
2223:../libs/StdPeripheralDriver/src/stm32f10x_tim.c ****   * @retval None
2224:../libs/StdPeripheralDriver/src/stm32f10x_tim.c ****   */
2225:../libs/StdPeripheralDriver/src/stm32f10x_tim.c **** void TIM_SelectSlaveMode(TIM_TypeDef* TIMx, uint16_t TIM_SlaveMode)
2226:../libs/StdPeripheralDriver/src/stm32f10x_tim.c **** {
 11368              		.loc 1 2226 0
 11369              		.cfi_startproc
 11370              		@ args = 0, pretend = 0, frame = 8
 11371              		@ frame_needed = 1, uses_anonymous_args = 0
 11372 0000 80B5     		push	{r7, lr}
 11373              	.LCFI192:
 11374              		.cfi_def_cfa_offset 8
 11375              		.cfi_offset 7, -8
 11376              		.cfi_offset 14, -4
 11377 0002 82B0     		sub	sp, sp, #8
 11378              	.LCFI193:
 11379              		.cfi_def_cfa_offset 16
 11380 0004 00AF     		add	r7, sp, #0
 11381              	.LCFI194:
 11382              		.cfi_def_cfa_register 7
 11383 0006 7860     		str	r0, [r7, #4]
 11384 0008 0B46     		mov	r3, r1
 11385 000a 7B80     		strh	r3, [r7, #2]	@ movhi
2227:../libs/StdPeripheralDriver/src/stm32f10x_tim.c ****   /* Check the parameters */
2228:../libs/StdPeripheralDriver/src/stm32f10x_tim.c ****   assert_param(IS_TIM_LIST6_PERIPH(TIMx));
 11386              		.loc 1 2228 0
 11387 000c 7A68     		ldr	r2, [r7, #4]
 11388 000e 294B     		ldr	r3, .L748
 11389 0010 9A42     		cmp	r2, r3
 11390 0012 1FD0     		beq	.L742
 11391              		.loc 1 2228 0 is_stmt 0 discriminator 2
 11392 0014 7B68     		ldr	r3, [r7, #4]
 11393 0016 B3F1804F 		cmp	r3, #1073741824
 11394 001a 1BD0     		beq	.L742
 11395              		.loc 1 2228 0 discriminator 1
 11396 001c 7A68     		ldr	r2, [r7, #4]
 11397 001e 264B     		ldr	r3, .L748+4
 11398 0020 9A42     		cmp	r2, r3
 11399 0022 17D0     		beq	.L742
 11400              		.loc 1 2228 0 discriminator 2
 11401 0024 7A68     		ldr	r2, [r7, #4]
 11402 0026 254B     		ldr	r3, .L748+8
 11403 0028 9A42     		cmp	r2, r3
 11404 002a 13D0     		beq	.L742
 11405              		.loc 1 2228 0 discriminator 3
 11406 002c 7A68     		ldr	r2, [r7, #4]
 11407 002e 244B     		ldr	r3, .L748+12
 11408 0030 9A42     		cmp	r2, r3
 11409 0032 0FD0     		beq	.L742
 11410              		.loc 1 2228 0 discriminator 4
 11411 0034 7A68     		ldr	r2, [r7, #4]
 11412 0036 234B     		ldr	r3, .L748+16
 11413 0038 9A42     		cmp	r2, r3
 11414 003a 0BD0     		beq	.L742
 11415              		.loc 1 2228 0 discriminator 5
 11416 003c 7A68     		ldr	r2, [r7, #4]
 11417 003e 224B     		ldr	r3, .L748+20
 11418 0040 9A42     		cmp	r2, r3
 11419 0042 07D0     		beq	.L742
 11420              		.loc 1 2228 0 discriminator 6
 11421 0044 7A68     		ldr	r2, [r7, #4]
 11422 0046 214B     		ldr	r3, .L748+24
 11423 0048 9A42     		cmp	r2, r3
 11424 004a 03D0     		beq	.L742
 11425              		.loc 1 2228 0 discriminator 7
 11426 004c 7A68     		ldr	r2, [r7, #4]
 11427 004e 204B     		ldr	r3, .L748+28
 11428 0050 9A42     		cmp	r2, r3
 11429 0052 02D1     		bne	.L743
 11430              	.L742:
 11431              		.loc 1 2228 0 discriminator 1
 11432 0054 4FF00103 		mov	r3, #1
 11433 0058 01E0     		b	.L744
 11434              	.L743:
 11435              		.loc 1 2228 0 discriminator 3
 11436 005a 4FF00003 		mov	r3, #0
 11437              	.L744:
 11438              		.loc 1 2228 0 discriminator 4
 11439 005e 1846     		mov	r0, r3
 11440 0060 FFF7FEFF 		bl	assert_param
2229:../libs/StdPeripheralDriver/src/stm32f10x_tim.c ****   assert_param(IS_TIM_SLAVE_MODE(TIM_SlaveMode));
 11441              		.loc 1 2229 0 is_stmt 1 discriminator 4
 11442 0064 7B88     		ldrh	r3, [r7, #2]
 11443 0066 042B     		cmp	r3, #4
 11444 0068 08D0     		beq	.L745
 11445              		.loc 1 2229 0 is_stmt 0 discriminator 2
 11446 006a 7B88     		ldrh	r3, [r7, #2]
 11447 006c 052B     		cmp	r3, #5
 11448 006e 05D0     		beq	.L745
 11449              		.loc 1 2229 0 discriminator 1
 11450 0070 7B88     		ldrh	r3, [r7, #2]
 11451 0072 062B     		cmp	r3, #6
 11452 0074 02D0     		beq	.L745
 11453              		.loc 1 2229 0 discriminator 2
 11454 0076 7B88     		ldrh	r3, [r7, #2]
 11455 0078 072B     		cmp	r3, #7
 11456 007a 02D1     		bne	.L746
 11457              	.L745:
 11458              		.loc 1 2229 0 discriminator 1
 11459 007c 4FF00103 		mov	r3, #1
 11460 0080 01E0     		b	.L747
 11461              	.L746:
 11462              		.loc 1 2229 0 discriminator 3
 11463 0082 4FF00003 		mov	r3, #0
 11464              	.L747:
 11465              		.loc 1 2229 0 discriminator 4
 11466 0086 1846     		mov	r0, r3
 11467 0088 FFF7FEFF 		bl	assert_param
2230:../libs/StdPeripheralDriver/src/stm32f10x_tim.c ****  /* Reset the SMS Bits */
2231:../libs/StdPeripheralDriver/src/stm32f10x_tim.c ****   TIMx->SMCR &= (uint16_t)~((uint16_t)TIM_SMCR_SMS);
 11468              		.loc 1 2231 0 is_stmt 1 discriminator 4
 11469 008c 7B68     		ldr	r3, [r7, #4]
 11470 008e 1B89     		ldrh	r3, [r3, #8]	@ movhi
 11471 0090 9BB2     		uxth	r3, r3
 11472 0092 23F00703 		bic	r3, r3, #7
 11473 0096 9AB2     		uxth	r2, r3
 11474 0098 7B68     		ldr	r3, [r7, #4]
 11475 009a 1A81     		strh	r2, [r3, #8]	@ movhi
2232:../libs/StdPeripheralDriver/src/stm32f10x_tim.c ****   /* Select the Slave Mode */
2233:../libs/StdPeripheralDriver/src/stm32f10x_tim.c ****   TIMx->SMCR |= TIM_SlaveMode;
 11476              		.loc 1 2233 0 discriminator 4
 11477 009c 7B68     		ldr	r3, [r7, #4]
 11478 009e 1B89     		ldrh	r3, [r3, #8]	@ movhi
 11479 00a0 9AB2     		uxth	r2, r3
 11480 00a2 7B88     		ldrh	r3, [r7, #2]	@ movhi
 11481 00a4 1343     		orrs	r3, r3, r2
 11482 00a6 9AB2     		uxth	r2, r3
 11483 00a8 7B68     		ldr	r3, [r7, #4]
 11484 00aa 1A81     		strh	r2, [r3, #8]	@ movhi
2234:../libs/StdPeripheralDriver/src/stm32f10x_tim.c **** }
 11485              		.loc 1 2234 0 discriminator 4
 11486 00ac 07F10807 		add	r7, r7, #8
 11487 00b0 BD46     		mov	sp, r7
 11488 00b2 80BD     		pop	{r7, pc}
 11489              	.L749:
 11490              		.align	2
 11491              	.L748:
 11492 00b4 002C0140 		.word	1073818624
 11493 00b8 00040040 		.word	1073742848
 11494 00bc 00080040 		.word	1073743872
 11495 00c0 000C0040 		.word	1073744896
 11496 00c4 00340140 		.word	1073820672
 11497 00c8 004C0140 		.word	1073826816
 11498 00cc 00180040 		.word	1073747968
 11499 00d0 00400140 		.word	1073823744
 11500              		.cfi_endproc
 11501              	.LFE93:
 11503              		.section	.text.TIM_SelectMasterSlaveMode,"ax",%progbits
 11504              		.align	2
 11505              		.global	TIM_SelectMasterSlaveMode
 11506              		.thumb
 11507              		.thumb_func
 11509              	TIM_SelectMasterSlaveMode:
 11510              	.LFB94:
2235:../libs/StdPeripheralDriver/src/stm32f10x_tim.c **** 
2236:../libs/StdPeripheralDriver/src/stm32f10x_tim.c **** /**
2237:../libs/StdPeripheralDriver/src/stm32f10x_tim.c ****   * @brief  Sets or Resets the TIMx Master/Slave Mode.
2238:../libs/StdPeripheralDriver/src/stm32f10x_tim.c ****   * @param  TIMx: where x can be 1, 2, 3, 4, 5, 8, 9, 12 or 15 to select the TIM peripheral.
2239:../libs/StdPeripheralDriver/src/stm32f10x_tim.c ****   * @param  TIM_MasterSlaveMode: specifies the Timer Master Slave Mode.
2240:../libs/StdPeripheralDriver/src/stm32f10x_tim.c ****   *   This parameter can be one of the following values:
2241:../libs/StdPeripheralDriver/src/stm32f10x_tim.c ****   *     @arg TIM_MasterSlaveMode_Enable: synchronization between the current timer
2242:../libs/StdPeripheralDriver/src/stm32f10x_tim.c ****   *                                      and its slaves (through TRGO).
2243:../libs/StdPeripheralDriver/src/stm32f10x_tim.c ****   *     @arg TIM_MasterSlaveMode_Disable: No action
2244:../libs/StdPeripheralDriver/src/stm32f10x_tim.c ****   * @retval None
2245:../libs/StdPeripheralDriver/src/stm32f10x_tim.c ****   */
2246:../libs/StdPeripheralDriver/src/stm32f10x_tim.c **** void TIM_SelectMasterSlaveMode(TIM_TypeDef* TIMx, uint16_t TIM_MasterSlaveMode)
2247:../libs/StdPeripheralDriver/src/stm32f10x_tim.c **** {
 11511              		.loc 1 2247 0
 11512              		.cfi_startproc
 11513              		@ args = 0, pretend = 0, frame = 8
 11514              		@ frame_needed = 1, uses_anonymous_args = 0
 11515 0000 80B5     		push	{r7, lr}
 11516              	.LCFI195:
 11517              		.cfi_def_cfa_offset 8
 11518              		.cfi_offset 7, -8
 11519              		.cfi_offset 14, -4
 11520 0002 82B0     		sub	sp, sp, #8
 11521              	.LCFI196:
 11522              		.cfi_def_cfa_offset 16
 11523 0004 00AF     		add	r7, sp, #0
 11524              	.LCFI197:
 11525              		.cfi_def_cfa_register 7
 11526 0006 7860     		str	r0, [r7, #4]
 11527 0008 0B46     		mov	r3, r1
 11528 000a 7B80     		strh	r3, [r7, #2]	@ movhi
2248:../libs/StdPeripheralDriver/src/stm32f10x_tim.c ****   /* Check the parameters */
2249:../libs/StdPeripheralDriver/src/stm32f10x_tim.c ****   assert_param(IS_TIM_LIST6_PERIPH(TIMx));
 11529              		.loc 1 2249 0
 11530 000c 7A68     		ldr	r2, [r7, #4]
 11531 000e 264B     		ldr	r3, .L757
 11532 0010 9A42     		cmp	r2, r3
 11533 0012 1FD0     		beq	.L751
 11534              		.loc 1 2249 0 is_stmt 0 discriminator 2
 11535 0014 7B68     		ldr	r3, [r7, #4]
 11536 0016 B3F1804F 		cmp	r3, #1073741824
 11537 001a 1BD0     		beq	.L751
 11538              		.loc 1 2249 0 discriminator 1
 11539 001c 7A68     		ldr	r2, [r7, #4]
 11540 001e 234B     		ldr	r3, .L757+4
 11541 0020 9A42     		cmp	r2, r3
 11542 0022 17D0     		beq	.L751
 11543              		.loc 1 2249 0 discriminator 2
 11544 0024 7A68     		ldr	r2, [r7, #4]
 11545 0026 224B     		ldr	r3, .L757+8
 11546 0028 9A42     		cmp	r2, r3
 11547 002a 13D0     		beq	.L751
 11548              		.loc 1 2249 0 discriminator 3
 11549 002c 7A68     		ldr	r2, [r7, #4]
 11550 002e 214B     		ldr	r3, .L757+12
 11551 0030 9A42     		cmp	r2, r3
 11552 0032 0FD0     		beq	.L751
 11553              		.loc 1 2249 0 discriminator 4
 11554 0034 7A68     		ldr	r2, [r7, #4]
 11555 0036 204B     		ldr	r3, .L757+16
 11556 0038 9A42     		cmp	r2, r3
 11557 003a 0BD0     		beq	.L751
 11558              		.loc 1 2249 0 discriminator 5
 11559 003c 7A68     		ldr	r2, [r7, #4]
 11560 003e 1F4B     		ldr	r3, .L757+20
 11561 0040 9A42     		cmp	r2, r3
 11562 0042 07D0     		beq	.L751
 11563              		.loc 1 2249 0 discriminator 6
 11564 0044 7A68     		ldr	r2, [r7, #4]
 11565 0046 1E4B     		ldr	r3, .L757+24
 11566 0048 9A42     		cmp	r2, r3
 11567 004a 03D0     		beq	.L751
 11568              		.loc 1 2249 0 discriminator 7
 11569 004c 7A68     		ldr	r2, [r7, #4]
 11570 004e 1D4B     		ldr	r3, .L757+28
 11571 0050 9A42     		cmp	r2, r3
 11572 0052 02D1     		bne	.L752
 11573              	.L751:
 11574              		.loc 1 2249 0 discriminator 1
 11575 0054 4FF00103 		mov	r3, #1
 11576 0058 01E0     		b	.L753
 11577              	.L752:
 11578              		.loc 1 2249 0 discriminator 3
 11579 005a 4FF00003 		mov	r3, #0
 11580              	.L753:
 11581              		.loc 1 2249 0 discriminator 4
 11582 005e 1846     		mov	r0, r3
 11583 0060 FFF7FEFF 		bl	assert_param
2250:../libs/StdPeripheralDriver/src/stm32f10x_tim.c ****   assert_param(IS_TIM_MSM_STATE(TIM_MasterSlaveMode));
 11584              		.loc 1 2250 0 is_stmt 1 discriminator 4
 11585 0064 7B88     		ldrh	r3, [r7, #2]
 11586 0066 802B     		cmp	r3, #128
 11587 0068 02D0     		beq	.L754
 11588              		.loc 1 2250 0 is_stmt 0 discriminator 2
 11589 006a 7B88     		ldrh	r3, [r7, #2]
 11590 006c 002B     		cmp	r3, #0
 11591 006e 02D1     		bne	.L755
 11592              	.L754:
 11593              		.loc 1 2250 0 discriminator 1
 11594 0070 4FF00103 		mov	r3, #1
 11595 0074 01E0     		b	.L756
 11596              	.L755:
 11597              		.loc 1 2250 0 discriminator 3
 11598 0076 4FF00003 		mov	r3, #0
 11599              	.L756:
 11600              		.loc 1 2250 0 discriminator 4
 11601 007a 1846     		mov	r0, r3
 11602 007c FFF7FEFF 		bl	assert_param
2251:../libs/StdPeripheralDriver/src/stm32f10x_tim.c ****   /* Reset the MSM Bit */
2252:../libs/StdPeripheralDriver/src/stm32f10x_tim.c ****   TIMx->SMCR &= (uint16_t)~((uint16_t)TIM_SMCR_MSM);
 11603              		.loc 1 2252 0 is_stmt 1 discriminator 4
 11604 0080 7B68     		ldr	r3, [r7, #4]
 11605 0082 1B89     		ldrh	r3, [r3, #8]	@ movhi
 11606 0084 9BB2     		uxth	r3, r3
 11607 0086 23F08003 		bic	r3, r3, #128
 11608 008a 9AB2     		uxth	r2, r3
 11609 008c 7B68     		ldr	r3, [r7, #4]
 11610 008e 1A81     		strh	r2, [r3, #8]	@ movhi
2253:../libs/StdPeripheralDriver/src/stm32f10x_tim.c ****   
2254:../libs/StdPeripheralDriver/src/stm32f10x_tim.c ****   /* Set or Reset the MSM Bit */
2255:../libs/StdPeripheralDriver/src/stm32f10x_tim.c ****   TIMx->SMCR |= TIM_MasterSlaveMode;
 11611              		.loc 1 2255 0 discriminator 4
 11612 0090 7B68     		ldr	r3, [r7, #4]
 11613 0092 1B89     		ldrh	r3, [r3, #8]	@ movhi
 11614 0094 9AB2     		uxth	r2, r3
 11615 0096 7B88     		ldrh	r3, [r7, #2]	@ movhi
 11616 0098 1343     		orrs	r3, r3, r2
 11617 009a 9AB2     		uxth	r2, r3
 11618 009c 7B68     		ldr	r3, [r7, #4]
 11619 009e 1A81     		strh	r2, [r3, #8]	@ movhi
2256:../libs/StdPeripheralDriver/src/stm32f10x_tim.c **** }
 11620              		.loc 1 2256 0 discriminator 4
 11621 00a0 07F10807 		add	r7, r7, #8
 11622 00a4 BD46     		mov	sp, r7
 11623 00a6 80BD     		pop	{r7, pc}
 11624              	.L758:
 11625              		.align	2
 11626              	.L757:
 11627 00a8 002C0140 		.word	1073818624
 11628 00ac 00040040 		.word	1073742848
 11629 00b0 00080040 		.word	1073743872
 11630 00b4 000C0040 		.word	1073744896
 11631 00b8 00340140 		.word	1073820672
 11632 00bc 004C0140 		.word	1073826816
 11633 00c0 00180040 		.word	1073747968
 11634 00c4 00400140 		.word	1073823744
 11635              		.cfi_endproc
 11636              	.LFE94:
 11638              		.section	.text.TIM_SetCounter,"ax",%progbits
 11639              		.align	2
 11640              		.global	TIM_SetCounter
 11641              		.thumb
 11642              		.thumb_func
 11644              	TIM_SetCounter:
 11645              	.LFB95:
2257:../libs/StdPeripheralDriver/src/stm32f10x_tim.c **** 
2258:../libs/StdPeripheralDriver/src/stm32f10x_tim.c **** /**
2259:../libs/StdPeripheralDriver/src/stm32f10x_tim.c ****   * @brief  Sets the TIMx Counter Register value
2260:../libs/StdPeripheralDriver/src/stm32f10x_tim.c ****   * @param  TIMx: where x can be 1 to 17 to select the TIM peripheral.
2261:../libs/StdPeripheralDriver/src/stm32f10x_tim.c ****   * @param  Counter: specifies the Counter register new value.
2262:../libs/StdPeripheralDriver/src/stm32f10x_tim.c ****   * @retval None
2263:../libs/StdPeripheralDriver/src/stm32f10x_tim.c ****   */
2264:../libs/StdPeripheralDriver/src/stm32f10x_tim.c **** void TIM_SetCounter(TIM_TypeDef* TIMx, uint16_t Counter)
2265:../libs/StdPeripheralDriver/src/stm32f10x_tim.c **** {
 11646              		.loc 1 2265 0
 11647              		.cfi_startproc
 11648              		@ args = 0, pretend = 0, frame = 8
 11649              		@ frame_needed = 1, uses_anonymous_args = 0
 11650 0000 80B5     		push	{r7, lr}
 11651              	.LCFI198:
 11652              		.cfi_def_cfa_offset 8
 11653              		.cfi_offset 7, -8
 11654              		.cfi_offset 14, -4
 11655 0002 82B0     		sub	sp, sp, #8
 11656              	.LCFI199:
 11657              		.cfi_def_cfa_offset 16
 11658 0004 00AF     		add	r7, sp, #0
 11659              	.LCFI200:
 11660              		.cfi_def_cfa_register 7
 11661 0006 7860     		str	r0, [r7, #4]
 11662 0008 0B46     		mov	r3, r1
 11663 000a 7B80     		strh	r3, [r7, #2]	@ movhi
2266:../libs/StdPeripheralDriver/src/stm32f10x_tim.c ****   /* Check the parameters */
2267:../libs/StdPeripheralDriver/src/stm32f10x_tim.c ****   assert_param(IS_TIM_ALL_PERIPH(TIMx));
 11664              		.loc 1 2267 0
 11665 000c 7A68     		ldr	r2, [r7, #4]
 11666 000e 294B     		ldr	r3, .L763
 11667 0010 9A42     		cmp	r2, r3
 11668 0012 3FD0     		beq	.L760
 11669              		.loc 1 2267 0 is_stmt 0 discriminator 2
 11670 0014 7B68     		ldr	r3, [r7, #4]
 11671 0016 B3F1804F 		cmp	r3, #1073741824
 11672 001a 3BD0     		beq	.L760
 11673              		.loc 1 2267 0 discriminator 1
 11674 001c 7A68     		ldr	r2, [r7, #4]
 11675 001e 264B     		ldr	r3, .L763+4
 11676 0020 9A42     		cmp	r2, r3
 11677 0022 37D0     		beq	.L760
 11678              		.loc 1 2267 0 discriminator 2
 11679 0024 7A68     		ldr	r2, [r7, #4]
 11680 0026 254B     		ldr	r3, .L763+8
 11681 0028 9A42     		cmp	r2, r3
 11682 002a 33D0     		beq	.L760
 11683              		.loc 1 2267 0 discriminator 3
 11684 002c 7A68     		ldr	r2, [r7, #4]
 11685 002e 244B     		ldr	r3, .L763+12
 11686 0030 9A42     		cmp	r2, r3
 11687 0032 2FD0     		beq	.L760
 11688              		.loc 1 2267 0 discriminator 4
 11689 0034 7A68     		ldr	r2, [r7, #4]
 11690 0036 234B     		ldr	r3, .L763+16
 11691 0038 9A42     		cmp	r2, r3
 11692 003a 2BD0     		beq	.L760
 11693              		.loc 1 2267 0 discriminator 5
 11694 003c 7A68     		ldr	r2, [r7, #4]
 11695 003e 224B     		ldr	r3, .L763+20
 11696 0040 9A42     		cmp	r2, r3
 11697 0042 27D0     		beq	.L760
 11698              		.loc 1 2267 0 discriminator 6
 11699 0044 7A68     		ldr	r2, [r7, #4]
 11700 0046 214B     		ldr	r3, .L763+24
 11701 0048 9A42     		cmp	r2, r3
 11702 004a 23D0     		beq	.L760
 11703              		.loc 1 2267 0 discriminator 7
 11704 004c 7A68     		ldr	r2, [r7, #4]
 11705 004e 204B     		ldr	r3, .L763+28
 11706 0050 9A42     		cmp	r2, r3
 11707 0052 1FD0     		beq	.L760
 11708              		.loc 1 2267 0 discriminator 8
 11709 0054 7A68     		ldr	r2, [r7, #4]
 11710 0056 1F4B     		ldr	r3, .L763+32
 11711 0058 9A42     		cmp	r2, r3
 11712 005a 1BD0     		beq	.L760
 11713              		.loc 1 2267 0 discriminator 9
 11714 005c 7A68     		ldr	r2, [r7, #4]
 11715 005e 1E4B     		ldr	r3, .L763+36
 11716 0060 9A42     		cmp	r2, r3
 11717 0062 17D0     		beq	.L760
 11718              		.loc 1 2267 0 discriminator 10
 11719 0064 7A68     		ldr	r2, [r7, #4]
 11720 0066 1D4B     		ldr	r3, .L763+40
 11721 0068 9A42     		cmp	r2, r3
 11722 006a 13D0     		beq	.L760
 11723              		.loc 1 2267 0 discriminator 11
 11724 006c 7A68     		ldr	r2, [r7, #4]
 11725 006e 1C4B     		ldr	r3, .L763+44
 11726 0070 9A42     		cmp	r2, r3
 11727 0072 0FD0     		beq	.L760
 11728              		.loc 1 2267 0 discriminator 12
 11729 0074 7A68     		ldr	r2, [r7, #4]
 11730 0076 1B4B     		ldr	r3, .L763+48
 11731 0078 9A42     		cmp	r2, r3
 11732 007a 0BD0     		beq	.L760
 11733              		.loc 1 2267 0 discriminator 13
 11734 007c 7A68     		ldr	r2, [r7, #4]
 11735 007e 1A4B     		ldr	r3, .L763+52
 11736 0080 9A42     		cmp	r2, r3
 11737 0082 07D0     		beq	.L760
 11738              		.loc 1 2267 0 discriminator 14
 11739 0084 7A68     		ldr	r2, [r7, #4]
 11740 0086 194B     		ldr	r3, .L763+56
 11741 0088 9A42     		cmp	r2, r3
 11742 008a 03D0     		beq	.L760
 11743              		.loc 1 2267 0 discriminator 15
 11744 008c 7A68     		ldr	r2, [r7, #4]
 11745 008e 184B     		ldr	r3, .L763+60
 11746 0090 9A42     		cmp	r2, r3
 11747 0092 02D1     		bne	.L761
 11748              	.L760:
 11749              		.loc 1 2267 0 discriminator 1
 11750 0094 4FF00103 		mov	r3, #1
 11751 0098 01E0     		b	.L762
 11752              	.L761:
 11753              		.loc 1 2267 0 discriminator 3
 11754 009a 4FF00003 		mov	r3, #0
 11755              	.L762:
 11756              		.loc 1 2267 0 discriminator 4
 11757 009e 1846     		mov	r0, r3
 11758 00a0 FFF7FEFF 		bl	assert_param
2268:../libs/StdPeripheralDriver/src/stm32f10x_tim.c ****   /* Set the Counter Register value */
2269:../libs/StdPeripheralDriver/src/stm32f10x_tim.c ****   TIMx->CNT = Counter;
 11759              		.loc 1 2269 0 is_stmt 1 discriminator 4
 11760 00a4 7B68     		ldr	r3, [r7, #4]
 11761 00a6 7A88     		ldrh	r2, [r7, #2]	@ movhi
 11762 00a8 9A84     		strh	r2, [r3, #36]	@ movhi
2270:../libs/StdPeripheralDriver/src/stm32f10x_tim.c **** }
 11763              		.loc 1 2270 0 discriminator 4
 11764 00aa 07F10807 		add	r7, r7, #8
 11765 00ae BD46     		mov	sp, r7
 11766 00b0 80BD     		pop	{r7, pc}
 11767              	.L764:
 11768 00b2 00BF     		.align	2
 11769              	.L763:
 11770 00b4 002C0140 		.word	1073818624
 11771 00b8 00040040 		.word	1073742848
 11772 00bc 00080040 		.word	1073743872
 11773 00c0 000C0040 		.word	1073744896
 11774 00c4 00100040 		.word	1073745920
 11775 00c8 00140040 		.word	1073746944
 11776 00cc 00340140 		.word	1073820672
 11777 00d0 004C0140 		.word	1073826816
 11778 00d4 00500140 		.word	1073827840
 11779 00d8 00540140 		.word	1073828864
 11780 00dc 00180040 		.word	1073747968
 11781 00e0 001C0040 		.word	1073748992
 11782 00e4 00200040 		.word	1073750016
 11783 00e8 00400140 		.word	1073823744
 11784 00ec 00440140 		.word	1073824768
 11785 00f0 00480140 		.word	1073825792
 11786              		.cfi_endproc
 11787              	.LFE95:
 11789              		.section	.text.TIM_SetAutoreload,"ax",%progbits
 11790              		.align	2
 11791              		.global	TIM_SetAutoreload
 11792              		.thumb
 11793              		.thumb_func
 11795              	TIM_SetAutoreload:
 11796              	.LFB96:
2271:../libs/StdPeripheralDriver/src/stm32f10x_tim.c **** 
2272:../libs/StdPeripheralDriver/src/stm32f10x_tim.c **** /**
2273:../libs/StdPeripheralDriver/src/stm32f10x_tim.c ****   * @brief  Sets the TIMx Autoreload Register value
2274:../libs/StdPeripheralDriver/src/stm32f10x_tim.c ****   * @param  TIMx: where x can be 1 to 17 to select the TIM peripheral.
2275:../libs/StdPeripheralDriver/src/stm32f10x_tim.c ****   * @param  Autoreload: specifies the Autoreload register new value.
2276:../libs/StdPeripheralDriver/src/stm32f10x_tim.c ****   * @retval None
2277:../libs/StdPeripheralDriver/src/stm32f10x_tim.c ****   */
2278:../libs/StdPeripheralDriver/src/stm32f10x_tim.c **** void TIM_SetAutoreload(TIM_TypeDef* TIMx, uint16_t Autoreload)
2279:../libs/StdPeripheralDriver/src/stm32f10x_tim.c **** {
 11797              		.loc 1 2279 0
 11798              		.cfi_startproc
 11799              		@ args = 0, pretend = 0, frame = 8
 11800              		@ frame_needed = 1, uses_anonymous_args = 0
 11801 0000 80B5     		push	{r7, lr}
 11802              	.LCFI201:
 11803              		.cfi_def_cfa_offset 8
 11804              		.cfi_offset 7, -8
 11805              		.cfi_offset 14, -4
 11806 0002 82B0     		sub	sp, sp, #8
 11807              	.LCFI202:
 11808              		.cfi_def_cfa_offset 16
 11809 0004 00AF     		add	r7, sp, #0
 11810              	.LCFI203:
 11811              		.cfi_def_cfa_register 7
 11812 0006 7860     		str	r0, [r7, #4]
 11813 0008 0B46     		mov	r3, r1
 11814 000a 7B80     		strh	r3, [r7, #2]	@ movhi
2280:../libs/StdPeripheralDriver/src/stm32f10x_tim.c ****   /* Check the parameters */
2281:../libs/StdPeripheralDriver/src/stm32f10x_tim.c ****   assert_param(IS_TIM_ALL_PERIPH(TIMx));
 11815              		.loc 1 2281 0
 11816 000c 7A68     		ldr	r2, [r7, #4]
 11817 000e 294B     		ldr	r3, .L769
 11818 0010 9A42     		cmp	r2, r3
 11819 0012 3FD0     		beq	.L766
 11820              		.loc 1 2281 0 is_stmt 0 discriminator 2
 11821 0014 7B68     		ldr	r3, [r7, #4]
 11822 0016 B3F1804F 		cmp	r3, #1073741824
 11823 001a 3BD0     		beq	.L766
 11824              		.loc 1 2281 0 discriminator 1
 11825 001c 7A68     		ldr	r2, [r7, #4]
 11826 001e 264B     		ldr	r3, .L769+4
 11827 0020 9A42     		cmp	r2, r3
 11828 0022 37D0     		beq	.L766
 11829              		.loc 1 2281 0 discriminator 2
 11830 0024 7A68     		ldr	r2, [r7, #4]
 11831 0026 254B     		ldr	r3, .L769+8
 11832 0028 9A42     		cmp	r2, r3
 11833 002a 33D0     		beq	.L766
 11834              		.loc 1 2281 0 discriminator 3
 11835 002c 7A68     		ldr	r2, [r7, #4]
 11836 002e 244B     		ldr	r3, .L769+12
 11837 0030 9A42     		cmp	r2, r3
 11838 0032 2FD0     		beq	.L766
 11839              		.loc 1 2281 0 discriminator 4
 11840 0034 7A68     		ldr	r2, [r7, #4]
 11841 0036 234B     		ldr	r3, .L769+16
 11842 0038 9A42     		cmp	r2, r3
 11843 003a 2BD0     		beq	.L766
 11844              		.loc 1 2281 0 discriminator 5
 11845 003c 7A68     		ldr	r2, [r7, #4]
 11846 003e 224B     		ldr	r3, .L769+20
 11847 0040 9A42     		cmp	r2, r3
 11848 0042 27D0     		beq	.L766
 11849              		.loc 1 2281 0 discriminator 6
 11850 0044 7A68     		ldr	r2, [r7, #4]
 11851 0046 214B     		ldr	r3, .L769+24
 11852 0048 9A42     		cmp	r2, r3
 11853 004a 23D0     		beq	.L766
 11854              		.loc 1 2281 0 discriminator 7
 11855 004c 7A68     		ldr	r2, [r7, #4]
 11856 004e 204B     		ldr	r3, .L769+28
 11857 0050 9A42     		cmp	r2, r3
 11858 0052 1FD0     		beq	.L766
 11859              		.loc 1 2281 0 discriminator 8
 11860 0054 7A68     		ldr	r2, [r7, #4]
 11861 0056 1F4B     		ldr	r3, .L769+32
 11862 0058 9A42     		cmp	r2, r3
 11863 005a 1BD0     		beq	.L766
 11864              		.loc 1 2281 0 discriminator 9
 11865 005c 7A68     		ldr	r2, [r7, #4]
 11866 005e 1E4B     		ldr	r3, .L769+36
 11867 0060 9A42     		cmp	r2, r3
 11868 0062 17D0     		beq	.L766
 11869              		.loc 1 2281 0 discriminator 10
 11870 0064 7A68     		ldr	r2, [r7, #4]
 11871 0066 1D4B     		ldr	r3, .L769+40
 11872 0068 9A42     		cmp	r2, r3
 11873 006a 13D0     		beq	.L766
 11874              		.loc 1 2281 0 discriminator 11
 11875 006c 7A68     		ldr	r2, [r7, #4]
 11876 006e 1C4B     		ldr	r3, .L769+44
 11877 0070 9A42     		cmp	r2, r3
 11878 0072 0FD0     		beq	.L766
 11879              		.loc 1 2281 0 discriminator 12
 11880 0074 7A68     		ldr	r2, [r7, #4]
 11881 0076 1B4B     		ldr	r3, .L769+48
 11882 0078 9A42     		cmp	r2, r3
 11883 007a 0BD0     		beq	.L766
 11884              		.loc 1 2281 0 discriminator 13
 11885 007c 7A68     		ldr	r2, [r7, #4]
 11886 007e 1A4B     		ldr	r3, .L769+52
 11887 0080 9A42     		cmp	r2, r3
 11888 0082 07D0     		beq	.L766
 11889              		.loc 1 2281 0 discriminator 14
 11890 0084 7A68     		ldr	r2, [r7, #4]
 11891 0086 194B     		ldr	r3, .L769+56
 11892 0088 9A42     		cmp	r2, r3
 11893 008a 03D0     		beq	.L766
 11894              		.loc 1 2281 0 discriminator 15
 11895 008c 7A68     		ldr	r2, [r7, #4]
 11896 008e 184B     		ldr	r3, .L769+60
 11897 0090 9A42     		cmp	r2, r3
 11898 0092 02D1     		bne	.L767
 11899              	.L766:
 11900              		.loc 1 2281 0 discriminator 1
 11901 0094 4FF00103 		mov	r3, #1
 11902 0098 01E0     		b	.L768
 11903              	.L767:
 11904              		.loc 1 2281 0 discriminator 3
 11905 009a 4FF00003 		mov	r3, #0
 11906              	.L768:
 11907              		.loc 1 2281 0 discriminator 4
 11908 009e 1846     		mov	r0, r3
 11909 00a0 FFF7FEFF 		bl	assert_param
2282:../libs/StdPeripheralDriver/src/stm32f10x_tim.c ****   /* Set the Autoreload Register value */
2283:../libs/StdPeripheralDriver/src/stm32f10x_tim.c ****   TIMx->ARR = Autoreload;
 11910              		.loc 1 2283 0 is_stmt 1 discriminator 4
 11911 00a4 7B68     		ldr	r3, [r7, #4]
 11912 00a6 7A88     		ldrh	r2, [r7, #2]	@ movhi
 11913 00a8 9A85     		strh	r2, [r3, #44]	@ movhi
2284:../libs/StdPeripheralDriver/src/stm32f10x_tim.c **** }
 11914              		.loc 1 2284 0 discriminator 4
 11915 00aa 07F10807 		add	r7, r7, #8
 11916 00ae BD46     		mov	sp, r7
 11917 00b0 80BD     		pop	{r7, pc}
 11918              	.L770:
 11919 00b2 00BF     		.align	2
 11920              	.L769:
 11921 00b4 002C0140 		.word	1073818624
 11922 00b8 00040040 		.word	1073742848
 11923 00bc 00080040 		.word	1073743872
 11924 00c0 000C0040 		.word	1073744896
 11925 00c4 00100040 		.word	1073745920
 11926 00c8 00140040 		.word	1073746944
 11927 00cc 00340140 		.word	1073820672
 11928 00d0 004C0140 		.word	1073826816
 11929 00d4 00500140 		.word	1073827840
 11930 00d8 00540140 		.word	1073828864
 11931 00dc 00180040 		.word	1073747968
 11932 00e0 001C0040 		.word	1073748992
 11933 00e4 00200040 		.word	1073750016
 11934 00e8 00400140 		.word	1073823744
 11935 00ec 00440140 		.word	1073824768
 11936 00f0 00480140 		.word	1073825792
 11937              		.cfi_endproc
 11938              	.LFE96:
 11940              		.section	.text.TIM_SetCompare1,"ax",%progbits
 11941              		.align	2
 11942              		.global	TIM_SetCompare1
 11943              		.thumb
 11944              		.thumb_func
 11946              	TIM_SetCompare1:
 11947              	.LFB97:
2285:../libs/StdPeripheralDriver/src/stm32f10x_tim.c **** 
2286:../libs/StdPeripheralDriver/src/stm32f10x_tim.c **** /**
2287:../libs/StdPeripheralDriver/src/stm32f10x_tim.c ****   * @brief  Sets the TIMx Capture Compare1 Register value
2288:../libs/StdPeripheralDriver/src/stm32f10x_tim.c ****   * @param  TIMx: where x can be 1 to 17 except 6 and 7 to select the TIM peripheral.
2289:../libs/StdPeripheralDriver/src/stm32f10x_tim.c ****   * @param  Compare1: specifies the Capture Compare1 register new value.
2290:../libs/StdPeripheralDriver/src/stm32f10x_tim.c ****   * @retval None
2291:../libs/StdPeripheralDriver/src/stm32f10x_tim.c ****   */
2292:../libs/StdPeripheralDriver/src/stm32f10x_tim.c **** void TIM_SetCompare1(TIM_TypeDef* TIMx, uint16_t Compare1)
2293:../libs/StdPeripheralDriver/src/stm32f10x_tim.c **** {
 11948              		.loc 1 2293 0
 11949              		.cfi_startproc
 11950              		@ args = 0, pretend = 0, frame = 8
 11951              		@ frame_needed = 1, uses_anonymous_args = 0
 11952 0000 80B5     		push	{r7, lr}
 11953              	.LCFI204:
 11954              		.cfi_def_cfa_offset 8
 11955              		.cfi_offset 7, -8
 11956              		.cfi_offset 14, -4
 11957 0002 82B0     		sub	sp, sp, #8
 11958              	.LCFI205:
 11959              		.cfi_def_cfa_offset 16
 11960 0004 00AF     		add	r7, sp, #0
 11961              	.LCFI206:
 11962              		.cfi_def_cfa_register 7
 11963 0006 7860     		str	r0, [r7, #4]
 11964 0008 0B46     		mov	r3, r1
 11965 000a 7B80     		strh	r3, [r7, #2]	@ movhi
2294:../libs/StdPeripheralDriver/src/stm32f10x_tim.c ****   /* Check the parameters */
2295:../libs/StdPeripheralDriver/src/stm32f10x_tim.c ****   assert_param(IS_TIM_LIST8_PERIPH(TIMx));
 11966              		.loc 1 2295 0
 11967 000c 7A68     		ldr	r2, [r7, #4]
 11968 000e 254B     		ldr	r3, .L775
 11969 0010 9A42     		cmp	r2, r3
 11970 0012 37D0     		beq	.L772
 11971              		.loc 1 2295 0 is_stmt 0 discriminator 2
 11972 0014 7B68     		ldr	r3, [r7, #4]
 11973 0016 B3F1804F 		cmp	r3, #1073741824
 11974 001a 33D0     		beq	.L772
 11975              		.loc 1 2295 0 discriminator 1
 11976 001c 7A68     		ldr	r2, [r7, #4]
 11977 001e 224B     		ldr	r3, .L775+4
 11978 0020 9A42     		cmp	r2, r3
 11979 0022 2FD0     		beq	.L772
 11980              		.loc 1 2295 0 discriminator 2
 11981 0024 7A68     		ldr	r2, [r7, #4]
 11982 0026 214B     		ldr	r3, .L775+8
 11983 0028 9A42     		cmp	r2, r3
 11984 002a 2BD0     		beq	.L772
 11985              		.loc 1 2295 0 discriminator 3
 11986 002c 7A68     		ldr	r2, [r7, #4]
 11987 002e 204B     		ldr	r3, .L775+12
 11988 0030 9A42     		cmp	r2, r3
 11989 0032 27D0     		beq	.L772
 11990              		.loc 1 2295 0 discriminator 4
 11991 0034 7A68     		ldr	r2, [r7, #4]
 11992 0036 1F4B     		ldr	r3, .L775+16
 11993 0038 9A42     		cmp	r2, r3
 11994 003a 23D0     		beq	.L772
 11995              		.loc 1 2295 0 discriminator 5
 11996 003c 7A68     		ldr	r2, [r7, #4]
 11997 003e 1E4B     		ldr	r3, .L775+20
 11998 0040 9A42     		cmp	r2, r3
 11999 0042 1FD0     		beq	.L772
 12000              		.loc 1 2295 0 discriminator 6
 12001 0044 7A68     		ldr	r2, [r7, #4]
 12002 0046 1D4B     		ldr	r3, .L775+24
 12003 0048 9A42     		cmp	r2, r3
 12004 004a 1BD0     		beq	.L772
 12005              		.loc 1 2295 0 discriminator 7
 12006 004c 7A68     		ldr	r2, [r7, #4]
 12007 004e 1C4B     		ldr	r3, .L775+28
 12008 0050 9A42     		cmp	r2, r3
 12009 0052 17D0     		beq	.L772
 12010              		.loc 1 2295 0 discriminator 8
 12011 0054 7A68     		ldr	r2, [r7, #4]
 12012 0056 1B4B     		ldr	r3, .L775+32
 12013 0058 9A42     		cmp	r2, r3
 12014 005a 13D0     		beq	.L772
 12015              		.loc 1 2295 0 discriminator 9
 12016 005c 7A68     		ldr	r2, [r7, #4]
 12017 005e 1A4B     		ldr	r3, .L775+36
 12018 0060 9A42     		cmp	r2, r3
 12019 0062 0FD0     		beq	.L772
 12020              		.loc 1 2295 0 discriminator 10
 12021 0064 7A68     		ldr	r2, [r7, #4]
 12022 0066 194B     		ldr	r3, .L775+40
 12023 0068 9A42     		cmp	r2, r3
 12024 006a 0BD0     		beq	.L772
 12025              		.loc 1 2295 0 discriminator 11
 12026 006c 7A68     		ldr	r2, [r7, #4]
 12027 006e 184B     		ldr	r3, .L775+44
 12028 0070 9A42     		cmp	r2, r3
 12029 0072 07D0     		beq	.L772
 12030              		.loc 1 2295 0 discriminator 12
 12031 0074 7A68     		ldr	r2, [r7, #4]
 12032 0076 174B     		ldr	r3, .L775+48
 12033 0078 9A42     		cmp	r2, r3
 12034 007a 03D0     		beq	.L772
 12035              		.loc 1 2295 0 discriminator 13
 12036 007c 7A68     		ldr	r2, [r7, #4]
 12037 007e 164B     		ldr	r3, .L775+52
 12038 0080 9A42     		cmp	r2, r3
 12039 0082 02D1     		bne	.L773
 12040              	.L772:
 12041              		.loc 1 2295 0 discriminator 1
 12042 0084 4FF00103 		mov	r3, #1
 12043 0088 01E0     		b	.L774
 12044              	.L773:
 12045              		.loc 1 2295 0 discriminator 3
 12046 008a 4FF00003 		mov	r3, #0
 12047              	.L774:
 12048              		.loc 1 2295 0 discriminator 4
 12049 008e 1846     		mov	r0, r3
 12050 0090 FFF7FEFF 		bl	assert_param
2296:../libs/StdPeripheralDriver/src/stm32f10x_tim.c ****   /* Set the Capture Compare1 Register value */
2297:../libs/StdPeripheralDriver/src/stm32f10x_tim.c ****   TIMx->CCR1 = Compare1;
 12051              		.loc 1 2297 0 is_stmt 1 discriminator 4
 12052 0094 7B68     		ldr	r3, [r7, #4]
 12053 0096 7A88     		ldrh	r2, [r7, #2]	@ movhi
 12054 0098 9A86     		strh	r2, [r3, #52]	@ movhi
2298:../libs/StdPeripheralDriver/src/stm32f10x_tim.c **** }
 12055              		.loc 1 2298 0 discriminator 4
 12056 009a 07F10807 		add	r7, r7, #8
 12057 009e BD46     		mov	sp, r7
 12058 00a0 80BD     		pop	{r7, pc}
 12059              	.L776:
 12060 00a2 00BF     		.align	2
 12061              	.L775:
 12062 00a4 002C0140 		.word	1073818624
 12063 00a8 00040040 		.word	1073742848
 12064 00ac 00080040 		.word	1073743872
 12065 00b0 000C0040 		.word	1073744896
 12066 00b4 00340140 		.word	1073820672
 12067 00b8 004C0140 		.word	1073826816
 12068 00bc 00500140 		.word	1073827840
 12069 00c0 00540140 		.word	1073828864
 12070 00c4 00180040 		.word	1073747968
 12071 00c8 001C0040 		.word	1073748992
 12072 00cc 00200040 		.word	1073750016
 12073 00d0 00400140 		.word	1073823744
 12074 00d4 00440140 		.word	1073824768
 12075 00d8 00480140 		.word	1073825792
 12076              		.cfi_endproc
 12077              	.LFE97:
 12079              		.section	.text.TIM_SetCompare2,"ax",%progbits
 12080              		.align	2
 12081              		.global	TIM_SetCompare2
 12082              		.thumb
 12083              		.thumb_func
 12085              	TIM_SetCompare2:
 12086              	.LFB98:
2299:../libs/StdPeripheralDriver/src/stm32f10x_tim.c **** 
2300:../libs/StdPeripheralDriver/src/stm32f10x_tim.c **** /**
2301:../libs/StdPeripheralDriver/src/stm32f10x_tim.c ****   * @brief  Sets the TIMx Capture Compare2 Register value
2302:../libs/StdPeripheralDriver/src/stm32f10x_tim.c ****   * @param  TIMx: where x can be 1, 2, 3, 4, 5, 8, 9, 12 or 15 to select the TIM peripheral.
2303:../libs/StdPeripheralDriver/src/stm32f10x_tim.c ****   * @param  Compare2: specifies the Capture Compare2 register new value.
2304:../libs/StdPeripheralDriver/src/stm32f10x_tim.c ****   * @retval None
2305:../libs/StdPeripheralDriver/src/stm32f10x_tim.c ****   */
2306:../libs/StdPeripheralDriver/src/stm32f10x_tim.c **** void TIM_SetCompare2(TIM_TypeDef* TIMx, uint16_t Compare2)
2307:../libs/StdPeripheralDriver/src/stm32f10x_tim.c **** {
 12087              		.loc 1 2307 0
 12088              		.cfi_startproc
 12089              		@ args = 0, pretend = 0, frame = 8
 12090              		@ frame_needed = 1, uses_anonymous_args = 0
 12091 0000 80B5     		push	{r7, lr}
 12092              	.LCFI207:
 12093              		.cfi_def_cfa_offset 8
 12094              		.cfi_offset 7, -8
 12095              		.cfi_offset 14, -4
 12096 0002 82B0     		sub	sp, sp, #8
 12097              	.LCFI208:
 12098              		.cfi_def_cfa_offset 16
 12099 0004 00AF     		add	r7, sp, #0
 12100              	.LCFI209:
 12101              		.cfi_def_cfa_register 7
 12102 0006 7860     		str	r0, [r7, #4]
 12103 0008 0B46     		mov	r3, r1
 12104 000a 7B80     		strh	r3, [r7, #2]	@ movhi
2308:../libs/StdPeripheralDriver/src/stm32f10x_tim.c ****   /* Check the parameters */
2309:../libs/StdPeripheralDriver/src/stm32f10x_tim.c ****   assert_param(IS_TIM_LIST6_PERIPH(TIMx));
 12105              		.loc 1 2309 0
 12106 000c 7A68     		ldr	r2, [r7, #4]
 12107 000e 194B     		ldr	r3, .L781
 12108 0010 9A42     		cmp	r2, r3
 12109 0012 1FD0     		beq	.L778
 12110              		.loc 1 2309 0 is_stmt 0 discriminator 2
 12111 0014 7B68     		ldr	r3, [r7, #4]
 12112 0016 B3F1804F 		cmp	r3, #1073741824
 12113 001a 1BD0     		beq	.L778
 12114              		.loc 1 2309 0 discriminator 1
 12115 001c 7A68     		ldr	r2, [r7, #4]
 12116 001e 164B     		ldr	r3, .L781+4
 12117 0020 9A42     		cmp	r2, r3
 12118 0022 17D0     		beq	.L778
 12119              		.loc 1 2309 0 discriminator 2
 12120 0024 7A68     		ldr	r2, [r7, #4]
 12121 0026 154B     		ldr	r3, .L781+8
 12122 0028 9A42     		cmp	r2, r3
 12123 002a 13D0     		beq	.L778
 12124              		.loc 1 2309 0 discriminator 3
 12125 002c 7A68     		ldr	r2, [r7, #4]
 12126 002e 144B     		ldr	r3, .L781+12
 12127 0030 9A42     		cmp	r2, r3
 12128 0032 0FD0     		beq	.L778
 12129              		.loc 1 2309 0 discriminator 4
 12130 0034 7A68     		ldr	r2, [r7, #4]
 12131 0036 134B     		ldr	r3, .L781+16
 12132 0038 9A42     		cmp	r2, r3
 12133 003a 0BD0     		beq	.L778
 12134              		.loc 1 2309 0 discriminator 5
 12135 003c 7A68     		ldr	r2, [r7, #4]
 12136 003e 124B     		ldr	r3, .L781+20
 12137 0040 9A42     		cmp	r2, r3
 12138 0042 07D0     		beq	.L778
 12139              		.loc 1 2309 0 discriminator 6
 12140 0044 7A68     		ldr	r2, [r7, #4]
 12141 0046 114B     		ldr	r3, .L781+24
 12142 0048 9A42     		cmp	r2, r3
 12143 004a 03D0     		beq	.L778
 12144              		.loc 1 2309 0 discriminator 7
 12145 004c 7A68     		ldr	r2, [r7, #4]
 12146 004e 104B     		ldr	r3, .L781+28
 12147 0050 9A42     		cmp	r2, r3
 12148 0052 02D1     		bne	.L779
 12149              	.L778:
 12150              		.loc 1 2309 0 discriminator 1
 12151 0054 4FF00103 		mov	r3, #1
 12152 0058 01E0     		b	.L780
 12153              	.L779:
 12154              		.loc 1 2309 0 discriminator 3
 12155 005a 4FF00003 		mov	r3, #0
 12156              	.L780:
 12157              		.loc 1 2309 0 discriminator 4
 12158 005e 1846     		mov	r0, r3
 12159 0060 FFF7FEFF 		bl	assert_param
2310:../libs/StdPeripheralDriver/src/stm32f10x_tim.c ****   /* Set the Capture Compare2 Register value */
2311:../libs/StdPeripheralDriver/src/stm32f10x_tim.c ****   TIMx->CCR2 = Compare2;
 12160              		.loc 1 2311 0 is_stmt 1 discriminator 4
 12161 0064 7B68     		ldr	r3, [r7, #4]
 12162 0066 7A88     		ldrh	r2, [r7, #2]	@ movhi
 12163 0068 1A87     		strh	r2, [r3, #56]	@ movhi
2312:../libs/StdPeripheralDriver/src/stm32f10x_tim.c **** }
 12164              		.loc 1 2312 0 discriminator 4
 12165 006a 07F10807 		add	r7, r7, #8
 12166 006e BD46     		mov	sp, r7
 12167 0070 80BD     		pop	{r7, pc}
 12168              	.L782:
 12169 0072 00BF     		.align	2
 12170              	.L781:
 12171 0074 002C0140 		.word	1073818624
 12172 0078 00040040 		.word	1073742848
 12173 007c 00080040 		.word	1073743872
 12174 0080 000C0040 		.word	1073744896
 12175 0084 00340140 		.word	1073820672
 12176 0088 004C0140 		.word	1073826816
 12177 008c 00180040 		.word	1073747968
 12178 0090 00400140 		.word	1073823744
 12179              		.cfi_endproc
 12180              	.LFE98:
 12182              		.section	.text.TIM_SetCompare3,"ax",%progbits
 12183              		.align	2
 12184              		.global	TIM_SetCompare3
 12185              		.thumb
 12186              		.thumb_func
 12188              	TIM_SetCompare3:
 12189              	.LFB99:
2313:../libs/StdPeripheralDriver/src/stm32f10x_tim.c **** 
2314:../libs/StdPeripheralDriver/src/stm32f10x_tim.c **** /**
2315:../libs/StdPeripheralDriver/src/stm32f10x_tim.c ****   * @brief  Sets the TIMx Capture Compare3 Register value
2316:../libs/StdPeripheralDriver/src/stm32f10x_tim.c ****   * @param  TIMx: where x can be 1, 2, 3, 4, 5 or 8 to select the TIM peripheral.
2317:../libs/StdPeripheralDriver/src/stm32f10x_tim.c ****   * @param  Compare3: specifies the Capture Compare3 register new value.
2318:../libs/StdPeripheralDriver/src/stm32f10x_tim.c ****   * @retval None
2319:../libs/StdPeripheralDriver/src/stm32f10x_tim.c ****   */
2320:../libs/StdPeripheralDriver/src/stm32f10x_tim.c **** void TIM_SetCompare3(TIM_TypeDef* TIMx, uint16_t Compare3)
2321:../libs/StdPeripheralDriver/src/stm32f10x_tim.c **** {
 12190              		.loc 1 2321 0
 12191              		.cfi_startproc
 12192              		@ args = 0, pretend = 0, frame = 8
 12193              		@ frame_needed = 1, uses_anonymous_args = 0
 12194 0000 80B5     		push	{r7, lr}
 12195              	.LCFI210:
 12196              		.cfi_def_cfa_offset 8
 12197              		.cfi_offset 7, -8
 12198              		.cfi_offset 14, -4
 12199 0002 82B0     		sub	sp, sp, #8
 12200              	.LCFI211:
 12201              		.cfi_def_cfa_offset 16
 12202 0004 00AF     		add	r7, sp, #0
 12203              	.LCFI212:
 12204              		.cfi_def_cfa_register 7
 12205 0006 7860     		str	r0, [r7, #4]
 12206 0008 0B46     		mov	r3, r1
 12207 000a 7B80     		strh	r3, [r7, #2]	@ movhi
2322:../libs/StdPeripheralDriver/src/stm32f10x_tim.c ****   /* Check the parameters */
2323:../libs/StdPeripheralDriver/src/stm32f10x_tim.c ****   assert_param(IS_TIM_LIST3_PERIPH(TIMx));
 12208              		.loc 1 2323 0
 12209 000c 7A68     		ldr	r2, [r7, #4]
 12210 000e 134B     		ldr	r3, .L787
 12211 0010 9A42     		cmp	r2, r3
 12212 0012 13D0     		beq	.L784
 12213              		.loc 1 2323 0 is_stmt 0 discriminator 2
 12214 0014 7B68     		ldr	r3, [r7, #4]
 12215 0016 B3F1804F 		cmp	r3, #1073741824
 12216 001a 0FD0     		beq	.L784
 12217              		.loc 1 2323 0 discriminator 1
 12218 001c 7A68     		ldr	r2, [r7, #4]
 12219 001e 104B     		ldr	r3, .L787+4
 12220 0020 9A42     		cmp	r2, r3
 12221 0022 0BD0     		beq	.L784
 12222              		.loc 1 2323 0 discriminator 2
 12223 0024 7A68     		ldr	r2, [r7, #4]
 12224 0026 0F4B     		ldr	r3, .L787+8
 12225 0028 9A42     		cmp	r2, r3
 12226 002a 07D0     		beq	.L784
 12227              		.loc 1 2323 0 discriminator 3
 12228 002c 7A68     		ldr	r2, [r7, #4]
 12229 002e 0E4B     		ldr	r3, .L787+12
 12230 0030 9A42     		cmp	r2, r3
 12231 0032 03D0     		beq	.L784
 12232              		.loc 1 2323 0 discriminator 4
 12233 0034 7A68     		ldr	r2, [r7, #4]
 12234 0036 0D4B     		ldr	r3, .L787+16
 12235 0038 9A42     		cmp	r2, r3
 12236 003a 02D1     		bne	.L785
 12237              	.L784:
 12238              		.loc 1 2323 0 discriminator 1
 12239 003c 4FF00103 		mov	r3, #1
 12240 0040 01E0     		b	.L786
 12241              	.L785:
 12242              		.loc 1 2323 0 discriminator 3
 12243 0042 4FF00003 		mov	r3, #0
 12244              	.L786:
 12245              		.loc 1 2323 0 discriminator 4
 12246 0046 1846     		mov	r0, r3
 12247 0048 FFF7FEFF 		bl	assert_param
2324:../libs/StdPeripheralDriver/src/stm32f10x_tim.c ****   /* Set the Capture Compare3 Register value */
2325:../libs/StdPeripheralDriver/src/stm32f10x_tim.c ****   TIMx->CCR3 = Compare3;
 12248              		.loc 1 2325 0 is_stmt 1 discriminator 4
 12249 004c 7B68     		ldr	r3, [r7, #4]
 12250 004e 7A88     		ldrh	r2, [r7, #2]	@ movhi
 12251 0050 9A87     		strh	r2, [r3, #60]	@ movhi
2326:../libs/StdPeripheralDriver/src/stm32f10x_tim.c **** }
 12252              		.loc 1 2326 0 discriminator 4
 12253 0052 07F10807 		add	r7, r7, #8
 12254 0056 BD46     		mov	sp, r7
 12255 0058 80BD     		pop	{r7, pc}
 12256              	.L788:
 12257 005a 00BF     		.align	2
 12258              	.L787:
 12259 005c 002C0140 		.word	1073818624
 12260 0060 00040040 		.word	1073742848
 12261 0064 00080040 		.word	1073743872
 12262 0068 000C0040 		.word	1073744896
 12263 006c 00340140 		.word	1073820672
 12264              		.cfi_endproc
 12265              	.LFE99:
 12267              		.section	.text.TIM_SetCompare4,"ax",%progbits
 12268              		.align	2
 12269              		.global	TIM_SetCompare4
 12270              		.thumb
 12271              		.thumb_func
 12273              	TIM_SetCompare4:
 12274              	.LFB100:
2327:../libs/StdPeripheralDriver/src/stm32f10x_tim.c **** 
2328:../libs/StdPeripheralDriver/src/stm32f10x_tim.c **** /**
2329:../libs/StdPeripheralDriver/src/stm32f10x_tim.c ****   * @brief  Sets the TIMx Capture Compare4 Register value
2330:../libs/StdPeripheralDriver/src/stm32f10x_tim.c ****   * @param  TIMx: where x can be 1, 2, 3, 4, 5 or 8 to select the TIM peripheral.
2331:../libs/StdPeripheralDriver/src/stm32f10x_tim.c ****   * @param  Compare4: specifies the Capture Compare4 register new value.
2332:../libs/StdPeripheralDriver/src/stm32f10x_tim.c ****   * @retval None
2333:../libs/StdPeripheralDriver/src/stm32f10x_tim.c ****   */
2334:../libs/StdPeripheralDriver/src/stm32f10x_tim.c **** void TIM_SetCompare4(TIM_TypeDef* TIMx, uint16_t Compare4)
2335:../libs/StdPeripheralDriver/src/stm32f10x_tim.c **** {
 12275              		.loc 1 2335 0
 12276              		.cfi_startproc
 12277              		@ args = 0, pretend = 0, frame = 8
 12278              		@ frame_needed = 1, uses_anonymous_args = 0
 12279 0000 80B5     		push	{r7, lr}
 12280              	.LCFI213:
 12281              		.cfi_def_cfa_offset 8
 12282              		.cfi_offset 7, -8
 12283              		.cfi_offset 14, -4
 12284 0002 82B0     		sub	sp, sp, #8
 12285              	.LCFI214:
 12286              		.cfi_def_cfa_offset 16
 12287 0004 00AF     		add	r7, sp, #0
 12288              	.LCFI215:
 12289              		.cfi_def_cfa_register 7
 12290 0006 7860     		str	r0, [r7, #4]
 12291 0008 0B46     		mov	r3, r1
 12292 000a 7B80     		strh	r3, [r7, #2]	@ movhi
2336:../libs/StdPeripheralDriver/src/stm32f10x_tim.c ****   /* Check the parameters */
2337:../libs/StdPeripheralDriver/src/stm32f10x_tim.c ****   assert_param(IS_TIM_LIST3_PERIPH(TIMx));
 12293              		.loc 1 2337 0
 12294 000c 7A68     		ldr	r2, [r7, #4]
 12295 000e 134B     		ldr	r3, .L793
 12296 0010 9A42     		cmp	r2, r3
 12297 0012 13D0     		beq	.L790
 12298              		.loc 1 2337 0 is_stmt 0 discriminator 2
 12299 0014 7B68     		ldr	r3, [r7, #4]
 12300 0016 B3F1804F 		cmp	r3, #1073741824
 12301 001a 0FD0     		beq	.L790
 12302              		.loc 1 2337 0 discriminator 1
 12303 001c 7A68     		ldr	r2, [r7, #4]
 12304 001e 104B     		ldr	r3, .L793+4
 12305 0020 9A42     		cmp	r2, r3
 12306 0022 0BD0     		beq	.L790
 12307              		.loc 1 2337 0 discriminator 2
 12308 0024 7A68     		ldr	r2, [r7, #4]
 12309 0026 0F4B     		ldr	r3, .L793+8
 12310 0028 9A42     		cmp	r2, r3
 12311 002a 07D0     		beq	.L790
 12312              		.loc 1 2337 0 discriminator 3
 12313 002c 7A68     		ldr	r2, [r7, #4]
 12314 002e 0E4B     		ldr	r3, .L793+12
 12315 0030 9A42     		cmp	r2, r3
 12316 0032 03D0     		beq	.L790
 12317              		.loc 1 2337 0 discriminator 4
 12318 0034 7A68     		ldr	r2, [r7, #4]
 12319 0036 0D4B     		ldr	r3, .L793+16
 12320 0038 9A42     		cmp	r2, r3
 12321 003a 02D1     		bne	.L791
 12322              	.L790:
 12323              		.loc 1 2337 0 discriminator 1
 12324 003c 4FF00103 		mov	r3, #1
 12325 0040 01E0     		b	.L792
 12326              	.L791:
 12327              		.loc 1 2337 0 discriminator 3
 12328 0042 4FF00003 		mov	r3, #0
 12329              	.L792:
 12330              		.loc 1 2337 0 discriminator 4
 12331 0046 1846     		mov	r0, r3
 12332 0048 FFF7FEFF 		bl	assert_param
2338:../libs/StdPeripheralDriver/src/stm32f10x_tim.c ****   /* Set the Capture Compare4 Register value */
2339:../libs/StdPeripheralDriver/src/stm32f10x_tim.c ****   TIMx->CCR4 = Compare4;
 12333              		.loc 1 2339 0 is_stmt 1 discriminator 4
 12334 004c 7B68     		ldr	r3, [r7, #4]
 12335 004e 7A88     		ldrh	r2, [r7, #2]	@ movhi
 12336 0050 A3F84020 		strh	r2, [r3, #64]	@ movhi
2340:../libs/StdPeripheralDriver/src/stm32f10x_tim.c **** }
 12337              		.loc 1 2340 0 discriminator 4
 12338 0054 07F10807 		add	r7, r7, #8
 12339 0058 BD46     		mov	sp, r7
 12340 005a 80BD     		pop	{r7, pc}
 12341              	.L794:
 12342              		.align	2
 12343              	.L793:
 12344 005c 002C0140 		.word	1073818624
 12345 0060 00040040 		.word	1073742848
 12346 0064 00080040 		.word	1073743872
 12347 0068 000C0040 		.word	1073744896
 12348 006c 00340140 		.word	1073820672
 12349              		.cfi_endproc
 12350              	.LFE100:
 12352              		.section	.text.TIM_SetIC1Prescaler,"ax",%progbits
 12353              		.align	2
 12354              		.global	TIM_SetIC1Prescaler
 12355              		.thumb
 12356              		.thumb_func
 12358              	TIM_SetIC1Prescaler:
 12359              	.LFB101:
2341:../libs/StdPeripheralDriver/src/stm32f10x_tim.c **** 
2342:../libs/StdPeripheralDriver/src/stm32f10x_tim.c **** /**
2343:../libs/StdPeripheralDriver/src/stm32f10x_tim.c ****   * @brief  Sets the TIMx Input Capture 1 prescaler.
2344:../libs/StdPeripheralDriver/src/stm32f10x_tim.c ****   * @param  TIMx: where x can be 1 to 17 except 6 and 7 to select the TIM peripheral.
2345:../libs/StdPeripheralDriver/src/stm32f10x_tim.c ****   * @param  TIM_ICPSC: specifies the Input Capture1 prescaler new value.
2346:../libs/StdPeripheralDriver/src/stm32f10x_tim.c ****   *   This parameter can be one of the following values:
2347:../libs/StdPeripheralDriver/src/stm32f10x_tim.c ****   *     @arg TIM_ICPSC_DIV1: no prescaler
2348:../libs/StdPeripheralDriver/src/stm32f10x_tim.c ****   *     @arg TIM_ICPSC_DIV2: capture is done once every 2 events
2349:../libs/StdPeripheralDriver/src/stm32f10x_tim.c ****   *     @arg TIM_ICPSC_DIV4: capture is done once every 4 events
2350:../libs/StdPeripheralDriver/src/stm32f10x_tim.c ****   *     @arg TIM_ICPSC_DIV8: capture is done once every 8 events
2351:../libs/StdPeripheralDriver/src/stm32f10x_tim.c ****   * @retval None
2352:../libs/StdPeripheralDriver/src/stm32f10x_tim.c ****   */
2353:../libs/StdPeripheralDriver/src/stm32f10x_tim.c **** void TIM_SetIC1Prescaler(TIM_TypeDef* TIMx, uint16_t TIM_ICPSC)
2354:../libs/StdPeripheralDriver/src/stm32f10x_tim.c **** {
 12360              		.loc 1 2354 0
 12361              		.cfi_startproc
 12362              		@ args = 0, pretend = 0, frame = 8
 12363              		@ frame_needed = 1, uses_anonymous_args = 0
 12364 0000 80B5     		push	{r7, lr}
 12365              	.LCFI216:
 12366              		.cfi_def_cfa_offset 8
 12367              		.cfi_offset 7, -8
 12368              		.cfi_offset 14, -4
 12369 0002 82B0     		sub	sp, sp, #8
 12370              	.LCFI217:
 12371              		.cfi_def_cfa_offset 16
 12372 0004 00AF     		add	r7, sp, #0
 12373              	.LCFI218:
 12374              		.cfi_def_cfa_register 7
 12375 0006 7860     		str	r0, [r7, #4]
 12376 0008 0B46     		mov	r3, r1
 12377 000a 7B80     		strh	r3, [r7, #2]	@ movhi
2355:../libs/StdPeripheralDriver/src/stm32f10x_tim.c ****   /* Check the parameters */
2356:../libs/StdPeripheralDriver/src/stm32f10x_tim.c ****   assert_param(IS_TIM_LIST8_PERIPH(TIMx));
 12378              		.loc 1 2356 0
 12379 000c 7A68     		ldr	r2, [r7, #4]
 12380 000e 354B     		ldr	r3, .L802
 12381 0010 9A42     		cmp	r2, r3
 12382 0012 37D0     		beq	.L796
 12383              		.loc 1 2356 0 is_stmt 0 discriminator 2
 12384 0014 7B68     		ldr	r3, [r7, #4]
 12385 0016 B3F1804F 		cmp	r3, #1073741824
 12386 001a 33D0     		beq	.L796
 12387              		.loc 1 2356 0 discriminator 1
 12388 001c 7A68     		ldr	r2, [r7, #4]
 12389 001e 324B     		ldr	r3, .L802+4
 12390 0020 9A42     		cmp	r2, r3
 12391 0022 2FD0     		beq	.L796
 12392              		.loc 1 2356 0 discriminator 2
 12393 0024 7A68     		ldr	r2, [r7, #4]
 12394 0026 314B     		ldr	r3, .L802+8
 12395 0028 9A42     		cmp	r2, r3
 12396 002a 2BD0     		beq	.L796
 12397              		.loc 1 2356 0 discriminator 3
 12398 002c 7A68     		ldr	r2, [r7, #4]
 12399 002e 304B     		ldr	r3, .L802+12
 12400 0030 9A42     		cmp	r2, r3
 12401 0032 27D0     		beq	.L796
 12402              		.loc 1 2356 0 discriminator 4
 12403 0034 7A68     		ldr	r2, [r7, #4]
 12404 0036 2F4B     		ldr	r3, .L802+16
 12405 0038 9A42     		cmp	r2, r3
 12406 003a 23D0     		beq	.L796
 12407              		.loc 1 2356 0 discriminator 5
 12408 003c 7A68     		ldr	r2, [r7, #4]
 12409 003e 2E4B     		ldr	r3, .L802+20
 12410 0040 9A42     		cmp	r2, r3
 12411 0042 1FD0     		beq	.L796
 12412              		.loc 1 2356 0 discriminator 6
 12413 0044 7A68     		ldr	r2, [r7, #4]
 12414 0046 2D4B     		ldr	r3, .L802+24
 12415 0048 9A42     		cmp	r2, r3
 12416 004a 1BD0     		beq	.L796
 12417              		.loc 1 2356 0 discriminator 7
 12418 004c 7A68     		ldr	r2, [r7, #4]
 12419 004e 2C4B     		ldr	r3, .L802+28
 12420 0050 9A42     		cmp	r2, r3
 12421 0052 17D0     		beq	.L796
 12422              		.loc 1 2356 0 discriminator 8
 12423 0054 7A68     		ldr	r2, [r7, #4]
 12424 0056 2B4B     		ldr	r3, .L802+32
 12425 0058 9A42     		cmp	r2, r3
 12426 005a 13D0     		beq	.L796
 12427              		.loc 1 2356 0 discriminator 9
 12428 005c 7A68     		ldr	r2, [r7, #4]
 12429 005e 2A4B     		ldr	r3, .L802+36
 12430 0060 9A42     		cmp	r2, r3
 12431 0062 0FD0     		beq	.L796
 12432              		.loc 1 2356 0 discriminator 10
 12433 0064 7A68     		ldr	r2, [r7, #4]
 12434 0066 294B     		ldr	r3, .L802+40
 12435 0068 9A42     		cmp	r2, r3
 12436 006a 0BD0     		beq	.L796
 12437              		.loc 1 2356 0 discriminator 11
 12438 006c 7A68     		ldr	r2, [r7, #4]
 12439 006e 284B     		ldr	r3, .L802+44
 12440 0070 9A42     		cmp	r2, r3
 12441 0072 07D0     		beq	.L796
 12442              		.loc 1 2356 0 discriminator 12
 12443 0074 7A68     		ldr	r2, [r7, #4]
 12444 0076 274B     		ldr	r3, .L802+48
 12445 0078 9A42     		cmp	r2, r3
 12446 007a 03D0     		beq	.L796
 12447              		.loc 1 2356 0 discriminator 13
 12448 007c 7A68     		ldr	r2, [r7, #4]
 12449 007e 264B     		ldr	r3, .L802+52
 12450 0080 9A42     		cmp	r2, r3
 12451 0082 02D1     		bne	.L797
 12452              	.L796:
 12453              		.loc 1 2356 0 discriminator 1
 12454 0084 4FF00103 		mov	r3, #1
 12455 0088 01E0     		b	.L798
 12456              	.L797:
 12457              		.loc 1 2356 0 discriminator 3
 12458 008a 4FF00003 		mov	r3, #0
 12459              	.L798:
 12460              		.loc 1 2356 0 discriminator 4
 12461 008e 1846     		mov	r0, r3
 12462 0090 FFF7FEFF 		bl	assert_param
2357:../libs/StdPeripheralDriver/src/stm32f10x_tim.c ****   assert_param(IS_TIM_IC_PRESCALER(TIM_ICPSC));
 12463              		.loc 1 2357 0 is_stmt 1 discriminator 4
 12464 0094 7B88     		ldrh	r3, [r7, #2]
 12465 0096 002B     		cmp	r3, #0
 12466 0098 08D0     		beq	.L799
 12467              		.loc 1 2357 0 is_stmt 0 discriminator 2
 12468 009a 7B88     		ldrh	r3, [r7, #2]
 12469 009c 042B     		cmp	r3, #4
 12470 009e 05D0     		beq	.L799
 12471              		.loc 1 2357 0 discriminator 1
 12472 00a0 7B88     		ldrh	r3, [r7, #2]
 12473 00a2 082B     		cmp	r3, #8
 12474 00a4 02D0     		beq	.L799
 12475              		.loc 1 2357 0 discriminator 2
 12476 00a6 7B88     		ldrh	r3, [r7, #2]
 12477 00a8 0C2B     		cmp	r3, #12
 12478 00aa 02D1     		bne	.L800
 12479              	.L799:
 12480              		.loc 1 2357 0 discriminator 1
 12481 00ac 4FF00103 		mov	r3, #1
 12482 00b0 01E0     		b	.L801
 12483              	.L800:
 12484              		.loc 1 2357 0 discriminator 3
 12485 00b2 4FF00003 		mov	r3, #0
 12486              	.L801:
 12487              		.loc 1 2357 0 discriminator 4
 12488 00b6 1846     		mov	r0, r3
 12489 00b8 FFF7FEFF 		bl	assert_param
2358:../libs/StdPeripheralDriver/src/stm32f10x_tim.c ****   /* Reset the IC1PSC Bits */
2359:../libs/StdPeripheralDriver/src/stm32f10x_tim.c ****   TIMx->CCMR1 &= (uint16_t)~((uint16_t)TIM_CCMR1_IC1PSC);
 12490              		.loc 1 2359 0 is_stmt 1 discriminator 4
 12491 00bc 7B68     		ldr	r3, [r7, #4]
 12492 00be 1B8B     		ldrh	r3, [r3, #24]	@ movhi
 12493 00c0 9BB2     		uxth	r3, r3
 12494 00c2 23F00C03 		bic	r3, r3, #12
 12495 00c6 9AB2     		uxth	r2, r3
 12496 00c8 7B68     		ldr	r3, [r7, #4]
 12497 00ca 1A83     		strh	r2, [r3, #24]	@ movhi
2360:../libs/StdPeripheralDriver/src/stm32f10x_tim.c ****   /* Set the IC1PSC value */
2361:../libs/StdPeripheralDriver/src/stm32f10x_tim.c ****   TIMx->CCMR1 |= TIM_ICPSC;
 12498              		.loc 1 2361 0 discriminator 4
 12499 00cc 7B68     		ldr	r3, [r7, #4]
 12500 00ce 1B8B     		ldrh	r3, [r3, #24]	@ movhi
 12501 00d0 9AB2     		uxth	r2, r3
 12502 00d2 7B88     		ldrh	r3, [r7, #2]	@ movhi
 12503 00d4 1343     		orrs	r3, r3, r2
 12504 00d6 9AB2     		uxth	r2, r3
 12505 00d8 7B68     		ldr	r3, [r7, #4]
 12506 00da 1A83     		strh	r2, [r3, #24]	@ movhi
2362:../libs/StdPeripheralDriver/src/stm32f10x_tim.c **** }
 12507              		.loc 1 2362 0 discriminator 4
 12508 00dc 07F10807 		add	r7, r7, #8
 12509 00e0 BD46     		mov	sp, r7
 12510 00e2 80BD     		pop	{r7, pc}
 12511              	.L803:
 12512              		.align	2
 12513              	.L802:
 12514 00e4 002C0140 		.word	1073818624
 12515 00e8 00040040 		.word	1073742848
 12516 00ec 00080040 		.word	1073743872
 12517 00f0 000C0040 		.word	1073744896
 12518 00f4 00340140 		.word	1073820672
 12519 00f8 004C0140 		.word	1073826816
 12520 00fc 00500140 		.word	1073827840
 12521 0100 00540140 		.word	1073828864
 12522 0104 00180040 		.word	1073747968
 12523 0108 001C0040 		.word	1073748992
 12524 010c 00200040 		.word	1073750016
 12525 0110 00400140 		.word	1073823744
 12526 0114 00440140 		.word	1073824768
 12527 0118 00480140 		.word	1073825792
 12528              		.cfi_endproc
 12529              	.LFE101:
 12531              		.section	.text.TIM_SetIC2Prescaler,"ax",%progbits
 12532              		.align	2
 12533              		.global	TIM_SetIC2Prescaler
 12534              		.thumb
 12535              		.thumb_func
 12537              	TIM_SetIC2Prescaler:
 12538              	.LFB102:
2363:../libs/StdPeripheralDriver/src/stm32f10x_tim.c **** 
2364:../libs/StdPeripheralDriver/src/stm32f10x_tim.c **** /**
2365:../libs/StdPeripheralDriver/src/stm32f10x_tim.c ****   * @brief  Sets the TIMx Input Capture 2 prescaler.
2366:../libs/StdPeripheralDriver/src/stm32f10x_tim.c ****   * @param  TIMx: where x can be 1, 2, 3, 4, 5, 8, 9, 12 or 15 to select the TIM peripheral.
2367:../libs/StdPeripheralDriver/src/stm32f10x_tim.c ****   * @param  TIM_ICPSC: specifies the Input Capture2 prescaler new value.
2368:../libs/StdPeripheralDriver/src/stm32f10x_tim.c ****   *   This parameter can be one of the following values:
2369:../libs/StdPeripheralDriver/src/stm32f10x_tim.c ****   *     @arg TIM_ICPSC_DIV1: no prescaler
2370:../libs/StdPeripheralDriver/src/stm32f10x_tim.c ****   *     @arg TIM_ICPSC_DIV2: capture is done once every 2 events
2371:../libs/StdPeripheralDriver/src/stm32f10x_tim.c ****   *     @arg TIM_ICPSC_DIV4: capture is done once every 4 events
2372:../libs/StdPeripheralDriver/src/stm32f10x_tim.c ****   *     @arg TIM_ICPSC_DIV8: capture is done once every 8 events
2373:../libs/StdPeripheralDriver/src/stm32f10x_tim.c ****   * @retval None
2374:../libs/StdPeripheralDriver/src/stm32f10x_tim.c ****   */
2375:../libs/StdPeripheralDriver/src/stm32f10x_tim.c **** void TIM_SetIC2Prescaler(TIM_TypeDef* TIMx, uint16_t TIM_ICPSC)
2376:../libs/StdPeripheralDriver/src/stm32f10x_tim.c **** {
 12539              		.loc 1 2376 0
 12540              		.cfi_startproc
 12541              		@ args = 0, pretend = 0, frame = 8
 12542              		@ frame_needed = 1, uses_anonymous_args = 0
 12543 0000 80B5     		push	{r7, lr}
 12544              	.LCFI219:
 12545              		.cfi_def_cfa_offset 8
 12546              		.cfi_offset 7, -8
 12547              		.cfi_offset 14, -4
 12548 0002 82B0     		sub	sp, sp, #8
 12549              	.LCFI220:
 12550              		.cfi_def_cfa_offset 16
 12551 0004 00AF     		add	r7, sp, #0
 12552              	.LCFI221:
 12553              		.cfi_def_cfa_register 7
 12554 0006 7860     		str	r0, [r7, #4]
 12555 0008 0B46     		mov	r3, r1
 12556 000a 7B80     		strh	r3, [r7, #2]	@ movhi
2377:../libs/StdPeripheralDriver/src/stm32f10x_tim.c ****   /* Check the parameters */
2378:../libs/StdPeripheralDriver/src/stm32f10x_tim.c ****   assert_param(IS_TIM_LIST6_PERIPH(TIMx));
 12557              		.loc 1 2378 0
 12558 000c 7A68     		ldr	r2, [r7, #4]
 12559 000e 2B4B     		ldr	r3, .L811
 12560 0010 9A42     		cmp	r2, r3
 12561 0012 1FD0     		beq	.L805
 12562              		.loc 1 2378 0 is_stmt 0 discriminator 2
 12563 0014 7B68     		ldr	r3, [r7, #4]
 12564 0016 B3F1804F 		cmp	r3, #1073741824
 12565 001a 1BD0     		beq	.L805
 12566              		.loc 1 2378 0 discriminator 1
 12567 001c 7A68     		ldr	r2, [r7, #4]
 12568 001e 284B     		ldr	r3, .L811+4
 12569 0020 9A42     		cmp	r2, r3
 12570 0022 17D0     		beq	.L805
 12571              		.loc 1 2378 0 discriminator 2
 12572 0024 7A68     		ldr	r2, [r7, #4]
 12573 0026 274B     		ldr	r3, .L811+8
 12574 0028 9A42     		cmp	r2, r3
 12575 002a 13D0     		beq	.L805
 12576              		.loc 1 2378 0 discriminator 3
 12577 002c 7A68     		ldr	r2, [r7, #4]
 12578 002e 264B     		ldr	r3, .L811+12
 12579 0030 9A42     		cmp	r2, r3
 12580 0032 0FD0     		beq	.L805
 12581              		.loc 1 2378 0 discriminator 4
 12582 0034 7A68     		ldr	r2, [r7, #4]
 12583 0036 254B     		ldr	r3, .L811+16
 12584 0038 9A42     		cmp	r2, r3
 12585 003a 0BD0     		beq	.L805
 12586              		.loc 1 2378 0 discriminator 5
 12587 003c 7A68     		ldr	r2, [r7, #4]
 12588 003e 244B     		ldr	r3, .L811+20
 12589 0040 9A42     		cmp	r2, r3
 12590 0042 07D0     		beq	.L805
 12591              		.loc 1 2378 0 discriminator 6
 12592 0044 7A68     		ldr	r2, [r7, #4]
 12593 0046 234B     		ldr	r3, .L811+24
 12594 0048 9A42     		cmp	r2, r3
 12595 004a 03D0     		beq	.L805
 12596              		.loc 1 2378 0 discriminator 7
 12597 004c 7A68     		ldr	r2, [r7, #4]
 12598 004e 224B     		ldr	r3, .L811+28
 12599 0050 9A42     		cmp	r2, r3
 12600 0052 02D1     		bne	.L806
 12601              	.L805:
 12602              		.loc 1 2378 0 discriminator 1
 12603 0054 4FF00103 		mov	r3, #1
 12604 0058 01E0     		b	.L807
 12605              	.L806:
 12606              		.loc 1 2378 0 discriminator 3
 12607 005a 4FF00003 		mov	r3, #0
 12608              	.L807:
 12609              		.loc 1 2378 0 discriminator 4
 12610 005e 1846     		mov	r0, r3
 12611 0060 FFF7FEFF 		bl	assert_param
2379:../libs/StdPeripheralDriver/src/stm32f10x_tim.c ****   assert_param(IS_TIM_IC_PRESCALER(TIM_ICPSC));
 12612              		.loc 1 2379 0 is_stmt 1 discriminator 4
 12613 0064 7B88     		ldrh	r3, [r7, #2]
 12614 0066 002B     		cmp	r3, #0
 12615 0068 08D0     		beq	.L808
 12616              		.loc 1 2379 0 is_stmt 0 discriminator 2
 12617 006a 7B88     		ldrh	r3, [r7, #2]
 12618 006c 042B     		cmp	r3, #4
 12619 006e 05D0     		beq	.L808
 12620              		.loc 1 2379 0 discriminator 1
 12621 0070 7B88     		ldrh	r3, [r7, #2]
 12622 0072 082B     		cmp	r3, #8
 12623 0074 02D0     		beq	.L808
 12624              		.loc 1 2379 0 discriminator 2
 12625 0076 7B88     		ldrh	r3, [r7, #2]
 12626 0078 0C2B     		cmp	r3, #12
 12627 007a 02D1     		bne	.L809
 12628              	.L808:
 12629              		.loc 1 2379 0 discriminator 1
 12630 007c 4FF00103 		mov	r3, #1
 12631 0080 01E0     		b	.L810
 12632              	.L809:
 12633              		.loc 1 2379 0 discriminator 3
 12634 0082 4FF00003 		mov	r3, #0
 12635              	.L810:
 12636              		.loc 1 2379 0 discriminator 4
 12637 0086 1846     		mov	r0, r3
 12638 0088 FFF7FEFF 		bl	assert_param
2380:../libs/StdPeripheralDriver/src/stm32f10x_tim.c ****   /* Reset the IC2PSC Bits */
2381:../libs/StdPeripheralDriver/src/stm32f10x_tim.c ****   TIMx->CCMR1 &= (uint16_t)~((uint16_t)TIM_CCMR1_IC2PSC);
 12639              		.loc 1 2381 0 is_stmt 1 discriminator 4
 12640 008c 7B68     		ldr	r3, [r7, #4]
 12641 008e 1B8B     		ldrh	r3, [r3, #24]	@ movhi
 12642 0090 9BB2     		uxth	r3, r3
 12643 0092 23F44063 		bic	r3, r3, #3072
 12644 0096 9AB2     		uxth	r2, r3
 12645 0098 7B68     		ldr	r3, [r7, #4]
 12646 009a 1A83     		strh	r2, [r3, #24]	@ movhi
2382:../libs/StdPeripheralDriver/src/stm32f10x_tim.c ****   /* Set the IC2PSC value */
2383:../libs/StdPeripheralDriver/src/stm32f10x_tim.c ****   TIMx->CCMR1 |= (uint16_t)(TIM_ICPSC << 8);
 12647              		.loc 1 2383 0 discriminator 4
 12648 009c 7B68     		ldr	r3, [r7, #4]
 12649 009e 1B8B     		ldrh	r3, [r3, #24]	@ movhi
 12650 00a0 9AB2     		uxth	r2, r3
 12651 00a2 7B88     		ldrh	r3, [r7, #2]	@ movhi
 12652 00a4 4FEA0323 		lsl	r3, r3, #8
 12653 00a8 9BB2     		uxth	r3, r3
 12654 00aa 1343     		orrs	r3, r3, r2
 12655 00ac 9AB2     		uxth	r2, r3
 12656 00ae 7B68     		ldr	r3, [r7, #4]
 12657 00b0 1A83     		strh	r2, [r3, #24]	@ movhi
2384:../libs/StdPeripheralDriver/src/stm32f10x_tim.c **** }
 12658              		.loc 1 2384 0 discriminator 4
 12659 00b2 07F10807 		add	r7, r7, #8
 12660 00b6 BD46     		mov	sp, r7
 12661 00b8 80BD     		pop	{r7, pc}
 12662              	.L812:
 12663 00ba 00BF     		.align	2
 12664              	.L811:
 12665 00bc 002C0140 		.word	1073818624
 12666 00c0 00040040 		.word	1073742848
 12667 00c4 00080040 		.word	1073743872
 12668 00c8 000C0040 		.word	1073744896
 12669 00cc 00340140 		.word	1073820672
 12670 00d0 004C0140 		.word	1073826816
 12671 00d4 00180040 		.word	1073747968
 12672 00d8 00400140 		.word	1073823744
 12673              		.cfi_endproc
 12674              	.LFE102:
 12676              		.section	.text.TIM_SetIC3Prescaler,"ax",%progbits
 12677              		.align	2
 12678              		.global	TIM_SetIC3Prescaler
 12679              		.thumb
 12680              		.thumb_func
 12682              	TIM_SetIC3Prescaler:
 12683              	.LFB103:
2385:../libs/StdPeripheralDriver/src/stm32f10x_tim.c **** 
2386:../libs/StdPeripheralDriver/src/stm32f10x_tim.c **** /**
2387:../libs/StdPeripheralDriver/src/stm32f10x_tim.c ****   * @brief  Sets the TIMx Input Capture 3 prescaler.
2388:../libs/StdPeripheralDriver/src/stm32f10x_tim.c ****   * @param  TIMx: where x can be 1, 2, 3, 4, 5 or 8 to select the TIM peripheral.
2389:../libs/StdPeripheralDriver/src/stm32f10x_tim.c ****   * @param  TIM_ICPSC: specifies the Input Capture3 prescaler new value.
2390:../libs/StdPeripheralDriver/src/stm32f10x_tim.c ****   *   This parameter can be one of the following values:
2391:../libs/StdPeripheralDriver/src/stm32f10x_tim.c ****   *     @arg TIM_ICPSC_DIV1: no prescaler
2392:../libs/StdPeripheralDriver/src/stm32f10x_tim.c ****   *     @arg TIM_ICPSC_DIV2: capture is done once every 2 events
2393:../libs/StdPeripheralDriver/src/stm32f10x_tim.c ****   *     @arg TIM_ICPSC_DIV4: capture is done once every 4 events
2394:../libs/StdPeripheralDriver/src/stm32f10x_tim.c ****   *     @arg TIM_ICPSC_DIV8: capture is done once every 8 events
2395:../libs/StdPeripheralDriver/src/stm32f10x_tim.c ****   * @retval None
2396:../libs/StdPeripheralDriver/src/stm32f10x_tim.c ****   */
2397:../libs/StdPeripheralDriver/src/stm32f10x_tim.c **** void TIM_SetIC3Prescaler(TIM_TypeDef* TIMx, uint16_t TIM_ICPSC)
2398:../libs/StdPeripheralDriver/src/stm32f10x_tim.c **** {
 12684              		.loc 1 2398 0
 12685              		.cfi_startproc
 12686              		@ args = 0, pretend = 0, frame = 8
 12687              		@ frame_needed = 1, uses_anonymous_args = 0
 12688 0000 80B5     		push	{r7, lr}
 12689              	.LCFI222:
 12690              		.cfi_def_cfa_offset 8
 12691              		.cfi_offset 7, -8
 12692              		.cfi_offset 14, -4
 12693 0002 82B0     		sub	sp, sp, #8
 12694              	.LCFI223:
 12695              		.cfi_def_cfa_offset 16
 12696 0004 00AF     		add	r7, sp, #0
 12697              	.LCFI224:
 12698              		.cfi_def_cfa_register 7
 12699 0006 7860     		str	r0, [r7, #4]
 12700 0008 0B46     		mov	r3, r1
 12701 000a 7B80     		strh	r3, [r7, #2]	@ movhi
2399:../libs/StdPeripheralDriver/src/stm32f10x_tim.c ****   /* Check the parameters */
2400:../libs/StdPeripheralDriver/src/stm32f10x_tim.c ****   assert_param(IS_TIM_LIST3_PERIPH(TIMx));
 12702              		.loc 1 2400 0
 12703 000c 7A68     		ldr	r2, [r7, #4]
 12704 000e 234B     		ldr	r3, .L820
 12705 0010 9A42     		cmp	r2, r3
 12706 0012 13D0     		beq	.L814
 12707              		.loc 1 2400 0 is_stmt 0 discriminator 2
 12708 0014 7B68     		ldr	r3, [r7, #4]
 12709 0016 B3F1804F 		cmp	r3, #1073741824
 12710 001a 0FD0     		beq	.L814
 12711              		.loc 1 2400 0 discriminator 1
 12712 001c 7A68     		ldr	r2, [r7, #4]
 12713 001e 204B     		ldr	r3, .L820+4
 12714 0020 9A42     		cmp	r2, r3
 12715 0022 0BD0     		beq	.L814
 12716              		.loc 1 2400 0 discriminator 2
 12717 0024 7A68     		ldr	r2, [r7, #4]
 12718 0026 1F4B     		ldr	r3, .L820+8
 12719 0028 9A42     		cmp	r2, r3
 12720 002a 07D0     		beq	.L814
 12721              		.loc 1 2400 0 discriminator 3
 12722 002c 7A68     		ldr	r2, [r7, #4]
 12723 002e 1E4B     		ldr	r3, .L820+12
 12724 0030 9A42     		cmp	r2, r3
 12725 0032 03D0     		beq	.L814
 12726              		.loc 1 2400 0 discriminator 4
 12727 0034 7A68     		ldr	r2, [r7, #4]
 12728 0036 1D4B     		ldr	r3, .L820+16
 12729 0038 9A42     		cmp	r2, r3
 12730 003a 02D1     		bne	.L815
 12731              	.L814:
 12732              		.loc 1 2400 0 discriminator 1
 12733 003c 4FF00103 		mov	r3, #1
 12734 0040 01E0     		b	.L816
 12735              	.L815:
 12736              		.loc 1 2400 0 discriminator 3
 12737 0042 4FF00003 		mov	r3, #0
 12738              	.L816:
 12739              		.loc 1 2400 0 discriminator 4
 12740 0046 1846     		mov	r0, r3
 12741 0048 FFF7FEFF 		bl	assert_param
2401:../libs/StdPeripheralDriver/src/stm32f10x_tim.c ****   assert_param(IS_TIM_IC_PRESCALER(TIM_ICPSC));
 12742              		.loc 1 2401 0 is_stmt 1 discriminator 4
 12743 004c 7B88     		ldrh	r3, [r7, #2]
 12744 004e 002B     		cmp	r3, #0
 12745 0050 08D0     		beq	.L817
 12746              		.loc 1 2401 0 is_stmt 0 discriminator 2
 12747 0052 7B88     		ldrh	r3, [r7, #2]
 12748 0054 042B     		cmp	r3, #4
 12749 0056 05D0     		beq	.L817
 12750              		.loc 1 2401 0 discriminator 1
 12751 0058 7B88     		ldrh	r3, [r7, #2]
 12752 005a 082B     		cmp	r3, #8
 12753 005c 02D0     		beq	.L817
 12754              		.loc 1 2401 0 discriminator 2
 12755 005e 7B88     		ldrh	r3, [r7, #2]
 12756 0060 0C2B     		cmp	r3, #12
 12757 0062 02D1     		bne	.L818
 12758              	.L817:
 12759              		.loc 1 2401 0 discriminator 1
 12760 0064 4FF00103 		mov	r3, #1
 12761 0068 01E0     		b	.L819
 12762              	.L818:
 12763              		.loc 1 2401 0 discriminator 3
 12764 006a 4FF00003 		mov	r3, #0
 12765              	.L819:
 12766              		.loc 1 2401 0 discriminator 4
 12767 006e 1846     		mov	r0, r3
 12768 0070 FFF7FEFF 		bl	assert_param
2402:../libs/StdPeripheralDriver/src/stm32f10x_tim.c ****   /* Reset the IC3PSC Bits */
2403:../libs/StdPeripheralDriver/src/stm32f10x_tim.c ****   TIMx->CCMR2 &= (uint16_t)~((uint16_t)TIM_CCMR2_IC3PSC);
 12769              		.loc 1 2403 0 is_stmt 1 discriminator 4
 12770 0074 7B68     		ldr	r3, [r7, #4]
 12771 0076 9B8B     		ldrh	r3, [r3, #28]	@ movhi
 12772 0078 9BB2     		uxth	r3, r3
 12773 007a 23F00C03 		bic	r3, r3, #12
 12774 007e 9AB2     		uxth	r2, r3
 12775 0080 7B68     		ldr	r3, [r7, #4]
 12776 0082 9A83     		strh	r2, [r3, #28]	@ movhi
2404:../libs/StdPeripheralDriver/src/stm32f10x_tim.c ****   /* Set the IC3PSC value */
2405:../libs/StdPeripheralDriver/src/stm32f10x_tim.c ****   TIMx->CCMR2 |= TIM_ICPSC;
 12777              		.loc 1 2405 0 discriminator 4
 12778 0084 7B68     		ldr	r3, [r7, #4]
 12779 0086 9B8B     		ldrh	r3, [r3, #28]	@ movhi
 12780 0088 9AB2     		uxth	r2, r3
 12781 008a 7B88     		ldrh	r3, [r7, #2]	@ movhi
 12782 008c 1343     		orrs	r3, r3, r2
 12783 008e 9AB2     		uxth	r2, r3
 12784 0090 7B68     		ldr	r3, [r7, #4]
 12785 0092 9A83     		strh	r2, [r3, #28]	@ movhi
2406:../libs/StdPeripheralDriver/src/stm32f10x_tim.c **** }
 12786              		.loc 1 2406 0 discriminator 4
 12787 0094 07F10807 		add	r7, r7, #8
 12788 0098 BD46     		mov	sp, r7
 12789 009a 80BD     		pop	{r7, pc}
 12790              	.L821:
 12791              		.align	2
 12792              	.L820:
 12793 009c 002C0140 		.word	1073818624
 12794 00a0 00040040 		.word	1073742848
 12795 00a4 00080040 		.word	1073743872
 12796 00a8 000C0040 		.word	1073744896
 12797 00ac 00340140 		.word	1073820672
 12798              		.cfi_endproc
 12799              	.LFE103:
 12801              		.section	.text.TIM_SetIC4Prescaler,"ax",%progbits
 12802              		.align	2
 12803              		.global	TIM_SetIC4Prescaler
 12804              		.thumb
 12805              		.thumb_func
 12807              	TIM_SetIC4Prescaler:
 12808              	.LFB104:
2407:../libs/StdPeripheralDriver/src/stm32f10x_tim.c **** 
2408:../libs/StdPeripheralDriver/src/stm32f10x_tim.c **** /**
2409:../libs/StdPeripheralDriver/src/stm32f10x_tim.c ****   * @brief  Sets the TIMx Input Capture 4 prescaler.
2410:../libs/StdPeripheralDriver/src/stm32f10x_tim.c ****   * @param  TIMx: where x can be 1, 2, 3, 4, 5 or 8 to select the TIM peripheral.
2411:../libs/StdPeripheralDriver/src/stm32f10x_tim.c ****   * @param  TIM_ICPSC: specifies the Input Capture4 prescaler new value.
2412:../libs/StdPeripheralDriver/src/stm32f10x_tim.c ****   *   This parameter can be one of the following values:
2413:../libs/StdPeripheralDriver/src/stm32f10x_tim.c ****   *     @arg TIM_ICPSC_DIV1: no prescaler
2414:../libs/StdPeripheralDriver/src/stm32f10x_tim.c ****   *     @arg TIM_ICPSC_DIV2: capture is done once every 2 events
2415:../libs/StdPeripheralDriver/src/stm32f10x_tim.c ****   *     @arg TIM_ICPSC_DIV4: capture is done once every 4 events
2416:../libs/StdPeripheralDriver/src/stm32f10x_tim.c ****   *     @arg TIM_ICPSC_DIV8: capture is done once every 8 events
2417:../libs/StdPeripheralDriver/src/stm32f10x_tim.c ****   * @retval None
2418:../libs/StdPeripheralDriver/src/stm32f10x_tim.c ****   */
2419:../libs/StdPeripheralDriver/src/stm32f10x_tim.c **** void TIM_SetIC4Prescaler(TIM_TypeDef* TIMx, uint16_t TIM_ICPSC)
2420:../libs/StdPeripheralDriver/src/stm32f10x_tim.c **** {  
 12809              		.loc 1 2420 0
 12810              		.cfi_startproc
 12811              		@ args = 0, pretend = 0, frame = 8
 12812              		@ frame_needed = 1, uses_anonymous_args = 0
 12813 0000 80B5     		push	{r7, lr}
 12814              	.LCFI225:
 12815              		.cfi_def_cfa_offset 8
 12816              		.cfi_offset 7, -8
 12817              		.cfi_offset 14, -4
 12818 0002 82B0     		sub	sp, sp, #8
 12819              	.LCFI226:
 12820              		.cfi_def_cfa_offset 16
 12821 0004 00AF     		add	r7, sp, #0
 12822              	.LCFI227:
 12823              		.cfi_def_cfa_register 7
 12824 0006 7860     		str	r0, [r7, #4]
 12825 0008 0B46     		mov	r3, r1
 12826 000a 7B80     		strh	r3, [r7, #2]	@ movhi
2421:../libs/StdPeripheralDriver/src/stm32f10x_tim.c ****   /* Check the parameters */
2422:../libs/StdPeripheralDriver/src/stm32f10x_tim.c ****   assert_param(IS_TIM_LIST3_PERIPH(TIMx));
 12827              		.loc 1 2422 0
 12828 000c 7A68     		ldr	r2, [r7, #4]
 12829 000e 254B     		ldr	r3, .L829
 12830 0010 9A42     		cmp	r2, r3
 12831 0012 13D0     		beq	.L823
 12832              		.loc 1 2422 0 is_stmt 0 discriminator 2
 12833 0014 7B68     		ldr	r3, [r7, #4]
 12834 0016 B3F1804F 		cmp	r3, #1073741824
 12835 001a 0FD0     		beq	.L823
 12836              		.loc 1 2422 0 discriminator 1
 12837 001c 7A68     		ldr	r2, [r7, #4]
 12838 001e 224B     		ldr	r3, .L829+4
 12839 0020 9A42     		cmp	r2, r3
 12840 0022 0BD0     		beq	.L823
 12841              		.loc 1 2422 0 discriminator 2
 12842 0024 7A68     		ldr	r2, [r7, #4]
 12843 0026 214B     		ldr	r3, .L829+8
 12844 0028 9A42     		cmp	r2, r3
 12845 002a 07D0     		beq	.L823
 12846              		.loc 1 2422 0 discriminator 3
 12847 002c 7A68     		ldr	r2, [r7, #4]
 12848 002e 204B     		ldr	r3, .L829+12
 12849 0030 9A42     		cmp	r2, r3
 12850 0032 03D0     		beq	.L823
 12851              		.loc 1 2422 0 discriminator 4
 12852 0034 7A68     		ldr	r2, [r7, #4]
 12853 0036 1F4B     		ldr	r3, .L829+16
 12854 0038 9A42     		cmp	r2, r3
 12855 003a 02D1     		bne	.L824
 12856              	.L823:
 12857              		.loc 1 2422 0 discriminator 1
 12858 003c 4FF00103 		mov	r3, #1
 12859 0040 01E0     		b	.L825
 12860              	.L824:
 12861              		.loc 1 2422 0 discriminator 3
 12862 0042 4FF00003 		mov	r3, #0
 12863              	.L825:
 12864              		.loc 1 2422 0 discriminator 4
 12865 0046 1846     		mov	r0, r3
 12866 0048 FFF7FEFF 		bl	assert_param
2423:../libs/StdPeripheralDriver/src/stm32f10x_tim.c ****   assert_param(IS_TIM_IC_PRESCALER(TIM_ICPSC));
 12867              		.loc 1 2423 0 is_stmt 1 discriminator 4
 12868 004c 7B88     		ldrh	r3, [r7, #2]
 12869 004e 002B     		cmp	r3, #0
 12870 0050 08D0     		beq	.L826
 12871              		.loc 1 2423 0 is_stmt 0 discriminator 2
 12872 0052 7B88     		ldrh	r3, [r7, #2]
 12873 0054 042B     		cmp	r3, #4
 12874 0056 05D0     		beq	.L826
 12875              		.loc 1 2423 0 discriminator 1
 12876 0058 7B88     		ldrh	r3, [r7, #2]
 12877 005a 082B     		cmp	r3, #8
 12878 005c 02D0     		beq	.L826
 12879              		.loc 1 2423 0 discriminator 2
 12880 005e 7B88     		ldrh	r3, [r7, #2]
 12881 0060 0C2B     		cmp	r3, #12
 12882 0062 02D1     		bne	.L827
 12883              	.L826:
 12884              		.loc 1 2423 0 discriminator 1
 12885 0064 4FF00103 		mov	r3, #1
 12886 0068 01E0     		b	.L828
 12887              	.L827:
 12888              		.loc 1 2423 0 discriminator 3
 12889 006a 4FF00003 		mov	r3, #0
 12890              	.L828:
 12891              		.loc 1 2423 0 discriminator 4
 12892 006e 1846     		mov	r0, r3
 12893 0070 FFF7FEFF 		bl	assert_param
2424:../libs/StdPeripheralDriver/src/stm32f10x_tim.c ****   /* Reset the IC4PSC Bits */
2425:../libs/StdPeripheralDriver/src/stm32f10x_tim.c ****   TIMx->CCMR2 &= (uint16_t)~((uint16_t)TIM_CCMR2_IC4PSC);
 12894              		.loc 1 2425 0 is_stmt 1 discriminator 4
 12895 0074 7B68     		ldr	r3, [r7, #4]
 12896 0076 9B8B     		ldrh	r3, [r3, #28]	@ movhi
 12897 0078 9BB2     		uxth	r3, r3
 12898 007a 23F44063 		bic	r3, r3, #3072
 12899 007e 9AB2     		uxth	r2, r3
 12900 0080 7B68     		ldr	r3, [r7, #4]
 12901 0082 9A83     		strh	r2, [r3, #28]	@ movhi
2426:../libs/StdPeripheralDriver/src/stm32f10x_tim.c ****   /* Set the IC4PSC value */
2427:../libs/StdPeripheralDriver/src/stm32f10x_tim.c ****   TIMx->CCMR2 |= (uint16_t)(TIM_ICPSC << 8);
 12902              		.loc 1 2427 0 discriminator 4
 12903 0084 7B68     		ldr	r3, [r7, #4]
 12904 0086 9B8B     		ldrh	r3, [r3, #28]	@ movhi
 12905 0088 9AB2     		uxth	r2, r3
 12906 008a 7B88     		ldrh	r3, [r7, #2]	@ movhi
 12907 008c 4FEA0323 		lsl	r3, r3, #8
 12908 0090 9BB2     		uxth	r3, r3
 12909 0092 1343     		orrs	r3, r3, r2
 12910 0094 9AB2     		uxth	r2, r3
 12911 0096 7B68     		ldr	r3, [r7, #4]
 12912 0098 9A83     		strh	r2, [r3, #28]	@ movhi
2428:../libs/StdPeripheralDriver/src/stm32f10x_tim.c **** }
 12913              		.loc 1 2428 0 discriminator 4
 12914 009a 07F10807 		add	r7, r7, #8
 12915 009e BD46     		mov	sp, r7
 12916 00a0 80BD     		pop	{r7, pc}
 12917              	.L830:
 12918 00a2 00BF     		.align	2
 12919              	.L829:
 12920 00a4 002C0140 		.word	1073818624
 12921 00a8 00040040 		.word	1073742848
 12922 00ac 00080040 		.word	1073743872
 12923 00b0 000C0040 		.word	1073744896
 12924 00b4 00340140 		.word	1073820672
 12925              		.cfi_endproc
 12926              	.LFE104:
 12928              		.section	.text.TIM_SetClockDivision,"ax",%progbits
 12929              		.align	2
 12930              		.global	TIM_SetClockDivision
 12931              		.thumb
 12932              		.thumb_func
 12934              	TIM_SetClockDivision:
 12935              	.LFB105:
2429:../libs/StdPeripheralDriver/src/stm32f10x_tim.c **** 
2430:../libs/StdPeripheralDriver/src/stm32f10x_tim.c **** /**
2431:../libs/StdPeripheralDriver/src/stm32f10x_tim.c ****   * @brief  Sets the TIMx Clock Division value.
2432:../libs/StdPeripheralDriver/src/stm32f10x_tim.c ****   * @param  TIMx: where x can be  1 to 17 except 6 and 7 to select 
2433:../libs/StdPeripheralDriver/src/stm32f10x_tim.c ****   *   the TIM peripheral.
2434:../libs/StdPeripheralDriver/src/stm32f10x_tim.c ****   * @param  TIM_CKD: specifies the clock division value.
2435:../libs/StdPeripheralDriver/src/stm32f10x_tim.c ****   *   This parameter can be one of the following value:
2436:../libs/StdPeripheralDriver/src/stm32f10x_tim.c ****   *     @arg TIM_CKD_DIV1: TDTS = Tck_tim
2437:../libs/StdPeripheralDriver/src/stm32f10x_tim.c ****   *     @arg TIM_CKD_DIV2: TDTS = 2*Tck_tim
2438:../libs/StdPeripheralDriver/src/stm32f10x_tim.c ****   *     @arg TIM_CKD_DIV4: TDTS = 4*Tck_tim
2439:../libs/StdPeripheralDriver/src/stm32f10x_tim.c ****   * @retval None
2440:../libs/StdPeripheralDriver/src/stm32f10x_tim.c ****   */
2441:../libs/StdPeripheralDriver/src/stm32f10x_tim.c **** void TIM_SetClockDivision(TIM_TypeDef* TIMx, uint16_t TIM_CKD)
2442:../libs/StdPeripheralDriver/src/stm32f10x_tim.c **** {
 12936              		.loc 1 2442 0
 12937              		.cfi_startproc
 12938              		@ args = 0, pretend = 0, frame = 8
 12939              		@ frame_needed = 1, uses_anonymous_args = 0
 12940 0000 80B5     		push	{r7, lr}
 12941              	.LCFI228:
 12942              		.cfi_def_cfa_offset 8
 12943              		.cfi_offset 7, -8
 12944              		.cfi_offset 14, -4
 12945 0002 82B0     		sub	sp, sp, #8
 12946              	.LCFI229:
 12947              		.cfi_def_cfa_offset 16
 12948 0004 00AF     		add	r7, sp, #0
 12949              	.LCFI230:
 12950              		.cfi_def_cfa_register 7
 12951 0006 7860     		str	r0, [r7, #4]
 12952 0008 0B46     		mov	r3, r1
 12953 000a 7B80     		strh	r3, [r7, #2]	@ movhi
2443:../libs/StdPeripheralDriver/src/stm32f10x_tim.c ****   /* Check the parameters */
2444:../libs/StdPeripheralDriver/src/stm32f10x_tim.c ****   assert_param(IS_TIM_LIST8_PERIPH(TIMx));
 12954              		.loc 1 2444 0
 12955 000c 7A68     		ldr	r2, [r7, #4]
 12956 000e 354B     		ldr	r3, .L838
 12957 0010 9A42     		cmp	r2, r3
 12958 0012 37D0     		beq	.L832
 12959              		.loc 1 2444 0 is_stmt 0 discriminator 2
 12960 0014 7B68     		ldr	r3, [r7, #4]
 12961 0016 B3F1804F 		cmp	r3, #1073741824
 12962 001a 33D0     		beq	.L832
 12963              		.loc 1 2444 0 discriminator 1
 12964 001c 7A68     		ldr	r2, [r7, #4]
 12965 001e 324B     		ldr	r3, .L838+4
 12966 0020 9A42     		cmp	r2, r3
 12967 0022 2FD0     		beq	.L832
 12968              		.loc 1 2444 0 discriminator 2
 12969 0024 7A68     		ldr	r2, [r7, #4]
 12970 0026 314B     		ldr	r3, .L838+8
 12971 0028 9A42     		cmp	r2, r3
 12972 002a 2BD0     		beq	.L832
 12973              		.loc 1 2444 0 discriminator 3
 12974 002c 7A68     		ldr	r2, [r7, #4]
 12975 002e 304B     		ldr	r3, .L838+12
 12976 0030 9A42     		cmp	r2, r3
 12977 0032 27D0     		beq	.L832
 12978              		.loc 1 2444 0 discriminator 4
 12979 0034 7A68     		ldr	r2, [r7, #4]
 12980 0036 2F4B     		ldr	r3, .L838+16
 12981 0038 9A42     		cmp	r2, r3
 12982 003a 23D0     		beq	.L832
 12983              		.loc 1 2444 0 discriminator 5
 12984 003c 7A68     		ldr	r2, [r7, #4]
 12985 003e 2E4B     		ldr	r3, .L838+20
 12986 0040 9A42     		cmp	r2, r3
 12987 0042 1FD0     		beq	.L832
 12988              		.loc 1 2444 0 discriminator 6
 12989 0044 7A68     		ldr	r2, [r7, #4]
 12990 0046 2D4B     		ldr	r3, .L838+24
 12991 0048 9A42     		cmp	r2, r3
 12992 004a 1BD0     		beq	.L832
 12993              		.loc 1 2444 0 discriminator 7
 12994 004c 7A68     		ldr	r2, [r7, #4]
 12995 004e 2C4B     		ldr	r3, .L838+28
 12996 0050 9A42     		cmp	r2, r3
 12997 0052 17D0     		beq	.L832
 12998              		.loc 1 2444 0 discriminator 8
 12999 0054 7A68     		ldr	r2, [r7, #4]
 13000 0056 2B4B     		ldr	r3, .L838+32
 13001 0058 9A42     		cmp	r2, r3
 13002 005a 13D0     		beq	.L832
 13003              		.loc 1 2444 0 discriminator 9
 13004 005c 7A68     		ldr	r2, [r7, #4]
 13005 005e 2A4B     		ldr	r3, .L838+36
 13006 0060 9A42     		cmp	r2, r3
 13007 0062 0FD0     		beq	.L832
 13008              		.loc 1 2444 0 discriminator 10
 13009 0064 7A68     		ldr	r2, [r7, #4]
 13010 0066 294B     		ldr	r3, .L838+40
 13011 0068 9A42     		cmp	r2, r3
 13012 006a 0BD0     		beq	.L832
 13013              		.loc 1 2444 0 discriminator 11
 13014 006c 7A68     		ldr	r2, [r7, #4]
 13015 006e 284B     		ldr	r3, .L838+44
 13016 0070 9A42     		cmp	r2, r3
 13017 0072 07D0     		beq	.L832
 13018              		.loc 1 2444 0 discriminator 12
 13019 0074 7A68     		ldr	r2, [r7, #4]
 13020 0076 274B     		ldr	r3, .L838+48
 13021 0078 9A42     		cmp	r2, r3
 13022 007a 03D0     		beq	.L832
 13023              		.loc 1 2444 0 discriminator 13
 13024 007c 7A68     		ldr	r2, [r7, #4]
 13025 007e 264B     		ldr	r3, .L838+52
 13026 0080 9A42     		cmp	r2, r3
 13027 0082 02D1     		bne	.L833
 13028              	.L832:
 13029              		.loc 1 2444 0 discriminator 1
 13030 0084 4FF00103 		mov	r3, #1
 13031 0088 01E0     		b	.L834
 13032              	.L833:
 13033              		.loc 1 2444 0 discriminator 3
 13034 008a 4FF00003 		mov	r3, #0
 13035              	.L834:
 13036              		.loc 1 2444 0 discriminator 4
 13037 008e 1846     		mov	r0, r3
 13038 0090 FFF7FEFF 		bl	assert_param
2445:../libs/StdPeripheralDriver/src/stm32f10x_tim.c ****   assert_param(IS_TIM_CKD_DIV(TIM_CKD));
 13039              		.loc 1 2445 0 is_stmt 1 discriminator 4
 13040 0094 7B88     		ldrh	r3, [r7, #2]
 13041 0096 002B     		cmp	r3, #0
 13042 0098 07D0     		beq	.L835
 13043              		.loc 1 2445 0 is_stmt 0 discriminator 2
 13044 009a 7B88     		ldrh	r3, [r7, #2]
 13045 009c B3F5807F 		cmp	r3, #256
 13046 00a0 03D0     		beq	.L835
 13047              		.loc 1 2445 0 discriminator 1
 13048 00a2 7B88     		ldrh	r3, [r7, #2]
 13049 00a4 B3F5007F 		cmp	r3, #512
 13050 00a8 02D1     		bne	.L836
 13051              	.L835:
 13052 00aa 4FF00103 		mov	r3, #1
 13053 00ae 01E0     		b	.L837
 13054              	.L836:
 13055              		.loc 1 2445 0 discriminator 3
 13056 00b0 4FF00003 		mov	r3, #0
 13057              	.L837:
 13058              		.loc 1 2445 0 discriminator 4
 13059 00b4 1846     		mov	r0, r3
 13060 00b6 FFF7FEFF 		bl	assert_param
2446:../libs/StdPeripheralDriver/src/stm32f10x_tim.c ****   /* Reset the CKD Bits */
2447:../libs/StdPeripheralDriver/src/stm32f10x_tim.c ****   TIMx->CR1 &= (uint16_t)~((uint16_t)TIM_CR1_CKD);
 13061              		.loc 1 2447 0 is_stmt 1 discriminator 4
 13062 00ba 7B68     		ldr	r3, [r7, #4]
 13063 00bc 1B88     		ldrh	r3, [r3, #0]	@ movhi
 13064 00be 9BB2     		uxth	r3, r3
 13065 00c0 23F44073 		bic	r3, r3, #768
 13066 00c4 9AB2     		uxth	r2, r3
 13067 00c6 7B68     		ldr	r3, [r7, #4]
 13068 00c8 1A80     		strh	r2, [r3, #0]	@ movhi
2448:../libs/StdPeripheralDriver/src/stm32f10x_tim.c ****   /* Set the CKD value */
2449:../libs/StdPeripheralDriver/src/stm32f10x_tim.c ****   TIMx->CR1 |= TIM_CKD;
 13069              		.loc 1 2449 0 discriminator 4
 13070 00ca 7B68     		ldr	r3, [r7, #4]
 13071 00cc 1B88     		ldrh	r3, [r3, #0]	@ movhi
 13072 00ce 9AB2     		uxth	r2, r3
 13073 00d0 7B88     		ldrh	r3, [r7, #2]	@ movhi
 13074 00d2 1343     		orrs	r3, r3, r2
 13075 00d4 9AB2     		uxth	r2, r3
 13076 00d6 7B68     		ldr	r3, [r7, #4]
 13077 00d8 1A80     		strh	r2, [r3, #0]	@ movhi
2450:../libs/StdPeripheralDriver/src/stm32f10x_tim.c **** }
 13078              		.loc 1 2450 0 discriminator 4
 13079 00da 07F10807 		add	r7, r7, #8
 13080 00de BD46     		mov	sp, r7
 13081 00e0 80BD     		pop	{r7, pc}
 13082              	.L839:
 13083 00e2 00BF     		.align	2
 13084              	.L838:
 13085 00e4 002C0140 		.word	1073818624
 13086 00e8 00040040 		.word	1073742848
 13087 00ec 00080040 		.word	1073743872
 13088 00f0 000C0040 		.word	1073744896
 13089 00f4 00340140 		.word	1073820672
 13090 00f8 004C0140 		.word	1073826816
 13091 00fc 00500140 		.word	1073827840
 13092 0100 00540140 		.word	1073828864
 13093 0104 00180040 		.word	1073747968
 13094 0108 001C0040 		.word	1073748992
 13095 010c 00200040 		.word	1073750016
 13096 0110 00400140 		.word	1073823744
 13097 0114 00440140 		.word	1073824768
 13098 0118 00480140 		.word	1073825792
 13099              		.cfi_endproc
 13100              	.LFE105:
 13102              		.section	.text.TIM_GetCapture1,"ax",%progbits
 13103              		.align	2
 13104              		.global	TIM_GetCapture1
 13105              		.thumb
 13106              		.thumb_func
 13108              	TIM_GetCapture1:
 13109              	.LFB106:
2451:../libs/StdPeripheralDriver/src/stm32f10x_tim.c **** 
2452:../libs/StdPeripheralDriver/src/stm32f10x_tim.c **** /**
2453:../libs/StdPeripheralDriver/src/stm32f10x_tim.c ****   * @brief  Gets the TIMx Input Capture 1 value.
2454:../libs/StdPeripheralDriver/src/stm32f10x_tim.c ****   * @param  TIMx: where x can be 1 to 17 except 6 and 7 to select the TIM peripheral.
2455:../libs/StdPeripheralDriver/src/stm32f10x_tim.c ****   * @retval Capture Compare 1 Register value.
2456:../libs/StdPeripheralDriver/src/stm32f10x_tim.c ****   */
2457:../libs/StdPeripheralDriver/src/stm32f10x_tim.c **** uint16_t TIM_GetCapture1(TIM_TypeDef* TIMx)
2458:../libs/StdPeripheralDriver/src/stm32f10x_tim.c **** {
 13110              		.loc 1 2458 0
 13111              		.cfi_startproc
 13112              		@ args = 0, pretend = 0, frame = 8
 13113              		@ frame_needed = 1, uses_anonymous_args = 0
 13114 0000 80B5     		push	{r7, lr}
 13115              	.LCFI231:
 13116              		.cfi_def_cfa_offset 8
 13117              		.cfi_offset 7, -8
 13118              		.cfi_offset 14, -4
 13119 0002 82B0     		sub	sp, sp, #8
 13120              	.LCFI232:
 13121              		.cfi_def_cfa_offset 16
 13122 0004 00AF     		add	r7, sp, #0
 13123              	.LCFI233:
 13124              		.cfi_def_cfa_register 7
 13125 0006 7860     		str	r0, [r7, #4]
2459:../libs/StdPeripheralDriver/src/stm32f10x_tim.c ****   /* Check the parameters */
2460:../libs/StdPeripheralDriver/src/stm32f10x_tim.c ****   assert_param(IS_TIM_LIST8_PERIPH(TIMx));
 13126              		.loc 1 2460 0
 13127 0008 7A68     		ldr	r2, [r7, #4]
 13128 000a 254B     		ldr	r3, .L845
 13129 000c 9A42     		cmp	r2, r3
 13130 000e 37D0     		beq	.L841
 13131              		.loc 1 2460 0 is_stmt 0 discriminator 2
 13132 0010 7B68     		ldr	r3, [r7, #4]
 13133 0012 B3F1804F 		cmp	r3, #1073741824
 13134 0016 33D0     		beq	.L841
 13135              		.loc 1 2460 0 discriminator 1
 13136 0018 7A68     		ldr	r2, [r7, #4]
 13137 001a 224B     		ldr	r3, .L845+4
 13138 001c 9A42     		cmp	r2, r3
 13139 001e 2FD0     		beq	.L841
 13140              		.loc 1 2460 0 discriminator 2
 13141 0020 7A68     		ldr	r2, [r7, #4]
 13142 0022 214B     		ldr	r3, .L845+8
 13143 0024 9A42     		cmp	r2, r3
 13144 0026 2BD0     		beq	.L841
 13145              		.loc 1 2460 0 discriminator 3
 13146 0028 7A68     		ldr	r2, [r7, #4]
 13147 002a 204B     		ldr	r3, .L845+12
 13148 002c 9A42     		cmp	r2, r3
 13149 002e 27D0     		beq	.L841
 13150              		.loc 1 2460 0 discriminator 4
 13151 0030 7A68     		ldr	r2, [r7, #4]
 13152 0032 1F4B     		ldr	r3, .L845+16
 13153 0034 9A42     		cmp	r2, r3
 13154 0036 23D0     		beq	.L841
 13155              		.loc 1 2460 0 discriminator 5
 13156 0038 7A68     		ldr	r2, [r7, #4]
 13157 003a 1E4B     		ldr	r3, .L845+20
 13158 003c 9A42     		cmp	r2, r3
 13159 003e 1FD0     		beq	.L841
 13160              		.loc 1 2460 0 discriminator 6
 13161 0040 7A68     		ldr	r2, [r7, #4]
 13162 0042 1D4B     		ldr	r3, .L845+24
 13163 0044 9A42     		cmp	r2, r3
 13164 0046 1BD0     		beq	.L841
 13165              		.loc 1 2460 0 discriminator 7
 13166 0048 7A68     		ldr	r2, [r7, #4]
 13167 004a 1C4B     		ldr	r3, .L845+28
 13168 004c 9A42     		cmp	r2, r3
 13169 004e 17D0     		beq	.L841
 13170              		.loc 1 2460 0 discriminator 8
 13171 0050 7A68     		ldr	r2, [r7, #4]
 13172 0052 1B4B     		ldr	r3, .L845+32
 13173 0054 9A42     		cmp	r2, r3
 13174 0056 13D0     		beq	.L841
 13175              		.loc 1 2460 0 discriminator 9
 13176 0058 7A68     		ldr	r2, [r7, #4]
 13177 005a 1A4B     		ldr	r3, .L845+36
 13178 005c 9A42     		cmp	r2, r3
 13179 005e 0FD0     		beq	.L841
 13180              		.loc 1 2460 0 discriminator 10
 13181 0060 7A68     		ldr	r2, [r7, #4]
 13182 0062 194B     		ldr	r3, .L845+40
 13183 0064 9A42     		cmp	r2, r3
 13184 0066 0BD0     		beq	.L841
 13185              		.loc 1 2460 0 discriminator 11
 13186 0068 7A68     		ldr	r2, [r7, #4]
 13187 006a 184B     		ldr	r3, .L845+44
 13188 006c 9A42     		cmp	r2, r3
 13189 006e 07D0     		beq	.L841
 13190              		.loc 1 2460 0 discriminator 12
 13191 0070 7A68     		ldr	r2, [r7, #4]
 13192 0072 174B     		ldr	r3, .L845+48
 13193 0074 9A42     		cmp	r2, r3
 13194 0076 03D0     		beq	.L841
 13195              		.loc 1 2460 0 discriminator 13
 13196 0078 7A68     		ldr	r2, [r7, #4]
 13197 007a 164B     		ldr	r3, .L845+52
 13198 007c 9A42     		cmp	r2, r3
 13199 007e 02D1     		bne	.L842
 13200              	.L841:
 13201              		.loc 1 2460 0 discriminator 1
 13202 0080 4FF00103 		mov	r3, #1
 13203 0084 01E0     		b	.L843
 13204              	.L842:
 13205              		.loc 1 2460 0 discriminator 3
 13206 0086 4FF00003 		mov	r3, #0
 13207              	.L843:
 13208              		.loc 1 2460 0 discriminator 4
 13209 008a 1846     		mov	r0, r3
 13210 008c FFF7FEFF 		bl	assert_param
2461:../libs/StdPeripheralDriver/src/stm32f10x_tim.c ****   /* Get the Capture 1 Register value */
2462:../libs/StdPeripheralDriver/src/stm32f10x_tim.c ****   return TIMx->CCR1;
 13211              		.loc 1 2462 0 is_stmt 1 discriminator 4
 13212 0090 7B68     		ldr	r3, [r7, #4]
 13213 0092 9B8E     		ldrh	r3, [r3, #52]	@ movhi
 13214 0094 9BB2     		uxth	r3, r3
2463:../libs/StdPeripheralDriver/src/stm32f10x_tim.c **** }
 13215              		.loc 1 2463 0 discriminator 4
 13216 0096 1846     		mov	r0, r3
 13217 0098 07F10807 		add	r7, r7, #8
 13218 009c BD46     		mov	sp, r7
 13219 009e 80BD     		pop	{r7, pc}
 13220              	.L846:
 13221              		.align	2
 13222              	.L845:
 13223 00a0 002C0140 		.word	1073818624
 13224 00a4 00040040 		.word	1073742848
 13225 00a8 00080040 		.word	1073743872
 13226 00ac 000C0040 		.word	1073744896
 13227 00b0 00340140 		.word	1073820672
 13228 00b4 004C0140 		.word	1073826816
 13229 00b8 00500140 		.word	1073827840
 13230 00bc 00540140 		.word	1073828864
 13231 00c0 00180040 		.word	1073747968
 13232 00c4 001C0040 		.word	1073748992
 13233 00c8 00200040 		.word	1073750016
 13234 00cc 00400140 		.word	1073823744
 13235 00d0 00440140 		.word	1073824768
 13236 00d4 00480140 		.word	1073825792
 13237              		.cfi_endproc
 13238              	.LFE106:
 13240              		.section	.text.TIM_GetCapture2,"ax",%progbits
 13241              		.align	2
 13242              		.global	TIM_GetCapture2
 13243              		.thumb
 13244              		.thumb_func
 13246              	TIM_GetCapture2:
 13247              	.LFB107:
2464:../libs/StdPeripheralDriver/src/stm32f10x_tim.c **** 
2465:../libs/StdPeripheralDriver/src/stm32f10x_tim.c **** /**
2466:../libs/StdPeripheralDriver/src/stm32f10x_tim.c ****   * @brief  Gets the TIMx Input Capture 2 value.
2467:../libs/StdPeripheralDriver/src/stm32f10x_tim.c ****   * @param  TIMx: where x can be 1, 2, 3, 4, 5, 8, 9, 12 or 15 to select the TIM peripheral.
2468:../libs/StdPeripheralDriver/src/stm32f10x_tim.c ****   * @retval Capture Compare 2 Register value.
2469:../libs/StdPeripheralDriver/src/stm32f10x_tim.c ****   */
2470:../libs/StdPeripheralDriver/src/stm32f10x_tim.c **** uint16_t TIM_GetCapture2(TIM_TypeDef* TIMx)
2471:../libs/StdPeripheralDriver/src/stm32f10x_tim.c **** {
 13248              		.loc 1 2471 0
 13249              		.cfi_startproc
 13250              		@ args = 0, pretend = 0, frame = 8
 13251              		@ frame_needed = 1, uses_anonymous_args = 0
 13252 0000 80B5     		push	{r7, lr}
 13253              	.LCFI234:
 13254              		.cfi_def_cfa_offset 8
 13255              		.cfi_offset 7, -8
 13256              		.cfi_offset 14, -4
 13257 0002 82B0     		sub	sp, sp, #8
 13258              	.LCFI235:
 13259              		.cfi_def_cfa_offset 16
 13260 0004 00AF     		add	r7, sp, #0
 13261              	.LCFI236:
 13262              		.cfi_def_cfa_register 7
 13263 0006 7860     		str	r0, [r7, #4]
2472:../libs/StdPeripheralDriver/src/stm32f10x_tim.c ****   /* Check the parameters */
2473:../libs/StdPeripheralDriver/src/stm32f10x_tim.c ****   assert_param(IS_TIM_LIST6_PERIPH(TIMx));
 13264              		.loc 1 2473 0
 13265 0008 7A68     		ldr	r2, [r7, #4]
 13266 000a 194B     		ldr	r3, .L852
 13267 000c 9A42     		cmp	r2, r3
 13268 000e 1FD0     		beq	.L848
 13269              		.loc 1 2473 0 is_stmt 0 discriminator 2
 13270 0010 7B68     		ldr	r3, [r7, #4]
 13271 0012 B3F1804F 		cmp	r3, #1073741824
 13272 0016 1BD0     		beq	.L848
 13273              		.loc 1 2473 0 discriminator 1
 13274 0018 7A68     		ldr	r2, [r7, #4]
 13275 001a 164B     		ldr	r3, .L852+4
 13276 001c 9A42     		cmp	r2, r3
 13277 001e 17D0     		beq	.L848
 13278              		.loc 1 2473 0 discriminator 2
 13279 0020 7A68     		ldr	r2, [r7, #4]
 13280 0022 154B     		ldr	r3, .L852+8
 13281 0024 9A42     		cmp	r2, r3
 13282 0026 13D0     		beq	.L848
 13283              		.loc 1 2473 0 discriminator 3
 13284 0028 7A68     		ldr	r2, [r7, #4]
 13285 002a 144B     		ldr	r3, .L852+12
 13286 002c 9A42     		cmp	r2, r3
 13287 002e 0FD0     		beq	.L848
 13288              		.loc 1 2473 0 discriminator 4
 13289 0030 7A68     		ldr	r2, [r7, #4]
 13290 0032 134B     		ldr	r3, .L852+16
 13291 0034 9A42     		cmp	r2, r3
 13292 0036 0BD0     		beq	.L848
 13293              		.loc 1 2473 0 discriminator 5
 13294 0038 7A68     		ldr	r2, [r7, #4]
 13295 003a 124B     		ldr	r3, .L852+20
 13296 003c 9A42     		cmp	r2, r3
 13297 003e 07D0     		beq	.L848
 13298              		.loc 1 2473 0 discriminator 6
 13299 0040 7A68     		ldr	r2, [r7, #4]
 13300 0042 114B     		ldr	r3, .L852+24
 13301 0044 9A42     		cmp	r2, r3
 13302 0046 03D0     		beq	.L848
 13303              		.loc 1 2473 0 discriminator 7
 13304 0048 7A68     		ldr	r2, [r7, #4]
 13305 004a 104B     		ldr	r3, .L852+28
 13306 004c 9A42     		cmp	r2, r3
 13307 004e 02D1     		bne	.L849
 13308              	.L848:
 13309              		.loc 1 2473 0 discriminator 1
 13310 0050 4FF00103 		mov	r3, #1
 13311 0054 01E0     		b	.L850
 13312              	.L849:
 13313              		.loc 1 2473 0 discriminator 3
 13314 0056 4FF00003 		mov	r3, #0
 13315              	.L850:
 13316              		.loc 1 2473 0 discriminator 4
 13317 005a 1846     		mov	r0, r3
 13318 005c FFF7FEFF 		bl	assert_param
2474:../libs/StdPeripheralDriver/src/stm32f10x_tim.c ****   /* Get the Capture 2 Register value */
2475:../libs/StdPeripheralDriver/src/stm32f10x_tim.c ****   return TIMx->CCR2;
 13319              		.loc 1 2475 0 is_stmt 1 discriminator 4
 13320 0060 7B68     		ldr	r3, [r7, #4]
 13321 0062 1B8F     		ldrh	r3, [r3, #56]	@ movhi
 13322 0064 9BB2     		uxth	r3, r3
2476:../libs/StdPeripheralDriver/src/stm32f10x_tim.c **** }
 13323              		.loc 1 2476 0 discriminator 4
 13324 0066 1846     		mov	r0, r3
 13325 0068 07F10807 		add	r7, r7, #8
 13326 006c BD46     		mov	sp, r7
 13327 006e 80BD     		pop	{r7, pc}
 13328              	.L853:
 13329              		.align	2
 13330              	.L852:
 13331 0070 002C0140 		.word	1073818624
 13332 0074 00040040 		.word	1073742848
 13333 0078 00080040 		.word	1073743872
 13334 007c 000C0040 		.word	1073744896
 13335 0080 00340140 		.word	1073820672
 13336 0084 004C0140 		.word	1073826816
 13337 0088 00180040 		.word	1073747968
 13338 008c 00400140 		.word	1073823744
 13339              		.cfi_endproc
 13340              	.LFE107:
 13342              		.section	.text.TIM_GetCapture3,"ax",%progbits
 13343              		.align	2
 13344              		.global	TIM_GetCapture3
 13345              		.thumb
 13346              		.thumb_func
 13348              	TIM_GetCapture3:
 13349              	.LFB108:
2477:../libs/StdPeripheralDriver/src/stm32f10x_tim.c **** 
2478:../libs/StdPeripheralDriver/src/stm32f10x_tim.c **** /**
2479:../libs/StdPeripheralDriver/src/stm32f10x_tim.c ****   * @brief  Gets the TIMx Input Capture 3 value.
2480:../libs/StdPeripheralDriver/src/stm32f10x_tim.c ****   * @param  TIMx: where x can be 1, 2, 3, 4, 5 or 8 to select the TIM peripheral.
2481:../libs/StdPeripheralDriver/src/stm32f10x_tim.c ****   * @retval Capture Compare 3 Register value.
2482:../libs/StdPeripheralDriver/src/stm32f10x_tim.c ****   */
2483:../libs/StdPeripheralDriver/src/stm32f10x_tim.c **** uint16_t TIM_GetCapture3(TIM_TypeDef* TIMx)
2484:../libs/StdPeripheralDriver/src/stm32f10x_tim.c **** {
 13350              		.loc 1 2484 0
 13351              		.cfi_startproc
 13352              		@ args = 0, pretend = 0, frame = 8
 13353              		@ frame_needed = 1, uses_anonymous_args = 0
 13354 0000 80B5     		push	{r7, lr}
 13355              	.LCFI237:
 13356              		.cfi_def_cfa_offset 8
 13357              		.cfi_offset 7, -8
 13358              		.cfi_offset 14, -4
 13359 0002 82B0     		sub	sp, sp, #8
 13360              	.LCFI238:
 13361              		.cfi_def_cfa_offset 16
 13362 0004 00AF     		add	r7, sp, #0
 13363              	.LCFI239:
 13364              		.cfi_def_cfa_register 7
 13365 0006 7860     		str	r0, [r7, #4]
2485:../libs/StdPeripheralDriver/src/stm32f10x_tim.c ****   /* Check the parameters */
2486:../libs/StdPeripheralDriver/src/stm32f10x_tim.c ****   assert_param(IS_TIM_LIST3_PERIPH(TIMx)); 
 13366              		.loc 1 2486 0
 13367 0008 7A68     		ldr	r2, [r7, #4]
 13368 000a 134B     		ldr	r3, .L859
 13369 000c 9A42     		cmp	r2, r3
 13370 000e 13D0     		beq	.L855
 13371              		.loc 1 2486 0 is_stmt 0 discriminator 2
 13372 0010 7B68     		ldr	r3, [r7, #4]
 13373 0012 B3F1804F 		cmp	r3, #1073741824
 13374 0016 0FD0     		beq	.L855
 13375              		.loc 1 2486 0 discriminator 1
 13376 0018 7A68     		ldr	r2, [r7, #4]
 13377 001a 104B     		ldr	r3, .L859+4
 13378 001c 9A42     		cmp	r2, r3
 13379 001e 0BD0     		beq	.L855
 13380              		.loc 1 2486 0 discriminator 2
 13381 0020 7A68     		ldr	r2, [r7, #4]
 13382 0022 0F4B     		ldr	r3, .L859+8
 13383 0024 9A42     		cmp	r2, r3
 13384 0026 07D0     		beq	.L855
 13385              		.loc 1 2486 0 discriminator 3
 13386 0028 7A68     		ldr	r2, [r7, #4]
 13387 002a 0E4B     		ldr	r3, .L859+12
 13388 002c 9A42     		cmp	r2, r3
 13389 002e 03D0     		beq	.L855
 13390              		.loc 1 2486 0 discriminator 4
 13391 0030 7A68     		ldr	r2, [r7, #4]
 13392 0032 0D4B     		ldr	r3, .L859+16
 13393 0034 9A42     		cmp	r2, r3
 13394 0036 02D1     		bne	.L856
 13395              	.L855:
 13396              		.loc 1 2486 0 discriminator 1
 13397 0038 4FF00103 		mov	r3, #1
 13398 003c 01E0     		b	.L857
 13399              	.L856:
 13400              		.loc 1 2486 0 discriminator 3
 13401 003e 4FF00003 		mov	r3, #0
 13402              	.L857:
 13403              		.loc 1 2486 0 discriminator 4
 13404 0042 1846     		mov	r0, r3
 13405 0044 FFF7FEFF 		bl	assert_param
2487:../libs/StdPeripheralDriver/src/stm32f10x_tim.c ****   /* Get the Capture 3 Register value */
2488:../libs/StdPeripheralDriver/src/stm32f10x_tim.c ****   return TIMx->CCR3;
 13406              		.loc 1 2488 0 is_stmt 1 discriminator 4
 13407 0048 7B68     		ldr	r3, [r7, #4]
 13408 004a 9B8F     		ldrh	r3, [r3, #60]	@ movhi
 13409 004c 9BB2     		uxth	r3, r3
2489:../libs/StdPeripheralDriver/src/stm32f10x_tim.c **** }
 13410              		.loc 1 2489 0 discriminator 4
 13411 004e 1846     		mov	r0, r3
 13412 0050 07F10807 		add	r7, r7, #8
 13413 0054 BD46     		mov	sp, r7
 13414 0056 80BD     		pop	{r7, pc}
 13415              	.L860:
 13416              		.align	2
 13417              	.L859:
 13418 0058 002C0140 		.word	1073818624
 13419 005c 00040040 		.word	1073742848
 13420 0060 00080040 		.word	1073743872
 13421 0064 000C0040 		.word	1073744896
 13422 0068 00340140 		.word	1073820672
 13423              		.cfi_endproc
 13424              	.LFE108:
 13426              		.section	.text.TIM_GetCapture4,"ax",%progbits
 13427              		.align	2
 13428              		.global	TIM_GetCapture4
 13429              		.thumb
 13430              		.thumb_func
 13432              	TIM_GetCapture4:
 13433              	.LFB109:
2490:../libs/StdPeripheralDriver/src/stm32f10x_tim.c **** 
2491:../libs/StdPeripheralDriver/src/stm32f10x_tim.c **** /**
2492:../libs/StdPeripheralDriver/src/stm32f10x_tim.c ****   * @brief  Gets the TIMx Input Capture 4 value.
2493:../libs/StdPeripheralDriver/src/stm32f10x_tim.c ****   * @param  TIMx: where x can be 1, 2, 3, 4, 5 or 8 to select the TIM peripheral.
2494:../libs/StdPeripheralDriver/src/stm32f10x_tim.c ****   * @retval Capture Compare 4 Register value.
2495:../libs/StdPeripheralDriver/src/stm32f10x_tim.c ****   */
2496:../libs/StdPeripheralDriver/src/stm32f10x_tim.c **** uint16_t TIM_GetCapture4(TIM_TypeDef* TIMx)
2497:../libs/StdPeripheralDriver/src/stm32f10x_tim.c **** {
 13434              		.loc 1 2497 0
 13435              		.cfi_startproc
 13436              		@ args = 0, pretend = 0, frame = 8
 13437              		@ frame_needed = 1, uses_anonymous_args = 0
 13438 0000 80B5     		push	{r7, lr}
 13439              	.LCFI240:
 13440              		.cfi_def_cfa_offset 8
 13441              		.cfi_offset 7, -8
 13442              		.cfi_offset 14, -4
 13443 0002 82B0     		sub	sp, sp, #8
 13444              	.LCFI241:
 13445              		.cfi_def_cfa_offset 16
 13446 0004 00AF     		add	r7, sp, #0
 13447              	.LCFI242:
 13448              		.cfi_def_cfa_register 7
 13449 0006 7860     		str	r0, [r7, #4]
2498:../libs/StdPeripheralDriver/src/stm32f10x_tim.c ****   /* Check the parameters */
2499:../libs/StdPeripheralDriver/src/stm32f10x_tim.c ****   assert_param(IS_TIM_LIST3_PERIPH(TIMx));
 13450              		.loc 1 2499 0
 13451 0008 7A68     		ldr	r2, [r7, #4]
 13452 000a 144B     		ldr	r3, .L866
 13453 000c 9A42     		cmp	r2, r3
 13454 000e 13D0     		beq	.L862
 13455              		.loc 1 2499 0 is_stmt 0 discriminator 2
 13456 0010 7B68     		ldr	r3, [r7, #4]
 13457 0012 B3F1804F 		cmp	r3, #1073741824
 13458 0016 0FD0     		beq	.L862
 13459              		.loc 1 2499 0 discriminator 1
 13460 0018 7A68     		ldr	r2, [r7, #4]
 13461 001a 114B     		ldr	r3, .L866+4
 13462 001c 9A42     		cmp	r2, r3
 13463 001e 0BD0     		beq	.L862
 13464              		.loc 1 2499 0 discriminator 2
 13465 0020 7A68     		ldr	r2, [r7, #4]
 13466 0022 104B     		ldr	r3, .L866+8
 13467 0024 9A42     		cmp	r2, r3
 13468 0026 07D0     		beq	.L862
 13469              		.loc 1 2499 0 discriminator 3
 13470 0028 7A68     		ldr	r2, [r7, #4]
 13471 002a 0F4B     		ldr	r3, .L866+12
 13472 002c 9A42     		cmp	r2, r3
 13473 002e 03D0     		beq	.L862
 13474              		.loc 1 2499 0 discriminator 4
 13475 0030 7A68     		ldr	r2, [r7, #4]
 13476 0032 0E4B     		ldr	r3, .L866+16
 13477 0034 9A42     		cmp	r2, r3
 13478 0036 02D1     		bne	.L863
 13479              	.L862:
 13480              		.loc 1 2499 0 discriminator 1
 13481 0038 4FF00103 		mov	r3, #1
 13482 003c 01E0     		b	.L864
 13483              	.L863:
 13484              		.loc 1 2499 0 discriminator 3
 13485 003e 4FF00003 		mov	r3, #0
 13486              	.L864:
 13487              		.loc 1 2499 0 discriminator 4
 13488 0042 1846     		mov	r0, r3
 13489 0044 FFF7FEFF 		bl	assert_param
2500:../libs/StdPeripheralDriver/src/stm32f10x_tim.c ****   /* Get the Capture 4 Register value */
2501:../libs/StdPeripheralDriver/src/stm32f10x_tim.c ****   return TIMx->CCR4;
 13490              		.loc 1 2501 0 is_stmt 1 discriminator 4
 13491 0048 7B68     		ldr	r3, [r7, #4]
 13492 004a B3F84030 		ldrh	r3, [r3, #64]	@ movhi
 13493 004e 9BB2     		uxth	r3, r3
2502:../libs/StdPeripheralDriver/src/stm32f10x_tim.c **** }
 13494              		.loc 1 2502 0 discriminator 4
 13495 0050 1846     		mov	r0, r3
 13496 0052 07F10807 		add	r7, r7, #8
 13497 0056 BD46     		mov	sp, r7
 13498 0058 80BD     		pop	{r7, pc}
 13499              	.L867:
 13500 005a 00BF     		.align	2
 13501              	.L866:
 13502 005c 002C0140 		.word	1073818624
 13503 0060 00040040 		.word	1073742848
 13504 0064 00080040 		.word	1073743872
 13505 0068 000C0040 		.word	1073744896
 13506 006c 00340140 		.word	1073820672
 13507              		.cfi_endproc
 13508              	.LFE109:
 13510              		.section	.text.TIM_GetCounter,"ax",%progbits
 13511              		.align	2
 13512              		.global	TIM_GetCounter
 13513              		.thumb
 13514              		.thumb_func
 13516              	TIM_GetCounter:
 13517              	.LFB110:
2503:../libs/StdPeripheralDriver/src/stm32f10x_tim.c **** 
2504:../libs/StdPeripheralDriver/src/stm32f10x_tim.c **** /**
2505:../libs/StdPeripheralDriver/src/stm32f10x_tim.c ****   * @brief  Gets the TIMx Counter value.
2506:../libs/StdPeripheralDriver/src/stm32f10x_tim.c ****   * @param  TIMx: where x can be 1 to 17 to select the TIM peripheral.
2507:../libs/StdPeripheralDriver/src/stm32f10x_tim.c ****   * @retval Counter Register value.
2508:../libs/StdPeripheralDriver/src/stm32f10x_tim.c ****   */
2509:../libs/StdPeripheralDriver/src/stm32f10x_tim.c **** uint16_t TIM_GetCounter(TIM_TypeDef* TIMx)
2510:../libs/StdPeripheralDriver/src/stm32f10x_tim.c **** {
 13518              		.loc 1 2510 0
 13519              		.cfi_startproc
 13520              		@ args = 0, pretend = 0, frame = 8
 13521              		@ frame_needed = 1, uses_anonymous_args = 0
 13522 0000 80B5     		push	{r7, lr}
 13523              	.LCFI243:
 13524              		.cfi_def_cfa_offset 8
 13525              		.cfi_offset 7, -8
 13526              		.cfi_offset 14, -4
 13527 0002 82B0     		sub	sp, sp, #8
 13528              	.LCFI244:
 13529              		.cfi_def_cfa_offset 16
 13530 0004 00AF     		add	r7, sp, #0
 13531              	.LCFI245:
 13532              		.cfi_def_cfa_register 7
 13533 0006 7860     		str	r0, [r7, #4]
2511:../libs/StdPeripheralDriver/src/stm32f10x_tim.c ****   /* Check the parameters */
2512:../libs/StdPeripheralDriver/src/stm32f10x_tim.c ****   assert_param(IS_TIM_ALL_PERIPH(TIMx));
 13534              		.loc 1 2512 0
 13535 0008 7A68     		ldr	r2, [r7, #4]
 13536 000a 294B     		ldr	r3, .L873
 13537 000c 9A42     		cmp	r2, r3
 13538 000e 3FD0     		beq	.L869
 13539              		.loc 1 2512 0 is_stmt 0 discriminator 2
 13540 0010 7B68     		ldr	r3, [r7, #4]
 13541 0012 B3F1804F 		cmp	r3, #1073741824
 13542 0016 3BD0     		beq	.L869
 13543              		.loc 1 2512 0 discriminator 1
 13544 0018 7A68     		ldr	r2, [r7, #4]
 13545 001a 264B     		ldr	r3, .L873+4
 13546 001c 9A42     		cmp	r2, r3
 13547 001e 37D0     		beq	.L869
 13548              		.loc 1 2512 0 discriminator 2
 13549 0020 7A68     		ldr	r2, [r7, #4]
 13550 0022 254B     		ldr	r3, .L873+8
 13551 0024 9A42     		cmp	r2, r3
 13552 0026 33D0     		beq	.L869
 13553              		.loc 1 2512 0 discriminator 3
 13554 0028 7A68     		ldr	r2, [r7, #4]
 13555 002a 244B     		ldr	r3, .L873+12
 13556 002c 9A42     		cmp	r2, r3
 13557 002e 2FD0     		beq	.L869
 13558              		.loc 1 2512 0 discriminator 4
 13559 0030 7A68     		ldr	r2, [r7, #4]
 13560 0032 234B     		ldr	r3, .L873+16
 13561 0034 9A42     		cmp	r2, r3
 13562 0036 2BD0     		beq	.L869
 13563              		.loc 1 2512 0 discriminator 5
 13564 0038 7A68     		ldr	r2, [r7, #4]
 13565 003a 224B     		ldr	r3, .L873+20
 13566 003c 9A42     		cmp	r2, r3
 13567 003e 27D0     		beq	.L869
 13568              		.loc 1 2512 0 discriminator 6
 13569 0040 7A68     		ldr	r2, [r7, #4]
 13570 0042 214B     		ldr	r3, .L873+24
 13571 0044 9A42     		cmp	r2, r3
 13572 0046 23D0     		beq	.L869
 13573              		.loc 1 2512 0 discriminator 7
 13574 0048 7A68     		ldr	r2, [r7, #4]
 13575 004a 204B     		ldr	r3, .L873+28
 13576 004c 9A42     		cmp	r2, r3
 13577 004e 1FD0     		beq	.L869
 13578              		.loc 1 2512 0 discriminator 8
 13579 0050 7A68     		ldr	r2, [r7, #4]
 13580 0052 1F4B     		ldr	r3, .L873+32
 13581 0054 9A42     		cmp	r2, r3
 13582 0056 1BD0     		beq	.L869
 13583              		.loc 1 2512 0 discriminator 9
 13584 0058 7A68     		ldr	r2, [r7, #4]
 13585 005a 1E4B     		ldr	r3, .L873+36
 13586 005c 9A42     		cmp	r2, r3
 13587 005e 17D0     		beq	.L869
 13588              		.loc 1 2512 0 discriminator 10
 13589 0060 7A68     		ldr	r2, [r7, #4]
 13590 0062 1D4B     		ldr	r3, .L873+40
 13591 0064 9A42     		cmp	r2, r3
 13592 0066 13D0     		beq	.L869
 13593              		.loc 1 2512 0 discriminator 11
 13594 0068 7A68     		ldr	r2, [r7, #4]
 13595 006a 1C4B     		ldr	r3, .L873+44
 13596 006c 9A42     		cmp	r2, r3
 13597 006e 0FD0     		beq	.L869
 13598              		.loc 1 2512 0 discriminator 12
 13599 0070 7A68     		ldr	r2, [r7, #4]
 13600 0072 1B4B     		ldr	r3, .L873+48
 13601 0074 9A42     		cmp	r2, r3
 13602 0076 0BD0     		beq	.L869
 13603              		.loc 1 2512 0 discriminator 13
 13604 0078 7A68     		ldr	r2, [r7, #4]
 13605 007a 1A4B     		ldr	r3, .L873+52
 13606 007c 9A42     		cmp	r2, r3
 13607 007e 07D0     		beq	.L869
 13608              		.loc 1 2512 0 discriminator 14
 13609 0080 7A68     		ldr	r2, [r7, #4]
 13610 0082 194B     		ldr	r3, .L873+56
 13611 0084 9A42     		cmp	r2, r3
 13612 0086 03D0     		beq	.L869
 13613              		.loc 1 2512 0 discriminator 15
 13614 0088 7A68     		ldr	r2, [r7, #4]
 13615 008a 184B     		ldr	r3, .L873+60
 13616 008c 9A42     		cmp	r2, r3
 13617 008e 02D1     		bne	.L870
 13618              	.L869:
 13619              		.loc 1 2512 0 discriminator 1
 13620 0090 4FF00103 		mov	r3, #1
 13621 0094 01E0     		b	.L871
 13622              	.L870:
 13623              		.loc 1 2512 0 discriminator 3
 13624 0096 4FF00003 		mov	r3, #0
 13625              	.L871:
 13626              		.loc 1 2512 0 discriminator 4
 13627 009a 1846     		mov	r0, r3
 13628 009c FFF7FEFF 		bl	assert_param
2513:../libs/StdPeripheralDriver/src/stm32f10x_tim.c ****   /* Get the Counter Register value */
2514:../libs/StdPeripheralDriver/src/stm32f10x_tim.c ****   return TIMx->CNT;
 13629              		.loc 1 2514 0 is_stmt 1 discriminator 4
 13630 00a0 7B68     		ldr	r3, [r7, #4]
 13631 00a2 9B8C     		ldrh	r3, [r3, #36]	@ movhi
 13632 00a4 9BB2     		uxth	r3, r3
2515:../libs/StdPeripheralDriver/src/stm32f10x_tim.c **** }
 13633              		.loc 1 2515 0 discriminator 4
 13634 00a6 1846     		mov	r0, r3
 13635 00a8 07F10807 		add	r7, r7, #8
 13636 00ac BD46     		mov	sp, r7
 13637 00ae 80BD     		pop	{r7, pc}
 13638              	.L874:
 13639              		.align	2
 13640              	.L873:
 13641 00b0 002C0140 		.word	1073818624
 13642 00b4 00040040 		.word	1073742848
 13643 00b8 00080040 		.word	1073743872
 13644 00bc 000C0040 		.word	1073744896
 13645 00c0 00100040 		.word	1073745920
 13646 00c4 00140040 		.word	1073746944
 13647 00c8 00340140 		.word	1073820672
 13648 00cc 004C0140 		.word	1073826816
 13649 00d0 00500140 		.word	1073827840
 13650 00d4 00540140 		.word	1073828864
 13651 00d8 00180040 		.word	1073747968
 13652 00dc 001C0040 		.word	1073748992
 13653 00e0 00200040 		.word	1073750016
 13654 00e4 00400140 		.word	1073823744
 13655 00e8 00440140 		.word	1073824768
 13656 00ec 00480140 		.word	1073825792
 13657              		.cfi_endproc
 13658              	.LFE110:
 13660              		.section	.text.TIM_GetPrescaler,"ax",%progbits
 13661              		.align	2
 13662              		.global	TIM_GetPrescaler
 13663              		.thumb
 13664              		.thumb_func
 13666              	TIM_GetPrescaler:
 13667              	.LFB111:
2516:../libs/StdPeripheralDriver/src/stm32f10x_tim.c **** 
2517:../libs/StdPeripheralDriver/src/stm32f10x_tim.c **** /**
2518:../libs/StdPeripheralDriver/src/stm32f10x_tim.c ****   * @brief  Gets the TIMx Prescaler value.
2519:../libs/StdPeripheralDriver/src/stm32f10x_tim.c ****   * @param  TIMx: where x can be 1 to 17 to select the TIM peripheral.
2520:../libs/StdPeripheralDriver/src/stm32f10x_tim.c ****   * @retval Prescaler Register value.
2521:../libs/StdPeripheralDriver/src/stm32f10x_tim.c ****   */
2522:../libs/StdPeripheralDriver/src/stm32f10x_tim.c **** uint16_t TIM_GetPrescaler(TIM_TypeDef* TIMx)
2523:../libs/StdPeripheralDriver/src/stm32f10x_tim.c **** {
 13668              		.loc 1 2523 0
 13669              		.cfi_startproc
 13670              		@ args = 0, pretend = 0, frame = 8
 13671              		@ frame_needed = 1, uses_anonymous_args = 0
 13672 0000 80B5     		push	{r7, lr}
 13673              	.LCFI246:
 13674              		.cfi_def_cfa_offset 8
 13675              		.cfi_offset 7, -8
 13676              		.cfi_offset 14, -4
 13677 0002 82B0     		sub	sp, sp, #8
 13678              	.LCFI247:
 13679              		.cfi_def_cfa_offset 16
 13680 0004 00AF     		add	r7, sp, #0
 13681              	.LCFI248:
 13682              		.cfi_def_cfa_register 7
 13683 0006 7860     		str	r0, [r7, #4]
2524:../libs/StdPeripheralDriver/src/stm32f10x_tim.c ****   /* Check the parameters */
2525:../libs/StdPeripheralDriver/src/stm32f10x_tim.c ****   assert_param(IS_TIM_ALL_PERIPH(TIMx));
 13684              		.loc 1 2525 0
 13685 0008 7A68     		ldr	r2, [r7, #4]
 13686 000a 294B     		ldr	r3, .L880
 13687 000c 9A42     		cmp	r2, r3
 13688 000e 3FD0     		beq	.L876
 13689              		.loc 1 2525 0 is_stmt 0 discriminator 2
 13690 0010 7B68     		ldr	r3, [r7, #4]
 13691 0012 B3F1804F 		cmp	r3, #1073741824
 13692 0016 3BD0     		beq	.L876
 13693              		.loc 1 2525 0 discriminator 1
 13694 0018 7A68     		ldr	r2, [r7, #4]
 13695 001a 264B     		ldr	r3, .L880+4
 13696 001c 9A42     		cmp	r2, r3
 13697 001e 37D0     		beq	.L876
 13698              		.loc 1 2525 0 discriminator 2
 13699 0020 7A68     		ldr	r2, [r7, #4]
 13700 0022 254B     		ldr	r3, .L880+8
 13701 0024 9A42     		cmp	r2, r3
 13702 0026 33D0     		beq	.L876
 13703              		.loc 1 2525 0 discriminator 3
 13704 0028 7A68     		ldr	r2, [r7, #4]
 13705 002a 244B     		ldr	r3, .L880+12
 13706 002c 9A42     		cmp	r2, r3
 13707 002e 2FD0     		beq	.L876
 13708              		.loc 1 2525 0 discriminator 4
 13709 0030 7A68     		ldr	r2, [r7, #4]
 13710 0032 234B     		ldr	r3, .L880+16
 13711 0034 9A42     		cmp	r2, r3
 13712 0036 2BD0     		beq	.L876
 13713              		.loc 1 2525 0 discriminator 5
 13714 0038 7A68     		ldr	r2, [r7, #4]
 13715 003a 224B     		ldr	r3, .L880+20
 13716 003c 9A42     		cmp	r2, r3
 13717 003e 27D0     		beq	.L876
 13718              		.loc 1 2525 0 discriminator 6
 13719 0040 7A68     		ldr	r2, [r7, #4]
 13720 0042 214B     		ldr	r3, .L880+24
 13721 0044 9A42     		cmp	r2, r3
 13722 0046 23D0     		beq	.L876
 13723              		.loc 1 2525 0 discriminator 7
 13724 0048 7A68     		ldr	r2, [r7, #4]
 13725 004a 204B     		ldr	r3, .L880+28
 13726 004c 9A42     		cmp	r2, r3
 13727 004e 1FD0     		beq	.L876
 13728              		.loc 1 2525 0 discriminator 8
 13729 0050 7A68     		ldr	r2, [r7, #4]
 13730 0052 1F4B     		ldr	r3, .L880+32
 13731 0054 9A42     		cmp	r2, r3
 13732 0056 1BD0     		beq	.L876
 13733              		.loc 1 2525 0 discriminator 9
 13734 0058 7A68     		ldr	r2, [r7, #4]
 13735 005a 1E4B     		ldr	r3, .L880+36
 13736 005c 9A42     		cmp	r2, r3
 13737 005e 17D0     		beq	.L876
 13738              		.loc 1 2525 0 discriminator 10
 13739 0060 7A68     		ldr	r2, [r7, #4]
 13740 0062 1D4B     		ldr	r3, .L880+40
 13741 0064 9A42     		cmp	r2, r3
 13742 0066 13D0     		beq	.L876
 13743              		.loc 1 2525 0 discriminator 11
 13744 0068 7A68     		ldr	r2, [r7, #4]
 13745 006a 1C4B     		ldr	r3, .L880+44
 13746 006c 9A42     		cmp	r2, r3
 13747 006e 0FD0     		beq	.L876
 13748              		.loc 1 2525 0 discriminator 12
 13749 0070 7A68     		ldr	r2, [r7, #4]
 13750 0072 1B4B     		ldr	r3, .L880+48
 13751 0074 9A42     		cmp	r2, r3
 13752 0076 0BD0     		beq	.L876
 13753              		.loc 1 2525 0 discriminator 13
 13754 0078 7A68     		ldr	r2, [r7, #4]
 13755 007a 1A4B     		ldr	r3, .L880+52
 13756 007c 9A42     		cmp	r2, r3
 13757 007e 07D0     		beq	.L876
 13758              		.loc 1 2525 0 discriminator 14
 13759 0080 7A68     		ldr	r2, [r7, #4]
 13760 0082 194B     		ldr	r3, .L880+56
 13761 0084 9A42     		cmp	r2, r3
 13762 0086 03D0     		beq	.L876
 13763              		.loc 1 2525 0 discriminator 15
 13764 0088 7A68     		ldr	r2, [r7, #4]
 13765 008a 184B     		ldr	r3, .L880+60
 13766 008c 9A42     		cmp	r2, r3
 13767 008e 02D1     		bne	.L877
 13768              	.L876:
 13769              		.loc 1 2525 0 discriminator 1
 13770 0090 4FF00103 		mov	r3, #1
 13771 0094 01E0     		b	.L878
 13772              	.L877:
 13773              		.loc 1 2525 0 discriminator 3
 13774 0096 4FF00003 		mov	r3, #0
 13775              	.L878:
 13776              		.loc 1 2525 0 discriminator 4
 13777 009a 1846     		mov	r0, r3
 13778 009c FFF7FEFF 		bl	assert_param
2526:../libs/StdPeripheralDriver/src/stm32f10x_tim.c ****   /* Get the Prescaler Register value */
2527:../libs/StdPeripheralDriver/src/stm32f10x_tim.c ****   return TIMx->PSC;
 13779              		.loc 1 2527 0 is_stmt 1 discriminator 4
 13780 00a0 7B68     		ldr	r3, [r7, #4]
 13781 00a2 1B8D     		ldrh	r3, [r3, #40]	@ movhi
 13782 00a4 9BB2     		uxth	r3, r3
2528:../libs/StdPeripheralDriver/src/stm32f10x_tim.c **** }
 13783              		.loc 1 2528 0 discriminator 4
 13784 00a6 1846     		mov	r0, r3
 13785 00a8 07F10807 		add	r7, r7, #8
 13786 00ac BD46     		mov	sp, r7
 13787 00ae 80BD     		pop	{r7, pc}
 13788              	.L881:
 13789              		.align	2
 13790              	.L880:
 13791 00b0 002C0140 		.word	1073818624
 13792 00b4 00040040 		.word	1073742848
 13793 00b8 00080040 		.word	1073743872
 13794 00bc 000C0040 		.word	1073744896
 13795 00c0 00100040 		.word	1073745920
 13796 00c4 00140040 		.word	1073746944
 13797 00c8 00340140 		.word	1073820672
 13798 00cc 004C0140 		.word	1073826816
 13799 00d0 00500140 		.word	1073827840
 13800 00d4 00540140 		.word	1073828864
 13801 00d8 00180040 		.word	1073747968
 13802 00dc 001C0040 		.word	1073748992
 13803 00e0 00200040 		.word	1073750016
 13804 00e4 00400140 		.word	1073823744
 13805 00e8 00440140 		.word	1073824768
 13806 00ec 00480140 		.word	1073825792
 13807              		.cfi_endproc
 13808              	.LFE111:
 13810              		.section	.text.TIM_GetFlagStatus,"ax",%progbits
 13811              		.align	2
 13812              		.global	TIM_GetFlagStatus
 13813              		.thumb
 13814              		.thumb_func
 13816              	TIM_GetFlagStatus:
 13817              	.LFB112:
2529:../libs/StdPeripheralDriver/src/stm32f10x_tim.c **** 
2530:../libs/StdPeripheralDriver/src/stm32f10x_tim.c **** /**
2531:../libs/StdPeripheralDriver/src/stm32f10x_tim.c ****   * @brief  Checks whether the specified TIM flag is set or not.
2532:../libs/StdPeripheralDriver/src/stm32f10x_tim.c ****   * @param  TIMx: where x can be 1 to 17 to select the TIM peripheral.
2533:../libs/StdPeripheralDriver/src/stm32f10x_tim.c ****   * @param  TIM_FLAG: specifies the flag to check.
2534:../libs/StdPeripheralDriver/src/stm32f10x_tim.c ****   *   This parameter can be one of the following values:
2535:../libs/StdPeripheralDriver/src/stm32f10x_tim.c ****   *     @arg TIM_FLAG_Update: TIM update Flag
2536:../libs/StdPeripheralDriver/src/stm32f10x_tim.c ****   *     @arg TIM_FLAG_CC1: TIM Capture Compare 1 Flag
2537:../libs/StdPeripheralDriver/src/stm32f10x_tim.c ****   *     @arg TIM_FLAG_CC2: TIM Capture Compare 2 Flag
2538:../libs/StdPeripheralDriver/src/stm32f10x_tim.c ****   *     @arg TIM_FLAG_CC3: TIM Capture Compare 3 Flag
2539:../libs/StdPeripheralDriver/src/stm32f10x_tim.c ****   *     @arg TIM_FLAG_CC4: TIM Capture Compare 4 Flag
2540:../libs/StdPeripheralDriver/src/stm32f10x_tim.c ****   *     @arg TIM_FLAG_COM: TIM Commutation Flag
2541:../libs/StdPeripheralDriver/src/stm32f10x_tim.c ****   *     @arg TIM_FLAG_Trigger: TIM Trigger Flag
2542:../libs/StdPeripheralDriver/src/stm32f10x_tim.c ****   *     @arg TIM_FLAG_Break: TIM Break Flag
2543:../libs/StdPeripheralDriver/src/stm32f10x_tim.c ****   *     @arg TIM_FLAG_CC1OF: TIM Capture Compare 1 overcapture Flag
2544:../libs/StdPeripheralDriver/src/stm32f10x_tim.c ****   *     @arg TIM_FLAG_CC2OF: TIM Capture Compare 2 overcapture Flag
2545:../libs/StdPeripheralDriver/src/stm32f10x_tim.c ****   *     @arg TIM_FLAG_CC3OF: TIM Capture Compare 3 overcapture Flag
2546:../libs/StdPeripheralDriver/src/stm32f10x_tim.c ****   *     @arg TIM_FLAG_CC4OF: TIM Capture Compare 4 overcapture Flag
2547:../libs/StdPeripheralDriver/src/stm32f10x_tim.c ****   * @note
2548:../libs/StdPeripheralDriver/src/stm32f10x_tim.c ****   *   - TIM6 and TIM7 can have only one update flag. 
2549:../libs/StdPeripheralDriver/src/stm32f10x_tim.c ****   *   - TIM9, TIM12 and TIM15 can have only TIM_FLAG_Update, TIM_FLAG_CC1,
2550:../libs/StdPeripheralDriver/src/stm32f10x_tim.c ****   *      TIM_FLAG_CC2 or TIM_FLAG_Trigger. 
2551:../libs/StdPeripheralDriver/src/stm32f10x_tim.c ****   *   - TIM10, TIM11, TIM13, TIM14, TIM16 and TIM17 can have TIM_FLAG_Update or TIM_FLAG_CC1.   
2552:../libs/StdPeripheralDriver/src/stm32f10x_tim.c ****   *   - TIM_FLAG_Break is used only with TIM1, TIM8 and TIM15. 
2553:../libs/StdPeripheralDriver/src/stm32f10x_tim.c ****   *   - TIM_FLAG_COM is used only with TIM1, TIM8, TIM15, TIM16 and TIM17.    
2554:../libs/StdPeripheralDriver/src/stm32f10x_tim.c ****   * @retval The new state of TIM_FLAG (SET or RESET).
2555:../libs/StdPeripheralDriver/src/stm32f10x_tim.c ****   */
2556:../libs/StdPeripheralDriver/src/stm32f10x_tim.c **** FlagStatus TIM_GetFlagStatus(TIM_TypeDef* TIMx, uint16_t TIM_FLAG)
2557:../libs/StdPeripheralDriver/src/stm32f10x_tim.c **** { 
 13818              		.loc 1 2557 0
 13819              		.cfi_startproc
 13820              		@ args = 0, pretend = 0, frame = 16
 13821              		@ frame_needed = 1, uses_anonymous_args = 0
 13822 0000 80B5     		push	{r7, lr}
 13823              	.LCFI249:
 13824              		.cfi_def_cfa_offset 8
 13825              		.cfi_offset 7, -8
 13826              		.cfi_offset 14, -4
 13827 0002 84B0     		sub	sp, sp, #16
 13828              	.LCFI250:
 13829              		.cfi_def_cfa_offset 24
 13830 0004 00AF     		add	r7, sp, #0
 13831              	.LCFI251:
 13832              		.cfi_def_cfa_register 7
 13833 0006 7860     		str	r0, [r7, #4]
 13834 0008 0B46     		mov	r3, r1
 13835 000a 7B80     		strh	r3, [r7, #2]	@ movhi
2558:../libs/StdPeripheralDriver/src/stm32f10x_tim.c ****   ITStatus bitstatus = RESET;  
 13836              		.loc 1 2558 0
 13837 000c 4FF00003 		mov	r3, #0
 13838 0010 FB73     		strb	r3, [r7, #15]
2559:../libs/StdPeripheralDriver/src/stm32f10x_tim.c ****   /* Check the parameters */
2560:../libs/StdPeripheralDriver/src/stm32f10x_tim.c ****   assert_param(IS_TIM_ALL_PERIPH(TIMx));
 13839              		.loc 1 2560 0
 13840 0012 7A68     		ldr	r2, [r7, #4]
 13841 0014 474B     		ldr	r3, .L892
 13842 0016 9A42     		cmp	r2, r3
 13843 0018 3FD0     		beq	.L883
 13844              		.loc 1 2560 0 is_stmt 0 discriminator 2
 13845 001a 7B68     		ldr	r3, [r7, #4]
 13846 001c B3F1804F 		cmp	r3, #1073741824
 13847 0020 3BD0     		beq	.L883
 13848              		.loc 1 2560 0 discriminator 1
 13849 0022 7A68     		ldr	r2, [r7, #4]
 13850 0024 444B     		ldr	r3, .L892+4
 13851 0026 9A42     		cmp	r2, r3
 13852 0028 37D0     		beq	.L883
 13853              		.loc 1 2560 0 discriminator 2
 13854 002a 7A68     		ldr	r2, [r7, #4]
 13855 002c 434B     		ldr	r3, .L892+8
 13856 002e 9A42     		cmp	r2, r3
 13857 0030 33D0     		beq	.L883
 13858              		.loc 1 2560 0 discriminator 3
 13859 0032 7A68     		ldr	r2, [r7, #4]
 13860 0034 424B     		ldr	r3, .L892+12
 13861 0036 9A42     		cmp	r2, r3
 13862 0038 2FD0     		beq	.L883
 13863              		.loc 1 2560 0 discriminator 4
 13864 003a 7A68     		ldr	r2, [r7, #4]
 13865 003c 414B     		ldr	r3, .L892+16
 13866 003e 9A42     		cmp	r2, r3
 13867 0040 2BD0     		beq	.L883
 13868              		.loc 1 2560 0 discriminator 5
 13869 0042 7A68     		ldr	r2, [r7, #4]
 13870 0044 404B     		ldr	r3, .L892+20
 13871 0046 9A42     		cmp	r2, r3
 13872 0048 27D0     		beq	.L883
 13873              		.loc 1 2560 0 discriminator 6
 13874 004a 7A68     		ldr	r2, [r7, #4]
 13875 004c 3F4B     		ldr	r3, .L892+24
 13876 004e 9A42     		cmp	r2, r3
 13877 0050 23D0     		beq	.L883
 13878              		.loc 1 2560 0 discriminator 7
 13879 0052 7A68     		ldr	r2, [r7, #4]
 13880 0054 3E4B     		ldr	r3, .L892+28
 13881 0056 9A42     		cmp	r2, r3
 13882 0058 1FD0     		beq	.L883
 13883              		.loc 1 2560 0 discriminator 8
 13884 005a 7A68     		ldr	r2, [r7, #4]
 13885 005c 3D4B     		ldr	r3, .L892+32
 13886 005e 9A42     		cmp	r2, r3
 13887 0060 1BD0     		beq	.L883
 13888              		.loc 1 2560 0 discriminator 9
 13889 0062 7A68     		ldr	r2, [r7, #4]
 13890 0064 3C4B     		ldr	r3, .L892+36
 13891 0066 9A42     		cmp	r2, r3
 13892 0068 17D0     		beq	.L883
 13893              		.loc 1 2560 0 discriminator 10
 13894 006a 7A68     		ldr	r2, [r7, #4]
 13895 006c 3B4B     		ldr	r3, .L892+40
 13896 006e 9A42     		cmp	r2, r3
 13897 0070 13D0     		beq	.L883
 13898              		.loc 1 2560 0 discriminator 11
 13899 0072 7A68     		ldr	r2, [r7, #4]
 13900 0074 3A4B     		ldr	r3, .L892+44
 13901 0076 9A42     		cmp	r2, r3
 13902 0078 0FD0     		beq	.L883
 13903              		.loc 1 2560 0 discriminator 12
 13904 007a 7A68     		ldr	r2, [r7, #4]
 13905 007c 394B     		ldr	r3, .L892+48
 13906 007e 9A42     		cmp	r2, r3
 13907 0080 0BD0     		beq	.L883
 13908              		.loc 1 2560 0 discriminator 13
 13909 0082 7A68     		ldr	r2, [r7, #4]
 13910 0084 384B     		ldr	r3, .L892+52
 13911 0086 9A42     		cmp	r2, r3
 13912 0088 07D0     		beq	.L883
 13913              		.loc 1 2560 0 discriminator 14
 13914 008a 7A68     		ldr	r2, [r7, #4]
 13915 008c 374B     		ldr	r3, .L892+56
 13916 008e 9A42     		cmp	r2, r3
 13917 0090 03D0     		beq	.L883
 13918              		.loc 1 2560 0 discriminator 15
 13919 0092 7A68     		ldr	r2, [r7, #4]
 13920 0094 364B     		ldr	r3, .L892+60
 13921 0096 9A42     		cmp	r2, r3
 13922 0098 02D1     		bne	.L884
 13923              	.L883:
 13924              		.loc 1 2560 0 discriminator 1
 13925 009a 4FF00103 		mov	r3, #1
 13926 009e 01E0     		b	.L885
 13927              	.L884:
 13928              		.loc 1 2560 0 discriminator 3
 13929 00a0 4FF00003 		mov	r3, #0
 13930              	.L885:
 13931              		.loc 1 2560 0 discriminator 4
 13932 00a4 1846     		mov	r0, r3
 13933 00a6 FFF7FEFF 		bl	assert_param
2561:../libs/StdPeripheralDriver/src/stm32f10x_tim.c ****   assert_param(IS_TIM_GET_FLAG(TIM_FLAG));
 13934              		.loc 1 2561 0 is_stmt 1 discriminator 4
 13935 00aa 7B88     		ldrh	r3, [r7, #2]
 13936 00ac 012B     		cmp	r3, #1
 13937 00ae 24D0     		beq	.L886
 13938              		.loc 1 2561 0 is_stmt 0 discriminator 2
 13939 00b0 7B88     		ldrh	r3, [r7, #2]
 13940 00b2 022B     		cmp	r3, #2
 13941 00b4 21D0     		beq	.L886
 13942              		.loc 1 2561 0 discriminator 1
 13943 00b6 7B88     		ldrh	r3, [r7, #2]
 13944 00b8 042B     		cmp	r3, #4
 13945 00ba 1ED0     		beq	.L886
 13946              		.loc 1 2561 0 discriminator 2
 13947 00bc 7B88     		ldrh	r3, [r7, #2]
 13948 00be 082B     		cmp	r3, #8
 13949 00c0 1BD0     		beq	.L886
 13950              		.loc 1 2561 0 discriminator 3
 13951 00c2 7B88     		ldrh	r3, [r7, #2]
 13952 00c4 102B     		cmp	r3, #16
 13953 00c6 18D0     		beq	.L886
 13954              		.loc 1 2561 0 discriminator 4
 13955 00c8 7B88     		ldrh	r3, [r7, #2]
 13956 00ca 202B     		cmp	r3, #32
 13957 00cc 15D0     		beq	.L886
 13958              		.loc 1 2561 0 discriminator 5
 13959 00ce 7B88     		ldrh	r3, [r7, #2]
 13960 00d0 402B     		cmp	r3, #64
 13961 00d2 12D0     		beq	.L886
 13962              		.loc 1 2561 0 discriminator 6
 13963 00d4 7B88     		ldrh	r3, [r7, #2]
 13964 00d6 802B     		cmp	r3, #128
 13965 00d8 0FD0     		beq	.L886
 13966              		.loc 1 2561 0 discriminator 7
 13967 00da 7B88     		ldrh	r3, [r7, #2]
 13968 00dc B3F5007F 		cmp	r3, #512
 13969 00e0 0BD0     		beq	.L886
 13970              		.loc 1 2561 0 discriminator 8
 13971 00e2 7B88     		ldrh	r3, [r7, #2]
 13972 00e4 B3F5806F 		cmp	r3, #1024
 13973 00e8 07D0     		beq	.L886
 13974              		.loc 1 2561 0 discriminator 9
 13975 00ea 7B88     		ldrh	r3, [r7, #2]
 13976 00ec B3F5006F 		cmp	r3, #2048
 13977 00f0 03D0     		beq	.L886
 13978              		.loc 1 2561 0 discriminator 10
 13979 00f2 7B88     		ldrh	r3, [r7, #2]
 13980 00f4 B3F5805F 		cmp	r3, #4096
 13981 00f8 02D1     		bne	.L887
 13982              	.L886:
 13983              		.loc 1 2561 0 discriminator 1
 13984 00fa 4FF00103 		mov	r3, #1
 13985 00fe 01E0     		b	.L888
 13986              	.L887:
 13987              		.loc 1 2561 0 discriminator 3
 13988 0100 4FF00003 		mov	r3, #0
 13989              	.L888:
 13990              		.loc 1 2561 0 discriminator 4
 13991 0104 1846     		mov	r0, r3
 13992 0106 FFF7FEFF 		bl	assert_param
2562:../libs/StdPeripheralDriver/src/stm32f10x_tim.c ****   
2563:../libs/StdPeripheralDriver/src/stm32f10x_tim.c ****   if ((TIMx->SR & TIM_FLAG) != (uint16_t)RESET)
 13993              		.loc 1 2563 0 is_stmt 1 discriminator 4
 13994 010a 7B68     		ldr	r3, [r7, #4]
 13995 010c 1B8A     		ldrh	r3, [r3, #16]	@ movhi
 13996 010e 9AB2     		uxth	r2, r3
 13997 0110 7B88     		ldrh	r3, [r7, #2]	@ movhi
 13998 0112 1340     		ands	r3, r3, r2
 13999 0114 9BB2     		uxth	r3, r3
 14000 0116 002B     		cmp	r3, #0
 14001 0118 03D0     		beq	.L889
2564:../libs/StdPeripheralDriver/src/stm32f10x_tim.c ****   {
2565:../libs/StdPeripheralDriver/src/stm32f10x_tim.c ****     bitstatus = SET;
 14002              		.loc 1 2565 0
 14003 011a 4FF00103 		mov	r3, #1
 14004 011e FB73     		strb	r3, [r7, #15]
 14005 0120 02E0     		b	.L890
 14006              	.L889:
2566:../libs/StdPeripheralDriver/src/stm32f10x_tim.c ****   }
2567:../libs/StdPeripheralDriver/src/stm32f10x_tim.c ****   else
2568:../libs/StdPeripheralDriver/src/stm32f10x_tim.c ****   {
2569:../libs/StdPeripheralDriver/src/stm32f10x_tim.c ****     bitstatus = RESET;
 14007              		.loc 1 2569 0
 14008 0122 4FF00003 		mov	r3, #0
 14009 0126 FB73     		strb	r3, [r7, #15]
 14010              	.L890:
2570:../libs/StdPeripheralDriver/src/stm32f10x_tim.c ****   }
2571:../libs/StdPeripheralDriver/src/stm32f10x_tim.c ****   return bitstatus;
 14011              		.loc 1 2571 0
 14012 0128 FB7B     		ldrb	r3, [r7, #15]	@ zero_extendqisi2
2572:../libs/StdPeripheralDriver/src/stm32f10x_tim.c **** }
 14013              		.loc 1 2572 0
 14014 012a 1846     		mov	r0, r3
 14015 012c 07F11007 		add	r7, r7, #16
 14016 0130 BD46     		mov	sp, r7
 14017 0132 80BD     		pop	{r7, pc}
 14018              	.L893:
 14019              		.align	2
 14020              	.L892:
 14021 0134 002C0140 		.word	1073818624
 14022 0138 00040040 		.word	1073742848
 14023 013c 00080040 		.word	1073743872
 14024 0140 000C0040 		.word	1073744896
 14025 0144 00100040 		.word	1073745920
 14026 0148 00140040 		.word	1073746944
 14027 014c 00340140 		.word	1073820672
 14028 0150 004C0140 		.word	1073826816
 14029 0154 00500140 		.word	1073827840
 14030 0158 00540140 		.word	1073828864
 14031 015c 00180040 		.word	1073747968
 14032 0160 001C0040 		.word	1073748992
 14033 0164 00200040 		.word	1073750016
 14034 0168 00400140 		.word	1073823744
 14035 016c 00440140 		.word	1073824768
 14036 0170 00480140 		.word	1073825792
 14037              		.cfi_endproc
 14038              	.LFE112:
 14040              		.section	.text.TIM_ClearFlag,"ax",%progbits
 14041              		.align	2
 14042              		.global	TIM_ClearFlag
 14043              		.thumb
 14044              		.thumb_func
 14046              	TIM_ClearFlag:
 14047              	.LFB113:
2573:../libs/StdPeripheralDriver/src/stm32f10x_tim.c **** 
2574:../libs/StdPeripheralDriver/src/stm32f10x_tim.c **** /**
2575:../libs/StdPeripheralDriver/src/stm32f10x_tim.c ****   * @brief  Clears the TIMx's pending flags.
2576:../libs/StdPeripheralDriver/src/stm32f10x_tim.c ****   * @param  TIMx: where x can be 1 to 17 to select the TIM peripheral.
2577:../libs/StdPeripheralDriver/src/stm32f10x_tim.c ****   * @param  TIM_FLAG: specifies the flag bit to clear.
2578:../libs/StdPeripheralDriver/src/stm32f10x_tim.c ****   *   This parameter can be any combination of the following values:
2579:../libs/StdPeripheralDriver/src/stm32f10x_tim.c ****   *     @arg TIM_FLAG_Update: TIM update Flag
2580:../libs/StdPeripheralDriver/src/stm32f10x_tim.c ****   *     @arg TIM_FLAG_CC1: TIM Capture Compare 1 Flag
2581:../libs/StdPeripheralDriver/src/stm32f10x_tim.c ****   *     @arg TIM_FLAG_CC2: TIM Capture Compare 2 Flag
2582:../libs/StdPeripheralDriver/src/stm32f10x_tim.c ****   *     @arg TIM_FLAG_CC3: TIM Capture Compare 3 Flag
2583:../libs/StdPeripheralDriver/src/stm32f10x_tim.c ****   *     @arg TIM_FLAG_CC4: TIM Capture Compare 4 Flag
2584:../libs/StdPeripheralDriver/src/stm32f10x_tim.c ****   *     @arg TIM_FLAG_COM: TIM Commutation Flag
2585:../libs/StdPeripheralDriver/src/stm32f10x_tim.c ****   *     @arg TIM_FLAG_Trigger: TIM Trigger Flag
2586:../libs/StdPeripheralDriver/src/stm32f10x_tim.c ****   *     @arg TIM_FLAG_Break: TIM Break Flag
2587:../libs/StdPeripheralDriver/src/stm32f10x_tim.c ****   *     @arg TIM_FLAG_CC1OF: TIM Capture Compare 1 overcapture Flag
2588:../libs/StdPeripheralDriver/src/stm32f10x_tim.c ****   *     @arg TIM_FLAG_CC2OF: TIM Capture Compare 2 overcapture Flag
2589:../libs/StdPeripheralDriver/src/stm32f10x_tim.c ****   *     @arg TIM_FLAG_CC3OF: TIM Capture Compare 3 overcapture Flag
2590:../libs/StdPeripheralDriver/src/stm32f10x_tim.c ****   *     @arg TIM_FLAG_CC4OF: TIM Capture Compare 4 overcapture Flag
2591:../libs/StdPeripheralDriver/src/stm32f10x_tim.c ****   * @note
2592:../libs/StdPeripheralDriver/src/stm32f10x_tim.c ****   *   - TIM6 and TIM7 can have only one update flag. 
2593:../libs/StdPeripheralDriver/src/stm32f10x_tim.c ****   *   - TIM9, TIM12 and TIM15 can have only TIM_FLAG_Update, TIM_FLAG_CC1,
2594:../libs/StdPeripheralDriver/src/stm32f10x_tim.c ****   *      TIM_FLAG_CC2 or TIM_FLAG_Trigger. 
2595:../libs/StdPeripheralDriver/src/stm32f10x_tim.c ****   *   - TIM10, TIM11, TIM13, TIM14, TIM16 and TIM17 can have TIM_FLAG_Update or TIM_FLAG_CC1.   
2596:../libs/StdPeripheralDriver/src/stm32f10x_tim.c ****   *   - TIM_FLAG_Break is used only with TIM1, TIM8 and TIM15. 
2597:../libs/StdPeripheralDriver/src/stm32f10x_tim.c ****   *   - TIM_FLAG_COM is used only with TIM1, TIM8, TIM15, TIM16 and TIM17.   
2598:../libs/StdPeripheralDriver/src/stm32f10x_tim.c ****   * @retval None
2599:../libs/StdPeripheralDriver/src/stm32f10x_tim.c ****   */
2600:../libs/StdPeripheralDriver/src/stm32f10x_tim.c **** void TIM_ClearFlag(TIM_TypeDef* TIMx, uint16_t TIM_FLAG)
2601:../libs/StdPeripheralDriver/src/stm32f10x_tim.c **** {  
 14048              		.loc 1 2601 0
 14049              		.cfi_startproc
 14050              		@ args = 0, pretend = 0, frame = 8
 14051              		@ frame_needed = 1, uses_anonymous_args = 0
 14052 0000 80B5     		push	{r7, lr}
 14053              	.LCFI252:
 14054              		.cfi_def_cfa_offset 8
 14055              		.cfi_offset 7, -8
 14056              		.cfi_offset 14, -4
 14057 0002 82B0     		sub	sp, sp, #8
 14058              	.LCFI253:
 14059              		.cfi_def_cfa_offset 16
 14060 0004 00AF     		add	r7, sp, #0
 14061              	.LCFI254:
 14062              		.cfi_def_cfa_register 7
 14063 0006 7860     		str	r0, [r7, #4]
 14064 0008 0B46     		mov	r3, r1
 14065 000a 7B80     		strh	r3, [r7, #2]	@ movhi
2602:../libs/StdPeripheralDriver/src/stm32f10x_tim.c ****   /* Check the parameters */
2603:../libs/StdPeripheralDriver/src/stm32f10x_tim.c ****   assert_param(IS_TIM_ALL_PERIPH(TIMx));
 14066              		.loc 1 2603 0
 14067 000c 7A68     		ldr	r2, [r7, #4]
 14068 000e 324B     		ldr	r3, .L900
 14069 0010 9A42     		cmp	r2, r3
 14070 0012 3FD0     		beq	.L895
 14071              		.loc 1 2603 0 is_stmt 0 discriminator 2
 14072 0014 7B68     		ldr	r3, [r7, #4]
 14073 0016 B3F1804F 		cmp	r3, #1073741824
 14074 001a 3BD0     		beq	.L895
 14075              		.loc 1 2603 0 discriminator 1
 14076 001c 7A68     		ldr	r2, [r7, #4]
 14077 001e 2F4B     		ldr	r3, .L900+4
 14078 0020 9A42     		cmp	r2, r3
 14079 0022 37D0     		beq	.L895
 14080              		.loc 1 2603 0 discriminator 2
 14081 0024 7A68     		ldr	r2, [r7, #4]
 14082 0026 2E4B     		ldr	r3, .L900+8
 14083 0028 9A42     		cmp	r2, r3
 14084 002a 33D0     		beq	.L895
 14085              		.loc 1 2603 0 discriminator 3
 14086 002c 7A68     		ldr	r2, [r7, #4]
 14087 002e 2D4B     		ldr	r3, .L900+12
 14088 0030 9A42     		cmp	r2, r3
 14089 0032 2FD0     		beq	.L895
 14090              		.loc 1 2603 0 discriminator 4
 14091 0034 7A68     		ldr	r2, [r7, #4]
 14092 0036 2C4B     		ldr	r3, .L900+16
 14093 0038 9A42     		cmp	r2, r3
 14094 003a 2BD0     		beq	.L895
 14095              		.loc 1 2603 0 discriminator 5
 14096 003c 7A68     		ldr	r2, [r7, #4]
 14097 003e 2B4B     		ldr	r3, .L900+20
 14098 0040 9A42     		cmp	r2, r3
 14099 0042 27D0     		beq	.L895
 14100              		.loc 1 2603 0 discriminator 6
 14101 0044 7A68     		ldr	r2, [r7, #4]
 14102 0046 2A4B     		ldr	r3, .L900+24
 14103 0048 9A42     		cmp	r2, r3
 14104 004a 23D0     		beq	.L895
 14105              		.loc 1 2603 0 discriminator 7
 14106 004c 7A68     		ldr	r2, [r7, #4]
 14107 004e 294B     		ldr	r3, .L900+28
 14108 0050 9A42     		cmp	r2, r3
 14109 0052 1FD0     		beq	.L895
 14110              		.loc 1 2603 0 discriminator 8
 14111 0054 7A68     		ldr	r2, [r7, #4]
 14112 0056 284B     		ldr	r3, .L900+32
 14113 0058 9A42     		cmp	r2, r3
 14114 005a 1BD0     		beq	.L895
 14115              		.loc 1 2603 0 discriminator 9
 14116 005c 7A68     		ldr	r2, [r7, #4]
 14117 005e 274B     		ldr	r3, .L900+36
 14118 0060 9A42     		cmp	r2, r3
 14119 0062 17D0     		beq	.L895
 14120              		.loc 1 2603 0 discriminator 10
 14121 0064 7A68     		ldr	r2, [r7, #4]
 14122 0066 264B     		ldr	r3, .L900+40
 14123 0068 9A42     		cmp	r2, r3
 14124 006a 13D0     		beq	.L895
 14125              		.loc 1 2603 0 discriminator 11
 14126 006c 7A68     		ldr	r2, [r7, #4]
 14127 006e 254B     		ldr	r3, .L900+44
 14128 0070 9A42     		cmp	r2, r3
 14129 0072 0FD0     		beq	.L895
 14130              		.loc 1 2603 0 discriminator 12
 14131 0074 7A68     		ldr	r2, [r7, #4]
 14132 0076 244B     		ldr	r3, .L900+48
 14133 0078 9A42     		cmp	r2, r3
 14134 007a 0BD0     		beq	.L895
 14135              		.loc 1 2603 0 discriminator 13
 14136 007c 7A68     		ldr	r2, [r7, #4]
 14137 007e 234B     		ldr	r3, .L900+52
 14138 0080 9A42     		cmp	r2, r3
 14139 0082 07D0     		beq	.L895
 14140              		.loc 1 2603 0 discriminator 14
 14141 0084 7A68     		ldr	r2, [r7, #4]
 14142 0086 224B     		ldr	r3, .L900+56
 14143 0088 9A42     		cmp	r2, r3
 14144 008a 03D0     		beq	.L895
 14145              		.loc 1 2603 0 discriminator 15
 14146 008c 7A68     		ldr	r2, [r7, #4]
 14147 008e 214B     		ldr	r3, .L900+60
 14148 0090 9A42     		cmp	r2, r3
 14149 0092 02D1     		bne	.L896
 14150              	.L895:
 14151              		.loc 1 2603 0 discriminator 1
 14152 0094 4FF00103 		mov	r3, #1
 14153 0098 01E0     		b	.L897
 14154              	.L896:
 14155              		.loc 1 2603 0 discriminator 3
 14156 009a 4FF00003 		mov	r3, #0
 14157              	.L897:
 14158              		.loc 1 2603 0 discriminator 4
 14159 009e 1846     		mov	r0, r3
 14160 00a0 FFF7FEFF 		bl	assert_param
2604:../libs/StdPeripheralDriver/src/stm32f10x_tim.c ****   assert_param(IS_TIM_CLEAR_FLAG(TIM_FLAG));
 14161              		.loc 1 2604 0 is_stmt 1 discriminator 4
 14162 00a4 7B88     		ldrh	r3, [r7, #2]
 14163 00a6 03F46143 		and	r3, r3, #57600
 14164 00aa 002B     		cmp	r3, #0
 14165 00ac 05D1     		bne	.L898
 14166              		.loc 1 2604 0 is_stmt 0 discriminator 1
 14167 00ae 7B88     		ldrh	r3, [r7, #2]
 14168 00b0 002B     		cmp	r3, #0
 14169 00b2 02D0     		beq	.L898
 14170              		.loc 1 2604 0 discriminator 3
 14171 00b4 4FF00103 		mov	r3, #1
 14172 00b8 01E0     		b	.L899
 14173              	.L898:
 14174              		.loc 1 2604 0 discriminator 2
 14175 00ba 4FF00003 		mov	r3, #0
 14176              	.L899:
 14177              		.loc 1 2604 0 discriminator 4
 14178 00be 1846     		mov	r0, r3
 14179 00c0 FFF7FEFF 		bl	assert_param
2605:../libs/StdPeripheralDriver/src/stm32f10x_tim.c ****    
2606:../libs/StdPeripheralDriver/src/stm32f10x_tim.c ****   /* Clear the flags */
2607:../libs/StdPeripheralDriver/src/stm32f10x_tim.c ****   TIMx->SR = (uint16_t)~TIM_FLAG;
 14180              		.loc 1 2607 0 is_stmt 1 discriminator 4
 14181 00c4 7B88     		ldrh	r3, [r7, #2]	@ movhi
 14182 00c6 6FEA0303 		mvn	r3, r3
 14183 00ca 9AB2     		uxth	r2, r3
 14184 00cc 7B68     		ldr	r3, [r7, #4]
 14185 00ce 1A82     		strh	r2, [r3, #16]	@ movhi
2608:../libs/StdPeripheralDriver/src/stm32f10x_tim.c **** }
 14186              		.loc 1 2608 0 discriminator 4
 14187 00d0 07F10807 		add	r7, r7, #8
 14188 00d4 BD46     		mov	sp, r7
 14189 00d6 80BD     		pop	{r7, pc}
 14190              	.L901:
 14191              		.align	2
 14192              	.L900:
 14193 00d8 002C0140 		.word	1073818624
 14194 00dc 00040040 		.word	1073742848
 14195 00e0 00080040 		.word	1073743872
 14196 00e4 000C0040 		.word	1073744896
 14197 00e8 00100040 		.word	1073745920
 14198 00ec 00140040 		.word	1073746944
 14199 00f0 00340140 		.word	1073820672
 14200 00f4 004C0140 		.word	1073826816
 14201 00f8 00500140 		.word	1073827840
 14202 00fc 00540140 		.word	1073828864
 14203 0100 00180040 		.word	1073747968
 14204 0104 001C0040 		.word	1073748992
 14205 0108 00200040 		.word	1073750016
 14206 010c 00400140 		.word	1073823744
 14207 0110 00440140 		.word	1073824768
 14208 0114 00480140 		.word	1073825792
 14209              		.cfi_endproc
 14210              	.LFE113:
 14212              		.section	.text.TIM_GetITStatus,"ax",%progbits
 14213              		.align	2
 14214              		.global	TIM_GetITStatus
 14215              		.thumb
 14216              		.thumb_func
 14218              	TIM_GetITStatus:
 14219              	.LFB114:
2609:../libs/StdPeripheralDriver/src/stm32f10x_tim.c **** 
2610:../libs/StdPeripheralDriver/src/stm32f10x_tim.c **** /**
2611:../libs/StdPeripheralDriver/src/stm32f10x_tim.c ****   * @brief  Checks whether the TIM interrupt has occurred or not.
2612:../libs/StdPeripheralDriver/src/stm32f10x_tim.c ****   * @param  TIMx: where x can be 1 to 17 to select the TIM peripheral.
2613:../libs/StdPeripheralDriver/src/stm32f10x_tim.c ****   * @param  TIM_IT: specifies the TIM interrupt source to check.
2614:../libs/StdPeripheralDriver/src/stm32f10x_tim.c ****   *   This parameter can be one of the following values:
2615:../libs/StdPeripheralDriver/src/stm32f10x_tim.c ****   *     @arg TIM_IT_Update: TIM update Interrupt source
2616:../libs/StdPeripheralDriver/src/stm32f10x_tim.c ****   *     @arg TIM_IT_CC1: TIM Capture Compare 1 Interrupt source
2617:../libs/StdPeripheralDriver/src/stm32f10x_tim.c ****   *     @arg TIM_IT_CC2: TIM Capture Compare 2 Interrupt source
2618:../libs/StdPeripheralDriver/src/stm32f10x_tim.c ****   *     @arg TIM_IT_CC3: TIM Capture Compare 3 Interrupt source
2619:../libs/StdPeripheralDriver/src/stm32f10x_tim.c ****   *     @arg TIM_IT_CC4: TIM Capture Compare 4 Interrupt source
2620:../libs/StdPeripheralDriver/src/stm32f10x_tim.c ****   *     @arg TIM_IT_COM: TIM Commutation Interrupt source
2621:../libs/StdPeripheralDriver/src/stm32f10x_tim.c ****   *     @arg TIM_IT_Trigger: TIM Trigger Interrupt source
2622:../libs/StdPeripheralDriver/src/stm32f10x_tim.c ****   *     @arg TIM_IT_Break: TIM Break Interrupt source
2623:../libs/StdPeripheralDriver/src/stm32f10x_tim.c ****   * @note
2624:../libs/StdPeripheralDriver/src/stm32f10x_tim.c ****   *   - TIM6 and TIM7 can generate only an update interrupt.
2625:../libs/StdPeripheralDriver/src/stm32f10x_tim.c ****   *   - TIM9, TIM12 and TIM15 can have only TIM_IT_Update, TIM_IT_CC1,
2626:../libs/StdPeripheralDriver/src/stm32f10x_tim.c ****   *      TIM_IT_CC2 or TIM_IT_Trigger. 
2627:../libs/StdPeripheralDriver/src/stm32f10x_tim.c ****   *   - TIM10, TIM11, TIM13, TIM14, TIM16 and TIM17 can have TIM_IT_Update or TIM_IT_CC1.   
2628:../libs/StdPeripheralDriver/src/stm32f10x_tim.c ****   *   - TIM_IT_Break is used only with TIM1, TIM8 and TIM15. 
2629:../libs/StdPeripheralDriver/src/stm32f10x_tim.c ****   *   - TIM_IT_COM is used only with TIM1, TIM8, TIM15, TIM16 and TIM17.  
2630:../libs/StdPeripheralDriver/src/stm32f10x_tim.c ****   * @retval The new state of the TIM_IT(SET or RESET).
2631:../libs/StdPeripheralDriver/src/stm32f10x_tim.c ****   */
2632:../libs/StdPeripheralDriver/src/stm32f10x_tim.c **** ITStatus TIM_GetITStatus(TIM_TypeDef* TIMx, uint16_t TIM_IT)
2633:../libs/StdPeripheralDriver/src/stm32f10x_tim.c **** {
 14220              		.loc 1 2633 0
 14221              		.cfi_startproc
 14222              		@ args = 0, pretend = 0, frame = 16
 14223              		@ frame_needed = 1, uses_anonymous_args = 0
 14224 0000 80B5     		push	{r7, lr}
 14225              	.LCFI255:
 14226              		.cfi_def_cfa_offset 8
 14227              		.cfi_offset 7, -8
 14228              		.cfi_offset 14, -4
 14229 0002 84B0     		sub	sp, sp, #16
 14230              	.LCFI256:
 14231              		.cfi_def_cfa_offset 24
 14232 0004 00AF     		add	r7, sp, #0
 14233              	.LCFI257:
 14234              		.cfi_def_cfa_register 7
 14235 0006 7860     		str	r0, [r7, #4]
 14236 0008 0B46     		mov	r3, r1
 14237 000a 7B80     		strh	r3, [r7, #2]	@ movhi
2634:../libs/StdPeripheralDriver/src/stm32f10x_tim.c ****   ITStatus bitstatus = RESET;  
 14238              		.loc 1 2634 0
 14239 000c 4FF00003 		mov	r3, #0
 14240 0010 FB73     		strb	r3, [r7, #15]
2635:../libs/StdPeripheralDriver/src/stm32f10x_tim.c ****   uint16_t itstatus = 0x0, itenable = 0x0;
 14241              		.loc 1 2635 0
 14242 0012 4FF00003 		mov	r3, #0
 14243 0016 BB81     		strh	r3, [r7, #12]	@ movhi
 14244 0018 4FF00003 		mov	r3, #0
 14245 001c 7B81     		strh	r3, [r7, #10]	@ movhi
2636:../libs/StdPeripheralDriver/src/stm32f10x_tim.c ****   /* Check the parameters */
2637:../libs/StdPeripheralDriver/src/stm32f10x_tim.c ****   assert_param(IS_TIM_ALL_PERIPH(TIMx));
 14246              		.loc 1 2637 0
 14247 001e 7A68     		ldr	r2, [r7, #4]
 14248 0020 444B     		ldr	r3, .L912
 14249 0022 9A42     		cmp	r2, r3
 14250 0024 3FD0     		beq	.L903
 14251              		.loc 1 2637 0 is_stmt 0 discriminator 2
 14252 0026 7B68     		ldr	r3, [r7, #4]
 14253 0028 B3F1804F 		cmp	r3, #1073741824
 14254 002c 3BD0     		beq	.L903
 14255              		.loc 1 2637 0 discriminator 1
 14256 002e 7A68     		ldr	r2, [r7, #4]
 14257 0030 414B     		ldr	r3, .L912+4
 14258 0032 9A42     		cmp	r2, r3
 14259 0034 37D0     		beq	.L903
 14260              		.loc 1 2637 0 discriminator 2
 14261 0036 7A68     		ldr	r2, [r7, #4]
 14262 0038 404B     		ldr	r3, .L912+8
 14263 003a 9A42     		cmp	r2, r3
 14264 003c 33D0     		beq	.L903
 14265              		.loc 1 2637 0 discriminator 3
 14266 003e 7A68     		ldr	r2, [r7, #4]
 14267 0040 3F4B     		ldr	r3, .L912+12
 14268 0042 9A42     		cmp	r2, r3
 14269 0044 2FD0     		beq	.L903
 14270              		.loc 1 2637 0 discriminator 4
 14271 0046 7A68     		ldr	r2, [r7, #4]
 14272 0048 3E4B     		ldr	r3, .L912+16
 14273 004a 9A42     		cmp	r2, r3
 14274 004c 2BD0     		beq	.L903
 14275              		.loc 1 2637 0 discriminator 5
 14276 004e 7A68     		ldr	r2, [r7, #4]
 14277 0050 3D4B     		ldr	r3, .L912+20
 14278 0052 9A42     		cmp	r2, r3
 14279 0054 27D0     		beq	.L903
 14280              		.loc 1 2637 0 discriminator 6
 14281 0056 7A68     		ldr	r2, [r7, #4]
 14282 0058 3C4B     		ldr	r3, .L912+24
 14283 005a 9A42     		cmp	r2, r3
 14284 005c 23D0     		beq	.L903
 14285              		.loc 1 2637 0 discriminator 7
 14286 005e 7A68     		ldr	r2, [r7, #4]
 14287 0060 3B4B     		ldr	r3, .L912+28
 14288 0062 9A42     		cmp	r2, r3
 14289 0064 1FD0     		beq	.L903
 14290              		.loc 1 2637 0 discriminator 8
 14291 0066 7A68     		ldr	r2, [r7, #4]
 14292 0068 3A4B     		ldr	r3, .L912+32
 14293 006a 9A42     		cmp	r2, r3
 14294 006c 1BD0     		beq	.L903
 14295              		.loc 1 2637 0 discriminator 9
 14296 006e 7A68     		ldr	r2, [r7, #4]
 14297 0070 394B     		ldr	r3, .L912+36
 14298 0072 9A42     		cmp	r2, r3
 14299 0074 17D0     		beq	.L903
 14300              		.loc 1 2637 0 discriminator 10
 14301 0076 7A68     		ldr	r2, [r7, #4]
 14302 0078 384B     		ldr	r3, .L912+40
 14303 007a 9A42     		cmp	r2, r3
 14304 007c 13D0     		beq	.L903
 14305              		.loc 1 2637 0 discriminator 11
 14306 007e 7A68     		ldr	r2, [r7, #4]
 14307 0080 374B     		ldr	r3, .L912+44
 14308 0082 9A42     		cmp	r2, r3
 14309 0084 0FD0     		beq	.L903
 14310              		.loc 1 2637 0 discriminator 12
 14311 0086 7A68     		ldr	r2, [r7, #4]
 14312 0088 364B     		ldr	r3, .L912+48
 14313 008a 9A42     		cmp	r2, r3
 14314 008c 0BD0     		beq	.L903
 14315              		.loc 1 2637 0 discriminator 13
 14316 008e 7A68     		ldr	r2, [r7, #4]
 14317 0090 354B     		ldr	r3, .L912+52
 14318 0092 9A42     		cmp	r2, r3
 14319 0094 07D0     		beq	.L903
 14320              		.loc 1 2637 0 discriminator 14
 14321 0096 7A68     		ldr	r2, [r7, #4]
 14322 0098 344B     		ldr	r3, .L912+56
 14323 009a 9A42     		cmp	r2, r3
 14324 009c 03D0     		beq	.L903
 14325              		.loc 1 2637 0 discriminator 15
 14326 009e 7A68     		ldr	r2, [r7, #4]
 14327 00a0 334B     		ldr	r3, .L912+60
 14328 00a2 9A42     		cmp	r2, r3
 14329 00a4 02D1     		bne	.L904
 14330              	.L903:
 14331              		.loc 1 2637 0 discriminator 1
 14332 00a6 4FF00103 		mov	r3, #1
 14333 00aa 01E0     		b	.L905
 14334              	.L904:
 14335              		.loc 1 2637 0 discriminator 3
 14336 00ac 4FF00003 		mov	r3, #0
 14337              	.L905:
 14338              		.loc 1 2637 0 discriminator 4
 14339 00b0 1846     		mov	r0, r3
 14340 00b2 FFF7FEFF 		bl	assert_param
2638:../libs/StdPeripheralDriver/src/stm32f10x_tim.c ****   assert_param(IS_TIM_GET_IT(TIM_IT));
 14341              		.loc 1 2638 0 is_stmt 1 discriminator 4
 14342 00b6 7B88     		ldrh	r3, [r7, #2]
 14343 00b8 012B     		cmp	r3, #1
 14344 00ba 14D0     		beq	.L906
 14345              		.loc 1 2638 0 is_stmt 0 discriminator 2
 14346 00bc 7B88     		ldrh	r3, [r7, #2]
 14347 00be 022B     		cmp	r3, #2
 14348 00c0 11D0     		beq	.L906
 14349              		.loc 1 2638 0 discriminator 1
 14350 00c2 7B88     		ldrh	r3, [r7, #2]
 14351 00c4 042B     		cmp	r3, #4
 14352 00c6 0ED0     		beq	.L906
 14353              		.loc 1 2638 0 discriminator 2
 14354 00c8 7B88     		ldrh	r3, [r7, #2]
 14355 00ca 082B     		cmp	r3, #8
 14356 00cc 0BD0     		beq	.L906
 14357              		.loc 1 2638 0 discriminator 3
 14358 00ce 7B88     		ldrh	r3, [r7, #2]
 14359 00d0 102B     		cmp	r3, #16
 14360 00d2 08D0     		beq	.L906
 14361              		.loc 1 2638 0 discriminator 4
 14362 00d4 7B88     		ldrh	r3, [r7, #2]
 14363 00d6 202B     		cmp	r3, #32
 14364 00d8 05D0     		beq	.L906
 14365              		.loc 1 2638 0 discriminator 5
 14366 00da 7B88     		ldrh	r3, [r7, #2]
 14367 00dc 402B     		cmp	r3, #64
 14368 00de 02D0     		beq	.L906
 14369              		.loc 1 2638 0 discriminator 6
 14370 00e0 7B88     		ldrh	r3, [r7, #2]
 14371 00e2 802B     		cmp	r3, #128
 14372 00e4 02D1     		bne	.L907
 14373              	.L906:
 14374              		.loc 1 2638 0 discriminator 1
 14375 00e6 4FF00103 		mov	r3, #1
 14376 00ea 01E0     		b	.L908
 14377              	.L907:
 14378              		.loc 1 2638 0 discriminator 3
 14379 00ec 4FF00003 		mov	r3, #0
 14380              	.L908:
 14381              		.loc 1 2638 0 discriminator 4
 14382 00f0 1846     		mov	r0, r3
 14383 00f2 FFF7FEFF 		bl	assert_param
2639:../libs/StdPeripheralDriver/src/stm32f10x_tim.c ****    
2640:../libs/StdPeripheralDriver/src/stm32f10x_tim.c ****   itstatus = TIMx->SR & TIM_IT;
 14384              		.loc 1 2640 0 is_stmt 1 discriminator 4
 14385 00f6 7B68     		ldr	r3, [r7, #4]
 14386 00f8 1B8A     		ldrh	r3, [r3, #16]	@ movhi
 14387 00fa 9AB2     		uxth	r2, r3
 14388 00fc 7B88     		ldrh	r3, [r7, #2]	@ movhi
 14389 00fe 1340     		ands	r3, r3, r2
 14390 0100 BB81     		strh	r3, [r7, #12]	@ movhi
2641:../libs/StdPeripheralDriver/src/stm32f10x_tim.c ****   
2642:../libs/StdPeripheralDriver/src/stm32f10x_tim.c ****   itenable = TIMx->DIER & TIM_IT;
 14391              		.loc 1 2642 0 discriminator 4
 14392 0102 7B68     		ldr	r3, [r7, #4]
 14393 0104 9B89     		ldrh	r3, [r3, #12]	@ movhi
 14394 0106 9AB2     		uxth	r2, r3
 14395 0108 7B88     		ldrh	r3, [r7, #2]	@ movhi
 14396 010a 1340     		ands	r3, r3, r2
 14397 010c 7B81     		strh	r3, [r7, #10]	@ movhi
2643:../libs/StdPeripheralDriver/src/stm32f10x_tim.c ****   if ((itstatus != (uint16_t)RESET) && (itenable != (uint16_t)RESET))
 14398              		.loc 1 2643 0 discriminator 4
 14399 010e BB89     		ldrh	r3, [r7, #12]
 14400 0110 002B     		cmp	r3, #0
 14401 0112 06D0     		beq	.L909
 14402              		.loc 1 2643 0 is_stmt 0 discriminator 1
 14403 0114 7B89     		ldrh	r3, [r7, #10]
 14404 0116 002B     		cmp	r3, #0
 14405 0118 03D0     		beq	.L909
2644:../libs/StdPeripheralDriver/src/stm32f10x_tim.c ****   {
2645:../libs/StdPeripheralDriver/src/stm32f10x_tim.c ****     bitstatus = SET;
 14406              		.loc 1 2645 0 is_stmt 1
 14407 011a 4FF00103 		mov	r3, #1
 14408 011e FB73     		strb	r3, [r7, #15]
 14409 0120 02E0     		b	.L910
 14410              	.L909:
2646:../libs/StdPeripheralDriver/src/stm32f10x_tim.c ****   }
2647:../libs/StdPeripheralDriver/src/stm32f10x_tim.c ****   else
2648:../libs/StdPeripheralDriver/src/stm32f10x_tim.c ****   {
2649:../libs/StdPeripheralDriver/src/stm32f10x_tim.c ****     bitstatus = RESET;
 14411              		.loc 1 2649 0
 14412 0122 4FF00003 		mov	r3, #0
 14413 0126 FB73     		strb	r3, [r7, #15]
 14414              	.L910:
2650:../libs/StdPeripheralDriver/src/stm32f10x_tim.c ****   }
2651:../libs/StdPeripheralDriver/src/stm32f10x_tim.c ****   return bitstatus;
 14415              		.loc 1 2651 0
 14416 0128 FB7B     		ldrb	r3, [r7, #15]	@ zero_extendqisi2
2652:../libs/StdPeripheralDriver/src/stm32f10x_tim.c **** }
 14417              		.loc 1 2652 0
 14418 012a 1846     		mov	r0, r3
 14419 012c 07F11007 		add	r7, r7, #16
 14420 0130 BD46     		mov	sp, r7
 14421 0132 80BD     		pop	{r7, pc}
 14422              	.L913:
 14423              		.align	2
 14424              	.L912:
 14425 0134 002C0140 		.word	1073818624
 14426 0138 00040040 		.word	1073742848
 14427 013c 00080040 		.word	1073743872
 14428 0140 000C0040 		.word	1073744896
 14429 0144 00100040 		.word	1073745920
 14430 0148 00140040 		.word	1073746944
 14431 014c 00340140 		.word	1073820672
 14432 0150 004C0140 		.word	1073826816
 14433 0154 00500140 		.word	1073827840
 14434 0158 00540140 		.word	1073828864
 14435 015c 00180040 		.word	1073747968
 14436 0160 001C0040 		.word	1073748992
 14437 0164 00200040 		.word	1073750016
 14438 0168 00400140 		.word	1073823744
 14439 016c 00440140 		.word	1073824768
 14440 0170 00480140 		.word	1073825792
 14441              		.cfi_endproc
 14442              	.LFE114:
 14444              		.section	.text.TIM_ClearITPendingBit,"ax",%progbits
 14445              		.align	2
 14446              		.global	TIM_ClearITPendingBit
 14447              		.thumb
 14448              		.thumb_func
 14450              	TIM_ClearITPendingBit:
 14451              	.LFB115:
2653:../libs/StdPeripheralDriver/src/stm32f10x_tim.c **** 
2654:../libs/StdPeripheralDriver/src/stm32f10x_tim.c **** /**
2655:../libs/StdPeripheralDriver/src/stm32f10x_tim.c ****   * @brief  Clears the TIMx's interrupt pending bits.
2656:../libs/StdPeripheralDriver/src/stm32f10x_tim.c ****   * @param  TIMx: where x can be 1 to 17 to select the TIM peripheral.
2657:../libs/StdPeripheralDriver/src/stm32f10x_tim.c ****   * @param  TIM_IT: specifies the pending bit to clear.
2658:../libs/StdPeripheralDriver/src/stm32f10x_tim.c ****   *   This parameter can be any combination of the following values:
2659:../libs/StdPeripheralDriver/src/stm32f10x_tim.c ****   *     @arg TIM_IT_Update: TIM1 update Interrupt source
2660:../libs/StdPeripheralDriver/src/stm32f10x_tim.c ****   *     @arg TIM_IT_CC1: TIM Capture Compare 1 Interrupt source
2661:../libs/StdPeripheralDriver/src/stm32f10x_tim.c ****   *     @arg TIM_IT_CC2: TIM Capture Compare 2 Interrupt source
2662:../libs/StdPeripheralDriver/src/stm32f10x_tim.c ****   *     @arg TIM_IT_CC3: TIM Capture Compare 3 Interrupt source
2663:../libs/StdPeripheralDriver/src/stm32f10x_tim.c ****   *     @arg TIM_IT_CC4: TIM Capture Compare 4 Interrupt source
2664:../libs/StdPeripheralDriver/src/stm32f10x_tim.c ****   *     @arg TIM_IT_COM: TIM Commutation Interrupt source
2665:../libs/StdPeripheralDriver/src/stm32f10x_tim.c ****   *     @arg TIM_IT_Trigger: TIM Trigger Interrupt source
2666:../libs/StdPeripheralDriver/src/stm32f10x_tim.c ****   *     @arg TIM_IT_Break: TIM Break Interrupt source
2667:../libs/StdPeripheralDriver/src/stm32f10x_tim.c ****   * @note
2668:../libs/StdPeripheralDriver/src/stm32f10x_tim.c ****   *   - TIM6 and TIM7 can generate only an update interrupt.
2669:../libs/StdPeripheralDriver/src/stm32f10x_tim.c ****   *   - TIM9, TIM12 and TIM15 can have only TIM_IT_Update, TIM_IT_CC1,
2670:../libs/StdPeripheralDriver/src/stm32f10x_tim.c ****   *      TIM_IT_CC2 or TIM_IT_Trigger. 
2671:../libs/StdPeripheralDriver/src/stm32f10x_tim.c ****   *   - TIM10, TIM11, TIM13, TIM14, TIM16 and TIM17 can have TIM_IT_Update or TIM_IT_CC1.   
2672:../libs/StdPeripheralDriver/src/stm32f10x_tim.c ****   *   - TIM_IT_Break is used only with TIM1, TIM8 and TIM15. 
2673:../libs/StdPeripheralDriver/src/stm32f10x_tim.c ****   *   - TIM_IT_COM is used only with TIM1, TIM8, TIM15, TIM16 and TIM17.    
2674:../libs/StdPeripheralDriver/src/stm32f10x_tim.c ****   * @retval None
2675:../libs/StdPeripheralDriver/src/stm32f10x_tim.c ****   */
2676:../libs/StdPeripheralDriver/src/stm32f10x_tim.c **** void TIM_ClearITPendingBit(TIM_TypeDef* TIMx, uint16_t TIM_IT)
2677:../libs/StdPeripheralDriver/src/stm32f10x_tim.c **** {
 14452              		.loc 1 2677 0
 14453              		.cfi_startproc
 14454              		@ args = 0, pretend = 0, frame = 8
 14455              		@ frame_needed = 1, uses_anonymous_args = 0
 14456 0000 80B5     		push	{r7, lr}
 14457              	.LCFI258:
 14458              		.cfi_def_cfa_offset 8
 14459              		.cfi_offset 7, -8
 14460              		.cfi_offset 14, -4
 14461 0002 82B0     		sub	sp, sp, #8
 14462              	.LCFI259:
 14463              		.cfi_def_cfa_offset 16
 14464 0004 00AF     		add	r7, sp, #0
 14465              	.LCFI260:
 14466              		.cfi_def_cfa_register 7
 14467 0006 7860     		str	r0, [r7, #4]
 14468 0008 0B46     		mov	r3, r1
 14469 000a 7B80     		strh	r3, [r7, #2]	@ movhi
2678:../libs/StdPeripheralDriver/src/stm32f10x_tim.c ****   /* Check the parameters */
2679:../libs/StdPeripheralDriver/src/stm32f10x_tim.c ****   assert_param(IS_TIM_ALL_PERIPH(TIMx));
 14470              		.loc 1 2679 0
 14471 000c 7A68     		ldr	r2, [r7, #4]
 14472 000e 324B     		ldr	r3, .L920
 14473 0010 9A42     		cmp	r2, r3
 14474 0012 3FD0     		beq	.L915
 14475              		.loc 1 2679 0 is_stmt 0 discriminator 2
 14476 0014 7B68     		ldr	r3, [r7, #4]
 14477 0016 B3F1804F 		cmp	r3, #1073741824
 14478 001a 3BD0     		beq	.L915
 14479              		.loc 1 2679 0 discriminator 1
 14480 001c 7A68     		ldr	r2, [r7, #4]
 14481 001e 2F4B     		ldr	r3, .L920+4
 14482 0020 9A42     		cmp	r2, r3
 14483 0022 37D0     		beq	.L915
 14484              		.loc 1 2679 0 discriminator 2
 14485 0024 7A68     		ldr	r2, [r7, #4]
 14486 0026 2E4B     		ldr	r3, .L920+8
 14487 0028 9A42     		cmp	r2, r3
 14488 002a 33D0     		beq	.L915
 14489              		.loc 1 2679 0 discriminator 3
 14490 002c 7A68     		ldr	r2, [r7, #4]
 14491 002e 2D4B     		ldr	r3, .L920+12
 14492 0030 9A42     		cmp	r2, r3
 14493 0032 2FD0     		beq	.L915
 14494              		.loc 1 2679 0 discriminator 4
 14495 0034 7A68     		ldr	r2, [r7, #4]
 14496 0036 2C4B     		ldr	r3, .L920+16
 14497 0038 9A42     		cmp	r2, r3
 14498 003a 2BD0     		beq	.L915
 14499              		.loc 1 2679 0 discriminator 5
 14500 003c 7A68     		ldr	r2, [r7, #4]
 14501 003e 2B4B     		ldr	r3, .L920+20
 14502 0040 9A42     		cmp	r2, r3
 14503 0042 27D0     		beq	.L915
 14504              		.loc 1 2679 0 discriminator 6
 14505 0044 7A68     		ldr	r2, [r7, #4]
 14506 0046 2A4B     		ldr	r3, .L920+24
 14507 0048 9A42     		cmp	r2, r3
 14508 004a 23D0     		beq	.L915
 14509              		.loc 1 2679 0 discriminator 7
 14510 004c 7A68     		ldr	r2, [r7, #4]
 14511 004e 294B     		ldr	r3, .L920+28
 14512 0050 9A42     		cmp	r2, r3
 14513 0052 1FD0     		beq	.L915
 14514              		.loc 1 2679 0 discriminator 8
 14515 0054 7A68     		ldr	r2, [r7, #4]
 14516 0056 284B     		ldr	r3, .L920+32
 14517 0058 9A42     		cmp	r2, r3
 14518 005a 1BD0     		beq	.L915
 14519              		.loc 1 2679 0 discriminator 9
 14520 005c 7A68     		ldr	r2, [r7, #4]
 14521 005e 274B     		ldr	r3, .L920+36
 14522 0060 9A42     		cmp	r2, r3
 14523 0062 17D0     		beq	.L915
 14524              		.loc 1 2679 0 discriminator 10
 14525 0064 7A68     		ldr	r2, [r7, #4]
 14526 0066 264B     		ldr	r3, .L920+40
 14527 0068 9A42     		cmp	r2, r3
 14528 006a 13D0     		beq	.L915
 14529              		.loc 1 2679 0 discriminator 11
 14530 006c 7A68     		ldr	r2, [r7, #4]
 14531 006e 254B     		ldr	r3, .L920+44
 14532 0070 9A42     		cmp	r2, r3
 14533 0072 0FD0     		beq	.L915
 14534              		.loc 1 2679 0 discriminator 12
 14535 0074 7A68     		ldr	r2, [r7, #4]
 14536 0076 244B     		ldr	r3, .L920+48
 14537 0078 9A42     		cmp	r2, r3
 14538 007a 0BD0     		beq	.L915
 14539              		.loc 1 2679 0 discriminator 13
 14540 007c 7A68     		ldr	r2, [r7, #4]
 14541 007e 234B     		ldr	r3, .L920+52
 14542 0080 9A42     		cmp	r2, r3
 14543 0082 07D0     		beq	.L915
 14544              		.loc 1 2679 0 discriminator 14
 14545 0084 7A68     		ldr	r2, [r7, #4]
 14546 0086 224B     		ldr	r3, .L920+56
 14547 0088 9A42     		cmp	r2, r3
 14548 008a 03D0     		beq	.L915
 14549              		.loc 1 2679 0 discriminator 15
 14550 008c 7A68     		ldr	r2, [r7, #4]
 14551 008e 214B     		ldr	r3, .L920+60
 14552 0090 9A42     		cmp	r2, r3
 14553 0092 02D1     		bne	.L916
 14554              	.L915:
 14555              		.loc 1 2679 0 discriminator 1
 14556 0094 4FF00103 		mov	r3, #1
 14557 0098 01E0     		b	.L917
 14558              	.L916:
 14559              		.loc 1 2679 0 discriminator 3
 14560 009a 4FF00003 		mov	r3, #0
 14561              	.L917:
 14562              		.loc 1 2679 0 discriminator 4
 14563 009e 1846     		mov	r0, r3
 14564 00a0 FFF7FEFF 		bl	assert_param
2680:../libs/StdPeripheralDriver/src/stm32f10x_tim.c ****   assert_param(IS_TIM_IT(TIM_IT));
 14565              		.loc 1 2680 0 is_stmt 1 discriminator 4
 14566 00a4 7B88     		ldrh	r3, [r7, #2]
 14567 00a6 03F47F43 		and	r3, r3, #65280
 14568 00aa 002B     		cmp	r3, #0
 14569 00ac 05D1     		bne	.L918
 14570              		.loc 1 2680 0 is_stmt 0 discriminator 1
 14571 00ae 7B88     		ldrh	r3, [r7, #2]
 14572 00b0 002B     		cmp	r3, #0
 14573 00b2 02D0     		beq	.L918
 14574              		.loc 1 2680 0 discriminator 3
 14575 00b4 4FF00103 		mov	r3, #1
 14576 00b8 01E0     		b	.L919
 14577              	.L918:
 14578              		.loc 1 2680 0 discriminator 2
 14579 00ba 4FF00003 		mov	r3, #0
 14580              	.L919:
 14581              		.loc 1 2680 0 discriminator 4
 14582 00be 1846     		mov	r0, r3
 14583 00c0 FFF7FEFF 		bl	assert_param
2681:../libs/StdPeripheralDriver/src/stm32f10x_tim.c ****   /* Clear the IT pending Bit */
2682:../libs/StdPeripheralDriver/src/stm32f10x_tim.c ****   TIMx->SR = (uint16_t)~TIM_IT;
 14584              		.loc 1 2682 0 is_stmt 1 discriminator 4
 14585 00c4 7B88     		ldrh	r3, [r7, #2]	@ movhi
 14586 00c6 6FEA0303 		mvn	r3, r3
 14587 00ca 9AB2     		uxth	r2, r3
 14588 00cc 7B68     		ldr	r3, [r7, #4]
 14589 00ce 1A82     		strh	r2, [r3, #16]	@ movhi
2683:../libs/StdPeripheralDriver/src/stm32f10x_tim.c **** }
 14590              		.loc 1 2683 0 discriminator 4
 14591 00d0 07F10807 		add	r7, r7, #8
 14592 00d4 BD46     		mov	sp, r7
 14593 00d6 80BD     		pop	{r7, pc}
 14594              	.L921:
 14595              		.align	2
 14596              	.L920:
 14597 00d8 002C0140 		.word	1073818624
 14598 00dc 00040040 		.word	1073742848
 14599 00e0 00080040 		.word	1073743872
 14600 00e4 000C0040 		.word	1073744896
 14601 00e8 00100040 		.word	1073745920
 14602 00ec 00140040 		.word	1073746944
 14603 00f0 00340140 		.word	1073820672
 14604 00f4 004C0140 		.word	1073826816
 14605 00f8 00500140 		.word	1073827840
 14606 00fc 00540140 		.word	1073828864
 14607 0100 00180040 		.word	1073747968
 14608 0104 001C0040 		.word	1073748992
 14609 0108 00200040 		.word	1073750016
 14610 010c 00400140 		.word	1073823744
 14611 0110 00440140 		.word	1073824768
 14612 0114 00480140 		.word	1073825792
 14613              		.cfi_endproc
 14614              	.LFE115:
 14616              		.section	.text.TI1_Config,"ax",%progbits
 14617              		.align	2
 14618              		.thumb
 14619              		.thumb_func
 14621              	TI1_Config:
 14622              	.LFB116:
2684:../libs/StdPeripheralDriver/src/stm32f10x_tim.c **** 
2685:../libs/StdPeripheralDriver/src/stm32f10x_tim.c **** /**
2686:../libs/StdPeripheralDriver/src/stm32f10x_tim.c ****   * @brief  Configure the TI1 as Input.
2687:../libs/StdPeripheralDriver/src/stm32f10x_tim.c ****   * @param  TIMx: where x can be 1 to 17 except 6 and 7 to select the TIM peripheral.
2688:../libs/StdPeripheralDriver/src/stm32f10x_tim.c ****   * @param  TIM_ICPolarity : The Input Polarity.
2689:../libs/StdPeripheralDriver/src/stm32f10x_tim.c ****   *   This parameter can be one of the following values:
2690:../libs/StdPeripheralDriver/src/stm32f10x_tim.c ****   *     @arg TIM_ICPolarity_Rising
2691:../libs/StdPeripheralDriver/src/stm32f10x_tim.c ****   *     @arg TIM_ICPolarity_Falling
2692:../libs/StdPeripheralDriver/src/stm32f10x_tim.c ****   * @param  TIM_ICSelection: specifies the input to be used.
2693:../libs/StdPeripheralDriver/src/stm32f10x_tim.c ****   *   This parameter can be one of the following values:
2694:../libs/StdPeripheralDriver/src/stm32f10x_tim.c ****   *     @arg TIM_ICSelection_DirectTI: TIM Input 1 is selected to be connected to IC1.
2695:../libs/StdPeripheralDriver/src/stm32f10x_tim.c ****   *     @arg TIM_ICSelection_IndirectTI: TIM Input 1 is selected to be connected to IC2.
2696:../libs/StdPeripheralDriver/src/stm32f10x_tim.c ****   *     @arg TIM_ICSelection_TRC: TIM Input 1 is selected to be connected to TRC.
2697:../libs/StdPeripheralDriver/src/stm32f10x_tim.c ****   * @param  TIM_ICFilter: Specifies the Input Capture Filter.
2698:../libs/StdPeripheralDriver/src/stm32f10x_tim.c ****   *   This parameter must be a value between 0x00 and 0x0F.
2699:../libs/StdPeripheralDriver/src/stm32f10x_tim.c ****   * @retval None
2700:../libs/StdPeripheralDriver/src/stm32f10x_tim.c ****   */
2701:../libs/StdPeripheralDriver/src/stm32f10x_tim.c **** static void TI1_Config(TIM_TypeDef* TIMx, uint16_t TIM_ICPolarity, uint16_t TIM_ICSelection,
2702:../libs/StdPeripheralDriver/src/stm32f10x_tim.c ****                        uint16_t TIM_ICFilter)
2703:../libs/StdPeripheralDriver/src/stm32f10x_tim.c **** {
 14623              		.loc 1 2703 0
 14624              		.cfi_startproc
 14625              		@ args = 0, pretend = 0, frame = 24
 14626              		@ frame_needed = 1, uses_anonymous_args = 0
 14627              		@ link register save eliminated.
 14628 0000 80B4     		push	{r7}
 14629              	.LCFI261:
 14630              		.cfi_def_cfa_offset 4
 14631              		.cfi_offset 7, -4
 14632 0002 87B0     		sub	sp, sp, #28
 14633              	.LCFI262:
 14634              		.cfi_def_cfa_offset 32
 14635 0004 00AF     		add	r7, sp, #0
 14636              	.LCFI263:
 14637              		.cfi_def_cfa_register 7
 14638 0006 F860     		str	r0, [r7, #12]
 14639 0008 7981     		strh	r1, [r7, #10]	@ movhi
 14640 000a 3A81     		strh	r2, [r7, #8]	@ movhi
 14641 000c FB80     		strh	r3, [r7, #6]	@ movhi
2704:../libs/StdPeripheralDriver/src/stm32f10x_tim.c ****   uint16_t tmpccmr1 = 0, tmpccer = 0;
 14642              		.loc 1 2704 0
 14643 000e 4FF00003 		mov	r3, #0
 14644 0012 BB82     		strh	r3, [r7, #20]	@ movhi
 14645 0014 4FF00003 		mov	r3, #0
 14646 0018 FB82     		strh	r3, [r7, #22]	@ movhi
2705:../libs/StdPeripheralDriver/src/stm32f10x_tim.c ****   /* Disable the Channel 1: Reset the CC1E Bit */
2706:../libs/StdPeripheralDriver/src/stm32f10x_tim.c ****   TIMx->CCER &= (uint16_t)~((uint16_t)TIM_CCER_CC1E);
 14647              		.loc 1 2706 0
 14648 001a FB68     		ldr	r3, [r7, #12]
 14649 001c 1B8C     		ldrh	r3, [r3, #32]	@ movhi
 14650 001e 9BB2     		uxth	r3, r3
 14651 0020 23F00103 		bic	r3, r3, #1
 14652 0024 9AB2     		uxth	r2, r3
 14653 0026 FB68     		ldr	r3, [r7, #12]
 14654 0028 1A84     		strh	r2, [r3, #32]	@ movhi
2707:../libs/StdPeripheralDriver/src/stm32f10x_tim.c ****   tmpccmr1 = TIMx->CCMR1;
 14655              		.loc 1 2707 0
 14656 002a FB68     		ldr	r3, [r7, #12]
 14657 002c 1B8B     		ldrh	r3, [r3, #24]	@ movhi
 14658 002e BB82     		strh	r3, [r7, #20]	@ movhi
2708:../libs/StdPeripheralDriver/src/stm32f10x_tim.c ****   tmpccer = TIMx->CCER;
 14659              		.loc 1 2708 0
 14660 0030 FB68     		ldr	r3, [r7, #12]
 14661 0032 1B8C     		ldrh	r3, [r3, #32]	@ movhi
 14662 0034 FB82     		strh	r3, [r7, #22]	@ movhi
2709:../libs/StdPeripheralDriver/src/stm32f10x_tim.c ****   /* Select the Input and set the filter */
2710:../libs/StdPeripheralDriver/src/stm32f10x_tim.c ****   tmpccmr1 &= (uint16_t)(((uint16_t)~((uint16_t)TIM_CCMR1_CC1S)) & ((uint16_t)~((uint16_t)TIM_CCMR1
 14663              		.loc 1 2710 0
 14664 0036 BB8A     		ldrh	r3, [r7, #20]	@ movhi
 14665 0038 23F0F303 		bic	r3, r3, #243
 14666 003c BB82     		strh	r3, [r7, #20]	@ movhi
2711:../libs/StdPeripheralDriver/src/stm32f10x_tim.c ****   tmpccmr1 |= (uint16_t)(TIM_ICSelection | (uint16_t)(TIM_ICFilter << (uint16_t)4));
 14667              		.loc 1 2711 0
 14668 003e FB88     		ldrh	r3, [r7, #6]	@ movhi
 14669 0040 4FEA0313 		lsl	r3, r3, #4
 14670 0044 9AB2     		uxth	r2, r3
 14671 0046 3B89     		ldrh	r3, [r7, #8]	@ movhi
 14672 0048 1343     		orrs	r3, r3, r2
 14673 004a 9AB2     		uxth	r2, r3
 14674 004c BB8A     		ldrh	r3, [r7, #20]	@ movhi
 14675 004e 1343     		orrs	r3, r3, r2
 14676 0050 BB82     		strh	r3, [r7, #20]	@ movhi
2712:../libs/StdPeripheralDriver/src/stm32f10x_tim.c ****   
2713:../libs/StdPeripheralDriver/src/stm32f10x_tim.c ****   if((TIMx == TIM1) || (TIMx == TIM8) || (TIMx == TIM2) || (TIMx == TIM3) ||
 14677              		.loc 1 2713 0
 14678 0052 FA68     		ldr	r2, [r7, #12]
 14679 0054 1C4B     		ldr	r3, .L926
 14680 0056 9A42     		cmp	r2, r3
 14681 0058 13D0     		beq	.L923
 14682              		.loc 1 2713 0 is_stmt 0 discriminator 1
 14683 005a FA68     		ldr	r2, [r7, #12]
 14684 005c 1B4B     		ldr	r3, .L926+4
 14685 005e 9A42     		cmp	r2, r3
 14686 0060 0FD0     		beq	.L923
 14687 0062 FB68     		ldr	r3, [r7, #12]
 14688 0064 B3F1804F 		cmp	r3, #1073741824
 14689 0068 0BD0     		beq	.L923
 14690 006a FA68     		ldr	r2, [r7, #12]
 14691 006c 184B     		ldr	r3, .L926+8
 14692 006e 9A42     		cmp	r2, r3
 14693 0070 07D0     		beq	.L923
 14694 0072 FA68     		ldr	r2, [r7, #12]
 14695 0074 174B     		ldr	r3, .L926+12
 14696 0076 9A42     		cmp	r2, r3
 14697 0078 03D0     		beq	.L923
2714:../libs/StdPeripheralDriver/src/stm32f10x_tim.c ****      (TIMx == TIM4) ||(TIMx == TIM5))
 14698              		.loc 1 2714 0 is_stmt 1
 14699 007a FA68     		ldr	r2, [r7, #12]
 14700 007c 164B     		ldr	r3, .L926+16
 14701 007e 9A42     		cmp	r2, r3
 14702 0080 0BD1     		bne	.L924
 14703              	.L923:
2715:../libs/StdPeripheralDriver/src/stm32f10x_tim.c ****   {
2716:../libs/StdPeripheralDriver/src/stm32f10x_tim.c ****     /* Select the Polarity and set the CC1E Bit */
2717:../libs/StdPeripheralDriver/src/stm32f10x_tim.c ****     tmpccer &= (uint16_t)~((uint16_t)(TIM_CCER_CC1P));
 14704              		.loc 1 2717 0
 14705 0082 FB8A     		ldrh	r3, [r7, #22]	@ movhi
 14706 0084 23F00203 		bic	r3, r3, #2
 14707 0088 FB82     		strh	r3, [r7, #22]	@ movhi
2718:../libs/StdPeripheralDriver/src/stm32f10x_tim.c ****     tmpccer |= (uint16_t)(TIM_ICPolarity | (uint16_t)TIM_CCER_CC1E);
 14708              		.loc 1 2718 0
 14709 008a 7A89     		ldrh	r2, [r7, #10]	@ movhi
 14710 008c FB8A     		ldrh	r3, [r7, #22]	@ movhi
 14711 008e 1343     		orrs	r3, r3, r2
 14712 0090 9BB2     		uxth	r3, r3
 14713 0092 43F00103 		orr	r3, r3, #1
 14714 0096 FB82     		strh	r3, [r7, #22]	@ movhi
 14715 0098 0AE0     		b	.L925
 14716              	.L924:
2719:../libs/StdPeripheralDriver/src/stm32f10x_tim.c ****   }
2720:../libs/StdPeripheralDriver/src/stm32f10x_tim.c ****   else
2721:../libs/StdPeripheralDriver/src/stm32f10x_tim.c ****   {
2722:../libs/StdPeripheralDriver/src/stm32f10x_tim.c ****     /* Select the Polarity and set the CC1E Bit */
2723:../libs/StdPeripheralDriver/src/stm32f10x_tim.c ****     tmpccer &= (uint16_t)~((uint16_t)(TIM_CCER_CC1P | TIM_CCER_CC1NP));
 14717              		.loc 1 2723 0
 14718 009a FB8A     		ldrh	r3, [r7, #22]	@ movhi
 14719 009c 23F00A03 		bic	r3, r3, #10
 14720 00a0 FB82     		strh	r3, [r7, #22]	@ movhi
2724:../libs/StdPeripheralDriver/src/stm32f10x_tim.c ****     tmpccer |= (uint16_t)(TIM_ICPolarity | (uint16_t)TIM_CCER_CC1E);
 14721              		.loc 1 2724 0
 14722 00a2 7A89     		ldrh	r2, [r7, #10]	@ movhi
 14723 00a4 FB8A     		ldrh	r3, [r7, #22]	@ movhi
 14724 00a6 1343     		orrs	r3, r3, r2
 14725 00a8 9BB2     		uxth	r3, r3
 14726 00aa 43F00103 		orr	r3, r3, #1
 14727 00ae FB82     		strh	r3, [r7, #22]	@ movhi
 14728              	.L925:
2725:../libs/StdPeripheralDriver/src/stm32f10x_tim.c ****   }
2726:../libs/StdPeripheralDriver/src/stm32f10x_tim.c **** 
2727:../libs/StdPeripheralDriver/src/stm32f10x_tim.c ****   /* Write to TIMx CCMR1 and CCER registers */
2728:../libs/StdPeripheralDriver/src/stm32f10x_tim.c ****   TIMx->CCMR1 = tmpccmr1;
 14729              		.loc 1 2728 0
 14730 00b0 FB68     		ldr	r3, [r7, #12]
 14731 00b2 BA8A     		ldrh	r2, [r7, #20]	@ movhi
 14732 00b4 1A83     		strh	r2, [r3, #24]	@ movhi
2729:../libs/StdPeripheralDriver/src/stm32f10x_tim.c ****   TIMx->CCER = tmpccer;
 14733              		.loc 1 2729 0
 14734 00b6 FB68     		ldr	r3, [r7, #12]
 14735 00b8 FA8A     		ldrh	r2, [r7, #22]	@ movhi
 14736 00ba 1A84     		strh	r2, [r3, #32]	@ movhi
2730:../libs/StdPeripheralDriver/src/stm32f10x_tim.c **** }
 14737              		.loc 1 2730 0
 14738 00bc 07F11C07 		add	r7, r7, #28
 14739 00c0 BD46     		mov	sp, r7
 14740 00c2 80BC     		pop	{r7}
 14741 00c4 7047     		bx	lr
 14742              	.L927:
 14743 00c6 00BF     		.align	2
 14744              	.L926:
 14745 00c8 002C0140 		.word	1073818624
 14746 00cc 00340140 		.word	1073820672
 14747 00d0 00040040 		.word	1073742848
 14748 00d4 00080040 		.word	1073743872
 14749 00d8 000C0040 		.word	1073744896
 14750              		.cfi_endproc
 14751              	.LFE116:
 14753              		.section	.text.TI2_Config,"ax",%progbits
 14754              		.align	2
 14755              		.thumb
 14756              		.thumb_func
 14758              	TI2_Config:
 14759              	.LFB117:
2731:../libs/StdPeripheralDriver/src/stm32f10x_tim.c **** 
2732:../libs/StdPeripheralDriver/src/stm32f10x_tim.c **** /**
2733:../libs/StdPeripheralDriver/src/stm32f10x_tim.c ****   * @brief  Configure the TI2 as Input.
2734:../libs/StdPeripheralDriver/src/stm32f10x_tim.c ****   * @param  TIMx: where x can be 1, 2, 3, 4, 5, 8, 9, 12 or 15 to select the TIM peripheral.
2735:../libs/StdPeripheralDriver/src/stm32f10x_tim.c ****   * @param  TIM_ICPolarity : The Input Polarity.
2736:../libs/StdPeripheralDriver/src/stm32f10x_tim.c ****   *   This parameter can be one of the following values:
2737:../libs/StdPeripheralDriver/src/stm32f10x_tim.c ****   *     @arg TIM_ICPolarity_Rising
2738:../libs/StdPeripheralDriver/src/stm32f10x_tim.c ****   *     @arg TIM_ICPolarity_Falling
2739:../libs/StdPeripheralDriver/src/stm32f10x_tim.c ****   * @param  TIM_ICSelection: specifies the input to be used.
2740:../libs/StdPeripheralDriver/src/stm32f10x_tim.c ****   *   This parameter can be one of the following values:
2741:../libs/StdPeripheralDriver/src/stm32f10x_tim.c ****   *     @arg TIM_ICSelection_DirectTI: TIM Input 2 is selected to be connected to IC2.
2742:../libs/StdPeripheralDriver/src/stm32f10x_tim.c ****   *     @arg TIM_ICSelection_IndirectTI: TIM Input 2 is selected to be connected to IC1.
2743:../libs/StdPeripheralDriver/src/stm32f10x_tim.c ****   *     @arg TIM_ICSelection_TRC: TIM Input 2 is selected to be connected to TRC.
2744:../libs/StdPeripheralDriver/src/stm32f10x_tim.c ****   * @param  TIM_ICFilter: Specifies the Input Capture Filter.
2745:../libs/StdPeripheralDriver/src/stm32f10x_tim.c ****   *   This parameter must be a value between 0x00 and 0x0F.
2746:../libs/StdPeripheralDriver/src/stm32f10x_tim.c ****   * @retval None
2747:../libs/StdPeripheralDriver/src/stm32f10x_tim.c ****   */
2748:../libs/StdPeripheralDriver/src/stm32f10x_tim.c **** static void TI2_Config(TIM_TypeDef* TIMx, uint16_t TIM_ICPolarity, uint16_t TIM_ICSelection,
2749:../libs/StdPeripheralDriver/src/stm32f10x_tim.c ****                        uint16_t TIM_ICFilter)
2750:../libs/StdPeripheralDriver/src/stm32f10x_tim.c **** {
 14760              		.loc 1 2750 0
 14761              		.cfi_startproc
 14762              		@ args = 0, pretend = 0, frame = 24
 14763              		@ frame_needed = 1, uses_anonymous_args = 0
 14764              		@ link register save eliminated.
 14765 0000 80B4     		push	{r7}
 14766              	.LCFI264:
 14767              		.cfi_def_cfa_offset 4
 14768              		.cfi_offset 7, -4
 14769 0002 87B0     		sub	sp, sp, #28
 14770              	.LCFI265:
 14771              		.cfi_def_cfa_offset 32
 14772 0004 00AF     		add	r7, sp, #0
 14773              	.LCFI266:
 14774              		.cfi_def_cfa_register 7
 14775 0006 F860     		str	r0, [r7, #12]
 14776 0008 7981     		strh	r1, [r7, #10]	@ movhi
 14777 000a 3A81     		strh	r2, [r7, #8]	@ movhi
 14778 000c FB80     		strh	r3, [r7, #6]	@ movhi
2751:../libs/StdPeripheralDriver/src/stm32f10x_tim.c ****   uint16_t tmpccmr1 = 0, tmpccer = 0, tmp = 0;
 14779              		.loc 1 2751 0
 14780 000e 4FF00003 		mov	r3, #0
 14781 0012 BB82     		strh	r3, [r7, #20]	@ movhi
 14782 0014 4FF00003 		mov	r3, #0
 14783 0018 FB82     		strh	r3, [r7, #22]	@ movhi
 14784 001a 4FF00003 		mov	r3, #0
 14785 001e 7B82     		strh	r3, [r7, #18]	@ movhi
2752:../libs/StdPeripheralDriver/src/stm32f10x_tim.c ****   /* Disable the Channel 2: Reset the CC2E Bit */
2753:../libs/StdPeripheralDriver/src/stm32f10x_tim.c ****   TIMx->CCER &= (uint16_t)~((uint16_t)TIM_CCER_CC2E);
 14786              		.loc 1 2753 0
 14787 0020 FB68     		ldr	r3, [r7, #12]
 14788 0022 1B8C     		ldrh	r3, [r3, #32]	@ movhi
 14789 0024 9BB2     		uxth	r3, r3
 14790 0026 23F01003 		bic	r3, r3, #16
 14791 002a 9AB2     		uxth	r2, r3
 14792 002c FB68     		ldr	r3, [r7, #12]
 14793 002e 1A84     		strh	r2, [r3, #32]	@ movhi
2754:../libs/StdPeripheralDriver/src/stm32f10x_tim.c ****   tmpccmr1 = TIMx->CCMR1;
 14794              		.loc 1 2754 0
 14795 0030 FB68     		ldr	r3, [r7, #12]
 14796 0032 1B8B     		ldrh	r3, [r3, #24]	@ movhi
 14797 0034 BB82     		strh	r3, [r7, #20]	@ movhi
2755:../libs/StdPeripheralDriver/src/stm32f10x_tim.c ****   tmpccer = TIMx->CCER;
 14798              		.loc 1 2755 0
 14799 0036 FB68     		ldr	r3, [r7, #12]
 14800 0038 1B8C     		ldrh	r3, [r3, #32]	@ movhi
 14801 003a FB82     		strh	r3, [r7, #22]	@ movhi
2756:../libs/StdPeripheralDriver/src/stm32f10x_tim.c ****   tmp = (uint16_t)(TIM_ICPolarity << 4);
 14802              		.loc 1 2756 0
 14803 003c 7B89     		ldrh	r3, [r7, #10]	@ movhi
 14804 003e 4FEA0313 		lsl	r3, r3, #4
 14805 0042 7B82     		strh	r3, [r7, #18]	@ movhi
2757:../libs/StdPeripheralDriver/src/stm32f10x_tim.c ****   /* Select the Input and set the filter */
2758:../libs/StdPeripheralDriver/src/stm32f10x_tim.c ****   tmpccmr1 &= (uint16_t)(((uint16_t)~((uint16_t)TIM_CCMR1_CC2S)) & ((uint16_t)~((uint16_t)TIM_CCMR1
 14806              		.loc 1 2758 0
 14807 0044 BB8A     		ldrh	r3, [r7, #20]	@ movhi
 14808 0046 23F44073 		bic	r3, r3, #768
 14809 004a 4FEA0353 		lsl	r3, r3, #20
 14810 004e 4FEA1353 		lsr	r3, r3, #20
 14811 0052 BB82     		strh	r3, [r7, #20]	@ movhi
2759:../libs/StdPeripheralDriver/src/stm32f10x_tim.c ****   tmpccmr1 |= (uint16_t)(TIM_ICFilter << 12);
 14812              		.loc 1 2759 0
 14813 0054 FB88     		ldrh	r3, [r7, #6]	@ movhi
 14814 0056 4FEA0333 		lsl	r3, r3, #12
 14815 005a 9AB2     		uxth	r2, r3
 14816 005c BB8A     		ldrh	r3, [r7, #20]	@ movhi
 14817 005e 1343     		orrs	r3, r3, r2
 14818 0060 BB82     		strh	r3, [r7, #20]	@ movhi
2760:../libs/StdPeripheralDriver/src/stm32f10x_tim.c ****   tmpccmr1 |= (uint16_t)(TIM_ICSelection << 8);
 14819              		.loc 1 2760 0
 14820 0062 3B89     		ldrh	r3, [r7, #8]	@ movhi
 14821 0064 4FEA0323 		lsl	r3, r3, #8
 14822 0068 9AB2     		uxth	r2, r3
 14823 006a BB8A     		ldrh	r3, [r7, #20]	@ movhi
 14824 006c 1343     		orrs	r3, r3, r2
 14825 006e BB82     		strh	r3, [r7, #20]	@ movhi
2761:../libs/StdPeripheralDriver/src/stm32f10x_tim.c ****   
2762:../libs/StdPeripheralDriver/src/stm32f10x_tim.c ****   if((TIMx == TIM1) || (TIMx == TIM8) || (TIMx == TIM2) || (TIMx == TIM3) ||
 14826              		.loc 1 2762 0
 14827 0070 FA68     		ldr	r2, [r7, #12]
 14828 0072 1C4B     		ldr	r3, .L932
 14829 0074 9A42     		cmp	r2, r3
 14830 0076 13D0     		beq	.L929
 14831              		.loc 1 2762 0 is_stmt 0 discriminator 1
 14832 0078 FA68     		ldr	r2, [r7, #12]
 14833 007a 1B4B     		ldr	r3, .L932+4
 14834 007c 9A42     		cmp	r2, r3
 14835 007e 0FD0     		beq	.L929
 14836 0080 FB68     		ldr	r3, [r7, #12]
 14837 0082 B3F1804F 		cmp	r3, #1073741824
 14838 0086 0BD0     		beq	.L929
 14839 0088 FA68     		ldr	r2, [r7, #12]
 14840 008a 184B     		ldr	r3, .L932+8
 14841 008c 9A42     		cmp	r2, r3
 14842 008e 07D0     		beq	.L929
 14843 0090 FA68     		ldr	r2, [r7, #12]
 14844 0092 174B     		ldr	r3, .L932+12
 14845 0094 9A42     		cmp	r2, r3
 14846 0096 03D0     		beq	.L929
2763:../libs/StdPeripheralDriver/src/stm32f10x_tim.c ****      (TIMx == TIM4) ||(TIMx == TIM5))
 14847              		.loc 1 2763 0 is_stmt 1
 14848 0098 FA68     		ldr	r2, [r7, #12]
 14849 009a 164B     		ldr	r3, .L932+16
 14850 009c 9A42     		cmp	r2, r3
 14851 009e 0BD1     		bne	.L930
 14852              	.L929:
2764:../libs/StdPeripheralDriver/src/stm32f10x_tim.c ****   {
2765:../libs/StdPeripheralDriver/src/stm32f10x_tim.c ****     /* Select the Polarity and set the CC2E Bit */
2766:../libs/StdPeripheralDriver/src/stm32f10x_tim.c ****     tmpccer &= (uint16_t)~((uint16_t)(TIM_CCER_CC2P));
 14853              		.loc 1 2766 0
 14854 00a0 FB8A     		ldrh	r3, [r7, #22]	@ movhi
 14855 00a2 23F02003 		bic	r3, r3, #32
 14856 00a6 FB82     		strh	r3, [r7, #22]	@ movhi
2767:../libs/StdPeripheralDriver/src/stm32f10x_tim.c ****     tmpccer |=  (uint16_t)(tmp | (uint16_t)TIM_CCER_CC2E);
 14857              		.loc 1 2767 0
 14858 00a8 7A8A     		ldrh	r2, [r7, #18]	@ movhi
 14859 00aa FB8A     		ldrh	r3, [r7, #22]	@ movhi
 14860 00ac 1343     		orrs	r3, r3, r2
 14861 00ae 9BB2     		uxth	r3, r3
 14862 00b0 43F01003 		orr	r3, r3, #16
 14863 00b4 FB82     		strh	r3, [r7, #22]	@ movhi
 14864 00b6 0AE0     		b	.L931
 14865              	.L930:
2768:../libs/StdPeripheralDriver/src/stm32f10x_tim.c ****   }
2769:../libs/StdPeripheralDriver/src/stm32f10x_tim.c ****   else
2770:../libs/StdPeripheralDriver/src/stm32f10x_tim.c ****   {
2771:../libs/StdPeripheralDriver/src/stm32f10x_tim.c ****     /* Select the Polarity and set the CC2E Bit */
2772:../libs/StdPeripheralDriver/src/stm32f10x_tim.c ****     tmpccer &= (uint16_t)~((uint16_t)(TIM_CCER_CC2P | TIM_CCER_CC2NP));
 14866              		.loc 1 2772 0
 14867 00b8 FB8A     		ldrh	r3, [r7, #22]	@ movhi
 14868 00ba 23F0A003 		bic	r3, r3, #160
 14869 00be FB82     		strh	r3, [r7, #22]	@ movhi
2773:../libs/StdPeripheralDriver/src/stm32f10x_tim.c ****     tmpccer |= (uint16_t)(TIM_ICPolarity | (uint16_t)TIM_CCER_CC2E);
 14870              		.loc 1 2773 0
 14871 00c0 7A89     		ldrh	r2, [r7, #10]	@ movhi
 14872 00c2 FB8A     		ldrh	r3, [r7, #22]	@ movhi
 14873 00c4 1343     		orrs	r3, r3, r2
 14874 00c6 9BB2     		uxth	r3, r3
 14875 00c8 43F01003 		orr	r3, r3, #16
 14876 00cc FB82     		strh	r3, [r7, #22]	@ movhi
 14877              	.L931:
2774:../libs/StdPeripheralDriver/src/stm32f10x_tim.c ****   }
2775:../libs/StdPeripheralDriver/src/stm32f10x_tim.c ****   
2776:../libs/StdPeripheralDriver/src/stm32f10x_tim.c ****   /* Write to TIMx CCMR1 and CCER registers */
2777:../libs/StdPeripheralDriver/src/stm32f10x_tim.c ****   TIMx->CCMR1 = tmpccmr1 ;
 14878              		.loc 1 2777 0
 14879 00ce FB68     		ldr	r3, [r7, #12]
 14880 00d0 BA8A     		ldrh	r2, [r7, #20]	@ movhi
 14881 00d2 1A83     		strh	r2, [r3, #24]	@ movhi
2778:../libs/StdPeripheralDriver/src/stm32f10x_tim.c ****   TIMx->CCER = tmpccer;
 14882              		.loc 1 2778 0
 14883 00d4 FB68     		ldr	r3, [r7, #12]
 14884 00d6 FA8A     		ldrh	r2, [r7, #22]	@ movhi
 14885 00d8 1A84     		strh	r2, [r3, #32]	@ movhi
2779:../libs/StdPeripheralDriver/src/stm32f10x_tim.c **** }
 14886              		.loc 1 2779 0
 14887 00da 07F11C07 		add	r7, r7, #28
 14888 00de BD46     		mov	sp, r7
 14889 00e0 80BC     		pop	{r7}
 14890 00e2 7047     		bx	lr
 14891              	.L933:
 14892              		.align	2
 14893              	.L932:
 14894 00e4 002C0140 		.word	1073818624
 14895 00e8 00340140 		.word	1073820672
 14896 00ec 00040040 		.word	1073742848
 14897 00f0 00080040 		.word	1073743872
 14898 00f4 000C0040 		.word	1073744896
 14899              		.cfi_endproc
 14900              	.LFE117:
 14902              		.section	.text.TI3_Config,"ax",%progbits
 14903              		.align	2
 14904              		.thumb
 14905              		.thumb_func
 14907              	TI3_Config:
 14908              	.LFB118:
2780:../libs/StdPeripheralDriver/src/stm32f10x_tim.c **** 
2781:../libs/StdPeripheralDriver/src/stm32f10x_tim.c **** /**
2782:../libs/StdPeripheralDriver/src/stm32f10x_tim.c ****   * @brief  Configure the TI3 as Input.
2783:../libs/StdPeripheralDriver/src/stm32f10x_tim.c ****   * @param  TIMx: where x can be 1, 2, 3, 4, 5 or 8 to select the TIM peripheral.
2784:../libs/StdPeripheralDriver/src/stm32f10x_tim.c ****   * @param  TIM_ICPolarity : The Input Polarity.
2785:../libs/StdPeripheralDriver/src/stm32f10x_tim.c ****   *   This parameter can be one of the following values:
2786:../libs/StdPeripheralDriver/src/stm32f10x_tim.c ****   *     @arg TIM_ICPolarity_Rising
2787:../libs/StdPeripheralDriver/src/stm32f10x_tim.c ****   *     @arg TIM_ICPolarity_Falling
2788:../libs/StdPeripheralDriver/src/stm32f10x_tim.c ****   * @param  TIM_ICSelection: specifies the input to be used.
2789:../libs/StdPeripheralDriver/src/stm32f10x_tim.c ****   *   This parameter can be one of the following values:
2790:../libs/StdPeripheralDriver/src/stm32f10x_tim.c ****   *     @arg TIM_ICSelection_DirectTI: TIM Input 3 is selected to be connected to IC3.
2791:../libs/StdPeripheralDriver/src/stm32f10x_tim.c ****   *     @arg TIM_ICSelection_IndirectTI: TIM Input 3 is selected to be connected to IC4.
2792:../libs/StdPeripheralDriver/src/stm32f10x_tim.c ****   *     @arg TIM_ICSelection_TRC: TIM Input 3 is selected to be connected to TRC.
2793:../libs/StdPeripheralDriver/src/stm32f10x_tim.c ****   * @param  TIM_ICFilter: Specifies the Input Capture Filter.
2794:../libs/StdPeripheralDriver/src/stm32f10x_tim.c ****   *   This parameter must be a value between 0x00 and 0x0F.
2795:../libs/StdPeripheralDriver/src/stm32f10x_tim.c ****   * @retval None
2796:../libs/StdPeripheralDriver/src/stm32f10x_tim.c ****   */
2797:../libs/StdPeripheralDriver/src/stm32f10x_tim.c **** static void TI3_Config(TIM_TypeDef* TIMx, uint16_t TIM_ICPolarity, uint16_t TIM_ICSelection,
2798:../libs/StdPeripheralDriver/src/stm32f10x_tim.c ****                        uint16_t TIM_ICFilter)
2799:../libs/StdPeripheralDriver/src/stm32f10x_tim.c **** {
 14909              		.loc 1 2799 0
 14910              		.cfi_startproc
 14911              		@ args = 0, pretend = 0, frame = 24
 14912              		@ frame_needed = 1, uses_anonymous_args = 0
 14913              		@ link register save eliminated.
 14914 0000 80B4     		push	{r7}
 14915              	.LCFI267:
 14916              		.cfi_def_cfa_offset 4
 14917              		.cfi_offset 7, -4
 14918 0002 87B0     		sub	sp, sp, #28
 14919              	.LCFI268:
 14920              		.cfi_def_cfa_offset 32
 14921 0004 00AF     		add	r7, sp, #0
 14922              	.LCFI269:
 14923              		.cfi_def_cfa_register 7
 14924 0006 F860     		str	r0, [r7, #12]
 14925 0008 7981     		strh	r1, [r7, #10]	@ movhi
 14926 000a 3A81     		strh	r2, [r7, #8]	@ movhi
 14927 000c FB80     		strh	r3, [r7, #6]	@ movhi
2800:../libs/StdPeripheralDriver/src/stm32f10x_tim.c ****   uint16_t tmpccmr2 = 0, tmpccer = 0, tmp = 0;
 14928              		.loc 1 2800 0
 14929 000e 4FF00003 		mov	r3, #0
 14930 0012 BB82     		strh	r3, [r7, #20]	@ movhi
 14931 0014 4FF00003 		mov	r3, #0
 14932 0018 FB82     		strh	r3, [r7, #22]	@ movhi
 14933 001a 4FF00003 		mov	r3, #0
 14934 001e 7B82     		strh	r3, [r7, #18]	@ movhi
2801:../libs/StdPeripheralDriver/src/stm32f10x_tim.c ****   /* Disable the Channel 3: Reset the CC3E Bit */
2802:../libs/StdPeripheralDriver/src/stm32f10x_tim.c ****   TIMx->CCER &= (uint16_t)~((uint16_t)TIM_CCER_CC3E);
 14935              		.loc 1 2802 0
 14936 0020 FB68     		ldr	r3, [r7, #12]
 14937 0022 1B8C     		ldrh	r3, [r3, #32]	@ movhi
 14938 0024 9BB2     		uxth	r3, r3
 14939 0026 23F48073 		bic	r3, r3, #256
 14940 002a 9AB2     		uxth	r2, r3
 14941 002c FB68     		ldr	r3, [r7, #12]
 14942 002e 1A84     		strh	r2, [r3, #32]	@ movhi
2803:../libs/StdPeripheralDriver/src/stm32f10x_tim.c ****   tmpccmr2 = TIMx->CCMR2;
 14943              		.loc 1 2803 0
 14944 0030 FB68     		ldr	r3, [r7, #12]
 14945 0032 9B8B     		ldrh	r3, [r3, #28]	@ movhi
 14946 0034 BB82     		strh	r3, [r7, #20]	@ movhi
2804:../libs/StdPeripheralDriver/src/stm32f10x_tim.c ****   tmpccer = TIMx->CCER;
 14947              		.loc 1 2804 0
 14948 0036 FB68     		ldr	r3, [r7, #12]
 14949 0038 1B8C     		ldrh	r3, [r3, #32]	@ movhi
 14950 003a FB82     		strh	r3, [r7, #22]	@ movhi
2805:../libs/StdPeripheralDriver/src/stm32f10x_tim.c ****   tmp = (uint16_t)(TIM_ICPolarity << 8);
 14951              		.loc 1 2805 0
 14952 003c 7B89     		ldrh	r3, [r7, #10]	@ movhi
 14953 003e 4FEA0323 		lsl	r3, r3, #8
 14954 0042 7B82     		strh	r3, [r7, #18]	@ movhi
2806:../libs/StdPeripheralDriver/src/stm32f10x_tim.c ****   /* Select the Input and set the filter */
2807:../libs/StdPeripheralDriver/src/stm32f10x_tim.c ****   tmpccmr2 &= (uint16_t)(((uint16_t)~((uint16_t)TIM_CCMR2_CC3S)) & ((uint16_t)~((uint16_t)TIM_CCMR2
 14955              		.loc 1 2807 0
 14956 0044 BB8A     		ldrh	r3, [r7, #20]	@ movhi
 14957 0046 23F0F303 		bic	r3, r3, #243
 14958 004a BB82     		strh	r3, [r7, #20]	@ movhi
2808:../libs/StdPeripheralDriver/src/stm32f10x_tim.c ****   tmpccmr2 |= (uint16_t)(TIM_ICSelection | (uint16_t)(TIM_ICFilter << (uint16_t)4));
 14959              		.loc 1 2808 0
 14960 004c FB88     		ldrh	r3, [r7, #6]	@ movhi
 14961 004e 4FEA0313 		lsl	r3, r3, #4
 14962 0052 9AB2     		uxth	r2, r3
 14963 0054 3B89     		ldrh	r3, [r7, #8]	@ movhi
 14964 0056 1343     		orrs	r3, r3, r2
 14965 0058 9AB2     		uxth	r2, r3
 14966 005a BB8A     		ldrh	r3, [r7, #20]	@ movhi
 14967 005c 1343     		orrs	r3, r3, r2
 14968 005e BB82     		strh	r3, [r7, #20]	@ movhi
2809:../libs/StdPeripheralDriver/src/stm32f10x_tim.c ****     
2810:../libs/StdPeripheralDriver/src/stm32f10x_tim.c ****   if((TIMx == TIM1) || (TIMx == TIM8) || (TIMx == TIM2) || (TIMx == TIM3) ||
 14969              		.loc 1 2810 0
 14970 0060 FA68     		ldr	r2, [r7, #12]
 14971 0062 1C4B     		ldr	r3, .L938
 14972 0064 9A42     		cmp	r2, r3
 14973 0066 13D0     		beq	.L935
 14974              		.loc 1 2810 0 is_stmt 0 discriminator 1
 14975 0068 FA68     		ldr	r2, [r7, #12]
 14976 006a 1B4B     		ldr	r3, .L938+4
 14977 006c 9A42     		cmp	r2, r3
 14978 006e 0FD0     		beq	.L935
 14979 0070 FB68     		ldr	r3, [r7, #12]
 14980 0072 B3F1804F 		cmp	r3, #1073741824
 14981 0076 0BD0     		beq	.L935
 14982 0078 FA68     		ldr	r2, [r7, #12]
 14983 007a 184B     		ldr	r3, .L938+8
 14984 007c 9A42     		cmp	r2, r3
 14985 007e 07D0     		beq	.L935
 14986 0080 FA68     		ldr	r2, [r7, #12]
 14987 0082 174B     		ldr	r3, .L938+12
 14988 0084 9A42     		cmp	r2, r3
 14989 0086 03D0     		beq	.L935
2811:../libs/StdPeripheralDriver/src/stm32f10x_tim.c ****      (TIMx == TIM4) ||(TIMx == TIM5))
 14990              		.loc 1 2811 0 is_stmt 1
 14991 0088 FA68     		ldr	r2, [r7, #12]
 14992 008a 164B     		ldr	r3, .L938+16
 14993 008c 9A42     		cmp	r2, r3
 14994 008e 0BD1     		bne	.L936
 14995              	.L935:
2812:../libs/StdPeripheralDriver/src/stm32f10x_tim.c ****   {
2813:../libs/StdPeripheralDriver/src/stm32f10x_tim.c ****     /* Select the Polarity and set the CC3E Bit */
2814:../libs/StdPeripheralDriver/src/stm32f10x_tim.c ****     tmpccer &= (uint16_t)~((uint16_t)(TIM_CCER_CC3P));
 14996              		.loc 1 2814 0
 14997 0090 FB8A     		ldrh	r3, [r7, #22]	@ movhi
 14998 0092 23F40073 		bic	r3, r3, #512
 14999 0096 FB82     		strh	r3, [r7, #22]	@ movhi
2815:../libs/StdPeripheralDriver/src/stm32f10x_tim.c ****     tmpccer |= (uint16_t)(tmp | (uint16_t)TIM_CCER_CC3E);
 15000              		.loc 1 2815 0
 15001 0098 7A8A     		ldrh	r2, [r7, #18]	@ movhi
 15002 009a FB8A     		ldrh	r3, [r7, #22]	@ movhi
 15003 009c 1343     		orrs	r3, r3, r2
 15004 009e 9BB2     		uxth	r3, r3
 15005 00a0 43F48073 		orr	r3, r3, #256
 15006 00a4 FB82     		strh	r3, [r7, #22]	@ movhi
 15007 00a6 0AE0     		b	.L937
 15008              	.L936:
2816:../libs/StdPeripheralDriver/src/stm32f10x_tim.c ****   }
2817:../libs/StdPeripheralDriver/src/stm32f10x_tim.c ****   else
2818:../libs/StdPeripheralDriver/src/stm32f10x_tim.c ****   {
2819:../libs/StdPeripheralDriver/src/stm32f10x_tim.c ****     /* Select the Polarity and set the CC3E Bit */
2820:../libs/StdPeripheralDriver/src/stm32f10x_tim.c ****     tmpccer &= (uint16_t)~((uint16_t)(TIM_CCER_CC3P | TIM_CCER_CC3NP));
 15009              		.loc 1 2820 0
 15010 00a8 FB8A     		ldrh	r3, [r7, #22]	@ movhi
 15011 00aa 23F42063 		bic	r3, r3, #2560
 15012 00ae FB82     		strh	r3, [r7, #22]	@ movhi
2821:../libs/StdPeripheralDriver/src/stm32f10x_tim.c ****     tmpccer |= (uint16_t)(TIM_ICPolarity | (uint16_t)TIM_CCER_CC3E);
 15013              		.loc 1 2821 0
 15014 00b0 7A89     		ldrh	r2, [r7, #10]	@ movhi
 15015 00b2 FB8A     		ldrh	r3, [r7, #22]	@ movhi
 15016 00b4 1343     		orrs	r3, r3, r2
 15017 00b6 9BB2     		uxth	r3, r3
 15018 00b8 43F48073 		orr	r3, r3, #256
 15019 00bc FB82     		strh	r3, [r7, #22]	@ movhi
 15020              	.L937:
2822:../libs/StdPeripheralDriver/src/stm32f10x_tim.c ****   }
2823:../libs/StdPeripheralDriver/src/stm32f10x_tim.c ****   
2824:../libs/StdPeripheralDriver/src/stm32f10x_tim.c ****   /* Write to TIMx CCMR2 and CCER registers */
2825:../libs/StdPeripheralDriver/src/stm32f10x_tim.c ****   TIMx->CCMR2 = tmpccmr2;
 15021              		.loc 1 2825 0
 15022 00be FB68     		ldr	r3, [r7, #12]
 15023 00c0 BA8A     		ldrh	r2, [r7, #20]	@ movhi
 15024 00c2 9A83     		strh	r2, [r3, #28]	@ movhi
2826:../libs/StdPeripheralDriver/src/stm32f10x_tim.c ****   TIMx->CCER = tmpccer;
 15025              		.loc 1 2826 0
 15026 00c4 FB68     		ldr	r3, [r7, #12]
 15027 00c6 FA8A     		ldrh	r2, [r7, #22]	@ movhi
 15028 00c8 1A84     		strh	r2, [r3, #32]	@ movhi
2827:../libs/StdPeripheralDriver/src/stm32f10x_tim.c **** }
 15029              		.loc 1 2827 0
 15030 00ca 07F11C07 		add	r7, r7, #28
 15031 00ce BD46     		mov	sp, r7
 15032 00d0 80BC     		pop	{r7}
 15033 00d2 7047     		bx	lr
 15034              	.L939:
 15035              		.align	2
 15036              	.L938:
 15037 00d4 002C0140 		.word	1073818624
 15038 00d8 00340140 		.word	1073820672
 15039 00dc 00040040 		.word	1073742848
 15040 00e0 00080040 		.word	1073743872
 15041 00e4 000C0040 		.word	1073744896
 15042              		.cfi_endproc
 15043              	.LFE118:
 15045              		.section	.text.TI4_Config,"ax",%progbits
 15046              		.align	2
 15047              		.thumb
 15048              		.thumb_func
 15050              	TI4_Config:
 15051              	.LFB119:
2828:../libs/StdPeripheralDriver/src/stm32f10x_tim.c **** 
2829:../libs/StdPeripheralDriver/src/stm32f10x_tim.c **** /**
2830:../libs/StdPeripheralDriver/src/stm32f10x_tim.c ****   * @brief  Configure the TI4 as Input.
2831:../libs/StdPeripheralDriver/src/stm32f10x_tim.c ****   * @param  TIMx: where x can be 1, 2, 3, 4, 5 or 8 to select the TIM peripheral.
2832:../libs/StdPeripheralDriver/src/stm32f10x_tim.c ****   * @param  TIM_ICPolarity : The Input Polarity.
2833:../libs/StdPeripheralDriver/src/stm32f10x_tim.c ****   *   This parameter can be one of the following values:
2834:../libs/StdPeripheralDriver/src/stm32f10x_tim.c ****   *     @arg TIM_ICPolarity_Rising
2835:../libs/StdPeripheralDriver/src/stm32f10x_tim.c ****   *     @arg TIM_ICPolarity_Falling
2836:../libs/StdPeripheralDriver/src/stm32f10x_tim.c ****   * @param  TIM_ICSelection: specifies the input to be used.
2837:../libs/StdPeripheralDriver/src/stm32f10x_tim.c ****   *   This parameter can be one of the following values:
2838:../libs/StdPeripheralDriver/src/stm32f10x_tim.c ****   *     @arg TIM_ICSelection_DirectTI: TIM Input 4 is selected to be connected to IC4.
2839:../libs/StdPeripheralDriver/src/stm32f10x_tim.c ****   *     @arg TIM_ICSelection_IndirectTI: TIM Input 4 is selected to be connected to IC3.
2840:../libs/StdPeripheralDriver/src/stm32f10x_tim.c ****   *     @arg TIM_ICSelection_TRC: TIM Input 4 is selected to be connected to TRC.
2841:../libs/StdPeripheralDriver/src/stm32f10x_tim.c ****   * @param  TIM_ICFilter: Specifies the Input Capture Filter.
2842:../libs/StdPeripheralDriver/src/stm32f10x_tim.c ****   *   This parameter must be a value between 0x00 and 0x0F.
2843:../libs/StdPeripheralDriver/src/stm32f10x_tim.c ****   * @retval None
2844:../libs/StdPeripheralDriver/src/stm32f10x_tim.c ****   */
2845:../libs/StdPeripheralDriver/src/stm32f10x_tim.c **** static void TI4_Config(TIM_TypeDef* TIMx, uint16_t TIM_ICPolarity, uint16_t TIM_ICSelection,
2846:../libs/StdPeripheralDriver/src/stm32f10x_tim.c ****                        uint16_t TIM_ICFilter)
2847:../libs/StdPeripheralDriver/src/stm32f10x_tim.c **** {
 15052              		.loc 1 2847 0
 15053              		.cfi_startproc
 15054              		@ args = 0, pretend = 0, frame = 24
 15055              		@ frame_needed = 1, uses_anonymous_args = 0
 15056              		@ link register save eliminated.
 15057 0000 80B4     		push	{r7}
 15058              	.LCFI270:
 15059              		.cfi_def_cfa_offset 4
 15060              		.cfi_offset 7, -4
 15061 0002 87B0     		sub	sp, sp, #28
 15062              	.LCFI271:
 15063              		.cfi_def_cfa_offset 32
 15064 0004 00AF     		add	r7, sp, #0
 15065              	.LCFI272:
 15066              		.cfi_def_cfa_register 7
 15067 0006 F860     		str	r0, [r7, #12]
 15068 0008 7981     		strh	r1, [r7, #10]	@ movhi
 15069 000a 3A81     		strh	r2, [r7, #8]	@ movhi
 15070 000c FB80     		strh	r3, [r7, #6]	@ movhi
2848:../libs/StdPeripheralDriver/src/stm32f10x_tim.c ****   uint16_t tmpccmr2 = 0, tmpccer = 0, tmp = 0;
 15071              		.loc 1 2848 0
 15072 000e 4FF00003 		mov	r3, #0
 15073 0012 BB82     		strh	r3, [r7, #20]	@ movhi
 15074 0014 4FF00003 		mov	r3, #0
 15075 0018 FB82     		strh	r3, [r7, #22]	@ movhi
 15076 001a 4FF00003 		mov	r3, #0
 15077 001e 7B82     		strh	r3, [r7, #18]	@ movhi
2849:../libs/StdPeripheralDriver/src/stm32f10x_tim.c **** 
2850:../libs/StdPeripheralDriver/src/stm32f10x_tim.c ****    /* Disable the Channel 4: Reset the CC4E Bit */
2851:../libs/StdPeripheralDriver/src/stm32f10x_tim.c ****   TIMx->CCER &= (uint16_t)~((uint16_t)TIM_CCER_CC4E);
 15078              		.loc 1 2851 0
 15079 0020 FB68     		ldr	r3, [r7, #12]
 15080 0022 1B8C     		ldrh	r3, [r3, #32]	@ movhi
 15081 0024 9BB2     		uxth	r3, r3
 15082 0026 23F48053 		bic	r3, r3, #4096
 15083 002a 9AB2     		uxth	r2, r3
 15084 002c FB68     		ldr	r3, [r7, #12]
 15085 002e 1A84     		strh	r2, [r3, #32]	@ movhi
2852:../libs/StdPeripheralDriver/src/stm32f10x_tim.c ****   tmpccmr2 = TIMx->CCMR2;
 15086              		.loc 1 2852 0
 15087 0030 FB68     		ldr	r3, [r7, #12]
 15088 0032 9B8B     		ldrh	r3, [r3, #28]	@ movhi
 15089 0034 BB82     		strh	r3, [r7, #20]	@ movhi
2853:../libs/StdPeripheralDriver/src/stm32f10x_tim.c ****   tmpccer = TIMx->CCER;
 15090              		.loc 1 2853 0
 15091 0036 FB68     		ldr	r3, [r7, #12]
 15092 0038 1B8C     		ldrh	r3, [r3, #32]	@ movhi
 15093 003a FB82     		strh	r3, [r7, #22]	@ movhi
2854:../libs/StdPeripheralDriver/src/stm32f10x_tim.c ****   tmp = (uint16_t)(TIM_ICPolarity << 12);
 15094              		.loc 1 2854 0
 15095 003c 7B89     		ldrh	r3, [r7, #10]	@ movhi
 15096 003e 4FEA0333 		lsl	r3, r3, #12
 15097 0042 7B82     		strh	r3, [r7, #18]	@ movhi
2855:../libs/StdPeripheralDriver/src/stm32f10x_tim.c ****   /* Select the Input and set the filter */
2856:../libs/StdPeripheralDriver/src/stm32f10x_tim.c ****   tmpccmr2 &= (uint16_t)((uint16_t)(~(uint16_t)TIM_CCMR2_CC4S) & ((uint16_t)~((uint16_t)TIM_CCMR2_I
 15098              		.loc 1 2856 0
 15099 0044 BB8A     		ldrh	r3, [r7, #20]	@ movhi
 15100 0046 23F44073 		bic	r3, r3, #768
 15101 004a 4FEA0353 		lsl	r3, r3, #20
 15102 004e 4FEA1353 		lsr	r3, r3, #20
 15103 0052 BB82     		strh	r3, [r7, #20]	@ movhi
2857:../libs/StdPeripheralDriver/src/stm32f10x_tim.c ****   tmpccmr2 |= (uint16_t)(TIM_ICSelection << 8);
 15104              		.loc 1 2857 0
 15105 0054 3B89     		ldrh	r3, [r7, #8]	@ movhi
 15106 0056 4FEA0323 		lsl	r3, r3, #8
 15107 005a 9AB2     		uxth	r2, r3
 15108 005c BB8A     		ldrh	r3, [r7, #20]	@ movhi
 15109 005e 1343     		orrs	r3, r3, r2
 15110 0060 BB82     		strh	r3, [r7, #20]	@ movhi
2858:../libs/StdPeripheralDriver/src/stm32f10x_tim.c ****   tmpccmr2 |= (uint16_t)(TIM_ICFilter << 12);
 15111              		.loc 1 2858 0
 15112 0062 FB88     		ldrh	r3, [r7, #6]	@ movhi
 15113 0064 4FEA0333 		lsl	r3, r3, #12
 15114 0068 9AB2     		uxth	r2, r3
 15115 006a BB8A     		ldrh	r3, [r7, #20]	@ movhi
 15116 006c 1343     		orrs	r3, r3, r2
 15117 006e BB82     		strh	r3, [r7, #20]	@ movhi
2859:../libs/StdPeripheralDriver/src/stm32f10x_tim.c ****   
2860:../libs/StdPeripheralDriver/src/stm32f10x_tim.c ****   if((TIMx == TIM1) || (TIMx == TIM8) || (TIMx == TIM2) || (TIMx == TIM3) ||
 15118              		.loc 1 2860 0
 15119 0070 FA68     		ldr	r2, [r7, #12]
 15120 0072 1E4B     		ldr	r3, .L944
 15121 0074 9A42     		cmp	r2, r3
 15122 0076 13D0     		beq	.L941
 15123              		.loc 1 2860 0 is_stmt 0 discriminator 1
 15124 0078 FA68     		ldr	r2, [r7, #12]
 15125 007a 1D4B     		ldr	r3, .L944+4
 15126 007c 9A42     		cmp	r2, r3
 15127 007e 0FD0     		beq	.L941
 15128 0080 FB68     		ldr	r3, [r7, #12]
 15129 0082 B3F1804F 		cmp	r3, #1073741824
 15130 0086 0BD0     		beq	.L941
 15131 0088 FA68     		ldr	r2, [r7, #12]
 15132 008a 1A4B     		ldr	r3, .L944+8
 15133 008c 9A42     		cmp	r2, r3
 15134 008e 07D0     		beq	.L941
 15135 0090 FA68     		ldr	r2, [r7, #12]
 15136 0092 194B     		ldr	r3, .L944+12
 15137 0094 9A42     		cmp	r2, r3
 15138 0096 03D0     		beq	.L941
2861:../libs/StdPeripheralDriver/src/stm32f10x_tim.c ****      (TIMx == TIM4) ||(TIMx == TIM5))
 15139              		.loc 1 2861 0 is_stmt 1
 15140 0098 FA68     		ldr	r2, [r7, #12]
 15141 009a 184B     		ldr	r3, .L944+16
 15142 009c 9A42     		cmp	r2, r3
 15143 009e 0BD1     		bne	.L942
 15144              	.L941:
2862:../libs/StdPeripheralDriver/src/stm32f10x_tim.c ****   {
2863:../libs/StdPeripheralDriver/src/stm32f10x_tim.c ****     /* Select the Polarity and set the CC4E Bit */
2864:../libs/StdPeripheralDriver/src/stm32f10x_tim.c ****     tmpccer &= (uint16_t)~((uint16_t)(TIM_CCER_CC4P));
 15145              		.loc 1 2864 0
 15146 00a0 FB8A     		ldrh	r3, [r7, #22]	@ movhi
 15147 00a2 23F40053 		bic	r3, r3, #8192
 15148 00a6 FB82     		strh	r3, [r7, #22]	@ movhi
2865:../libs/StdPeripheralDriver/src/stm32f10x_tim.c ****     tmpccer |= (uint16_t)(tmp | (uint16_t)TIM_CCER_CC4E);
 15149              		.loc 1 2865 0
 15150 00a8 7A8A     		ldrh	r2, [r7, #18]	@ movhi
 15151 00aa FB8A     		ldrh	r3, [r7, #22]	@ movhi
 15152 00ac 1343     		orrs	r3, r3, r2
 15153 00ae 9BB2     		uxth	r3, r3
 15154 00b0 43F48053 		orr	r3, r3, #4096
 15155 00b4 FB82     		strh	r3, [r7, #22]	@ movhi
 15156 00b6 0EE0     		b	.L943
 15157              	.L942:
2866:../libs/StdPeripheralDriver/src/stm32f10x_tim.c ****   }
2867:../libs/StdPeripheralDriver/src/stm32f10x_tim.c ****   else
2868:../libs/StdPeripheralDriver/src/stm32f10x_tim.c ****   {
2869:../libs/StdPeripheralDriver/src/stm32f10x_tim.c ****     /* Select the Polarity and set the CC4E Bit */
2870:../libs/StdPeripheralDriver/src/stm32f10x_tim.c ****     tmpccer &= (uint16_t)~((uint16_t)(TIM_CCER_CC3P | TIM_CCER_CC4NP));
 15158              		.loc 1 2870 0
 15159 00b8 FB8A     		ldrh	r3, [r7, #22]	@ movhi
 15160 00ba 23F40073 		bic	r3, r3, #512
 15161 00be 4FEA4343 		lsl	r3, r3, #17
 15162 00c2 4FEA5343 		lsr	r3, r3, #17
 15163 00c6 FB82     		strh	r3, [r7, #22]	@ movhi
2871:../libs/StdPeripheralDriver/src/stm32f10x_tim.c ****     tmpccer |= (uint16_t)(TIM_ICPolarity | (uint16_t)TIM_CCER_CC4E);
 15164              		.loc 1 2871 0
 15165 00c8 7A89     		ldrh	r2, [r7, #10]	@ movhi
 15166 00ca FB8A     		ldrh	r3, [r7, #22]	@ movhi
 15167 00cc 1343     		orrs	r3, r3, r2
 15168 00ce 9BB2     		uxth	r3, r3
 15169 00d0 43F48053 		orr	r3, r3, #4096
 15170 00d4 FB82     		strh	r3, [r7, #22]	@ movhi
 15171              	.L943:
2872:../libs/StdPeripheralDriver/src/stm32f10x_tim.c ****   }
2873:../libs/StdPeripheralDriver/src/stm32f10x_tim.c ****   /* Write to TIMx CCMR2 and CCER registers */
2874:../libs/StdPeripheralDriver/src/stm32f10x_tim.c ****   TIMx->CCMR2 = tmpccmr2;
 15172              		.loc 1 2874 0
 15173 00d6 FB68     		ldr	r3, [r7, #12]
 15174 00d8 BA8A     		ldrh	r2, [r7, #20]	@ movhi
 15175 00da 9A83     		strh	r2, [r3, #28]	@ movhi
2875:../libs/StdPeripheralDriver/src/stm32f10x_tim.c ****   TIMx->CCER = tmpccer;
 15176              		.loc 1 2875 0
 15177 00dc FB68     		ldr	r3, [r7, #12]
 15178 00de FA8A     		ldrh	r2, [r7, #22]	@ movhi
 15179 00e0 1A84     		strh	r2, [r3, #32]	@ movhi
2876:../libs/StdPeripheralDriver/src/stm32f10x_tim.c **** }
 15180              		.loc 1 2876 0
 15181 00e2 07F11C07 		add	r7, r7, #28
 15182 00e6 BD46     		mov	sp, r7
 15183 00e8 80BC     		pop	{r7}
 15184 00ea 7047     		bx	lr
 15185              	.L945:
 15186              		.align	2
 15187              	.L944:
 15188 00ec 002C0140 		.word	1073818624
 15189 00f0 00340140 		.word	1073820672
 15190 00f4 00040040 		.word	1073742848
 15191 00f8 00080040 		.word	1073743872
 15192 00fc 000C0040 		.word	1073744896
 15193              		.cfi_endproc
 15194              	.LFE119:
 15196              		.text
 15197              	.Letext0:
 15198              		.file 2 "d:\\programs\\stm programs\\codebench\\bin\\../lib/gcc/arm-none-eabi/4.7.3/../../../../ar
 15199              		.file 3 "D:\\PROGRAMMING\\stm\\stm-discovery_test_project\\libs\\CMSIS/stm32f10x.h"
 15200              		.file 4 "D:\\PROGRAMMING\\stm\\stm-discovery_test_project\\libs\\StdPeripheralDriver\\inc/stm32f10
 15201              		.file 5 "D:\\PROGRAMMING\\stm\\stm-discovery_test_project\\libs\\CMSIS/core_cm3.h"
DEFINED SYMBOLS
                            *ABS*:00000000 stm32f10x_tim.c
C:\Users\6262~1\AppData\Local\Temp\ccMyoMaR.s:19     .text.TIM_DeInit:00000000 $t
C:\Users\6262~1\AppData\Local\Temp\ccMyoMaR.s:24     .text.TIM_DeInit:00000000 TIM_DeInit
C:\Users\6262~1\AppData\Local\Temp\ccMyoMaR.s:398    .text.TIM_DeInit:000002e8 $d
C:\Users\6262~1\AppData\Local\Temp\ccMyoMaR.s:418    .text.TIM_TimeBaseInit:00000000 $t
C:\Users\6262~1\AppData\Local\Temp\ccMyoMaR.s:423    .text.TIM_TimeBaseInit:00000000 TIM_TimeBaseInit
C:\Users\6262~1\AppData\Local\Temp\ccMyoMaR.s:719    .text.TIM_TimeBaseInit:000001d0 $d
C:\Users\6262~1\AppData\Local\Temp\ccMyoMaR.s:739    .text.TIM_OC1Init:00000000 $t
C:\Users\6262~1\AppData\Local\Temp\ccMyoMaR.s:744    .text.TIM_OC1Init:00000000 TIM_OC1Init
C:\Users\6262~1\AppData\Local\Temp\ccMyoMaR.s:1092   .text.TIM_OC1Init:00000220 $d
C:\Users\6262~1\AppData\Local\Temp\ccMyoMaR.s:1108   .text.TIM_OC1Init:00000258 $t
C:\Users\6262~1\AppData\Local\Temp\ccMyoMaR.s:1179   .text.TIM_OC2Init:00000000 $t
C:\Users\6262~1\AppData\Local\Temp\ccMyoMaR.s:1184   .text.TIM_OC2Init:00000000 TIM_OC2Init
C:\Users\6262~1\AppData\Local\Temp\ccMyoMaR.s:1572   .text.TIM_OC2Init:00000274 $d
C:\Users\6262~1\AppData\Local\Temp\ccMyoMaR.s:1584   .text.TIM_OC3Init:00000000 $t
C:\Users\6262~1\AppData\Local\Temp\ccMyoMaR.s:1589   .text.TIM_OC3Init:00000000 TIM_OC3Init
C:\Users\6262~1\AppData\Local\Temp\ccMyoMaR.s:1960   .text.TIM_OC3Init:00000258 $d
C:\Users\6262~1\AppData\Local\Temp\ccMyoMaR.s:1969   .text.TIM_OC4Init:00000000 $t
C:\Users\6262~1\AppData\Local\Temp\ccMyoMaR.s:1974   .text.TIM_OC4Init:00000000 TIM_OC4Init
C:\Users\6262~1\AppData\Local\Temp\ccMyoMaR.s:2248   .text.TIM_OC4Init:000001b4 $d
C:\Users\6262~1\AppData\Local\Temp\ccMyoMaR.s:2257   .text.TIM_ICInit:00000000 $t
C:\Users\6262~1\AppData\Local\Temp\ccMyoMaR.s:2262   .text.TIM_ICInit:00000000 TIM_ICInit
C:\Users\6262~1\AppData\Local\Temp\ccMyoMaR.s:14621  .text.TI1_Config:00000000 TI1_Config
C:\Users\6262~1\AppData\Local\Temp\ccMyoMaR.s:12358  .text.TIM_SetIC1Prescaler:00000000 TIM_SetIC1Prescaler
C:\Users\6262~1\AppData\Local\Temp\ccMyoMaR.s:14758  .text.TI2_Config:00000000 TI2_Config
C:\Users\6262~1\AppData\Local\Temp\ccMyoMaR.s:12537  .text.TIM_SetIC2Prescaler:00000000 TIM_SetIC2Prescaler
C:\Users\6262~1\AppData\Local\Temp\ccMyoMaR.s:14907  .text.TI3_Config:00000000 TI3_Config
C:\Users\6262~1\AppData\Local\Temp\ccMyoMaR.s:12682  .text.TIM_SetIC3Prescaler:00000000 TIM_SetIC3Prescaler
C:\Users\6262~1\AppData\Local\Temp\ccMyoMaR.s:2748   .text.TIM_ICInit:000002f0 $d
C:\Users\6262~1\AppData\Local\Temp\ccMyoMaR.s:2764   .text.TIM_ICInit:00000328 $t
C:\Users\6262~1\AppData\Local\Temp\ccMyoMaR.s:15050  .text.TI4_Config:00000000 TI4_Config
C:\Users\6262~1\AppData\Local\Temp\ccMyoMaR.s:12807  .text.TIM_SetIC4Prescaler:00000000 TIM_SetIC4Prescaler
C:\Users\6262~1\AppData\Local\Temp\ccMyoMaR.s:2797   .text.TIM_PWMIConfig:00000000 $t
C:\Users\6262~1\AppData\Local\Temp\ccMyoMaR.s:2802   .text.TIM_PWMIConfig:00000000 TIM_PWMIConfig
C:\Users\6262~1\AppData\Local\Temp\ccMyoMaR.s:2985   .text.TIM_PWMIConfig:0000011c $d
C:\Users\6262~1\AppData\Local\Temp\ccMyoMaR.s:2997   .text.TIM_BDTRConfig:00000000 $t
C:\Users\6262~1\AppData\Local\Temp\ccMyoMaR.s:3002   .text.TIM_BDTRConfig:00000000 TIM_BDTRConfig
C:\Users\6262~1\AppData\Local\Temp\ccMyoMaR.s:3239   .text.TIM_BDTRConfig:00000164 $d
C:\Users\6262~1\AppData\Local\Temp\ccMyoMaR.s:3248   .text.TIM_TimeBaseStructInit:00000000 $t
C:\Users\6262~1\AppData\Local\Temp\ccMyoMaR.s:3253   .text.TIM_TimeBaseStructInit:00000000 TIM_TimeBaseStructInit
C:\Users\6262~1\AppData\Local\Temp\ccMyoMaR.s:3300   .text.TIM_OCStructInit:00000000 $t
C:\Users\6262~1\AppData\Local\Temp\ccMyoMaR.s:3305   .text.TIM_OCStructInit:00000000 TIM_OCStructInit
C:\Users\6262~1\AppData\Local\Temp\ccMyoMaR.s:3364   .text.TIM_ICStructInit:00000000 $t
C:\Users\6262~1\AppData\Local\Temp\ccMyoMaR.s:3369   .text.TIM_ICStructInit:00000000 TIM_ICStructInit
C:\Users\6262~1\AppData\Local\Temp\ccMyoMaR.s:3416   .text.TIM_BDTRStructInit:00000000 $t
C:\Users\6262~1\AppData\Local\Temp\ccMyoMaR.s:3421   .text.TIM_BDTRStructInit:00000000 TIM_BDTRStructInit
C:\Users\6262~1\AppData\Local\Temp\ccMyoMaR.s:3476   .text.TIM_Cmd:00000000 $t
C:\Users\6262~1\AppData\Local\Temp\ccMyoMaR.s:3481   .text.TIM_Cmd:00000000 TIM_Cmd
C:\Users\6262~1\AppData\Local\Temp\ccMyoMaR.s:3645   .text.TIM_Cmd:000000f0 $d
C:\Users\6262~1\AppData\Local\Temp\ccMyoMaR.s:3665   .text.TIM_CtrlPWMOutputs:00000000 $t
C:\Users\6262~1\AppData\Local\Temp\ccMyoMaR.s:3670   .text.TIM_CtrlPWMOutputs:00000000 TIM_CtrlPWMOutputs
C:\Users\6262~1\AppData\Local\Temp\ccMyoMaR.s:3777   .text.TIM_CtrlPWMOutputs:000000a0 $d
C:\Users\6262~1\AppData\Local\Temp\ccMyoMaR.s:3786   .text.TIM_ITConfig:00000000 $t
C:\Users\6262~1\AppData\Local\Temp\ccMyoMaR.s:3791   .text.TIM_ITConfig:00000000 TIM_ITConfig
C:\Users\6262~1\AppData\Local\Temp\ccMyoMaR.s:3980   .text.TIM_ITConfig:0000011c $d
C:\Users\6262~1\AppData\Local\Temp\ccMyoMaR.s:4000   .text.TIM_GenerateEvent:00000000 $t
C:\Users\6262~1\AppData\Local\Temp\ccMyoMaR.s:4005   .text.TIM_GenerateEvent:00000000 TIM_GenerateEvent
C:\Users\6262~1\AppData\Local\Temp\ccMyoMaR.s:4150   .text.TIM_GenerateEvent:000000d4 $d
C:\Users\6262~1\AppData\Local\Temp\ccMyoMaR.s:4170   .text.TIM_DMAConfig:00000000 $t
C:\Users\6262~1\AppData\Local\Temp\ccMyoMaR.s:4175   .text.TIM_DMAConfig:00000000 TIM_DMAConfig
C:\Users\6262~1\AppData\Local\Temp\ccMyoMaR.s:4436   .text.TIM_DMAConfig:000001a0 $d
C:\Users\6262~1\AppData\Local\Temp\ccMyoMaR.s:4448   .text.TIM_DMACmd:00000000 $t
C:\Users\6262~1\AppData\Local\Temp\ccMyoMaR.s:4453   .text.TIM_DMACmd:00000000 TIM_DMACmd
C:\Users\6262~1\AppData\Local\Temp\ccMyoMaR.s:4613   .text.TIM_DMACmd:000000ec $d
C:\Users\6262~1\AppData\Local\Temp\ccMyoMaR.s:4627   .text.TIM_InternalClockConfig:00000000 $t
C:\Users\6262~1\AppData\Local\Temp\ccMyoMaR.s:4632   .text.TIM_InternalClockConfig:00000000 TIM_InternalClockConfig
C:\Users\6262~1\AppData\Local\Temp\ccMyoMaR.s:4720   .text.TIM_InternalClockConfig:00000078 $d
C:\Users\6262~1\AppData\Local\Temp\ccMyoMaR.s:4732   .text.TIM_ITRxExternalClockConfig:00000000 $t
C:\Users\6262~1\AppData\Local\Temp\ccMyoMaR.s:4737   .text.TIM_ITRxExternalClockConfig:00000000 TIM_ITRxExternalClockConfig
C:\Users\6262~1\AppData\Local\Temp\ccMyoMaR.s:5854   .text.TIM_SelectInputTrigger:00000000 TIM_SelectInputTrigger
C:\Users\6262~1\AppData\Local\Temp\ccMyoMaR.s:4859   .text.TIM_ITRxExternalClockConfig:000000b0 $d
C:\Users\6262~1\AppData\Local\Temp\ccMyoMaR.s:4871   .text.TIM_TIxExternalClockConfig:00000000 $t
C:\Users\6262~1\AppData\Local\Temp\ccMyoMaR.s:4876   .text.TIM_TIxExternalClockConfig:00000000 TIM_TIxExternalClockConfig
C:\Users\6262~1\AppData\Local\Temp\ccMyoMaR.s:5043   .text.TIM_TIxExternalClockConfig:00000100 $d
C:\Users\6262~1\AppData\Local\Temp\ccMyoMaR.s:5055   .text.TIM_ETRClockMode1Config:00000000 $t
C:\Users\6262~1\AppData\Local\Temp\ccMyoMaR.s:5060   .text.TIM_ETRClockMode1Config:00000000 TIM_ETRClockMode1Config
C:\Users\6262~1\AppData\Local\Temp\ccMyoMaR.s:5381   .text.TIM_ETRConfig:00000000 TIM_ETRConfig
C:\Users\6262~1\AppData\Local\Temp\ccMyoMaR.s:5216   .text.TIM_ETRClockMode1Config:000000f4 $d
C:\Users\6262~1\AppData\Local\Temp\ccMyoMaR.s:5225   .text.TIM_ETRClockMode2Config:00000000 $t
C:\Users\6262~1\AppData\Local\Temp\ccMyoMaR.s:5230   .text.TIM_ETRClockMode2Config:00000000 TIM_ETRClockMode2Config
C:\Users\6262~1\AppData\Local\Temp\ccMyoMaR.s:5367   .text.TIM_ETRClockMode2Config:000000d0 $d
C:\Users\6262~1\AppData\Local\Temp\ccMyoMaR.s:5376   .text.TIM_ETRConfig:00000000 $t
C:\Users\6262~1\AppData\Local\Temp\ccMyoMaR.s:5532   .text.TIM_ETRConfig:000000e8 $d
C:\Users\6262~1\AppData\Local\Temp\ccMyoMaR.s:5541   .text.TIM_PrescalerConfig:00000000 $t
C:\Users\6262~1\AppData\Local\Temp\ccMyoMaR.s:5546   .text.TIM_PrescalerConfig:00000000 TIM_PrescalerConfig
C:\Users\6262~1\AppData\Local\Temp\ccMyoMaR.s:5697   .text.TIM_PrescalerConfig:000000d8 $d
C:\Users\6262~1\AppData\Local\Temp\ccMyoMaR.s:5717   .text.TIM_CounterModeConfig:00000000 $t
C:\Users\6262~1\AppData\Local\Temp\ccMyoMaR.s:5722   .text.TIM_CounterModeConfig:00000000 TIM_CounterModeConfig
C:\Users\6262~1\AppData\Local\Temp\ccMyoMaR.s:5840   .text.TIM_CounterModeConfig:000000a4 $d
C:\Users\6262~1\AppData\Local\Temp\ccMyoMaR.s:5849   .text.TIM_SelectInputTrigger:00000000 $t
C:\Users\6262~1\AppData\Local\Temp\ccMyoMaR.s:5999   .text.TIM_SelectInputTrigger:000000d0 $d
C:\Users\6262~1\AppData\Local\Temp\ccMyoMaR.s:6011   .text.TIM_EncoderInterfaceConfig:00000000 $t
C:\Users\6262~1\AppData\Local\Temp\ccMyoMaR.s:6016   .text.TIM_EncoderInterfaceConfig:00000000 TIM_EncoderInterfaceConfig
C:\Users\6262~1\AppData\Local\Temp\ccMyoMaR.s:6215   .text.TIM_EncoderInterfaceConfig:00000134 $d
C:\Users\6262~1\AppData\Local\Temp\ccMyoMaR.s:6225   .text.TIM_ForcedOC1Config:00000000 $t
C:\Users\6262~1\AppData\Local\Temp\ccMyoMaR.s:6230   .text.TIM_ForcedOC1Config:00000000 TIM_ForcedOC1Config
C:\Users\6262~1\AppData\Local\Temp\ccMyoMaR.s:6381   .text.TIM_ForcedOC1Config:000000dc $d
C:\Users\6262~1\AppData\Local\Temp\ccMyoMaR.s:6399   .text.TIM_ForcedOC2Config:00000000 $t
C:\Users\6262~1\AppData\Local\Temp\ccMyoMaR.s:6404   .text.TIM_ForcedOC2Config:00000000 TIM_ForcedOC2Config
C:\Users\6262~1\AppData\Local\Temp\ccMyoMaR.s:6527   .text.TIM_ForcedOC2Config:000000b0 $d
C:\Users\6262~1\AppData\Local\Temp\ccMyoMaR.s:6539   .text.TIM_ForcedOC3Config:00000000 $t
C:\Users\6262~1\AppData\Local\Temp\ccMyoMaR.s:6544   .text.TIM_ForcedOC3Config:00000000 TIM_ForcedOC3Config
C:\Users\6262~1\AppData\Local\Temp\ccMyoMaR.s:6650   .text.TIM_ForcedOC3Config:00000094 $d
C:\Users\6262~1\AppData\Local\Temp\ccMyoMaR.s:6659   .text.TIM_ForcedOC4Config:00000000 $t
C:\Users\6262~1\AppData\Local\Temp\ccMyoMaR.s:6664   .text.TIM_ForcedOC4Config:00000000 TIM_ForcedOC4Config
C:\Users\6262~1\AppData\Local\Temp\ccMyoMaR.s:6772   .text.TIM_ForcedOC4Config:00000098 $d
C:\Users\6262~1\AppData\Local\Temp\ccMyoMaR.s:6781   .text.TIM_ARRPreloadConfig:00000000 $t
C:\Users\6262~1\AppData\Local\Temp\ccMyoMaR.s:6786   .text.TIM_ARRPreloadConfig:00000000 TIM_ARRPreloadConfig
C:\Users\6262~1\AppData\Local\Temp\ccMyoMaR.s:6950   .text.TIM_ARRPreloadConfig:000000f0 $d
C:\Users\6262~1\AppData\Local\Temp\ccMyoMaR.s:6970   .text.TIM_SelectCOM:00000000 $t
C:\Users\6262~1\AppData\Local\Temp\ccMyoMaR.s:6975   .text.TIM_SelectCOM:00000000 TIM_SelectCOM
C:\Users\6262~1\AppData\Local\Temp\ccMyoMaR.s:7080   .text.TIM_SelectCOM:00000090 $d
C:\Users\6262~1\AppData\Local\Temp\ccMyoMaR.s:7089   .text.TIM_SelectCCDMA:00000000 $t
C:\Users\6262~1\AppData\Local\Temp\ccMyoMaR.s:7094   .text.TIM_SelectCCDMA:00000000 TIM_SelectCCDMA
C:\Users\6262~1\AppData\Local\Temp\ccMyoMaR.s:7218   .text.TIM_SelectCCDMA:000000b0 $d
C:\Users\6262~1\AppData\Local\Temp\ccMyoMaR.s:7230   .text.TIM_CCPreloadControl:00000000 $t
C:\Users\6262~1\AppData\Local\Temp\ccMyoMaR.s:7235   .text.TIM_CCPreloadControl:00000000 TIM_CCPreloadControl
C:\Users\6262~1\AppData\Local\Temp\ccMyoMaR.s:7349   .text.TIM_CCPreloadControl:000000a0 $d
C:\Users\6262~1\AppData\Local\Temp\ccMyoMaR.s:7359   .text.TIM_OC1PreloadConfig:00000000 $t
C:\Users\6262~1\AppData\Local\Temp\ccMyoMaR.s:7364   .text.TIM_OC1PreloadConfig:00000000 TIM_OC1PreloadConfig
C:\Users\6262~1\AppData\Local\Temp\ccMyoMaR.s:7515   .text.TIM_OC1PreloadConfig:000000dc $d
C:\Users\6262~1\AppData\Local\Temp\ccMyoMaR.s:7533   .text.TIM_OC2PreloadConfig:00000000 $t
C:\Users\6262~1\AppData\Local\Temp\ccMyoMaR.s:7538   .text.TIM_OC2PreloadConfig:00000000 TIM_OC2PreloadConfig
C:\Users\6262~1\AppData\Local\Temp\ccMyoMaR.s:7661   .text.TIM_OC2PreloadConfig:000000b0 $d
C:\Users\6262~1\AppData\Local\Temp\ccMyoMaR.s:7673   .text.TIM_OC3PreloadConfig:00000000 $t
C:\Users\6262~1\AppData\Local\Temp\ccMyoMaR.s:7678   .text.TIM_OC3PreloadConfig:00000000 TIM_OC3PreloadConfig
C:\Users\6262~1\AppData\Local\Temp\ccMyoMaR.s:7784   .text.TIM_OC3PreloadConfig:00000094 $d
C:\Users\6262~1\AppData\Local\Temp\ccMyoMaR.s:7793   .text.TIM_OC4PreloadConfig:00000000 $t
C:\Users\6262~1\AppData\Local\Temp\ccMyoMaR.s:7798   .text.TIM_OC4PreloadConfig:00000000 TIM_OC4PreloadConfig
C:\Users\6262~1\AppData\Local\Temp\ccMyoMaR.s:7906   .text.TIM_OC4PreloadConfig:00000098 $d
C:\Users\6262~1\AppData\Local\Temp\ccMyoMaR.s:7915   .text.TIM_OC1FastConfig:00000000 $t
C:\Users\6262~1\AppData\Local\Temp\ccMyoMaR.s:7920   .text.TIM_OC1FastConfig:00000000 TIM_OC1FastConfig
C:\Users\6262~1\AppData\Local\Temp\ccMyoMaR.s:8071   .text.TIM_OC1FastConfig:000000dc $d
C:\Users\6262~1\AppData\Local\Temp\ccMyoMaR.s:8089   .text.TIM_OC2FastConfig:00000000 $t
C:\Users\6262~1\AppData\Local\Temp\ccMyoMaR.s:8094   .text.TIM_OC2FastConfig:00000000 TIM_OC2FastConfig
C:\Users\6262~1\AppData\Local\Temp\ccMyoMaR.s:8217   .text.TIM_OC2FastConfig:000000b0 $d
C:\Users\6262~1\AppData\Local\Temp\ccMyoMaR.s:8229   .text.TIM_OC3FastConfig:00000000 $t
C:\Users\6262~1\AppData\Local\Temp\ccMyoMaR.s:8234   .text.TIM_OC3FastConfig:00000000 TIM_OC3FastConfig
C:\Users\6262~1\AppData\Local\Temp\ccMyoMaR.s:8340   .text.TIM_OC3FastConfig:00000094 $d
C:\Users\6262~1\AppData\Local\Temp\ccMyoMaR.s:8349   .text.TIM_OC4FastConfig:00000000 $t
C:\Users\6262~1\AppData\Local\Temp\ccMyoMaR.s:8354   .text.TIM_OC4FastConfig:00000000 TIM_OC4FastConfig
C:\Users\6262~1\AppData\Local\Temp\ccMyoMaR.s:8462   .text.TIM_OC4FastConfig:00000098 $d
C:\Users\6262~1\AppData\Local\Temp\ccMyoMaR.s:8471   .text.TIM_ClearOC1Ref:00000000 $t
C:\Users\6262~1\AppData\Local\Temp\ccMyoMaR.s:8476   .text.TIM_ClearOC1Ref:00000000 TIM_ClearOC1Ref
C:\Users\6262~1\AppData\Local\Temp\ccMyoMaR.s:8582   .text.TIM_ClearOC1Ref:00000094 $d
C:\Users\6262~1\AppData\Local\Temp\ccMyoMaR.s:8591   .text.TIM_ClearOC2Ref:00000000 $t
C:\Users\6262~1\AppData\Local\Temp\ccMyoMaR.s:8596   .text.TIM_ClearOC2Ref:00000000 TIM_ClearOC2Ref
C:\Users\6262~1\AppData\Local\Temp\ccMyoMaR.s:8705   .text.TIM_ClearOC2Ref:0000009c $d
C:\Users\6262~1\AppData\Local\Temp\ccMyoMaR.s:8714   .text.TIM_ClearOC3Ref:00000000 $t
C:\Users\6262~1\AppData\Local\Temp\ccMyoMaR.s:8719   .text.TIM_ClearOC3Ref:00000000 TIM_ClearOC3Ref
C:\Users\6262~1\AppData\Local\Temp\ccMyoMaR.s:8825   .text.TIM_ClearOC3Ref:00000094 $d
C:\Users\6262~1\AppData\Local\Temp\ccMyoMaR.s:8834   .text.TIM_ClearOC4Ref:00000000 $t
C:\Users\6262~1\AppData\Local\Temp\ccMyoMaR.s:8839   .text.TIM_ClearOC4Ref:00000000 TIM_ClearOC4Ref
C:\Users\6262~1\AppData\Local\Temp\ccMyoMaR.s:8948   .text.TIM_ClearOC4Ref:0000009c $d
C:\Users\6262~1\AppData\Local\Temp\ccMyoMaR.s:8957   .text.TIM_OC1PolarityConfig:00000000 $t
C:\Users\6262~1\AppData\Local\Temp\ccMyoMaR.s:8962   .text.TIM_OC1PolarityConfig:00000000 TIM_OC1PolarityConfig
C:\Users\6262~1\AppData\Local\Temp\ccMyoMaR.s:9113   .text.TIM_OC1PolarityConfig:000000dc $d
C:\Users\6262~1\AppData\Local\Temp\ccMyoMaR.s:9131   .text.TIM_OC1NPolarityConfig:00000000 $t
C:\Users\6262~1\AppData\Local\Temp\ccMyoMaR.s:9136   .text.TIM_OC1NPolarityConfig:00000000 TIM_OC1NPolarityConfig
C:\Users\6262~1\AppData\Local\Temp\ccMyoMaR.s:9238   .text.TIM_OC1NPolarityConfig:0000008c $d
C:\Users\6262~1\AppData\Local\Temp\ccMyoMaR.s:9247   .text.TIM_OC2PolarityConfig:00000000 $t
C:\Users\6262~1\AppData\Local\Temp\ccMyoMaR.s:9252   .text.TIM_OC2PolarityConfig:00000000 TIM_OC2PolarityConfig
C:\Users\6262~1\AppData\Local\Temp\ccMyoMaR.s:9375   .text.TIM_OC2PolarityConfig:000000b0 $d
C:\Users\6262~1\AppData\Local\Temp\ccMyoMaR.s:9387   .text.TIM_OC2NPolarityConfig:00000000 $t
C:\Users\6262~1\AppData\Local\Temp\ccMyoMaR.s:9392   .text.TIM_OC2NPolarityConfig:00000000 TIM_OC2NPolarityConfig
C:\Users\6262~1\AppData\Local\Temp\ccMyoMaR.s:9481   .text.TIM_OC2NPolarityConfig:00000078 $d
C:\Users\6262~1\AppData\Local\Temp\ccMyoMaR.s:9487   .text.TIM_OC3PolarityConfig:00000000 $t
C:\Users\6262~1\AppData\Local\Temp\ccMyoMaR.s:9492   .text.TIM_OC3PolarityConfig:00000000 TIM_OC3PolarityConfig
C:\Users\6262~1\AppData\Local\Temp\ccMyoMaR.s:9600   .text.TIM_OC3PolarityConfig:00000098 $d
C:\Users\6262~1\AppData\Local\Temp\ccMyoMaR.s:9609   .text.TIM_OC3NPolarityConfig:00000000 $t
C:\Users\6262~1\AppData\Local\Temp\ccMyoMaR.s:9614   .text.TIM_OC3NPolarityConfig:00000000 TIM_OC3NPolarityConfig
C:\Users\6262~1\AppData\Local\Temp\ccMyoMaR.s:9703   .text.TIM_OC3NPolarityConfig:00000078 $d
C:\Users\6262~1\AppData\Local\Temp\ccMyoMaR.s:9709   .text.TIM_OC4PolarityConfig:00000000 $t
C:\Users\6262~1\AppData\Local\Temp\ccMyoMaR.s:9714   .text.TIM_OC4PolarityConfig:00000000 TIM_OC4PolarityConfig
C:\Users\6262~1\AppData\Local\Temp\ccMyoMaR.s:9822   .text.TIM_OC4PolarityConfig:00000098 $d
C:\Users\6262~1\AppData\Local\Temp\ccMyoMaR.s:9831   .text.TIM_CCxCmd:00000000 $t
C:\Users\6262~1\AppData\Local\Temp\ccMyoMaR.s:9836   .text.TIM_CCxCmd:00000000 TIM_CCxCmd
C:\Users\6262~1\AppData\Local\Temp\ccMyoMaR.s:10027  .text.TIM_CCxCmd:00000124 $d
C:\Users\6262~1\AppData\Local\Temp\ccMyoMaR.s:10045  .text.TIM_CCxNCmd:00000000 $t
C:\Users\6262~1\AppData\Local\Temp\ccMyoMaR.s:10050  .text.TIM_CCxNCmd:00000000 TIM_CCxNCmd
C:\Users\6262~1\AppData\Local\Temp\ccMyoMaR.s:10187  .text.TIM_CCxNCmd:000000d0 $d
C:\Users\6262~1\AppData\Local\Temp\ccMyoMaR.s:10196  .text.TIM_SelectOCxM:00000000 $t
C:\Users\6262~1\AppData\Local\Temp\ccMyoMaR.s:10201  .text.TIM_SelectOCxM:00000000 TIM_SelectOCxM
C:\Users\6262~1\AppData\Local\Temp\ccMyoMaR.s:10470  .text.TIM_SelectOCxM:000001a8 $d
C:\Users\6262~1\AppData\Local\Temp\ccMyoMaR.s:10488  .text.TIM_UpdateDisableConfig:00000000 $t
C:\Users\6262~1\AppData\Local\Temp\ccMyoMaR.s:10493  .text.TIM_UpdateDisableConfig:00000000 TIM_UpdateDisableConfig
C:\Users\6262~1\AppData\Local\Temp\ccMyoMaR.s:10657  .text.TIM_UpdateDisableConfig:000000f0 $d
C:\Users\6262~1\AppData\Local\Temp\ccMyoMaR.s:10677  .text.TIM_UpdateRequestConfig:00000000 $t
C:\Users\6262~1\AppData\Local\Temp\ccMyoMaR.s:10682  .text.TIM_UpdateRequestConfig:00000000 TIM_UpdateRequestConfig
C:\Users\6262~1\AppData\Local\Temp\ccMyoMaR.s:10846  .text.TIM_UpdateRequestConfig:000000f0 $d
C:\Users\6262~1\AppData\Local\Temp\ccMyoMaR.s:10866  .text.TIM_SelectHallSensor:00000000 $t
C:\Users\6262~1\AppData\Local\Temp\ccMyoMaR.s:10871  .text.TIM_SelectHallSensor:00000000 TIM_SelectHallSensor
C:\Users\6262~1\AppData\Local\Temp\ccMyoMaR.s:10995  .text.TIM_SelectHallSensor:000000b0 $d
C:\Users\6262~1\AppData\Local\Temp\ccMyoMaR.s:11007  .text.TIM_SelectOnePulseMode:00000000 $t
C:\Users\6262~1\AppData\Local\Temp\ccMyoMaR.s:11012  .text.TIM_SelectOnePulseMode:00000000 TIM_SelectOnePulseMode
C:\Users\6262~1\AppData\Local\Temp\ccMyoMaR.s:11170  .text.TIM_SelectOnePulseMode:000000e8 $d
C:\Users\6262~1\AppData\Local\Temp\ccMyoMaR.s:11190  .text.TIM_SelectOutputTrigger:00000000 $t
C:\Users\6262~1\AppData\Local\Temp\ccMyoMaR.s:11195  .text.TIM_SelectOutputTrigger:00000000 TIM_SelectOutputTrigger
C:\Users\6262~1\AppData\Local\Temp\ccMyoMaR.s:11347  .text.TIM_SelectOutputTrigger:000000dc $d
C:\Users\6262~1\AppData\Local\Temp\ccMyoMaR.s:11361  .text.TIM_SelectSlaveMode:00000000 $t
C:\Users\6262~1\AppData\Local\Temp\ccMyoMaR.s:11366  .text.TIM_SelectSlaveMode:00000000 TIM_SelectSlaveMode
C:\Users\6262~1\AppData\Local\Temp\ccMyoMaR.s:11492  .text.TIM_SelectSlaveMode:000000b4 $d
C:\Users\6262~1\AppData\Local\Temp\ccMyoMaR.s:11504  .text.TIM_SelectMasterSlaveMode:00000000 $t
C:\Users\6262~1\AppData\Local\Temp\ccMyoMaR.s:11509  .text.TIM_SelectMasterSlaveMode:00000000 TIM_SelectMasterSlaveMode
C:\Users\6262~1\AppData\Local\Temp\ccMyoMaR.s:11627  .text.TIM_SelectMasterSlaveMode:000000a8 $d
C:\Users\6262~1\AppData\Local\Temp\ccMyoMaR.s:11639  .text.TIM_SetCounter:00000000 $t
C:\Users\6262~1\AppData\Local\Temp\ccMyoMaR.s:11644  .text.TIM_SetCounter:00000000 TIM_SetCounter
C:\Users\6262~1\AppData\Local\Temp\ccMyoMaR.s:11770  .text.TIM_SetCounter:000000b4 $d
C:\Users\6262~1\AppData\Local\Temp\ccMyoMaR.s:11790  .text.TIM_SetAutoreload:00000000 $t
C:\Users\6262~1\AppData\Local\Temp\ccMyoMaR.s:11795  .text.TIM_SetAutoreload:00000000 TIM_SetAutoreload
C:\Users\6262~1\AppData\Local\Temp\ccMyoMaR.s:11921  .text.TIM_SetAutoreload:000000b4 $d
C:\Users\6262~1\AppData\Local\Temp\ccMyoMaR.s:11941  .text.TIM_SetCompare1:00000000 $t
C:\Users\6262~1\AppData\Local\Temp\ccMyoMaR.s:11946  .text.TIM_SetCompare1:00000000 TIM_SetCompare1
C:\Users\6262~1\AppData\Local\Temp\ccMyoMaR.s:12062  .text.TIM_SetCompare1:000000a4 $d
C:\Users\6262~1\AppData\Local\Temp\ccMyoMaR.s:12080  .text.TIM_SetCompare2:00000000 $t
C:\Users\6262~1\AppData\Local\Temp\ccMyoMaR.s:12085  .text.TIM_SetCompare2:00000000 TIM_SetCompare2
C:\Users\6262~1\AppData\Local\Temp\ccMyoMaR.s:12171  .text.TIM_SetCompare2:00000074 $d
C:\Users\6262~1\AppData\Local\Temp\ccMyoMaR.s:12183  .text.TIM_SetCompare3:00000000 $t
C:\Users\6262~1\AppData\Local\Temp\ccMyoMaR.s:12188  .text.TIM_SetCompare3:00000000 TIM_SetCompare3
C:\Users\6262~1\AppData\Local\Temp\ccMyoMaR.s:12259  .text.TIM_SetCompare3:0000005c $d
C:\Users\6262~1\AppData\Local\Temp\ccMyoMaR.s:12268  .text.TIM_SetCompare4:00000000 $t
C:\Users\6262~1\AppData\Local\Temp\ccMyoMaR.s:12273  .text.TIM_SetCompare4:00000000 TIM_SetCompare4
C:\Users\6262~1\AppData\Local\Temp\ccMyoMaR.s:12344  .text.TIM_SetCompare4:0000005c $d
C:\Users\6262~1\AppData\Local\Temp\ccMyoMaR.s:12353  .text.TIM_SetIC1Prescaler:00000000 $t
C:\Users\6262~1\AppData\Local\Temp\ccMyoMaR.s:12514  .text.TIM_SetIC1Prescaler:000000e4 $d
C:\Users\6262~1\AppData\Local\Temp\ccMyoMaR.s:12532  .text.TIM_SetIC2Prescaler:00000000 $t
C:\Users\6262~1\AppData\Local\Temp\ccMyoMaR.s:12665  .text.TIM_SetIC2Prescaler:000000bc $d
C:\Users\6262~1\AppData\Local\Temp\ccMyoMaR.s:12677  .text.TIM_SetIC3Prescaler:00000000 $t
C:\Users\6262~1\AppData\Local\Temp\ccMyoMaR.s:12793  .text.TIM_SetIC3Prescaler:0000009c $d
C:\Users\6262~1\AppData\Local\Temp\ccMyoMaR.s:12802  .text.TIM_SetIC4Prescaler:00000000 $t
C:\Users\6262~1\AppData\Local\Temp\ccMyoMaR.s:12920  .text.TIM_SetIC4Prescaler:000000a4 $d
C:\Users\6262~1\AppData\Local\Temp\ccMyoMaR.s:12929  .text.TIM_SetClockDivision:00000000 $t
C:\Users\6262~1\AppData\Local\Temp\ccMyoMaR.s:12934  .text.TIM_SetClockDivision:00000000 TIM_SetClockDivision
C:\Users\6262~1\AppData\Local\Temp\ccMyoMaR.s:13085  .text.TIM_SetClockDivision:000000e4 $d
C:\Users\6262~1\AppData\Local\Temp\ccMyoMaR.s:13103  .text.TIM_GetCapture1:00000000 $t
C:\Users\6262~1\AppData\Local\Temp\ccMyoMaR.s:13108  .text.TIM_GetCapture1:00000000 TIM_GetCapture1
C:\Users\6262~1\AppData\Local\Temp\ccMyoMaR.s:13223  .text.TIM_GetCapture1:000000a0 $d
C:\Users\6262~1\AppData\Local\Temp\ccMyoMaR.s:13241  .text.TIM_GetCapture2:00000000 $t
C:\Users\6262~1\AppData\Local\Temp\ccMyoMaR.s:13246  .text.TIM_GetCapture2:00000000 TIM_GetCapture2
C:\Users\6262~1\AppData\Local\Temp\ccMyoMaR.s:13331  .text.TIM_GetCapture2:00000070 $d
C:\Users\6262~1\AppData\Local\Temp\ccMyoMaR.s:13343  .text.TIM_GetCapture3:00000000 $t
C:\Users\6262~1\AppData\Local\Temp\ccMyoMaR.s:13348  .text.TIM_GetCapture3:00000000 TIM_GetCapture3
C:\Users\6262~1\AppData\Local\Temp\ccMyoMaR.s:13418  .text.TIM_GetCapture3:00000058 $d
C:\Users\6262~1\AppData\Local\Temp\ccMyoMaR.s:13427  .text.TIM_GetCapture4:00000000 $t
C:\Users\6262~1\AppData\Local\Temp\ccMyoMaR.s:13432  .text.TIM_GetCapture4:00000000 TIM_GetCapture4
C:\Users\6262~1\AppData\Local\Temp\ccMyoMaR.s:13502  .text.TIM_GetCapture4:0000005c $d
C:\Users\6262~1\AppData\Local\Temp\ccMyoMaR.s:13511  .text.TIM_GetCounter:00000000 $t
C:\Users\6262~1\AppData\Local\Temp\ccMyoMaR.s:13516  .text.TIM_GetCounter:00000000 TIM_GetCounter
C:\Users\6262~1\AppData\Local\Temp\ccMyoMaR.s:13641  .text.TIM_GetCounter:000000b0 $d
C:\Users\6262~1\AppData\Local\Temp\ccMyoMaR.s:13661  .text.TIM_GetPrescaler:00000000 $t
C:\Users\6262~1\AppData\Local\Temp\ccMyoMaR.s:13666  .text.TIM_GetPrescaler:00000000 TIM_GetPrescaler
C:\Users\6262~1\AppData\Local\Temp\ccMyoMaR.s:13791  .text.TIM_GetPrescaler:000000b0 $d
C:\Users\6262~1\AppData\Local\Temp\ccMyoMaR.s:13811  .text.TIM_GetFlagStatus:00000000 $t
C:\Users\6262~1\AppData\Local\Temp\ccMyoMaR.s:13816  .text.TIM_GetFlagStatus:00000000 TIM_GetFlagStatus
C:\Users\6262~1\AppData\Local\Temp\ccMyoMaR.s:14021  .text.TIM_GetFlagStatus:00000134 $d
C:\Users\6262~1\AppData\Local\Temp\ccMyoMaR.s:14041  .text.TIM_ClearFlag:00000000 $t
C:\Users\6262~1\AppData\Local\Temp\ccMyoMaR.s:14046  .text.TIM_ClearFlag:00000000 TIM_ClearFlag
C:\Users\6262~1\AppData\Local\Temp\ccMyoMaR.s:14193  .text.TIM_ClearFlag:000000d8 $d
C:\Users\6262~1\AppData\Local\Temp\ccMyoMaR.s:14213  .text.TIM_GetITStatus:00000000 $t
C:\Users\6262~1\AppData\Local\Temp\ccMyoMaR.s:14218  .text.TIM_GetITStatus:00000000 TIM_GetITStatus
C:\Users\6262~1\AppData\Local\Temp\ccMyoMaR.s:14425  .text.TIM_GetITStatus:00000134 $d
C:\Users\6262~1\AppData\Local\Temp\ccMyoMaR.s:14445  .text.TIM_ClearITPendingBit:00000000 $t
C:\Users\6262~1\AppData\Local\Temp\ccMyoMaR.s:14450  .text.TIM_ClearITPendingBit:00000000 TIM_ClearITPendingBit
C:\Users\6262~1\AppData\Local\Temp\ccMyoMaR.s:14597  .text.TIM_ClearITPendingBit:000000d8 $d
C:\Users\6262~1\AppData\Local\Temp\ccMyoMaR.s:14617  .text.TI1_Config:00000000 $t
C:\Users\6262~1\AppData\Local\Temp\ccMyoMaR.s:14745  .text.TI1_Config:000000c8 $d
C:\Users\6262~1\AppData\Local\Temp\ccMyoMaR.s:14754  .text.TI2_Config:00000000 $t
C:\Users\6262~1\AppData\Local\Temp\ccMyoMaR.s:14894  .text.TI2_Config:000000e4 $d
C:\Users\6262~1\AppData\Local\Temp\ccMyoMaR.s:14903  .text.TI3_Config:00000000 $t
C:\Users\6262~1\AppData\Local\Temp\ccMyoMaR.s:15037  .text.TI3_Config:000000d4 $d
C:\Users\6262~1\AppData\Local\Temp\ccMyoMaR.s:15046  .text.TI4_Config:00000000 $t
C:\Users\6262~1\AppData\Local\Temp\ccMyoMaR.s:15188  .text.TI4_Config:000000ec $d
                     .debug_frame:00000010 $d
                           .group:00000000 wm4.1.a89c7a2b9e0955e95368adfe2cbc52f6
                           .group:00000000 wm4.stm32f10x.h.51.b859cb68ed44ee02c916b41cb8c68f1c
                           .group:00000000 wm4.core_cm3.h.25.d35e9a9b04ec4aaebae9bf79fff061f9
                           .group:00000000 wm4.stdint.h.10.90b695f550ca6cc3fb08fa83baf01e05
                           .group:00000000 wm4.core_cm3.h.113.b286929a54d33b4c8909a7132437b244
                           .group:00000000 wm4.stm32f10x.h.522.a925aafc848b1f088438cf0e9b167b78
                           .group:00000000 wm4.stm32f10x.h.8304.f7d8ad90959e99679b3257267c3aadfe
                           .group:00000000 wm4.stm32f10x_tim.h.169.8f8085157e91950a28cd697cc942a58d
                           .group:00000000 wm4.stm32f10x_rcc.h.25.fe8897e7491f2eb0cff54551d08eb765

UNDEFINED SYMBOLS
assert_param
RCC_APB2PeriphResetCmd
RCC_APB1PeriphResetCmd
