   1              		.syntax unified
   2              		.cpu cortex-m3
   3              		.fpu softvfp
   4              		.eabi_attribute 20, 1
   5              		.eabi_attribute 21, 1
   6              		.eabi_attribute 23, 3
   7              		.eabi_attribute 24, 1
   8              		.eabi_attribute 25, 1
   9              		.eabi_attribute 26, 1
  10              		.eabi_attribute 30, 6
  11              		.eabi_attribute 34, 1
  12              		.eabi_attribute 18, 4
  13              		.thumb
  14              		.file	"stm32f10x_dma.c"
  15              		.text
  16              	.Ltext0:
  17              		.cfi_sections	.debug_frame
  18              		.section	.text.DMA_DeInit,"ax",%progbits
  19              		.align	2
  20              		.global	DMA_DeInit
  21              		.thumb
  22              		.thumb_func
  24              	DMA_DeInit:
  25              	.LFB29:
  26              		.file 1 "../libs/StdPeripheralDriver/src/stm32f10x_dma.c"
   1:../libs/StdPeripheralDriver/src/stm32f10x_dma.c **** /**
   2:../libs/StdPeripheralDriver/src/stm32f10x_dma.c ****   ******************************************************************************
   3:../libs/StdPeripheralDriver/src/stm32f10x_dma.c ****   * @file    stm32f10x_dma.c
   4:../libs/StdPeripheralDriver/src/stm32f10x_dma.c ****   * @author  MCD Application Team
   5:../libs/StdPeripheralDriver/src/stm32f10x_dma.c ****   * @version V3.5.0
   6:../libs/StdPeripheralDriver/src/stm32f10x_dma.c ****   * @date    11-March-2011
   7:../libs/StdPeripheralDriver/src/stm32f10x_dma.c ****   * @brief   This file provides all the DMA firmware functions.
   8:../libs/StdPeripheralDriver/src/stm32f10x_dma.c ****   ******************************************************************************
   9:../libs/StdPeripheralDriver/src/stm32f10x_dma.c ****   * @attention
  10:../libs/StdPeripheralDriver/src/stm32f10x_dma.c ****   *
  11:../libs/StdPeripheralDriver/src/stm32f10x_dma.c ****   * THE PRESENT FIRMWARE WHICH IS FOR GUIDANCE ONLY AIMS AT PROVIDING CUSTOMERS
  12:../libs/StdPeripheralDriver/src/stm32f10x_dma.c ****   * WITH CODING INFORMATION REGARDING THEIR PRODUCTS IN ORDER FOR THEM TO SAVE
  13:../libs/StdPeripheralDriver/src/stm32f10x_dma.c ****   * TIME. AS A RESULT, STMICROELECTRONICS SHALL NOT BE HELD LIABLE FOR ANY
  14:../libs/StdPeripheralDriver/src/stm32f10x_dma.c ****   * DIRECT, INDIRECT OR CONSEQUENTIAL DAMAGES WITH RESPECT TO ANY CLAIMS ARISING
  15:../libs/StdPeripheralDriver/src/stm32f10x_dma.c ****   * FROM THE CONTENT OF SUCH FIRMWARE AND/OR THE USE MADE BY CUSTOMERS OF THE
  16:../libs/StdPeripheralDriver/src/stm32f10x_dma.c ****   * CODING INFORMATION CONTAINED HEREIN IN CONNECTION WITH THEIR PRODUCTS.
  17:../libs/StdPeripheralDriver/src/stm32f10x_dma.c ****   *
  18:../libs/StdPeripheralDriver/src/stm32f10x_dma.c ****   * <h2><center>&copy; COPYRIGHT 2011 STMicroelectronics</center></h2>
  19:../libs/StdPeripheralDriver/src/stm32f10x_dma.c ****   ******************************************************************************
  20:../libs/StdPeripheralDriver/src/stm32f10x_dma.c ****   */
  21:../libs/StdPeripheralDriver/src/stm32f10x_dma.c **** 
  22:../libs/StdPeripheralDriver/src/stm32f10x_dma.c **** /* Includes ------------------------------------------------------------------*/
  23:../libs/StdPeripheralDriver/src/stm32f10x_dma.c **** #include "stm32f10x_dma.h"
  24:../libs/StdPeripheralDriver/src/stm32f10x_dma.c **** #include "stm32f10x_rcc.h"
  25:../libs/StdPeripheralDriver/src/stm32f10x_dma.c **** 
  26:../libs/StdPeripheralDriver/src/stm32f10x_dma.c **** /** @addtogroup STM32F10x_StdPeriph_Driver
  27:../libs/StdPeripheralDriver/src/stm32f10x_dma.c ****   * @{
  28:../libs/StdPeripheralDriver/src/stm32f10x_dma.c ****   */
  29:../libs/StdPeripheralDriver/src/stm32f10x_dma.c **** 
  30:../libs/StdPeripheralDriver/src/stm32f10x_dma.c **** /** @defgroup DMA 
  31:../libs/StdPeripheralDriver/src/stm32f10x_dma.c ****   * @brief DMA driver modules
  32:../libs/StdPeripheralDriver/src/stm32f10x_dma.c ****   * @{
  33:../libs/StdPeripheralDriver/src/stm32f10x_dma.c ****   */ 
  34:../libs/StdPeripheralDriver/src/stm32f10x_dma.c **** 
  35:../libs/StdPeripheralDriver/src/stm32f10x_dma.c **** /** @defgroup DMA_Private_TypesDefinitions
  36:../libs/StdPeripheralDriver/src/stm32f10x_dma.c ****   * @{
  37:../libs/StdPeripheralDriver/src/stm32f10x_dma.c ****   */ 
  38:../libs/StdPeripheralDriver/src/stm32f10x_dma.c **** /**
  39:../libs/StdPeripheralDriver/src/stm32f10x_dma.c ****   * @}
  40:../libs/StdPeripheralDriver/src/stm32f10x_dma.c ****   */
  41:../libs/StdPeripheralDriver/src/stm32f10x_dma.c **** 
  42:../libs/StdPeripheralDriver/src/stm32f10x_dma.c **** /** @defgroup DMA_Private_Defines
  43:../libs/StdPeripheralDriver/src/stm32f10x_dma.c ****   * @{
  44:../libs/StdPeripheralDriver/src/stm32f10x_dma.c ****   */
  45:../libs/StdPeripheralDriver/src/stm32f10x_dma.c **** 
  46:../libs/StdPeripheralDriver/src/stm32f10x_dma.c **** 
  47:../libs/StdPeripheralDriver/src/stm32f10x_dma.c **** /* DMA1 Channelx interrupt pending bit masks */
  48:../libs/StdPeripheralDriver/src/stm32f10x_dma.c **** #define DMA1_Channel1_IT_Mask    ((uint32_t)(DMA_ISR_GIF1 | DMA_ISR_TCIF1 | DMA_ISR_HTIF1 | DMA_ISR
  49:../libs/StdPeripheralDriver/src/stm32f10x_dma.c **** #define DMA1_Channel2_IT_Mask    ((uint32_t)(DMA_ISR_GIF2 | DMA_ISR_TCIF2 | DMA_ISR_HTIF2 | DMA_ISR
  50:../libs/StdPeripheralDriver/src/stm32f10x_dma.c **** #define DMA1_Channel3_IT_Mask    ((uint32_t)(DMA_ISR_GIF3 | DMA_ISR_TCIF3 | DMA_ISR_HTIF3 | DMA_ISR
  51:../libs/StdPeripheralDriver/src/stm32f10x_dma.c **** #define DMA1_Channel4_IT_Mask    ((uint32_t)(DMA_ISR_GIF4 | DMA_ISR_TCIF4 | DMA_ISR_HTIF4 | DMA_ISR
  52:../libs/StdPeripheralDriver/src/stm32f10x_dma.c **** #define DMA1_Channel5_IT_Mask    ((uint32_t)(DMA_ISR_GIF5 | DMA_ISR_TCIF5 | DMA_ISR_HTIF5 | DMA_ISR
  53:../libs/StdPeripheralDriver/src/stm32f10x_dma.c **** #define DMA1_Channel6_IT_Mask    ((uint32_t)(DMA_ISR_GIF6 | DMA_ISR_TCIF6 | DMA_ISR_HTIF6 | DMA_ISR
  54:../libs/StdPeripheralDriver/src/stm32f10x_dma.c **** #define DMA1_Channel7_IT_Mask    ((uint32_t)(DMA_ISR_GIF7 | DMA_ISR_TCIF7 | DMA_ISR_HTIF7 | DMA_ISR
  55:../libs/StdPeripheralDriver/src/stm32f10x_dma.c **** 
  56:../libs/StdPeripheralDriver/src/stm32f10x_dma.c **** /* DMA2 Channelx interrupt pending bit masks */
  57:../libs/StdPeripheralDriver/src/stm32f10x_dma.c **** #define DMA2_Channel1_IT_Mask    ((uint32_t)(DMA_ISR_GIF1 | DMA_ISR_TCIF1 | DMA_ISR_HTIF1 | DMA_ISR
  58:../libs/StdPeripheralDriver/src/stm32f10x_dma.c **** #define DMA2_Channel2_IT_Mask    ((uint32_t)(DMA_ISR_GIF2 | DMA_ISR_TCIF2 | DMA_ISR_HTIF2 | DMA_ISR
  59:../libs/StdPeripheralDriver/src/stm32f10x_dma.c **** #define DMA2_Channel3_IT_Mask    ((uint32_t)(DMA_ISR_GIF3 | DMA_ISR_TCIF3 | DMA_ISR_HTIF3 | DMA_ISR
  60:../libs/StdPeripheralDriver/src/stm32f10x_dma.c **** #define DMA2_Channel4_IT_Mask    ((uint32_t)(DMA_ISR_GIF4 | DMA_ISR_TCIF4 | DMA_ISR_HTIF4 | DMA_ISR
  61:../libs/StdPeripheralDriver/src/stm32f10x_dma.c **** #define DMA2_Channel5_IT_Mask    ((uint32_t)(DMA_ISR_GIF5 | DMA_ISR_TCIF5 | DMA_ISR_HTIF5 | DMA_ISR
  62:../libs/StdPeripheralDriver/src/stm32f10x_dma.c **** 
  63:../libs/StdPeripheralDriver/src/stm32f10x_dma.c **** /* DMA2 FLAG mask */
  64:../libs/StdPeripheralDriver/src/stm32f10x_dma.c **** #define FLAG_Mask                ((uint32_t)0x10000000)
  65:../libs/StdPeripheralDriver/src/stm32f10x_dma.c **** 
  66:../libs/StdPeripheralDriver/src/stm32f10x_dma.c **** /* DMA registers Masks */
  67:../libs/StdPeripheralDriver/src/stm32f10x_dma.c **** #define CCR_CLEAR_Mask           ((uint32_t)0xFFFF800F)
  68:../libs/StdPeripheralDriver/src/stm32f10x_dma.c **** 
  69:../libs/StdPeripheralDriver/src/stm32f10x_dma.c **** /**
  70:../libs/StdPeripheralDriver/src/stm32f10x_dma.c ****   * @}
  71:../libs/StdPeripheralDriver/src/stm32f10x_dma.c ****   */
  72:../libs/StdPeripheralDriver/src/stm32f10x_dma.c **** 
  73:../libs/StdPeripheralDriver/src/stm32f10x_dma.c **** /** @defgroup DMA_Private_Macros
  74:../libs/StdPeripheralDriver/src/stm32f10x_dma.c ****   * @{
  75:../libs/StdPeripheralDriver/src/stm32f10x_dma.c ****   */
  76:../libs/StdPeripheralDriver/src/stm32f10x_dma.c **** 
  77:../libs/StdPeripheralDriver/src/stm32f10x_dma.c **** /**
  78:../libs/StdPeripheralDriver/src/stm32f10x_dma.c ****   * @}
  79:../libs/StdPeripheralDriver/src/stm32f10x_dma.c ****   */
  80:../libs/StdPeripheralDriver/src/stm32f10x_dma.c **** 
  81:../libs/StdPeripheralDriver/src/stm32f10x_dma.c **** /** @defgroup DMA_Private_Variables
  82:../libs/StdPeripheralDriver/src/stm32f10x_dma.c ****   * @{
  83:../libs/StdPeripheralDriver/src/stm32f10x_dma.c ****   */
  84:../libs/StdPeripheralDriver/src/stm32f10x_dma.c **** 
  85:../libs/StdPeripheralDriver/src/stm32f10x_dma.c **** /**
  86:../libs/StdPeripheralDriver/src/stm32f10x_dma.c ****   * @}
  87:../libs/StdPeripheralDriver/src/stm32f10x_dma.c ****   */
  88:../libs/StdPeripheralDriver/src/stm32f10x_dma.c **** 
  89:../libs/StdPeripheralDriver/src/stm32f10x_dma.c **** /** @defgroup DMA_Private_FunctionPrototypes
  90:../libs/StdPeripheralDriver/src/stm32f10x_dma.c ****   * @{
  91:../libs/StdPeripheralDriver/src/stm32f10x_dma.c ****   */
  92:../libs/StdPeripheralDriver/src/stm32f10x_dma.c **** 
  93:../libs/StdPeripheralDriver/src/stm32f10x_dma.c **** /**
  94:../libs/StdPeripheralDriver/src/stm32f10x_dma.c ****   * @}
  95:../libs/StdPeripheralDriver/src/stm32f10x_dma.c ****   */
  96:../libs/StdPeripheralDriver/src/stm32f10x_dma.c **** 
  97:../libs/StdPeripheralDriver/src/stm32f10x_dma.c **** /** @defgroup DMA_Private_Functions
  98:../libs/StdPeripheralDriver/src/stm32f10x_dma.c ****   * @{
  99:../libs/StdPeripheralDriver/src/stm32f10x_dma.c ****   */
 100:../libs/StdPeripheralDriver/src/stm32f10x_dma.c **** 
 101:../libs/StdPeripheralDriver/src/stm32f10x_dma.c **** /**
 102:../libs/StdPeripheralDriver/src/stm32f10x_dma.c ****   * @brief  Deinitializes the DMAy Channelx registers to their default reset
 103:../libs/StdPeripheralDriver/src/stm32f10x_dma.c ****   *         values.
 104:../libs/StdPeripheralDriver/src/stm32f10x_dma.c ****   * @param  DMAy_Channelx: where y can be 1 or 2 to select the DMA and
 105:../libs/StdPeripheralDriver/src/stm32f10x_dma.c ****   *   x can be 1 to 7 for DMA1 and 1 to 5 for DMA2 to select the DMA Channel.
 106:../libs/StdPeripheralDriver/src/stm32f10x_dma.c ****   * @retval None
 107:../libs/StdPeripheralDriver/src/stm32f10x_dma.c ****   */
 108:../libs/StdPeripheralDriver/src/stm32f10x_dma.c **** void DMA_DeInit(DMA_Channel_TypeDef* DMAy_Channelx)
 109:../libs/StdPeripheralDriver/src/stm32f10x_dma.c **** {
  27              		.loc 1 109 0
  28              		.cfi_startproc
  29              		@ args = 0, pretend = 0, frame = 8
  30              		@ frame_needed = 1, uses_anonymous_args = 0
  31 0000 80B5     		push	{r7, lr}
  32              	.LCFI0:
  33              		.cfi_def_cfa_offset 8
  34              		.cfi_offset 7, -8
  35              		.cfi_offset 14, -4
  36 0002 82B0     		sub	sp, sp, #8
  37              	.LCFI1:
  38              		.cfi_def_cfa_offset 16
  39 0004 00AF     		add	r7, sp, #0
  40              	.LCFI2:
  41              		.cfi_def_cfa_register 7
  42 0006 7860     		str	r0, [r7, #4]
 110:../libs/StdPeripheralDriver/src/stm32f10x_dma.c ****   /* Check the parameters */
 111:../libs/StdPeripheralDriver/src/stm32f10x_dma.c ****   assert_param(IS_DMA_ALL_PERIPH(DMAy_Channelx));
  43              		.loc 1 111 0
  44 0008 7A68     		ldr	r2, [r7, #4]
  45 000a 6A4B     		ldr	r3, .L17
  46 000c 9A42     		cmp	r2, r3
  47 000e 2BD0     		beq	.L2
  48              		.loc 1 111 0 is_stmt 0 discriminator 2
  49 0010 7A68     		ldr	r2, [r7, #4]
  50 0012 694B     		ldr	r3, .L17+4
  51 0014 9A42     		cmp	r2, r3
  52 0016 27D0     		beq	.L2
  53              		.loc 1 111 0 discriminator 1
  54 0018 7A68     		ldr	r2, [r7, #4]
  55 001a 684B     		ldr	r3, .L17+8
  56 001c 9A42     		cmp	r2, r3
  57 001e 23D0     		beq	.L2
  58              		.loc 1 111 0 discriminator 2
  59 0020 7A68     		ldr	r2, [r7, #4]
  60 0022 674B     		ldr	r3, .L17+12
  61 0024 9A42     		cmp	r2, r3
  62 0026 1FD0     		beq	.L2
  63              		.loc 1 111 0 discriminator 3
  64 0028 7A68     		ldr	r2, [r7, #4]
  65 002a 664B     		ldr	r3, .L17+16
  66 002c 9A42     		cmp	r2, r3
  67 002e 1BD0     		beq	.L2
  68              		.loc 1 111 0 discriminator 4
  69 0030 7A68     		ldr	r2, [r7, #4]
  70 0032 654B     		ldr	r3, .L17+20
  71 0034 9A42     		cmp	r2, r3
  72 0036 17D0     		beq	.L2
  73              		.loc 1 111 0 discriminator 5
  74 0038 7A68     		ldr	r2, [r7, #4]
  75 003a 644B     		ldr	r3, .L17+24
  76 003c 9A42     		cmp	r2, r3
  77 003e 13D0     		beq	.L2
  78              		.loc 1 111 0 discriminator 6
  79 0040 7A68     		ldr	r2, [r7, #4]
  80 0042 634B     		ldr	r3, .L17+28
  81 0044 9A42     		cmp	r2, r3
  82 0046 0FD0     		beq	.L2
  83              		.loc 1 111 0 discriminator 7
  84 0048 7A68     		ldr	r2, [r7, #4]
  85 004a 624B     		ldr	r3, .L17+32
  86 004c 9A42     		cmp	r2, r3
  87 004e 0BD0     		beq	.L2
  88              		.loc 1 111 0 discriminator 8
  89 0050 7A68     		ldr	r2, [r7, #4]
  90 0052 614B     		ldr	r3, .L17+36
  91 0054 9A42     		cmp	r2, r3
  92 0056 07D0     		beq	.L2
  93              		.loc 1 111 0 discriminator 9
  94 0058 7A68     		ldr	r2, [r7, #4]
  95 005a 604B     		ldr	r3, .L17+40
  96 005c 9A42     		cmp	r2, r3
  97 005e 03D0     		beq	.L2
  98              		.loc 1 111 0 discriminator 10
  99 0060 7A68     		ldr	r2, [r7, #4]
 100 0062 5F4B     		ldr	r3, .L17+44
 101 0064 9A42     		cmp	r2, r3
 102 0066 02D1     		bne	.L3
 103              	.L2:
 104              		.loc 1 111 0 discriminator 1
 105 0068 4FF00103 		mov	r3, #1
 106 006c 01E0     		b	.L4
 107              	.L3:
 108              		.loc 1 111 0 discriminator 3
 109 006e 4FF00003 		mov	r3, #0
 110              	.L4:
 111              		.loc 1 111 0 discriminator 4
 112 0072 1846     		mov	r0, r3
 113 0074 FFF7FEFF 		bl	assert_param
 112:../libs/StdPeripheralDriver/src/stm32f10x_dma.c ****   
 113:../libs/StdPeripheralDriver/src/stm32f10x_dma.c ****   /* Disable the selected DMAy Channelx */
 114:../libs/StdPeripheralDriver/src/stm32f10x_dma.c ****   DMAy_Channelx->CCR &= (uint16_t)(~DMA_CCR1_EN);
 114              		.loc 1 114 0 is_stmt 1 discriminator 4
 115 0078 7B68     		ldr	r3, [r7, #4]
 116 007a 1A68     		ldr	r2, [r3, #0]
 117 007c 4FF6FE73 		movw	r3, #65534
 118 0080 1340     		ands	r3, r3, r2
 119 0082 7A68     		ldr	r2, [r7, #4]
 120 0084 1360     		str	r3, [r2, #0]
 115:../libs/StdPeripheralDriver/src/stm32f10x_dma.c ****   
 116:../libs/StdPeripheralDriver/src/stm32f10x_dma.c ****   /* Reset DMAy Channelx control register */
 117:../libs/StdPeripheralDriver/src/stm32f10x_dma.c ****   DMAy_Channelx->CCR  = 0;
 121              		.loc 1 117 0 discriminator 4
 122 0086 7B68     		ldr	r3, [r7, #4]
 123 0088 4FF00002 		mov	r2, #0
 124 008c 1A60     		str	r2, [r3, #0]
 118:../libs/StdPeripheralDriver/src/stm32f10x_dma.c ****   
 119:../libs/StdPeripheralDriver/src/stm32f10x_dma.c ****   /* Reset DMAy Channelx remaining bytes register */
 120:../libs/StdPeripheralDriver/src/stm32f10x_dma.c ****   DMAy_Channelx->CNDTR = 0;
 125              		.loc 1 120 0 discriminator 4
 126 008e 7B68     		ldr	r3, [r7, #4]
 127 0090 4FF00002 		mov	r2, #0
 128 0094 5A60     		str	r2, [r3, #4]
 121:../libs/StdPeripheralDriver/src/stm32f10x_dma.c ****   
 122:../libs/StdPeripheralDriver/src/stm32f10x_dma.c ****   /* Reset DMAy Channelx peripheral address register */
 123:../libs/StdPeripheralDriver/src/stm32f10x_dma.c ****   DMAy_Channelx->CPAR  = 0;
 129              		.loc 1 123 0 discriminator 4
 130 0096 7B68     		ldr	r3, [r7, #4]
 131 0098 4FF00002 		mov	r2, #0
 132 009c 9A60     		str	r2, [r3, #8]
 124:../libs/StdPeripheralDriver/src/stm32f10x_dma.c ****   
 125:../libs/StdPeripheralDriver/src/stm32f10x_dma.c ****   /* Reset DMAy Channelx memory address register */
 126:../libs/StdPeripheralDriver/src/stm32f10x_dma.c ****   DMAy_Channelx->CMAR = 0;
 133              		.loc 1 126 0 discriminator 4
 134 009e 7B68     		ldr	r3, [r7, #4]
 135 00a0 4FF00002 		mov	r2, #0
 136 00a4 DA60     		str	r2, [r3, #12]
 127:../libs/StdPeripheralDriver/src/stm32f10x_dma.c ****   
 128:../libs/StdPeripheralDriver/src/stm32f10x_dma.c ****   if (DMAy_Channelx == DMA1_Channel1)
 137              		.loc 1 128 0 discriminator 4
 138 00a6 7A68     		ldr	r2, [r7, #4]
 139 00a8 424B     		ldr	r3, .L17
 140 00aa 9A42     		cmp	r2, r3
 141 00ac 06D1     		bne	.L5
 129:../libs/StdPeripheralDriver/src/stm32f10x_dma.c ****   {
 130:../libs/StdPeripheralDriver/src/stm32f10x_dma.c ****     /* Reset interrupt pending bits for DMA1 Channel1 */
 131:../libs/StdPeripheralDriver/src/stm32f10x_dma.c ****     DMA1->IFCR |= DMA1_Channel1_IT_Mask;
 142              		.loc 1 131 0
 143 00ae 4D4B     		ldr	r3, .L17+48
 144 00b0 4C4A     		ldr	r2, .L17+48
 145 00b2 5268     		ldr	r2, [r2, #4]
 146 00b4 42F00F02 		orr	r2, r2, #15
 147 00b8 5A60     		str	r2, [r3, #4]
 148 00ba 77E0     		b	.L1
 149              	.L5:
 132:../libs/StdPeripheralDriver/src/stm32f10x_dma.c ****   }
 133:../libs/StdPeripheralDriver/src/stm32f10x_dma.c ****   else if (DMAy_Channelx == DMA1_Channel2)
 150              		.loc 1 133 0
 151 00bc 7A68     		ldr	r2, [r7, #4]
 152 00be 3E4B     		ldr	r3, .L17+4
 153 00c0 9A42     		cmp	r2, r3
 154 00c2 06D1     		bne	.L7
 134:../libs/StdPeripheralDriver/src/stm32f10x_dma.c ****   {
 135:../libs/StdPeripheralDriver/src/stm32f10x_dma.c ****     /* Reset interrupt pending bits for DMA1 Channel2 */
 136:../libs/StdPeripheralDriver/src/stm32f10x_dma.c ****     DMA1->IFCR |= DMA1_Channel2_IT_Mask;
 155              		.loc 1 136 0
 156 00c4 474B     		ldr	r3, .L17+48
 157 00c6 474A     		ldr	r2, .L17+48
 158 00c8 5268     		ldr	r2, [r2, #4]
 159 00ca 42F0F002 		orr	r2, r2, #240
 160 00ce 5A60     		str	r2, [r3, #4]
 161 00d0 6CE0     		b	.L1
 162              	.L7:
 137:../libs/StdPeripheralDriver/src/stm32f10x_dma.c ****   }
 138:../libs/StdPeripheralDriver/src/stm32f10x_dma.c ****   else if (DMAy_Channelx == DMA1_Channel3)
 163              		.loc 1 138 0
 164 00d2 7A68     		ldr	r2, [r7, #4]
 165 00d4 394B     		ldr	r3, .L17+8
 166 00d6 9A42     		cmp	r2, r3
 167 00d8 06D1     		bne	.L8
 139:../libs/StdPeripheralDriver/src/stm32f10x_dma.c ****   {
 140:../libs/StdPeripheralDriver/src/stm32f10x_dma.c ****     /* Reset interrupt pending bits for DMA1 Channel3 */
 141:../libs/StdPeripheralDriver/src/stm32f10x_dma.c ****     DMA1->IFCR |= DMA1_Channel3_IT_Mask;
 168              		.loc 1 141 0
 169 00da 424B     		ldr	r3, .L17+48
 170 00dc 414A     		ldr	r2, .L17+48
 171 00de 5268     		ldr	r2, [r2, #4]
 172 00e0 42F47062 		orr	r2, r2, #3840
 173 00e4 5A60     		str	r2, [r3, #4]
 174 00e6 61E0     		b	.L1
 175              	.L8:
 142:../libs/StdPeripheralDriver/src/stm32f10x_dma.c ****   }
 143:../libs/StdPeripheralDriver/src/stm32f10x_dma.c ****   else if (DMAy_Channelx == DMA1_Channel4)
 176              		.loc 1 143 0
 177 00e8 7A68     		ldr	r2, [r7, #4]
 178 00ea 354B     		ldr	r3, .L17+12
 179 00ec 9A42     		cmp	r2, r3
 180 00ee 06D1     		bne	.L9
 144:../libs/StdPeripheralDriver/src/stm32f10x_dma.c ****   {
 145:../libs/StdPeripheralDriver/src/stm32f10x_dma.c ****     /* Reset interrupt pending bits for DMA1 Channel4 */
 146:../libs/StdPeripheralDriver/src/stm32f10x_dma.c ****     DMA1->IFCR |= DMA1_Channel4_IT_Mask;
 181              		.loc 1 146 0
 182 00f0 3C4B     		ldr	r3, .L17+48
 183 00f2 3C4A     		ldr	r2, .L17+48
 184 00f4 5268     		ldr	r2, [r2, #4]
 185 00f6 42F47042 		orr	r2, r2, #61440
 186 00fa 5A60     		str	r2, [r3, #4]
 187 00fc 56E0     		b	.L1
 188              	.L9:
 147:../libs/StdPeripheralDriver/src/stm32f10x_dma.c ****   }
 148:../libs/StdPeripheralDriver/src/stm32f10x_dma.c ****   else if (DMAy_Channelx == DMA1_Channel5)
 189              		.loc 1 148 0
 190 00fe 7A68     		ldr	r2, [r7, #4]
 191 0100 304B     		ldr	r3, .L17+16
 192 0102 9A42     		cmp	r2, r3
 193 0104 06D1     		bne	.L10
 149:../libs/StdPeripheralDriver/src/stm32f10x_dma.c ****   {
 150:../libs/StdPeripheralDriver/src/stm32f10x_dma.c ****     /* Reset interrupt pending bits for DMA1 Channel5 */
 151:../libs/StdPeripheralDriver/src/stm32f10x_dma.c ****     DMA1->IFCR |= DMA1_Channel5_IT_Mask;
 194              		.loc 1 151 0
 195 0106 374B     		ldr	r3, .L17+48
 196 0108 364A     		ldr	r2, .L17+48
 197 010a 5268     		ldr	r2, [r2, #4]
 198 010c 42F47022 		orr	r2, r2, #983040
 199 0110 5A60     		str	r2, [r3, #4]
 200 0112 4BE0     		b	.L1
 201              	.L10:
 152:../libs/StdPeripheralDriver/src/stm32f10x_dma.c ****   }
 153:../libs/StdPeripheralDriver/src/stm32f10x_dma.c ****   else if (DMAy_Channelx == DMA1_Channel6)
 202              		.loc 1 153 0
 203 0114 7A68     		ldr	r2, [r7, #4]
 204 0116 2C4B     		ldr	r3, .L17+20
 205 0118 9A42     		cmp	r2, r3
 206 011a 06D1     		bne	.L11
 154:../libs/StdPeripheralDriver/src/stm32f10x_dma.c ****   {
 155:../libs/StdPeripheralDriver/src/stm32f10x_dma.c ****     /* Reset interrupt pending bits for DMA1 Channel6 */
 156:../libs/StdPeripheralDriver/src/stm32f10x_dma.c ****     DMA1->IFCR |= DMA1_Channel6_IT_Mask;
 207              		.loc 1 156 0
 208 011c 314B     		ldr	r3, .L17+48
 209 011e 314A     		ldr	r2, .L17+48
 210 0120 5268     		ldr	r2, [r2, #4]
 211 0122 42F47002 		orr	r2, r2, #15728640
 212 0126 5A60     		str	r2, [r3, #4]
 213 0128 40E0     		b	.L1
 214              	.L11:
 157:../libs/StdPeripheralDriver/src/stm32f10x_dma.c ****   }
 158:../libs/StdPeripheralDriver/src/stm32f10x_dma.c ****   else if (DMAy_Channelx == DMA1_Channel7)
 215              		.loc 1 158 0
 216 012a 7A68     		ldr	r2, [r7, #4]
 217 012c 274B     		ldr	r3, .L17+24
 218 012e 9A42     		cmp	r2, r3
 219 0130 06D1     		bne	.L12
 159:../libs/StdPeripheralDriver/src/stm32f10x_dma.c ****   {
 160:../libs/StdPeripheralDriver/src/stm32f10x_dma.c ****     /* Reset interrupt pending bits for DMA1 Channel7 */
 161:../libs/StdPeripheralDriver/src/stm32f10x_dma.c ****     DMA1->IFCR |= DMA1_Channel7_IT_Mask;
 220              		.loc 1 161 0
 221 0132 2C4B     		ldr	r3, .L17+48
 222 0134 2B4A     		ldr	r2, .L17+48
 223 0136 5268     		ldr	r2, [r2, #4]
 224 0138 42F07062 		orr	r2, r2, #251658240
 225 013c 5A60     		str	r2, [r3, #4]
 226 013e 35E0     		b	.L1
 227              	.L12:
 162:../libs/StdPeripheralDriver/src/stm32f10x_dma.c ****   }
 163:../libs/StdPeripheralDriver/src/stm32f10x_dma.c ****   else if (DMAy_Channelx == DMA2_Channel1)
 228              		.loc 1 163 0
 229 0140 7A68     		ldr	r2, [r7, #4]
 230 0142 234B     		ldr	r3, .L17+28
 231 0144 9A42     		cmp	r2, r3
 232 0146 06D1     		bne	.L13
 164:../libs/StdPeripheralDriver/src/stm32f10x_dma.c ****   {
 165:../libs/StdPeripheralDriver/src/stm32f10x_dma.c ****     /* Reset interrupt pending bits for DMA2 Channel1 */
 166:../libs/StdPeripheralDriver/src/stm32f10x_dma.c ****     DMA2->IFCR |= DMA2_Channel1_IT_Mask;
 233              		.loc 1 166 0
 234 0148 274B     		ldr	r3, .L17+52
 235 014a 274A     		ldr	r2, .L17+52
 236 014c 5268     		ldr	r2, [r2, #4]
 237 014e 42F00F02 		orr	r2, r2, #15
 238 0152 5A60     		str	r2, [r3, #4]
 239 0154 2AE0     		b	.L1
 240              	.L13:
 167:../libs/StdPeripheralDriver/src/stm32f10x_dma.c ****   }
 168:../libs/StdPeripheralDriver/src/stm32f10x_dma.c ****   else if (DMAy_Channelx == DMA2_Channel2)
 241              		.loc 1 168 0
 242 0156 7A68     		ldr	r2, [r7, #4]
 243 0158 1E4B     		ldr	r3, .L17+32
 244 015a 9A42     		cmp	r2, r3
 245 015c 06D1     		bne	.L14
 169:../libs/StdPeripheralDriver/src/stm32f10x_dma.c ****   {
 170:../libs/StdPeripheralDriver/src/stm32f10x_dma.c ****     /* Reset interrupt pending bits for DMA2 Channel2 */
 171:../libs/StdPeripheralDriver/src/stm32f10x_dma.c ****     DMA2->IFCR |= DMA2_Channel2_IT_Mask;
 246              		.loc 1 171 0
 247 015e 224B     		ldr	r3, .L17+52
 248 0160 214A     		ldr	r2, .L17+52
 249 0162 5268     		ldr	r2, [r2, #4]
 250 0164 42F0F002 		orr	r2, r2, #240
 251 0168 5A60     		str	r2, [r3, #4]
 252 016a 1FE0     		b	.L1
 253              	.L14:
 172:../libs/StdPeripheralDriver/src/stm32f10x_dma.c ****   }
 173:../libs/StdPeripheralDriver/src/stm32f10x_dma.c ****   else if (DMAy_Channelx == DMA2_Channel3)
 254              		.loc 1 173 0
 255 016c 7A68     		ldr	r2, [r7, #4]
 256 016e 1A4B     		ldr	r3, .L17+36
 257 0170 9A42     		cmp	r2, r3
 258 0172 06D1     		bne	.L15
 174:../libs/StdPeripheralDriver/src/stm32f10x_dma.c ****   {
 175:../libs/StdPeripheralDriver/src/stm32f10x_dma.c ****     /* Reset interrupt pending bits for DMA2 Channel3 */
 176:../libs/StdPeripheralDriver/src/stm32f10x_dma.c ****     DMA2->IFCR |= DMA2_Channel3_IT_Mask;
 259              		.loc 1 176 0
 260 0174 1C4B     		ldr	r3, .L17+52
 261 0176 1C4A     		ldr	r2, .L17+52
 262 0178 5268     		ldr	r2, [r2, #4]
 263 017a 42F47062 		orr	r2, r2, #3840
 264 017e 5A60     		str	r2, [r3, #4]
 265 0180 14E0     		b	.L1
 266              	.L15:
 177:../libs/StdPeripheralDriver/src/stm32f10x_dma.c ****   }
 178:../libs/StdPeripheralDriver/src/stm32f10x_dma.c ****   else if (DMAy_Channelx == DMA2_Channel4)
 267              		.loc 1 178 0
 268 0182 7A68     		ldr	r2, [r7, #4]
 269 0184 154B     		ldr	r3, .L17+40
 270 0186 9A42     		cmp	r2, r3
 271 0188 06D1     		bne	.L16
 179:../libs/StdPeripheralDriver/src/stm32f10x_dma.c ****   {
 180:../libs/StdPeripheralDriver/src/stm32f10x_dma.c ****     /* Reset interrupt pending bits for DMA2 Channel4 */
 181:../libs/StdPeripheralDriver/src/stm32f10x_dma.c ****     DMA2->IFCR |= DMA2_Channel4_IT_Mask;
 272              		.loc 1 181 0
 273 018a 174B     		ldr	r3, .L17+52
 274 018c 164A     		ldr	r2, .L17+52
 275 018e 5268     		ldr	r2, [r2, #4]
 276 0190 42F47042 		orr	r2, r2, #61440
 277 0194 5A60     		str	r2, [r3, #4]
 278 0196 09E0     		b	.L1
 279              	.L16:
 182:../libs/StdPeripheralDriver/src/stm32f10x_dma.c ****   }
 183:../libs/StdPeripheralDriver/src/stm32f10x_dma.c ****   else
 184:../libs/StdPeripheralDriver/src/stm32f10x_dma.c ****   { 
 185:../libs/StdPeripheralDriver/src/stm32f10x_dma.c ****     if (DMAy_Channelx == DMA2_Channel5)
 280              		.loc 1 185 0
 281 0198 7A68     		ldr	r2, [r7, #4]
 282 019a 114B     		ldr	r3, .L17+44
 283 019c 9A42     		cmp	r2, r3
 284 019e 05D1     		bne	.L1
 186:../libs/StdPeripheralDriver/src/stm32f10x_dma.c ****     {
 187:../libs/StdPeripheralDriver/src/stm32f10x_dma.c ****       /* Reset interrupt pending bits for DMA2 Channel5 */
 188:../libs/StdPeripheralDriver/src/stm32f10x_dma.c ****       DMA2->IFCR |= DMA2_Channel5_IT_Mask;
 285              		.loc 1 188 0
 286 01a0 114B     		ldr	r3, .L17+52
 287 01a2 114A     		ldr	r2, .L17+52
 288 01a4 5268     		ldr	r2, [r2, #4]
 289 01a6 42F47022 		orr	r2, r2, #983040
 290 01aa 5A60     		str	r2, [r3, #4]
 291              	.L1:
 189:../libs/StdPeripheralDriver/src/stm32f10x_dma.c ****     }
 190:../libs/StdPeripheralDriver/src/stm32f10x_dma.c ****   }
 191:../libs/StdPeripheralDriver/src/stm32f10x_dma.c **** }
 292              		.loc 1 191 0
 293 01ac 07F10807 		add	r7, r7, #8
 294 01b0 BD46     		mov	sp, r7
 295 01b2 80BD     		pop	{r7, pc}
 296              	.L18:
 297              		.align	2
 298              	.L17:
 299 01b4 08000240 		.word	1073872904
 300 01b8 1C000240 		.word	1073872924
 301 01bc 30000240 		.word	1073872944
 302 01c0 44000240 		.word	1073872964
 303 01c4 58000240 		.word	1073872984
 304 01c8 6C000240 		.word	1073873004
 305 01cc 80000240 		.word	1073873024
 306 01d0 08040240 		.word	1073873928
 307 01d4 1C040240 		.word	1073873948
 308 01d8 30040240 		.word	1073873968
 309 01dc 44040240 		.word	1073873988
 310 01e0 58040240 		.word	1073874008
 311 01e4 00000240 		.word	1073872896
 312 01e8 00040240 		.word	1073873920
 313              		.cfi_endproc
 314              	.LFE29:
 316              		.section	.text.DMA_Init,"ax",%progbits
 317              		.align	2
 318              		.global	DMA_Init
 319              		.thumb
 320              		.thumb_func
 322              	DMA_Init:
 323              	.LFB30:
 192:../libs/StdPeripheralDriver/src/stm32f10x_dma.c **** 
 193:../libs/StdPeripheralDriver/src/stm32f10x_dma.c **** /**
 194:../libs/StdPeripheralDriver/src/stm32f10x_dma.c ****   * @brief  Initializes the DMAy Channelx according to the specified
 195:../libs/StdPeripheralDriver/src/stm32f10x_dma.c ****   *         parameters in the DMA_InitStruct.
 196:../libs/StdPeripheralDriver/src/stm32f10x_dma.c ****   * @param  DMAy_Channelx: where y can be 1 or 2 to select the DMA and 
 197:../libs/StdPeripheralDriver/src/stm32f10x_dma.c ****   *   x can be 1 to 7 for DMA1 and 1 to 5 for DMA2 to select the DMA Channel.
 198:../libs/StdPeripheralDriver/src/stm32f10x_dma.c ****   * @param  DMA_InitStruct: pointer to a DMA_InitTypeDef structure that
 199:../libs/StdPeripheralDriver/src/stm32f10x_dma.c ****   *         contains the configuration information for the specified DMA Channel.
 200:../libs/StdPeripheralDriver/src/stm32f10x_dma.c ****   * @retval None
 201:../libs/StdPeripheralDriver/src/stm32f10x_dma.c ****   */
 202:../libs/StdPeripheralDriver/src/stm32f10x_dma.c **** void DMA_Init(DMA_Channel_TypeDef* DMAy_Channelx, DMA_InitTypeDef* DMA_InitStruct)
 203:../libs/StdPeripheralDriver/src/stm32f10x_dma.c **** {
 324              		.loc 1 203 0
 325              		.cfi_startproc
 326              		@ args = 0, pretend = 0, frame = 16
 327              		@ frame_needed = 1, uses_anonymous_args = 0
 328 0000 80B5     		push	{r7, lr}
 329              	.LCFI3:
 330              		.cfi_def_cfa_offset 8
 331              		.cfi_offset 7, -8
 332              		.cfi_offset 14, -4
 333 0002 84B0     		sub	sp, sp, #16
 334              	.LCFI4:
 335              		.cfi_def_cfa_offset 24
 336 0004 00AF     		add	r7, sp, #0
 337              	.LCFI5:
 338              		.cfi_def_cfa_register 7
 339 0006 7860     		str	r0, [r7, #4]
 340 0008 3960     		str	r1, [r7, #0]
 204:../libs/StdPeripheralDriver/src/stm32f10x_dma.c ****   uint32_t tmpreg = 0;
 341              		.loc 1 204 0
 342 000a 4FF00003 		mov	r3, #0
 343 000e FB60     		str	r3, [r7, #12]
 205:../libs/StdPeripheralDriver/src/stm32f10x_dma.c **** 
 206:../libs/StdPeripheralDriver/src/stm32f10x_dma.c ****   /* Check the parameters */
 207:../libs/StdPeripheralDriver/src/stm32f10x_dma.c ****   assert_param(IS_DMA_ALL_PERIPH(DMAy_Channelx));
 344              		.loc 1 207 0
 345 0010 7A68     		ldr	r2, [r7, #4]
 346 0012 8B4B     		ldr	r3, .L49
 347 0014 9A42     		cmp	r2, r3
 348 0016 2BD0     		beq	.L20
 349              		.loc 1 207 0 is_stmt 0 discriminator 2
 350 0018 7A68     		ldr	r2, [r7, #4]
 351 001a 8A4B     		ldr	r3, .L49+4
 352 001c 9A42     		cmp	r2, r3
 353 001e 27D0     		beq	.L20
 354              		.loc 1 207 0 discriminator 1
 355 0020 7A68     		ldr	r2, [r7, #4]
 356 0022 894B     		ldr	r3, .L49+8
 357 0024 9A42     		cmp	r2, r3
 358 0026 23D0     		beq	.L20
 359              		.loc 1 207 0 discriminator 2
 360 0028 7A68     		ldr	r2, [r7, #4]
 361 002a 884B     		ldr	r3, .L49+12
 362 002c 9A42     		cmp	r2, r3
 363 002e 1FD0     		beq	.L20
 364              		.loc 1 207 0 discriminator 3
 365 0030 7A68     		ldr	r2, [r7, #4]
 366 0032 874B     		ldr	r3, .L49+16
 367 0034 9A42     		cmp	r2, r3
 368 0036 1BD0     		beq	.L20
 369              		.loc 1 207 0 discriminator 4
 370 0038 7A68     		ldr	r2, [r7, #4]
 371 003a 864B     		ldr	r3, .L49+20
 372 003c 9A42     		cmp	r2, r3
 373 003e 17D0     		beq	.L20
 374              		.loc 1 207 0 discriminator 5
 375 0040 7A68     		ldr	r2, [r7, #4]
 376 0042 854B     		ldr	r3, .L49+24
 377 0044 9A42     		cmp	r2, r3
 378 0046 13D0     		beq	.L20
 379              		.loc 1 207 0 discriminator 6
 380 0048 7A68     		ldr	r2, [r7, #4]
 381 004a 844B     		ldr	r3, .L49+28
 382 004c 9A42     		cmp	r2, r3
 383 004e 0FD0     		beq	.L20
 384              		.loc 1 207 0 discriminator 7
 385 0050 7A68     		ldr	r2, [r7, #4]
 386 0052 834B     		ldr	r3, .L49+32
 387 0054 9A42     		cmp	r2, r3
 388 0056 0BD0     		beq	.L20
 389              		.loc 1 207 0 discriminator 8
 390 0058 7A68     		ldr	r2, [r7, #4]
 391 005a 824B     		ldr	r3, .L49+36
 392 005c 9A42     		cmp	r2, r3
 393 005e 07D0     		beq	.L20
 394              		.loc 1 207 0 discriminator 9
 395 0060 7A68     		ldr	r2, [r7, #4]
 396 0062 814B     		ldr	r3, .L49+40
 397 0064 9A42     		cmp	r2, r3
 398 0066 03D0     		beq	.L20
 399              		.loc 1 207 0 discriminator 10
 400 0068 7A68     		ldr	r2, [r7, #4]
 401 006a 804B     		ldr	r3, .L49+44
 402 006c 9A42     		cmp	r2, r3
 403 006e 02D1     		bne	.L21
 404              	.L20:
 405              		.loc 1 207 0 discriminator 1
 406 0070 4FF00103 		mov	r3, #1
 407 0074 01E0     		b	.L22
 408              	.L21:
 409              		.loc 1 207 0 discriminator 3
 410 0076 4FF00003 		mov	r3, #0
 411              	.L22:
 412              		.loc 1 207 0 discriminator 4
 413 007a 1846     		mov	r0, r3
 414 007c FFF7FEFF 		bl	assert_param
 208:../libs/StdPeripheralDriver/src/stm32f10x_dma.c ****   assert_param(IS_DMA_DIR(DMA_InitStruct->DMA_DIR));
 415              		.loc 1 208 0 is_stmt 1 discriminator 4
 416 0080 3B68     		ldr	r3, [r7, #0]
 417 0082 9B68     		ldr	r3, [r3, #8]
 418 0084 102B     		cmp	r3, #16
 419 0086 03D0     		beq	.L23
 420              		.loc 1 208 0 is_stmt 0 discriminator 2
 421 0088 3B68     		ldr	r3, [r7, #0]
 422 008a 9B68     		ldr	r3, [r3, #8]
 423 008c 002B     		cmp	r3, #0
 424 008e 02D1     		bne	.L24
 425              	.L23:
 426              		.loc 1 208 0 discriminator 1
 427 0090 4FF00103 		mov	r3, #1
 428 0094 01E0     		b	.L25
 429              	.L24:
 430              		.loc 1 208 0 discriminator 3
 431 0096 4FF00003 		mov	r3, #0
 432              	.L25:
 433              		.loc 1 208 0 discriminator 4
 434 009a 1846     		mov	r0, r3
 435 009c FFF7FEFF 		bl	assert_param
 209:../libs/StdPeripheralDriver/src/stm32f10x_dma.c ****   assert_param(IS_DMA_BUFFER_SIZE(DMA_InitStruct->DMA_BufferSize));
 436              		.loc 1 209 0 is_stmt 1 discriminator 4
 437 00a0 3B68     		ldr	r3, [r7, #0]
 438 00a2 DB68     		ldr	r3, [r3, #12]
 439 00a4 002B     		cmp	r3, #0
 440 00a6 08D0     		beq	.L26
 441              		.loc 1 209 0 is_stmt 0 discriminator 1
 442 00a8 3B68     		ldr	r3, [r7, #0]
 443 00aa DA68     		ldr	r2, [r3, #12]
 444 00ac 4FF6FF73 		movw	r3, #65535
 445 00b0 9A42     		cmp	r2, r3
 446 00b2 02D8     		bhi	.L26
 447              		.loc 1 209 0 discriminator 3
 448 00b4 4FF00103 		mov	r3, #1
 449 00b8 01E0     		b	.L27
 450              	.L26:
 451              		.loc 1 209 0 discriminator 2
 452 00ba 4FF00003 		mov	r3, #0
 453              	.L27:
 454              		.loc 1 209 0 discriminator 4
 455 00be 1846     		mov	r0, r3
 456 00c0 FFF7FEFF 		bl	assert_param
 210:../libs/StdPeripheralDriver/src/stm32f10x_dma.c ****   assert_param(IS_DMA_PERIPHERAL_INC_STATE(DMA_InitStruct->DMA_PeripheralInc));
 457              		.loc 1 210 0 is_stmt 1 discriminator 4
 458 00c4 3B68     		ldr	r3, [r7, #0]
 459 00c6 1B69     		ldr	r3, [r3, #16]
 460 00c8 402B     		cmp	r3, #64
 461 00ca 03D0     		beq	.L28
 462              		.loc 1 210 0 is_stmt 0 discriminator 2
 463 00cc 3B68     		ldr	r3, [r7, #0]
 464 00ce 1B69     		ldr	r3, [r3, #16]
 465 00d0 002B     		cmp	r3, #0
 466 00d2 02D1     		bne	.L29
 467              	.L28:
 468              		.loc 1 210 0 discriminator 1
 469 00d4 4FF00103 		mov	r3, #1
 470 00d8 01E0     		b	.L30
 471              	.L29:
 472              		.loc 1 210 0 discriminator 3
 473 00da 4FF00003 		mov	r3, #0
 474              	.L30:
 475              		.loc 1 210 0 discriminator 4
 476 00de 1846     		mov	r0, r3
 477 00e0 FFF7FEFF 		bl	assert_param
 211:../libs/StdPeripheralDriver/src/stm32f10x_dma.c ****   assert_param(IS_DMA_MEMORY_INC_STATE(DMA_InitStruct->DMA_MemoryInc));   
 478              		.loc 1 211 0 is_stmt 1 discriminator 4
 479 00e4 3B68     		ldr	r3, [r7, #0]
 480 00e6 5B69     		ldr	r3, [r3, #20]
 481 00e8 802B     		cmp	r3, #128
 482 00ea 03D0     		beq	.L31
 483              		.loc 1 211 0 is_stmt 0 discriminator 2
 484 00ec 3B68     		ldr	r3, [r7, #0]
 485 00ee 5B69     		ldr	r3, [r3, #20]
 486 00f0 002B     		cmp	r3, #0
 487 00f2 02D1     		bne	.L32
 488              	.L31:
 489              		.loc 1 211 0 discriminator 1
 490 00f4 4FF00103 		mov	r3, #1
 491 00f8 01E0     		b	.L33
 492              	.L32:
 493              		.loc 1 211 0 discriminator 3
 494 00fa 4FF00003 		mov	r3, #0
 495              	.L33:
 496              		.loc 1 211 0 discriminator 4
 497 00fe 1846     		mov	r0, r3
 498 0100 FFF7FEFF 		bl	assert_param
 212:../libs/StdPeripheralDriver/src/stm32f10x_dma.c ****   assert_param(IS_DMA_PERIPHERAL_DATA_SIZE(DMA_InitStruct->DMA_PeripheralDataSize));
 499              		.loc 1 212 0 is_stmt 1 discriminator 4
 500 0104 3B68     		ldr	r3, [r7, #0]
 501 0106 9B69     		ldr	r3, [r3, #24]
 502 0108 002B     		cmp	r3, #0
 503 010a 09D0     		beq	.L34
 504              		.loc 1 212 0 is_stmt 0 discriminator 2
 505 010c 3B68     		ldr	r3, [r7, #0]
 506 010e 9B69     		ldr	r3, [r3, #24]
 507 0110 B3F5807F 		cmp	r3, #256
 508 0114 04D0     		beq	.L34
 509              		.loc 1 212 0 discriminator 1
 510 0116 3B68     		ldr	r3, [r7, #0]
 511 0118 9B69     		ldr	r3, [r3, #24]
 512 011a B3F5007F 		cmp	r3, #512
 513 011e 02D1     		bne	.L35
 514              	.L34:
 515 0120 4FF00103 		mov	r3, #1
 516 0124 01E0     		b	.L36
 517              	.L35:
 518              		.loc 1 212 0 discriminator 3
 519 0126 4FF00003 		mov	r3, #0
 520              	.L36:
 521              		.loc 1 212 0 discriminator 4
 522 012a 1846     		mov	r0, r3
 523 012c FFF7FEFF 		bl	assert_param
 213:../libs/StdPeripheralDriver/src/stm32f10x_dma.c ****   assert_param(IS_DMA_MEMORY_DATA_SIZE(DMA_InitStruct->DMA_MemoryDataSize));
 524              		.loc 1 213 0 is_stmt 1 discriminator 4
 525 0130 3B68     		ldr	r3, [r7, #0]
 526 0132 DB69     		ldr	r3, [r3, #28]
 527 0134 002B     		cmp	r3, #0
 528 0136 09D0     		beq	.L37
 529              		.loc 1 213 0 is_stmt 0 discriminator 2
 530 0138 3B68     		ldr	r3, [r7, #0]
 531 013a DB69     		ldr	r3, [r3, #28]
 532 013c B3F5806F 		cmp	r3, #1024
 533 0140 04D0     		beq	.L37
 534              		.loc 1 213 0 discriminator 1
 535 0142 3B68     		ldr	r3, [r7, #0]
 536 0144 DB69     		ldr	r3, [r3, #28]
 537 0146 B3F5006F 		cmp	r3, #2048
 538 014a 02D1     		bne	.L38
 539              	.L37:
 540 014c 4FF00103 		mov	r3, #1
 541 0150 01E0     		b	.L39
 542              	.L38:
 543              		.loc 1 213 0 discriminator 3
 544 0152 4FF00003 		mov	r3, #0
 545              	.L39:
 546              		.loc 1 213 0 discriminator 4
 547 0156 1846     		mov	r0, r3
 548 0158 FFF7FEFF 		bl	assert_param
 214:../libs/StdPeripheralDriver/src/stm32f10x_dma.c ****   assert_param(IS_DMA_MODE(DMA_InitStruct->DMA_Mode));
 549              		.loc 1 214 0 is_stmt 1 discriminator 4
 550 015c 3B68     		ldr	r3, [r7, #0]
 551 015e 1B6A     		ldr	r3, [r3, #32]
 552 0160 202B     		cmp	r3, #32
 553 0162 03D0     		beq	.L40
 554              		.loc 1 214 0 is_stmt 0 discriminator 2
 555 0164 3B68     		ldr	r3, [r7, #0]
 556 0166 1B6A     		ldr	r3, [r3, #32]
 557 0168 002B     		cmp	r3, #0
 558 016a 02D1     		bne	.L41
 559              	.L40:
 560              		.loc 1 214 0 discriminator 1
 561 016c 4FF00103 		mov	r3, #1
 562 0170 01E0     		b	.L42
 563              	.L41:
 564              		.loc 1 214 0 discriminator 3
 565 0172 4FF00003 		mov	r3, #0
 566              	.L42:
 567              		.loc 1 214 0 discriminator 4
 568 0176 1846     		mov	r0, r3
 569 0178 FFF7FEFF 		bl	assert_param
 215:../libs/StdPeripheralDriver/src/stm32f10x_dma.c ****   assert_param(IS_DMA_PRIORITY(DMA_InitStruct->DMA_Priority));
 570              		.loc 1 215 0 is_stmt 1 discriminator 4
 571 017c 3B68     		ldr	r3, [r7, #0]
 572 017e 5B6A     		ldr	r3, [r3, #36]
 573 0180 B3F5405F 		cmp	r3, #12288
 574 0184 0DD0     		beq	.L43
 575              		.loc 1 215 0 is_stmt 0 discriminator 2
 576 0186 3B68     		ldr	r3, [r7, #0]
 577 0188 5B6A     		ldr	r3, [r3, #36]
 578 018a B3F5005F 		cmp	r3, #8192
 579 018e 08D0     		beq	.L43
 580              		.loc 1 215 0 discriminator 1
 581 0190 3B68     		ldr	r3, [r7, #0]
 582 0192 5B6A     		ldr	r3, [r3, #36]
 583 0194 B3F5805F 		cmp	r3, #4096
 584 0198 03D0     		beq	.L43
 585              		.loc 1 215 0 discriminator 2
 586 019a 3B68     		ldr	r3, [r7, #0]
 587 019c 5B6A     		ldr	r3, [r3, #36]
 588 019e 002B     		cmp	r3, #0
 589 01a0 02D1     		bne	.L44
 590              	.L43:
 591              		.loc 1 215 0 discriminator 1
 592 01a2 4FF00103 		mov	r3, #1
 593 01a6 01E0     		b	.L45
 594              	.L44:
 595              		.loc 1 215 0 discriminator 3
 596 01a8 4FF00003 		mov	r3, #0
 597              	.L45:
 598              		.loc 1 215 0 discriminator 4
 599 01ac 1846     		mov	r0, r3
 600 01ae FFF7FEFF 		bl	assert_param
 216:../libs/StdPeripheralDriver/src/stm32f10x_dma.c ****   assert_param(IS_DMA_M2M_STATE(DMA_InitStruct->DMA_M2M));
 601              		.loc 1 216 0 is_stmt 1 discriminator 4
 602 01b2 3B68     		ldr	r3, [r7, #0]
 603 01b4 9B6A     		ldr	r3, [r3, #40]
 604 01b6 B3F5804F 		cmp	r3, #16384
 605 01ba 03D0     		beq	.L46
 606              		.loc 1 216 0 is_stmt 0 discriminator 2
 607 01bc 3B68     		ldr	r3, [r7, #0]
 608 01be 9B6A     		ldr	r3, [r3, #40]
 609 01c0 002B     		cmp	r3, #0
 610 01c2 02D1     		bne	.L47
 611              	.L46:
 612              		.loc 1 216 0 discriminator 1
 613 01c4 4FF00103 		mov	r3, #1
 614 01c8 01E0     		b	.L48
 615              	.L47:
 616              		.loc 1 216 0 discriminator 3
 617 01ca 4FF00003 		mov	r3, #0
 618              	.L48:
 619              		.loc 1 216 0 discriminator 4
 620 01ce 1846     		mov	r0, r3
 621 01d0 FFF7FEFF 		bl	assert_param
 217:../libs/StdPeripheralDriver/src/stm32f10x_dma.c **** 
 218:../libs/StdPeripheralDriver/src/stm32f10x_dma.c **** /*--------------------------- DMAy Channelx CCR Configuration -----------------*/
 219:../libs/StdPeripheralDriver/src/stm32f10x_dma.c ****   /* Get the DMAy_Channelx CCR value */
 220:../libs/StdPeripheralDriver/src/stm32f10x_dma.c ****   tmpreg = DMAy_Channelx->CCR;
 622              		.loc 1 220 0 is_stmt 1 discriminator 4
 623 01d4 7B68     		ldr	r3, [r7, #4]
 624 01d6 1B68     		ldr	r3, [r3, #0]
 625 01d8 FB60     		str	r3, [r7, #12]
 221:../libs/StdPeripheralDriver/src/stm32f10x_dma.c ****   /* Clear MEM2MEM, PL, MSIZE, PSIZE, MINC, PINC, CIRC and DIR bits */
 222:../libs/StdPeripheralDriver/src/stm32f10x_dma.c ****   tmpreg &= CCR_CLEAR_Mask;
 626              		.loc 1 222 0 discriminator 4
 627 01da FB68     		ldr	r3, [r7, #12]
 628 01dc 23F4FF43 		bic	r3, r3, #32640
 629 01e0 23F07003 		bic	r3, r3, #112
 630 01e4 FB60     		str	r3, [r7, #12]
 223:../libs/StdPeripheralDriver/src/stm32f10x_dma.c ****   /* Configure DMAy Channelx: data transfer, data size, priority level and mode */
 224:../libs/StdPeripheralDriver/src/stm32f10x_dma.c ****   /* Set DIR bit according to DMA_DIR value */
 225:../libs/StdPeripheralDriver/src/stm32f10x_dma.c ****   /* Set CIRC bit according to DMA_Mode value */
 226:../libs/StdPeripheralDriver/src/stm32f10x_dma.c ****   /* Set PINC bit according to DMA_PeripheralInc value */
 227:../libs/StdPeripheralDriver/src/stm32f10x_dma.c ****   /* Set MINC bit according to DMA_MemoryInc value */
 228:../libs/StdPeripheralDriver/src/stm32f10x_dma.c ****   /* Set PSIZE bits according to DMA_PeripheralDataSize value */
 229:../libs/StdPeripheralDriver/src/stm32f10x_dma.c ****   /* Set MSIZE bits according to DMA_MemoryDataSize value */
 230:../libs/StdPeripheralDriver/src/stm32f10x_dma.c ****   /* Set PL bits according to DMA_Priority value */
 231:../libs/StdPeripheralDriver/src/stm32f10x_dma.c ****   /* Set the MEM2MEM bit according to DMA_M2M value */
 232:../libs/StdPeripheralDriver/src/stm32f10x_dma.c ****   tmpreg |= DMA_InitStruct->DMA_DIR | DMA_InitStruct->DMA_Mode |
 631              		.loc 1 232 0 discriminator 4
 632 01e6 3B68     		ldr	r3, [r7, #0]
 633 01e8 9A68     		ldr	r2, [r3, #8]
 634 01ea 3B68     		ldr	r3, [r7, #0]
 635 01ec 1B6A     		ldr	r3, [r3, #32]
 636 01ee 1A43     		orrs	r2, r2, r3
 233:../libs/StdPeripheralDriver/src/stm32f10x_dma.c ****             DMA_InitStruct->DMA_PeripheralInc | DMA_InitStruct->DMA_MemoryInc |
 637              		.loc 1 233 0 discriminator 4
 638 01f0 3B68     		ldr	r3, [r7, #0]
 639 01f2 1B69     		ldr	r3, [r3, #16]
 232:../libs/StdPeripheralDriver/src/stm32f10x_dma.c ****   tmpreg |= DMA_InitStruct->DMA_DIR | DMA_InitStruct->DMA_Mode |
 640              		.loc 1 232 0 discriminator 4
 641 01f4 1A43     		orrs	r2, r2, r3
 642              		.loc 1 233 0 discriminator 4
 643 01f6 3B68     		ldr	r3, [r7, #0]
 644 01f8 5B69     		ldr	r3, [r3, #20]
 645 01fa 1A43     		orrs	r2, r2, r3
 234:../libs/StdPeripheralDriver/src/stm32f10x_dma.c ****             DMA_InitStruct->DMA_PeripheralDataSize | DMA_InitStruct->DMA_MemoryDataSize |
 646              		.loc 1 234 0 discriminator 4
 647 01fc 3B68     		ldr	r3, [r7, #0]
 648 01fe 9B69     		ldr	r3, [r3, #24]
 233:../libs/StdPeripheralDriver/src/stm32f10x_dma.c ****             DMA_InitStruct->DMA_PeripheralInc | DMA_InitStruct->DMA_MemoryInc |
 649              		.loc 1 233 0 discriminator 4
 650 0200 1A43     		orrs	r2, r2, r3
 651              		.loc 1 234 0 discriminator 4
 652 0202 3B68     		ldr	r3, [r7, #0]
 653 0204 DB69     		ldr	r3, [r3, #28]
 654 0206 1A43     		orrs	r2, r2, r3
 235:../libs/StdPeripheralDriver/src/stm32f10x_dma.c ****             DMA_InitStruct->DMA_Priority | DMA_InitStruct->DMA_M2M;
 655              		.loc 1 235 0 discriminator 4
 656 0208 3B68     		ldr	r3, [r7, #0]
 657 020a 5B6A     		ldr	r3, [r3, #36]
 234:../libs/StdPeripheralDriver/src/stm32f10x_dma.c ****             DMA_InitStruct->DMA_PeripheralDataSize | DMA_InitStruct->DMA_MemoryDataSize |
 658              		.loc 1 234 0 discriminator 4
 659 020c 1A43     		orrs	r2, r2, r3
 660              		.loc 1 235 0 discriminator 4
 661 020e 3B68     		ldr	r3, [r7, #0]
 662 0210 9B6A     		ldr	r3, [r3, #40]
 663 0212 1343     		orrs	r3, r3, r2
 232:../libs/StdPeripheralDriver/src/stm32f10x_dma.c ****   tmpreg |= DMA_InitStruct->DMA_DIR | DMA_InitStruct->DMA_Mode |
 664              		.loc 1 232 0 discriminator 4
 665 0214 FA68     		ldr	r2, [r7, #12]
 666 0216 1343     		orrs	r3, r3, r2
 667 0218 FB60     		str	r3, [r7, #12]
 236:../libs/StdPeripheralDriver/src/stm32f10x_dma.c **** 
 237:../libs/StdPeripheralDriver/src/stm32f10x_dma.c ****   /* Write to DMAy Channelx CCR */
 238:../libs/StdPeripheralDriver/src/stm32f10x_dma.c ****   DMAy_Channelx->CCR = tmpreg;
 668              		.loc 1 238 0 discriminator 4
 669 021a 7B68     		ldr	r3, [r7, #4]
 670 021c FA68     		ldr	r2, [r7, #12]
 671 021e 1A60     		str	r2, [r3, #0]
 239:../libs/StdPeripheralDriver/src/stm32f10x_dma.c **** 
 240:../libs/StdPeripheralDriver/src/stm32f10x_dma.c **** /*--------------------------- DMAy Channelx CNDTR Configuration ---------------*/
 241:../libs/StdPeripheralDriver/src/stm32f10x_dma.c ****   /* Write to DMAy Channelx CNDTR */
 242:../libs/StdPeripheralDriver/src/stm32f10x_dma.c ****   DMAy_Channelx->CNDTR = DMA_InitStruct->DMA_BufferSize;
 672              		.loc 1 242 0 discriminator 4
 673 0220 3B68     		ldr	r3, [r7, #0]
 674 0222 DA68     		ldr	r2, [r3, #12]
 675 0224 7B68     		ldr	r3, [r7, #4]
 676 0226 5A60     		str	r2, [r3, #4]
 243:../libs/StdPeripheralDriver/src/stm32f10x_dma.c **** 
 244:../libs/StdPeripheralDriver/src/stm32f10x_dma.c **** /*--------------------------- DMAy Channelx CPAR Configuration ----------------*/
 245:../libs/StdPeripheralDriver/src/stm32f10x_dma.c ****   /* Write to DMAy Channelx CPAR */
 246:../libs/StdPeripheralDriver/src/stm32f10x_dma.c ****   DMAy_Channelx->CPAR = DMA_InitStruct->DMA_PeripheralBaseAddr;
 677              		.loc 1 246 0 discriminator 4
 678 0228 3B68     		ldr	r3, [r7, #0]
 679 022a 1A68     		ldr	r2, [r3, #0]
 680 022c 7B68     		ldr	r3, [r7, #4]
 681 022e 9A60     		str	r2, [r3, #8]
 247:../libs/StdPeripheralDriver/src/stm32f10x_dma.c **** 
 248:../libs/StdPeripheralDriver/src/stm32f10x_dma.c **** /*--------------------------- DMAy Channelx CMAR Configuration ----------------*/
 249:../libs/StdPeripheralDriver/src/stm32f10x_dma.c ****   /* Write to DMAy Channelx CMAR */
 250:../libs/StdPeripheralDriver/src/stm32f10x_dma.c ****   DMAy_Channelx->CMAR = DMA_InitStruct->DMA_MemoryBaseAddr;
 682              		.loc 1 250 0 discriminator 4
 683 0230 3B68     		ldr	r3, [r7, #0]
 684 0232 5A68     		ldr	r2, [r3, #4]
 685 0234 7B68     		ldr	r3, [r7, #4]
 686 0236 DA60     		str	r2, [r3, #12]
 251:../libs/StdPeripheralDriver/src/stm32f10x_dma.c **** }
 687              		.loc 1 251 0 discriminator 4
 688 0238 07F11007 		add	r7, r7, #16
 689 023c BD46     		mov	sp, r7
 690 023e 80BD     		pop	{r7, pc}
 691              	.L50:
 692              		.align	2
 693              	.L49:
 694 0240 08000240 		.word	1073872904
 695 0244 1C000240 		.word	1073872924
 696 0248 30000240 		.word	1073872944
 697 024c 44000240 		.word	1073872964
 698 0250 58000240 		.word	1073872984
 699 0254 6C000240 		.word	1073873004
 700 0258 80000240 		.word	1073873024
 701 025c 08040240 		.word	1073873928
 702 0260 1C040240 		.word	1073873948
 703 0264 30040240 		.word	1073873968
 704 0268 44040240 		.word	1073873988
 705 026c 58040240 		.word	1073874008
 706              		.cfi_endproc
 707              	.LFE30:
 709              		.section	.text.DMA_StructInit,"ax",%progbits
 710              		.align	2
 711              		.global	DMA_StructInit
 712              		.thumb
 713              		.thumb_func
 715              	DMA_StructInit:
 716              	.LFB31:
 252:../libs/StdPeripheralDriver/src/stm32f10x_dma.c **** 
 253:../libs/StdPeripheralDriver/src/stm32f10x_dma.c **** /**
 254:../libs/StdPeripheralDriver/src/stm32f10x_dma.c ****   * @brief  Fills each DMA_InitStruct member with its default value.
 255:../libs/StdPeripheralDriver/src/stm32f10x_dma.c ****   * @param  DMA_InitStruct : pointer to a DMA_InitTypeDef structure which will
 256:../libs/StdPeripheralDriver/src/stm32f10x_dma.c ****   *         be initialized.
 257:../libs/StdPeripheralDriver/src/stm32f10x_dma.c ****   * @retval None
 258:../libs/StdPeripheralDriver/src/stm32f10x_dma.c ****   */
 259:../libs/StdPeripheralDriver/src/stm32f10x_dma.c **** void DMA_StructInit(DMA_InitTypeDef* DMA_InitStruct)
 260:../libs/StdPeripheralDriver/src/stm32f10x_dma.c **** {
 717              		.loc 1 260 0
 718              		.cfi_startproc
 719              		@ args = 0, pretend = 0, frame = 8
 720              		@ frame_needed = 1, uses_anonymous_args = 0
 721              		@ link register save eliminated.
 722 0000 80B4     		push	{r7}
 723              	.LCFI6:
 724              		.cfi_def_cfa_offset 4
 725              		.cfi_offset 7, -4
 726 0002 83B0     		sub	sp, sp, #12
 727              	.LCFI7:
 728              		.cfi_def_cfa_offset 16
 729 0004 00AF     		add	r7, sp, #0
 730              	.LCFI8:
 731              		.cfi_def_cfa_register 7
 732 0006 7860     		str	r0, [r7, #4]
 261:../libs/StdPeripheralDriver/src/stm32f10x_dma.c **** /*-------------- Reset DMA init structure parameters values ------------------*/
 262:../libs/StdPeripheralDriver/src/stm32f10x_dma.c ****   /* Initialize the DMA_PeripheralBaseAddr member */
 263:../libs/StdPeripheralDriver/src/stm32f10x_dma.c ****   DMA_InitStruct->DMA_PeripheralBaseAddr = 0;
 733              		.loc 1 263 0
 734 0008 7B68     		ldr	r3, [r7, #4]
 735 000a 4FF00002 		mov	r2, #0
 736 000e 1A60     		str	r2, [r3, #0]
 264:../libs/StdPeripheralDriver/src/stm32f10x_dma.c ****   /* Initialize the DMA_MemoryBaseAddr member */
 265:../libs/StdPeripheralDriver/src/stm32f10x_dma.c ****   DMA_InitStruct->DMA_MemoryBaseAddr = 0;
 737              		.loc 1 265 0
 738 0010 7B68     		ldr	r3, [r7, #4]
 739 0012 4FF00002 		mov	r2, #0
 740 0016 5A60     		str	r2, [r3, #4]
 266:../libs/StdPeripheralDriver/src/stm32f10x_dma.c ****   /* Initialize the DMA_DIR member */
 267:../libs/StdPeripheralDriver/src/stm32f10x_dma.c ****   DMA_InitStruct->DMA_DIR = DMA_DIR_PeripheralSRC;
 741              		.loc 1 267 0
 742 0018 7B68     		ldr	r3, [r7, #4]
 743 001a 4FF00002 		mov	r2, #0
 744 001e 9A60     		str	r2, [r3, #8]
 268:../libs/StdPeripheralDriver/src/stm32f10x_dma.c ****   /* Initialize the DMA_BufferSize member */
 269:../libs/StdPeripheralDriver/src/stm32f10x_dma.c ****   DMA_InitStruct->DMA_BufferSize = 0;
 745              		.loc 1 269 0
 746 0020 7B68     		ldr	r3, [r7, #4]
 747 0022 4FF00002 		mov	r2, #0
 748 0026 DA60     		str	r2, [r3, #12]
 270:../libs/StdPeripheralDriver/src/stm32f10x_dma.c ****   /* Initialize the DMA_PeripheralInc member */
 271:../libs/StdPeripheralDriver/src/stm32f10x_dma.c ****   DMA_InitStruct->DMA_PeripheralInc = DMA_PeripheralInc_Disable;
 749              		.loc 1 271 0
 750 0028 7B68     		ldr	r3, [r7, #4]
 751 002a 4FF00002 		mov	r2, #0
 752 002e 1A61     		str	r2, [r3, #16]
 272:../libs/StdPeripheralDriver/src/stm32f10x_dma.c ****   /* Initialize the DMA_MemoryInc member */
 273:../libs/StdPeripheralDriver/src/stm32f10x_dma.c ****   DMA_InitStruct->DMA_MemoryInc = DMA_MemoryInc_Disable;
 753              		.loc 1 273 0
 754 0030 7B68     		ldr	r3, [r7, #4]
 755 0032 4FF00002 		mov	r2, #0
 756 0036 5A61     		str	r2, [r3, #20]
 274:../libs/StdPeripheralDriver/src/stm32f10x_dma.c ****   /* Initialize the DMA_PeripheralDataSize member */
 275:../libs/StdPeripheralDriver/src/stm32f10x_dma.c ****   DMA_InitStruct->DMA_PeripheralDataSize = DMA_PeripheralDataSize_Byte;
 757              		.loc 1 275 0
 758 0038 7B68     		ldr	r3, [r7, #4]
 759 003a 4FF00002 		mov	r2, #0
 760 003e 9A61     		str	r2, [r3, #24]
 276:../libs/StdPeripheralDriver/src/stm32f10x_dma.c ****   /* Initialize the DMA_MemoryDataSize member */
 277:../libs/StdPeripheralDriver/src/stm32f10x_dma.c ****   DMA_InitStruct->DMA_MemoryDataSize = DMA_MemoryDataSize_Byte;
 761              		.loc 1 277 0
 762 0040 7B68     		ldr	r3, [r7, #4]
 763 0042 4FF00002 		mov	r2, #0
 764 0046 DA61     		str	r2, [r3, #28]
 278:../libs/StdPeripheralDriver/src/stm32f10x_dma.c ****   /* Initialize the DMA_Mode member */
 279:../libs/StdPeripheralDriver/src/stm32f10x_dma.c ****   DMA_InitStruct->DMA_Mode = DMA_Mode_Normal;
 765              		.loc 1 279 0
 766 0048 7B68     		ldr	r3, [r7, #4]
 767 004a 4FF00002 		mov	r2, #0
 768 004e 1A62     		str	r2, [r3, #32]
 280:../libs/StdPeripheralDriver/src/stm32f10x_dma.c ****   /* Initialize the DMA_Priority member */
 281:../libs/StdPeripheralDriver/src/stm32f10x_dma.c ****   DMA_InitStruct->DMA_Priority = DMA_Priority_Low;
 769              		.loc 1 281 0
 770 0050 7B68     		ldr	r3, [r7, #4]
 771 0052 4FF00002 		mov	r2, #0
 772 0056 5A62     		str	r2, [r3, #36]
 282:../libs/StdPeripheralDriver/src/stm32f10x_dma.c ****   /* Initialize the DMA_M2M member */
 283:../libs/StdPeripheralDriver/src/stm32f10x_dma.c ****   DMA_InitStruct->DMA_M2M = DMA_M2M_Disable;
 773              		.loc 1 283 0
 774 0058 7B68     		ldr	r3, [r7, #4]
 775 005a 4FF00002 		mov	r2, #0
 776 005e 9A62     		str	r2, [r3, #40]
 284:../libs/StdPeripheralDriver/src/stm32f10x_dma.c **** }
 777              		.loc 1 284 0
 778 0060 07F10C07 		add	r7, r7, #12
 779 0064 BD46     		mov	sp, r7
 780 0066 80BC     		pop	{r7}
 781 0068 7047     		bx	lr
 782              		.cfi_endproc
 783              	.LFE31:
 785 006a 00BF     		.section	.text.DMA_Cmd,"ax",%progbits
 786              		.align	2
 787              		.global	DMA_Cmd
 788              		.thumb
 789              		.thumb_func
 791              	DMA_Cmd:
 792              	.LFB32:
 285:../libs/StdPeripheralDriver/src/stm32f10x_dma.c **** 
 286:../libs/StdPeripheralDriver/src/stm32f10x_dma.c **** /**
 287:../libs/StdPeripheralDriver/src/stm32f10x_dma.c ****   * @brief  Enables or disables the specified DMAy Channelx.
 288:../libs/StdPeripheralDriver/src/stm32f10x_dma.c ****   * @param  DMAy_Channelx: where y can be 1 or 2 to select the DMA and 
 289:../libs/StdPeripheralDriver/src/stm32f10x_dma.c ****   *   x can be 1 to 7 for DMA1 and 1 to 5 for DMA2 to select the DMA Channel.
 290:../libs/StdPeripheralDriver/src/stm32f10x_dma.c ****   * @param  NewState: new state of the DMAy Channelx. 
 291:../libs/StdPeripheralDriver/src/stm32f10x_dma.c ****   *   This parameter can be: ENABLE or DISABLE.
 292:../libs/StdPeripheralDriver/src/stm32f10x_dma.c ****   * @retval None
 293:../libs/StdPeripheralDriver/src/stm32f10x_dma.c ****   */
 294:../libs/StdPeripheralDriver/src/stm32f10x_dma.c **** void DMA_Cmd(DMA_Channel_TypeDef* DMAy_Channelx, FunctionalState NewState)
 295:../libs/StdPeripheralDriver/src/stm32f10x_dma.c **** {
 793              		.loc 1 295 0
 794              		.cfi_startproc
 795              		@ args = 0, pretend = 0, frame = 8
 796              		@ frame_needed = 1, uses_anonymous_args = 0
 797 0000 80B5     		push	{r7, lr}
 798              	.LCFI9:
 799              		.cfi_def_cfa_offset 8
 800              		.cfi_offset 7, -8
 801              		.cfi_offset 14, -4
 802 0002 82B0     		sub	sp, sp, #8
 803              	.LCFI10:
 804              		.cfi_def_cfa_offset 16
 805 0004 00AF     		add	r7, sp, #0
 806              	.LCFI11:
 807              		.cfi_def_cfa_register 7
 808 0006 7860     		str	r0, [r7, #4]
 809 0008 0B46     		mov	r3, r1
 810 000a FB70     		strb	r3, [r7, #3]
 296:../libs/StdPeripheralDriver/src/stm32f10x_dma.c ****   /* Check the parameters */
 297:../libs/StdPeripheralDriver/src/stm32f10x_dma.c ****   assert_param(IS_DMA_ALL_PERIPH(DMAy_Channelx));
 811              		.loc 1 297 0
 812 000c 7A68     		ldr	r2, [r7, #4]
 813 000e 2D4B     		ldr	r3, .L61
 814 0010 9A42     		cmp	r2, r3
 815 0012 2BD0     		beq	.L53
 816              		.loc 1 297 0 is_stmt 0 discriminator 2
 817 0014 7A68     		ldr	r2, [r7, #4]
 818 0016 2C4B     		ldr	r3, .L61+4
 819 0018 9A42     		cmp	r2, r3
 820 001a 27D0     		beq	.L53
 821              		.loc 1 297 0 discriminator 1
 822 001c 7A68     		ldr	r2, [r7, #4]
 823 001e 2B4B     		ldr	r3, .L61+8
 824 0020 9A42     		cmp	r2, r3
 825 0022 23D0     		beq	.L53
 826              		.loc 1 297 0 discriminator 2
 827 0024 7A68     		ldr	r2, [r7, #4]
 828 0026 2A4B     		ldr	r3, .L61+12
 829 0028 9A42     		cmp	r2, r3
 830 002a 1FD0     		beq	.L53
 831              		.loc 1 297 0 discriminator 3
 832 002c 7A68     		ldr	r2, [r7, #4]
 833 002e 294B     		ldr	r3, .L61+16
 834 0030 9A42     		cmp	r2, r3
 835 0032 1BD0     		beq	.L53
 836              		.loc 1 297 0 discriminator 4
 837 0034 7A68     		ldr	r2, [r7, #4]
 838 0036 284B     		ldr	r3, .L61+20
 839 0038 9A42     		cmp	r2, r3
 840 003a 17D0     		beq	.L53
 841              		.loc 1 297 0 discriminator 5
 842 003c 7A68     		ldr	r2, [r7, #4]
 843 003e 274B     		ldr	r3, .L61+24
 844 0040 9A42     		cmp	r2, r3
 845 0042 13D0     		beq	.L53
 846              		.loc 1 297 0 discriminator 6
 847 0044 7A68     		ldr	r2, [r7, #4]
 848 0046 264B     		ldr	r3, .L61+28
 849 0048 9A42     		cmp	r2, r3
 850 004a 0FD0     		beq	.L53
 851              		.loc 1 297 0 discriminator 7
 852 004c 7A68     		ldr	r2, [r7, #4]
 853 004e 254B     		ldr	r3, .L61+32
 854 0050 9A42     		cmp	r2, r3
 855 0052 0BD0     		beq	.L53
 856              		.loc 1 297 0 discriminator 8
 857 0054 7A68     		ldr	r2, [r7, #4]
 858 0056 244B     		ldr	r3, .L61+36
 859 0058 9A42     		cmp	r2, r3
 860 005a 07D0     		beq	.L53
 861              		.loc 1 297 0 discriminator 9
 862 005c 7A68     		ldr	r2, [r7, #4]
 863 005e 234B     		ldr	r3, .L61+40
 864 0060 9A42     		cmp	r2, r3
 865 0062 03D0     		beq	.L53
 866              		.loc 1 297 0 discriminator 10
 867 0064 7A68     		ldr	r2, [r7, #4]
 868 0066 224B     		ldr	r3, .L61+44
 869 0068 9A42     		cmp	r2, r3
 870 006a 02D1     		bne	.L54
 871              	.L53:
 872              		.loc 1 297 0 discriminator 1
 873 006c 4FF00103 		mov	r3, #1
 874 0070 01E0     		b	.L55
 875              	.L54:
 876              		.loc 1 297 0 discriminator 3
 877 0072 4FF00003 		mov	r3, #0
 878              	.L55:
 879              		.loc 1 297 0 discriminator 4
 880 0076 1846     		mov	r0, r3
 881 0078 FFF7FEFF 		bl	assert_param
 298:../libs/StdPeripheralDriver/src/stm32f10x_dma.c ****   assert_param(IS_FUNCTIONAL_STATE(NewState));
 882              		.loc 1 298 0 is_stmt 1 discriminator 4
 883 007c FB78     		ldrb	r3, [r7, #3]	@ zero_extendqisi2
 884 007e 002B     		cmp	r3, #0
 885 0080 02D0     		beq	.L56
 886              		.loc 1 298 0 is_stmt 0 discriminator 2
 887 0082 FB78     		ldrb	r3, [r7, #3]	@ zero_extendqisi2
 888 0084 012B     		cmp	r3, #1
 889 0086 02D1     		bne	.L57
 890              	.L56:
 891              		.loc 1 298 0 discriminator 1
 892 0088 4FF00103 		mov	r3, #1
 893 008c 01E0     		b	.L58
 894              	.L57:
 895              		.loc 1 298 0 discriminator 3
 896 008e 4FF00003 		mov	r3, #0
 897              	.L58:
 898              		.loc 1 298 0 discriminator 4
 899 0092 1846     		mov	r0, r3
 900 0094 FFF7FEFF 		bl	assert_param
 299:../libs/StdPeripheralDriver/src/stm32f10x_dma.c **** 
 300:../libs/StdPeripheralDriver/src/stm32f10x_dma.c ****   if (NewState != DISABLE)
 901              		.loc 1 300 0 is_stmt 1 discriminator 4
 902 0098 FB78     		ldrb	r3, [r7, #3]	@ zero_extendqisi2
 903 009a 002B     		cmp	r3, #0
 904 009c 06D0     		beq	.L59
 301:../libs/StdPeripheralDriver/src/stm32f10x_dma.c ****   {
 302:../libs/StdPeripheralDriver/src/stm32f10x_dma.c ****     /* Enable the selected DMAy Channelx */
 303:../libs/StdPeripheralDriver/src/stm32f10x_dma.c ****     DMAy_Channelx->CCR |= DMA_CCR1_EN;
 905              		.loc 1 303 0
 906 009e 7B68     		ldr	r3, [r7, #4]
 907 00a0 1B68     		ldr	r3, [r3, #0]
 908 00a2 43F00102 		orr	r2, r3, #1
 909 00a6 7B68     		ldr	r3, [r7, #4]
 910 00a8 1A60     		str	r2, [r3, #0]
 911 00aa 06E0     		b	.L52
 912              	.L59:
 304:../libs/StdPeripheralDriver/src/stm32f10x_dma.c ****   }
 305:../libs/StdPeripheralDriver/src/stm32f10x_dma.c ****   else
 306:../libs/StdPeripheralDriver/src/stm32f10x_dma.c ****   {
 307:../libs/StdPeripheralDriver/src/stm32f10x_dma.c ****     /* Disable the selected DMAy Channelx */
 308:../libs/StdPeripheralDriver/src/stm32f10x_dma.c ****     DMAy_Channelx->CCR &= (uint16_t)(~DMA_CCR1_EN);
 913              		.loc 1 308 0
 914 00ac 7B68     		ldr	r3, [r7, #4]
 915 00ae 1A68     		ldr	r2, [r3, #0]
 916 00b0 4FF6FE73 		movw	r3, #65534
 917 00b4 1340     		ands	r3, r3, r2
 918 00b6 7A68     		ldr	r2, [r7, #4]
 919 00b8 1360     		str	r3, [r2, #0]
 920              	.L52:
 309:../libs/StdPeripheralDriver/src/stm32f10x_dma.c ****   }
 310:../libs/StdPeripheralDriver/src/stm32f10x_dma.c **** }
 921              		.loc 1 310 0
 922 00ba 07F10807 		add	r7, r7, #8
 923 00be BD46     		mov	sp, r7
 924 00c0 80BD     		pop	{r7, pc}
 925              	.L62:
 926 00c2 00BF     		.align	2
 927              	.L61:
 928 00c4 08000240 		.word	1073872904
 929 00c8 1C000240 		.word	1073872924
 930 00cc 30000240 		.word	1073872944
 931 00d0 44000240 		.word	1073872964
 932 00d4 58000240 		.word	1073872984
 933 00d8 6C000240 		.word	1073873004
 934 00dc 80000240 		.word	1073873024
 935 00e0 08040240 		.word	1073873928
 936 00e4 1C040240 		.word	1073873948
 937 00e8 30040240 		.word	1073873968
 938 00ec 44040240 		.word	1073873988
 939 00f0 58040240 		.word	1073874008
 940              		.cfi_endproc
 941              	.LFE32:
 943              		.section	.text.DMA_ITConfig,"ax",%progbits
 944              		.align	2
 945              		.global	DMA_ITConfig
 946              		.thumb
 947              		.thumb_func
 949              	DMA_ITConfig:
 950              	.LFB33:
 311:../libs/StdPeripheralDriver/src/stm32f10x_dma.c **** 
 312:../libs/StdPeripheralDriver/src/stm32f10x_dma.c **** /**
 313:../libs/StdPeripheralDriver/src/stm32f10x_dma.c ****   * @brief  Enables or disables the specified DMAy Channelx interrupts.
 314:../libs/StdPeripheralDriver/src/stm32f10x_dma.c ****   * @param  DMAy_Channelx: where y can be 1 or 2 to select the DMA and 
 315:../libs/StdPeripheralDriver/src/stm32f10x_dma.c ****   *   x can be 1 to 7 for DMA1 and 1 to 5 for DMA2 to select the DMA Channel.
 316:../libs/StdPeripheralDriver/src/stm32f10x_dma.c ****   * @param  DMA_IT: specifies the DMA interrupts sources to be enabled
 317:../libs/StdPeripheralDriver/src/stm32f10x_dma.c ****   *   or disabled. 
 318:../libs/StdPeripheralDriver/src/stm32f10x_dma.c ****   *   This parameter can be any combination of the following values:
 319:../libs/StdPeripheralDriver/src/stm32f10x_dma.c ****   *     @arg DMA_IT_TC:  Transfer complete interrupt mask
 320:../libs/StdPeripheralDriver/src/stm32f10x_dma.c ****   *     @arg DMA_IT_HT:  Half transfer interrupt mask
 321:../libs/StdPeripheralDriver/src/stm32f10x_dma.c ****   *     @arg DMA_IT_TE:  Transfer error interrupt mask
 322:../libs/StdPeripheralDriver/src/stm32f10x_dma.c ****   * @param  NewState: new state of the specified DMA interrupts.
 323:../libs/StdPeripheralDriver/src/stm32f10x_dma.c ****   *   This parameter can be: ENABLE or DISABLE.
 324:../libs/StdPeripheralDriver/src/stm32f10x_dma.c ****   * @retval None
 325:../libs/StdPeripheralDriver/src/stm32f10x_dma.c ****   */
 326:../libs/StdPeripheralDriver/src/stm32f10x_dma.c **** void DMA_ITConfig(DMA_Channel_TypeDef* DMAy_Channelx, uint32_t DMA_IT, FunctionalState NewState)
 327:../libs/StdPeripheralDriver/src/stm32f10x_dma.c **** {
 951              		.loc 1 327 0
 952              		.cfi_startproc
 953              		@ args = 0, pretend = 0, frame = 16
 954              		@ frame_needed = 1, uses_anonymous_args = 0
 955 0000 80B5     		push	{r7, lr}
 956              	.LCFI12:
 957              		.cfi_def_cfa_offset 8
 958              		.cfi_offset 7, -8
 959              		.cfi_offset 14, -4
 960 0002 84B0     		sub	sp, sp, #16
 961              	.LCFI13:
 962              		.cfi_def_cfa_offset 24
 963 0004 00AF     		add	r7, sp, #0
 964              	.LCFI14:
 965              		.cfi_def_cfa_register 7
 966 0006 F860     		str	r0, [r7, #12]
 967 0008 B960     		str	r1, [r7, #8]
 968 000a 1346     		mov	r3, r2
 969 000c FB71     		strb	r3, [r7, #7]
 328:../libs/StdPeripheralDriver/src/stm32f10x_dma.c ****   /* Check the parameters */
 329:../libs/StdPeripheralDriver/src/stm32f10x_dma.c ****   assert_param(IS_DMA_ALL_PERIPH(DMAy_Channelx));
 970              		.loc 1 329 0
 971 000e FA68     		ldr	r2, [r7, #12]
 972 0010 354B     		ldr	r3, .L74
 973 0012 9A42     		cmp	r2, r3
 974 0014 2BD0     		beq	.L64
 975              		.loc 1 329 0 is_stmt 0 discriminator 2
 976 0016 FA68     		ldr	r2, [r7, #12]
 977 0018 344B     		ldr	r3, .L74+4
 978 001a 9A42     		cmp	r2, r3
 979 001c 27D0     		beq	.L64
 980              		.loc 1 329 0 discriminator 1
 981 001e FA68     		ldr	r2, [r7, #12]
 982 0020 334B     		ldr	r3, .L74+8
 983 0022 9A42     		cmp	r2, r3
 984 0024 23D0     		beq	.L64
 985              		.loc 1 329 0 discriminator 2
 986 0026 FA68     		ldr	r2, [r7, #12]
 987 0028 324B     		ldr	r3, .L74+12
 988 002a 9A42     		cmp	r2, r3
 989 002c 1FD0     		beq	.L64
 990              		.loc 1 329 0 discriminator 3
 991 002e FA68     		ldr	r2, [r7, #12]
 992 0030 314B     		ldr	r3, .L74+16
 993 0032 9A42     		cmp	r2, r3
 994 0034 1BD0     		beq	.L64
 995              		.loc 1 329 0 discriminator 4
 996 0036 FA68     		ldr	r2, [r7, #12]
 997 0038 304B     		ldr	r3, .L74+20
 998 003a 9A42     		cmp	r2, r3
 999 003c 17D0     		beq	.L64
 1000              		.loc 1 329 0 discriminator 5
 1001 003e FA68     		ldr	r2, [r7, #12]
 1002 0040 2F4B     		ldr	r3, .L74+24
 1003 0042 9A42     		cmp	r2, r3
 1004 0044 13D0     		beq	.L64
 1005              		.loc 1 329 0 discriminator 6
 1006 0046 FA68     		ldr	r2, [r7, #12]
 1007 0048 2E4B     		ldr	r3, .L74+28
 1008 004a 9A42     		cmp	r2, r3
 1009 004c 0FD0     		beq	.L64
 1010              		.loc 1 329 0 discriminator 7
 1011 004e FA68     		ldr	r2, [r7, #12]
 1012 0050 2D4B     		ldr	r3, .L74+32
 1013 0052 9A42     		cmp	r2, r3
 1014 0054 0BD0     		beq	.L64
 1015              		.loc 1 329 0 discriminator 8
 1016 0056 FA68     		ldr	r2, [r7, #12]
 1017 0058 2C4B     		ldr	r3, .L74+36
 1018 005a 9A42     		cmp	r2, r3
 1019 005c 07D0     		beq	.L64
 1020              		.loc 1 329 0 discriminator 9
 1021 005e FA68     		ldr	r2, [r7, #12]
 1022 0060 2B4B     		ldr	r3, .L74+40
 1023 0062 9A42     		cmp	r2, r3
 1024 0064 03D0     		beq	.L64
 1025              		.loc 1 329 0 discriminator 10
 1026 0066 FA68     		ldr	r2, [r7, #12]
 1027 0068 2A4B     		ldr	r3, .L74+44
 1028 006a 9A42     		cmp	r2, r3
 1029 006c 02D1     		bne	.L65
 1030              	.L64:
 1031              		.loc 1 329 0 discriminator 1
 1032 006e 4FF00103 		mov	r3, #1
 1033 0072 01E0     		b	.L66
 1034              	.L65:
 1035              		.loc 1 329 0 discriminator 3
 1036 0074 4FF00003 		mov	r3, #0
 1037              	.L66:
 1038              		.loc 1 329 0 discriminator 4
 1039 0078 1846     		mov	r0, r3
 1040 007a FFF7FEFF 		bl	assert_param
 330:../libs/StdPeripheralDriver/src/stm32f10x_dma.c ****   assert_param(IS_DMA_CONFIG_IT(DMA_IT));
 1041              		.loc 1 330 0 is_stmt 1 discriminator 4
 1042 007e BB68     		ldr	r3, [r7, #8]
 1043 0080 23F00E03 		bic	r3, r3, #14
 1044 0084 002B     		cmp	r3, #0
 1045 0086 05D1     		bne	.L67
 1046              		.loc 1 330 0 is_stmt 0 discriminator 1
 1047 0088 BB68     		ldr	r3, [r7, #8]
 1048 008a 002B     		cmp	r3, #0
 1049 008c 02D0     		beq	.L67
 1050              		.loc 1 330 0 discriminator 3
 1051 008e 4FF00103 		mov	r3, #1
 1052 0092 01E0     		b	.L68
 1053              	.L67:
 1054              		.loc 1 330 0 discriminator 2
 1055 0094 4FF00003 		mov	r3, #0
 1056              	.L68:
 1057              		.loc 1 330 0 discriminator 4
 1058 0098 1846     		mov	r0, r3
 1059 009a FFF7FEFF 		bl	assert_param
 331:../libs/StdPeripheralDriver/src/stm32f10x_dma.c ****   assert_param(IS_FUNCTIONAL_STATE(NewState));
 1060              		.loc 1 331 0 is_stmt 1 discriminator 4
 1061 009e FB79     		ldrb	r3, [r7, #7]	@ zero_extendqisi2
 1062 00a0 002B     		cmp	r3, #0
 1063 00a2 02D0     		beq	.L69
 1064              		.loc 1 331 0 is_stmt 0 discriminator 2
 1065 00a4 FB79     		ldrb	r3, [r7, #7]	@ zero_extendqisi2
 1066 00a6 012B     		cmp	r3, #1
 1067 00a8 02D1     		bne	.L70
 1068              	.L69:
 1069              		.loc 1 331 0 discriminator 1
 1070 00aa 4FF00103 		mov	r3, #1
 1071 00ae 01E0     		b	.L71
 1072              	.L70:
 1073              		.loc 1 331 0 discriminator 3
 1074 00b0 4FF00003 		mov	r3, #0
 1075              	.L71:
 1076              		.loc 1 331 0 discriminator 4
 1077 00b4 1846     		mov	r0, r3
 1078 00b6 FFF7FEFF 		bl	assert_param
 332:../libs/StdPeripheralDriver/src/stm32f10x_dma.c ****   if (NewState != DISABLE)
 1079              		.loc 1 332 0 is_stmt 1 discriminator 4
 1080 00ba FB79     		ldrb	r3, [r7, #7]	@ zero_extendqisi2
 1081 00bc 002B     		cmp	r3, #0
 1082 00be 06D0     		beq	.L72
 333:../libs/StdPeripheralDriver/src/stm32f10x_dma.c ****   {
 334:../libs/StdPeripheralDriver/src/stm32f10x_dma.c ****     /* Enable the selected DMA interrupts */
 335:../libs/StdPeripheralDriver/src/stm32f10x_dma.c ****     DMAy_Channelx->CCR |= DMA_IT;
 1083              		.loc 1 335 0
 1084 00c0 FB68     		ldr	r3, [r7, #12]
 1085 00c2 1A68     		ldr	r2, [r3, #0]
 1086 00c4 BB68     		ldr	r3, [r7, #8]
 1087 00c6 1A43     		orrs	r2, r2, r3
 1088 00c8 FB68     		ldr	r3, [r7, #12]
 1089 00ca 1A60     		str	r2, [r3, #0]
 1090 00cc 07E0     		b	.L63
 1091              	.L72:
 336:../libs/StdPeripheralDriver/src/stm32f10x_dma.c ****   }
 337:../libs/StdPeripheralDriver/src/stm32f10x_dma.c ****   else
 338:../libs/StdPeripheralDriver/src/stm32f10x_dma.c ****   {
 339:../libs/StdPeripheralDriver/src/stm32f10x_dma.c ****     /* Disable the selected DMA interrupts */
 340:../libs/StdPeripheralDriver/src/stm32f10x_dma.c ****     DMAy_Channelx->CCR &= ~DMA_IT;
 1092              		.loc 1 340 0
 1093 00ce FB68     		ldr	r3, [r7, #12]
 1094 00d0 1A68     		ldr	r2, [r3, #0]
 1095 00d2 BB68     		ldr	r3, [r7, #8]
 1096 00d4 6FEA0303 		mvn	r3, r3
 1097 00d8 1A40     		ands	r2, r2, r3
 1098 00da FB68     		ldr	r3, [r7, #12]
 1099 00dc 1A60     		str	r2, [r3, #0]
 1100              	.L63:
 341:../libs/StdPeripheralDriver/src/stm32f10x_dma.c ****   }
 342:../libs/StdPeripheralDriver/src/stm32f10x_dma.c **** }
 1101              		.loc 1 342 0
 1102 00de 07F11007 		add	r7, r7, #16
 1103 00e2 BD46     		mov	sp, r7
 1104 00e4 80BD     		pop	{r7, pc}
 1105              	.L75:
 1106 00e6 00BF     		.align	2
 1107              	.L74:
 1108 00e8 08000240 		.word	1073872904
 1109 00ec 1C000240 		.word	1073872924
 1110 00f0 30000240 		.word	1073872944
 1111 00f4 44000240 		.word	1073872964
 1112 00f8 58000240 		.word	1073872984
 1113 00fc 6C000240 		.word	1073873004
 1114 0100 80000240 		.word	1073873024
 1115 0104 08040240 		.word	1073873928
 1116 0108 1C040240 		.word	1073873948
 1117 010c 30040240 		.word	1073873968
 1118 0110 44040240 		.word	1073873988
 1119 0114 58040240 		.word	1073874008
 1120              		.cfi_endproc
 1121              	.LFE33:
 1123              		.section	.text.DMA_SetCurrDataCounter,"ax",%progbits
 1124              		.align	2
 1125              		.global	DMA_SetCurrDataCounter
 1126              		.thumb
 1127              		.thumb_func
 1129              	DMA_SetCurrDataCounter:
 1130              	.LFB34:
 343:../libs/StdPeripheralDriver/src/stm32f10x_dma.c **** 
 344:../libs/StdPeripheralDriver/src/stm32f10x_dma.c **** /**
 345:../libs/StdPeripheralDriver/src/stm32f10x_dma.c ****   * @brief  Sets the number of data units in the current DMAy Channelx transfer.
 346:../libs/StdPeripheralDriver/src/stm32f10x_dma.c ****   * @param  DMAy_Channelx: where y can be 1 or 2 to select the DMA and 
 347:../libs/StdPeripheralDriver/src/stm32f10x_dma.c ****   *         x can be 1 to 7 for DMA1 and 1 to 5 for DMA2 to select the DMA Channel.
 348:../libs/StdPeripheralDriver/src/stm32f10x_dma.c ****   * @param  DataNumber: The number of data units in the current DMAy Channelx
 349:../libs/StdPeripheralDriver/src/stm32f10x_dma.c ****   *         transfer.   
 350:../libs/StdPeripheralDriver/src/stm32f10x_dma.c ****   * @note   This function can only be used when the DMAy_Channelx is disabled.                 
 351:../libs/StdPeripheralDriver/src/stm32f10x_dma.c ****   * @retval None.
 352:../libs/StdPeripheralDriver/src/stm32f10x_dma.c ****   */
 353:../libs/StdPeripheralDriver/src/stm32f10x_dma.c **** void DMA_SetCurrDataCounter(DMA_Channel_TypeDef* DMAy_Channelx, uint16_t DataNumber)
 354:../libs/StdPeripheralDriver/src/stm32f10x_dma.c **** {
 1131              		.loc 1 354 0
 1132              		.cfi_startproc
 1133              		@ args = 0, pretend = 0, frame = 8
 1134              		@ frame_needed = 1, uses_anonymous_args = 0
 1135 0000 80B5     		push	{r7, lr}
 1136              	.LCFI15:
 1137              		.cfi_def_cfa_offset 8
 1138              		.cfi_offset 7, -8
 1139              		.cfi_offset 14, -4
 1140 0002 82B0     		sub	sp, sp, #8
 1141              	.LCFI16:
 1142              		.cfi_def_cfa_offset 16
 1143 0004 00AF     		add	r7, sp, #0
 1144              	.LCFI17:
 1145              		.cfi_def_cfa_register 7
 1146 0006 7860     		str	r0, [r7, #4]
 1147 0008 0B46     		mov	r3, r1
 1148 000a 7B80     		strh	r3, [r7, #2]	@ movhi
 355:../libs/StdPeripheralDriver/src/stm32f10x_dma.c ****   /* Check the parameters */
 356:../libs/StdPeripheralDriver/src/stm32f10x_dma.c ****   assert_param(IS_DMA_ALL_PERIPH(DMAy_Channelx));
 1149              		.loc 1 356 0
 1150 000c 7A68     		ldr	r2, [r7, #4]
 1151 000e 1F4B     		ldr	r3, .L80
 1152 0010 9A42     		cmp	r2, r3
 1153 0012 2BD0     		beq	.L77
 1154              		.loc 1 356 0 is_stmt 0 discriminator 2
 1155 0014 7A68     		ldr	r2, [r7, #4]
 1156 0016 1E4B     		ldr	r3, .L80+4
 1157 0018 9A42     		cmp	r2, r3
 1158 001a 27D0     		beq	.L77
 1159              		.loc 1 356 0 discriminator 1
 1160 001c 7A68     		ldr	r2, [r7, #4]
 1161 001e 1D4B     		ldr	r3, .L80+8
 1162 0020 9A42     		cmp	r2, r3
 1163 0022 23D0     		beq	.L77
 1164              		.loc 1 356 0 discriminator 2
 1165 0024 7A68     		ldr	r2, [r7, #4]
 1166 0026 1C4B     		ldr	r3, .L80+12
 1167 0028 9A42     		cmp	r2, r3
 1168 002a 1FD0     		beq	.L77
 1169              		.loc 1 356 0 discriminator 3
 1170 002c 7A68     		ldr	r2, [r7, #4]
 1171 002e 1B4B     		ldr	r3, .L80+16
 1172 0030 9A42     		cmp	r2, r3
 1173 0032 1BD0     		beq	.L77
 1174              		.loc 1 356 0 discriminator 4
 1175 0034 7A68     		ldr	r2, [r7, #4]
 1176 0036 1A4B     		ldr	r3, .L80+20
 1177 0038 9A42     		cmp	r2, r3
 1178 003a 17D0     		beq	.L77
 1179              		.loc 1 356 0 discriminator 5
 1180 003c 7A68     		ldr	r2, [r7, #4]
 1181 003e 194B     		ldr	r3, .L80+24
 1182 0040 9A42     		cmp	r2, r3
 1183 0042 13D0     		beq	.L77
 1184              		.loc 1 356 0 discriminator 6
 1185 0044 7A68     		ldr	r2, [r7, #4]
 1186 0046 184B     		ldr	r3, .L80+28
 1187 0048 9A42     		cmp	r2, r3
 1188 004a 0FD0     		beq	.L77
 1189              		.loc 1 356 0 discriminator 7
 1190 004c 7A68     		ldr	r2, [r7, #4]
 1191 004e 174B     		ldr	r3, .L80+32
 1192 0050 9A42     		cmp	r2, r3
 1193 0052 0BD0     		beq	.L77
 1194              		.loc 1 356 0 discriminator 8
 1195 0054 7A68     		ldr	r2, [r7, #4]
 1196 0056 164B     		ldr	r3, .L80+36
 1197 0058 9A42     		cmp	r2, r3
 1198 005a 07D0     		beq	.L77
 1199              		.loc 1 356 0 discriminator 9
 1200 005c 7A68     		ldr	r2, [r7, #4]
 1201 005e 154B     		ldr	r3, .L80+40
 1202 0060 9A42     		cmp	r2, r3
 1203 0062 03D0     		beq	.L77
 1204              		.loc 1 356 0 discriminator 10
 1205 0064 7A68     		ldr	r2, [r7, #4]
 1206 0066 144B     		ldr	r3, .L80+44
 1207 0068 9A42     		cmp	r2, r3
 1208 006a 02D1     		bne	.L78
 1209              	.L77:
 1210              		.loc 1 356 0 discriminator 1
 1211 006c 4FF00103 		mov	r3, #1
 1212 0070 01E0     		b	.L79
 1213              	.L78:
 1214              		.loc 1 356 0 discriminator 3
 1215 0072 4FF00003 		mov	r3, #0
 1216              	.L79:
 1217              		.loc 1 356 0 discriminator 4
 1218 0076 1846     		mov	r0, r3
 1219 0078 FFF7FEFF 		bl	assert_param
 357:../libs/StdPeripheralDriver/src/stm32f10x_dma.c ****   
 358:../libs/StdPeripheralDriver/src/stm32f10x_dma.c **** /*--------------------------- DMAy Channelx CNDTR Configuration ---------------*/
 359:../libs/StdPeripheralDriver/src/stm32f10x_dma.c ****   /* Write to DMAy Channelx CNDTR */
 360:../libs/StdPeripheralDriver/src/stm32f10x_dma.c ****   DMAy_Channelx->CNDTR = DataNumber;  
 1220              		.loc 1 360 0 is_stmt 1 discriminator 4
 1221 007c 7A88     		ldrh	r2, [r7, #2]
 1222 007e 7B68     		ldr	r3, [r7, #4]
 1223 0080 5A60     		str	r2, [r3, #4]
 361:../libs/StdPeripheralDriver/src/stm32f10x_dma.c **** }
 1224              		.loc 1 361 0 discriminator 4
 1225 0082 07F10807 		add	r7, r7, #8
 1226 0086 BD46     		mov	sp, r7
 1227 0088 80BD     		pop	{r7, pc}
 1228              	.L81:
 1229 008a 00BF     		.align	2
 1230              	.L80:
 1231 008c 08000240 		.word	1073872904
 1232 0090 1C000240 		.word	1073872924
 1233 0094 30000240 		.word	1073872944
 1234 0098 44000240 		.word	1073872964
 1235 009c 58000240 		.word	1073872984
 1236 00a0 6C000240 		.word	1073873004
 1237 00a4 80000240 		.word	1073873024
 1238 00a8 08040240 		.word	1073873928
 1239 00ac 1C040240 		.word	1073873948
 1240 00b0 30040240 		.word	1073873968
 1241 00b4 44040240 		.word	1073873988
 1242 00b8 58040240 		.word	1073874008
 1243              		.cfi_endproc
 1244              	.LFE34:
 1246              		.section	.text.DMA_GetCurrDataCounter,"ax",%progbits
 1247              		.align	2
 1248              		.global	DMA_GetCurrDataCounter
 1249              		.thumb
 1250              		.thumb_func
 1252              	DMA_GetCurrDataCounter:
 1253              	.LFB35:
 362:../libs/StdPeripheralDriver/src/stm32f10x_dma.c **** 
 363:../libs/StdPeripheralDriver/src/stm32f10x_dma.c **** /**
 364:../libs/StdPeripheralDriver/src/stm32f10x_dma.c ****   * @brief  Returns the number of remaining data units in the current
 365:../libs/StdPeripheralDriver/src/stm32f10x_dma.c ****   *         DMAy Channelx transfer.
 366:../libs/StdPeripheralDriver/src/stm32f10x_dma.c ****   * @param  DMAy_Channelx: where y can be 1 or 2 to select the DMA and 
 367:../libs/StdPeripheralDriver/src/stm32f10x_dma.c ****   *   x can be 1 to 7 for DMA1 and 1 to 5 for DMA2 to select the DMA Channel.
 368:../libs/StdPeripheralDriver/src/stm32f10x_dma.c ****   * @retval The number of remaining data units in the current DMAy Channelx
 369:../libs/StdPeripheralDriver/src/stm32f10x_dma.c ****   *         transfer.
 370:../libs/StdPeripheralDriver/src/stm32f10x_dma.c ****   */
 371:../libs/StdPeripheralDriver/src/stm32f10x_dma.c **** uint16_t DMA_GetCurrDataCounter(DMA_Channel_TypeDef* DMAy_Channelx)
 372:../libs/StdPeripheralDriver/src/stm32f10x_dma.c **** {
 1254              		.loc 1 372 0
 1255              		.cfi_startproc
 1256              		@ args = 0, pretend = 0, frame = 8
 1257              		@ frame_needed = 1, uses_anonymous_args = 0
 1258 0000 80B5     		push	{r7, lr}
 1259              	.LCFI18:
 1260              		.cfi_def_cfa_offset 8
 1261              		.cfi_offset 7, -8
 1262              		.cfi_offset 14, -4
 1263 0002 82B0     		sub	sp, sp, #8
 1264              	.LCFI19:
 1265              		.cfi_def_cfa_offset 16
 1266 0004 00AF     		add	r7, sp, #0
 1267              	.LCFI20:
 1268              		.cfi_def_cfa_register 7
 1269 0006 7860     		str	r0, [r7, #4]
 373:../libs/StdPeripheralDriver/src/stm32f10x_dma.c ****   /* Check the parameters */
 374:../libs/StdPeripheralDriver/src/stm32f10x_dma.c ****   assert_param(IS_DMA_ALL_PERIPH(DMAy_Channelx));
 1270              		.loc 1 374 0
 1271 0008 7A68     		ldr	r2, [r7, #4]
 1272 000a 1F4B     		ldr	r3, .L87
 1273 000c 9A42     		cmp	r2, r3
 1274 000e 2BD0     		beq	.L83
 1275              		.loc 1 374 0 is_stmt 0 discriminator 2
 1276 0010 7A68     		ldr	r2, [r7, #4]
 1277 0012 1E4B     		ldr	r3, .L87+4
 1278 0014 9A42     		cmp	r2, r3
 1279 0016 27D0     		beq	.L83
 1280              		.loc 1 374 0 discriminator 1
 1281 0018 7A68     		ldr	r2, [r7, #4]
 1282 001a 1D4B     		ldr	r3, .L87+8
 1283 001c 9A42     		cmp	r2, r3
 1284 001e 23D0     		beq	.L83
 1285              		.loc 1 374 0 discriminator 2
 1286 0020 7A68     		ldr	r2, [r7, #4]
 1287 0022 1C4B     		ldr	r3, .L87+12
 1288 0024 9A42     		cmp	r2, r3
 1289 0026 1FD0     		beq	.L83
 1290              		.loc 1 374 0 discriminator 3
 1291 0028 7A68     		ldr	r2, [r7, #4]
 1292 002a 1B4B     		ldr	r3, .L87+16
 1293 002c 9A42     		cmp	r2, r3
 1294 002e 1BD0     		beq	.L83
 1295              		.loc 1 374 0 discriminator 4
 1296 0030 7A68     		ldr	r2, [r7, #4]
 1297 0032 1A4B     		ldr	r3, .L87+20
 1298 0034 9A42     		cmp	r2, r3
 1299 0036 17D0     		beq	.L83
 1300              		.loc 1 374 0 discriminator 5
 1301 0038 7A68     		ldr	r2, [r7, #4]
 1302 003a 194B     		ldr	r3, .L87+24
 1303 003c 9A42     		cmp	r2, r3
 1304 003e 13D0     		beq	.L83
 1305              		.loc 1 374 0 discriminator 6
 1306 0040 7A68     		ldr	r2, [r7, #4]
 1307 0042 184B     		ldr	r3, .L87+28
 1308 0044 9A42     		cmp	r2, r3
 1309 0046 0FD0     		beq	.L83
 1310              		.loc 1 374 0 discriminator 7
 1311 0048 7A68     		ldr	r2, [r7, #4]
 1312 004a 174B     		ldr	r3, .L87+32
 1313 004c 9A42     		cmp	r2, r3
 1314 004e 0BD0     		beq	.L83
 1315              		.loc 1 374 0 discriminator 8
 1316 0050 7A68     		ldr	r2, [r7, #4]
 1317 0052 164B     		ldr	r3, .L87+36
 1318 0054 9A42     		cmp	r2, r3
 1319 0056 07D0     		beq	.L83
 1320              		.loc 1 374 0 discriminator 9
 1321 0058 7A68     		ldr	r2, [r7, #4]
 1322 005a 154B     		ldr	r3, .L87+40
 1323 005c 9A42     		cmp	r2, r3
 1324 005e 03D0     		beq	.L83
 1325              		.loc 1 374 0 discriminator 10
 1326 0060 7A68     		ldr	r2, [r7, #4]
 1327 0062 144B     		ldr	r3, .L87+44
 1328 0064 9A42     		cmp	r2, r3
 1329 0066 02D1     		bne	.L84
 1330              	.L83:
 1331              		.loc 1 374 0 discriminator 1
 1332 0068 4FF00103 		mov	r3, #1
 1333 006c 01E0     		b	.L85
 1334              	.L84:
 1335              		.loc 1 374 0 discriminator 3
 1336 006e 4FF00003 		mov	r3, #0
 1337              	.L85:
 1338              		.loc 1 374 0 discriminator 4
 1339 0072 1846     		mov	r0, r3
 1340 0074 FFF7FEFF 		bl	assert_param
 375:../libs/StdPeripheralDriver/src/stm32f10x_dma.c ****   /* Return the number of remaining data units for DMAy Channelx */
 376:../libs/StdPeripheralDriver/src/stm32f10x_dma.c ****   return ((uint16_t)(DMAy_Channelx->CNDTR));
 1341              		.loc 1 376 0 is_stmt 1 discriminator 4
 1342 0078 7B68     		ldr	r3, [r7, #4]
 1343 007a 5B68     		ldr	r3, [r3, #4]
 1344 007c 9BB2     		uxth	r3, r3
 377:../libs/StdPeripheralDriver/src/stm32f10x_dma.c **** }
 1345              		.loc 1 377 0 discriminator 4
 1346 007e 1846     		mov	r0, r3
 1347 0080 07F10807 		add	r7, r7, #8
 1348 0084 BD46     		mov	sp, r7
 1349 0086 80BD     		pop	{r7, pc}
 1350              	.L88:
 1351              		.align	2
 1352              	.L87:
 1353 0088 08000240 		.word	1073872904
 1354 008c 1C000240 		.word	1073872924
 1355 0090 30000240 		.word	1073872944
 1356 0094 44000240 		.word	1073872964
 1357 0098 58000240 		.word	1073872984
 1358 009c 6C000240 		.word	1073873004
 1359 00a0 80000240 		.word	1073873024
 1360 00a4 08040240 		.word	1073873928
 1361 00a8 1C040240 		.word	1073873948
 1362 00ac 30040240 		.word	1073873968
 1363 00b0 44040240 		.word	1073873988
 1364 00b4 58040240 		.word	1073874008
 1365              		.cfi_endproc
 1366              	.LFE35:
 1368              		.section	.text.DMA_GetFlagStatus,"ax",%progbits
 1369              		.align	2
 1370              		.global	DMA_GetFlagStatus
 1371              		.thumb
 1372              		.thumb_func
 1374              	DMA_GetFlagStatus:
 1375              	.LFB36:
 378:../libs/StdPeripheralDriver/src/stm32f10x_dma.c **** 
 379:../libs/StdPeripheralDriver/src/stm32f10x_dma.c **** /**
 380:../libs/StdPeripheralDriver/src/stm32f10x_dma.c ****   * @brief  Checks whether the specified DMAy Channelx flag is set or not.
 381:../libs/StdPeripheralDriver/src/stm32f10x_dma.c ****   * @param  DMAy_FLAG: specifies the flag to check.
 382:../libs/StdPeripheralDriver/src/stm32f10x_dma.c ****   *   This parameter can be one of the following values:
 383:../libs/StdPeripheralDriver/src/stm32f10x_dma.c ****   *     @arg DMA1_FLAG_GL1: DMA1 Channel1 global flag.
 384:../libs/StdPeripheralDriver/src/stm32f10x_dma.c ****   *     @arg DMA1_FLAG_TC1: DMA1 Channel1 transfer complete flag.
 385:../libs/StdPeripheralDriver/src/stm32f10x_dma.c ****   *     @arg DMA1_FLAG_HT1: DMA1 Channel1 half transfer flag.
 386:../libs/StdPeripheralDriver/src/stm32f10x_dma.c ****   *     @arg DMA1_FLAG_TE1: DMA1 Channel1 transfer error flag.
 387:../libs/StdPeripheralDriver/src/stm32f10x_dma.c ****   *     @arg DMA1_FLAG_GL2: DMA1 Channel2 global flag.
 388:../libs/StdPeripheralDriver/src/stm32f10x_dma.c ****   *     @arg DMA1_FLAG_TC2: DMA1 Channel2 transfer complete flag.
 389:../libs/StdPeripheralDriver/src/stm32f10x_dma.c ****   *     @arg DMA1_FLAG_HT2: DMA1 Channel2 half transfer flag.
 390:../libs/StdPeripheralDriver/src/stm32f10x_dma.c ****   *     @arg DMA1_FLAG_TE2: DMA1 Channel2 transfer error flag.
 391:../libs/StdPeripheralDriver/src/stm32f10x_dma.c ****   *     @arg DMA1_FLAG_GL3: DMA1 Channel3 global flag.
 392:../libs/StdPeripheralDriver/src/stm32f10x_dma.c ****   *     @arg DMA1_FLAG_TC3: DMA1 Channel3 transfer complete flag.
 393:../libs/StdPeripheralDriver/src/stm32f10x_dma.c ****   *     @arg DMA1_FLAG_HT3: DMA1 Channel3 half transfer flag.
 394:../libs/StdPeripheralDriver/src/stm32f10x_dma.c ****   *     @arg DMA1_FLAG_TE3: DMA1 Channel3 transfer error flag.
 395:../libs/StdPeripheralDriver/src/stm32f10x_dma.c ****   *     @arg DMA1_FLAG_GL4: DMA1 Channel4 global flag.
 396:../libs/StdPeripheralDriver/src/stm32f10x_dma.c ****   *     @arg DMA1_FLAG_TC4: DMA1 Channel4 transfer complete flag.
 397:../libs/StdPeripheralDriver/src/stm32f10x_dma.c ****   *     @arg DMA1_FLAG_HT4: DMA1 Channel4 half transfer flag.
 398:../libs/StdPeripheralDriver/src/stm32f10x_dma.c ****   *     @arg DMA1_FLAG_TE4: DMA1 Channel4 transfer error flag.
 399:../libs/StdPeripheralDriver/src/stm32f10x_dma.c ****   *     @arg DMA1_FLAG_GL5: DMA1 Channel5 global flag.
 400:../libs/StdPeripheralDriver/src/stm32f10x_dma.c ****   *     @arg DMA1_FLAG_TC5: DMA1 Channel5 transfer complete flag.
 401:../libs/StdPeripheralDriver/src/stm32f10x_dma.c ****   *     @arg DMA1_FLAG_HT5: DMA1 Channel5 half transfer flag.
 402:../libs/StdPeripheralDriver/src/stm32f10x_dma.c ****   *     @arg DMA1_FLAG_TE5: DMA1 Channel5 transfer error flag.
 403:../libs/StdPeripheralDriver/src/stm32f10x_dma.c ****   *     @arg DMA1_FLAG_GL6: DMA1 Channel6 global flag.
 404:../libs/StdPeripheralDriver/src/stm32f10x_dma.c ****   *     @arg DMA1_FLAG_TC6: DMA1 Channel6 transfer complete flag.
 405:../libs/StdPeripheralDriver/src/stm32f10x_dma.c ****   *     @arg DMA1_FLAG_HT6: DMA1 Channel6 half transfer flag.
 406:../libs/StdPeripheralDriver/src/stm32f10x_dma.c ****   *     @arg DMA1_FLAG_TE6: DMA1 Channel6 transfer error flag.
 407:../libs/StdPeripheralDriver/src/stm32f10x_dma.c ****   *     @arg DMA1_FLAG_GL7: DMA1 Channel7 global flag.
 408:../libs/StdPeripheralDriver/src/stm32f10x_dma.c ****   *     @arg DMA1_FLAG_TC7: DMA1 Channel7 transfer complete flag.
 409:../libs/StdPeripheralDriver/src/stm32f10x_dma.c ****   *     @arg DMA1_FLAG_HT7: DMA1 Channel7 half transfer flag.
 410:../libs/StdPeripheralDriver/src/stm32f10x_dma.c ****   *     @arg DMA1_FLAG_TE7: DMA1 Channel7 transfer error flag.
 411:../libs/StdPeripheralDriver/src/stm32f10x_dma.c ****   *     @arg DMA2_FLAG_GL1: DMA2 Channel1 global flag.
 412:../libs/StdPeripheralDriver/src/stm32f10x_dma.c ****   *     @arg DMA2_FLAG_TC1: DMA2 Channel1 transfer complete flag.
 413:../libs/StdPeripheralDriver/src/stm32f10x_dma.c ****   *     @arg DMA2_FLAG_HT1: DMA2 Channel1 half transfer flag.
 414:../libs/StdPeripheralDriver/src/stm32f10x_dma.c ****   *     @arg DMA2_FLAG_TE1: DMA2 Channel1 transfer error flag.
 415:../libs/StdPeripheralDriver/src/stm32f10x_dma.c ****   *     @arg DMA2_FLAG_GL2: DMA2 Channel2 global flag.
 416:../libs/StdPeripheralDriver/src/stm32f10x_dma.c ****   *     @arg DMA2_FLAG_TC2: DMA2 Channel2 transfer complete flag.
 417:../libs/StdPeripheralDriver/src/stm32f10x_dma.c ****   *     @arg DMA2_FLAG_HT2: DMA2 Channel2 half transfer flag.
 418:../libs/StdPeripheralDriver/src/stm32f10x_dma.c ****   *     @arg DMA2_FLAG_TE2: DMA2 Channel2 transfer error flag.
 419:../libs/StdPeripheralDriver/src/stm32f10x_dma.c ****   *     @arg DMA2_FLAG_GL3: DMA2 Channel3 global flag.
 420:../libs/StdPeripheralDriver/src/stm32f10x_dma.c ****   *     @arg DMA2_FLAG_TC3: DMA2 Channel3 transfer complete flag.
 421:../libs/StdPeripheralDriver/src/stm32f10x_dma.c ****   *     @arg DMA2_FLAG_HT3: DMA2 Channel3 half transfer flag.
 422:../libs/StdPeripheralDriver/src/stm32f10x_dma.c ****   *     @arg DMA2_FLAG_TE3: DMA2 Channel3 transfer error flag.
 423:../libs/StdPeripheralDriver/src/stm32f10x_dma.c ****   *     @arg DMA2_FLAG_GL4: DMA2 Channel4 global flag.
 424:../libs/StdPeripheralDriver/src/stm32f10x_dma.c ****   *     @arg DMA2_FLAG_TC4: DMA2 Channel4 transfer complete flag.
 425:../libs/StdPeripheralDriver/src/stm32f10x_dma.c ****   *     @arg DMA2_FLAG_HT4: DMA2 Channel4 half transfer flag.
 426:../libs/StdPeripheralDriver/src/stm32f10x_dma.c ****   *     @arg DMA2_FLAG_TE4: DMA2 Channel4 transfer error flag.
 427:../libs/StdPeripheralDriver/src/stm32f10x_dma.c ****   *     @arg DMA2_FLAG_GL5: DMA2 Channel5 global flag.
 428:../libs/StdPeripheralDriver/src/stm32f10x_dma.c ****   *     @arg DMA2_FLAG_TC5: DMA2 Channel5 transfer complete flag.
 429:../libs/StdPeripheralDriver/src/stm32f10x_dma.c ****   *     @arg DMA2_FLAG_HT5: DMA2 Channel5 half transfer flag.
 430:../libs/StdPeripheralDriver/src/stm32f10x_dma.c ****   *     @arg DMA2_FLAG_TE5: DMA2 Channel5 transfer error flag.
 431:../libs/StdPeripheralDriver/src/stm32f10x_dma.c ****   * @retval The new state of DMAy_FLAG (SET or RESET).
 432:../libs/StdPeripheralDriver/src/stm32f10x_dma.c ****   */
 433:../libs/StdPeripheralDriver/src/stm32f10x_dma.c **** FlagStatus DMA_GetFlagStatus(uint32_t DMAy_FLAG)
 434:../libs/StdPeripheralDriver/src/stm32f10x_dma.c **** {
 1376              		.loc 1 434 0
 1377              		.cfi_startproc
 1378              		@ args = 0, pretend = 0, frame = 16
 1379              		@ frame_needed = 1, uses_anonymous_args = 0
 1380 0000 80B5     		push	{r7, lr}
 1381              	.LCFI21:
 1382              		.cfi_def_cfa_offset 8
 1383              		.cfi_offset 7, -8
 1384              		.cfi_offset 14, -4
 1385 0002 84B0     		sub	sp, sp, #16
 1386              	.LCFI22:
 1387              		.cfi_def_cfa_offset 24
 1388 0004 00AF     		add	r7, sp, #0
 1389              	.LCFI23:
 1390              		.cfi_def_cfa_register 7
 1391 0006 7860     		str	r0, [r7, #4]
 435:../libs/StdPeripheralDriver/src/stm32f10x_dma.c ****   FlagStatus bitstatus = RESET;
 1392              		.loc 1 435 0
 1393 0008 4FF00003 		mov	r3, #0
 1394 000c FB73     		strb	r3, [r7, #15]
 436:../libs/StdPeripheralDriver/src/stm32f10x_dma.c ****   uint32_t tmpreg = 0;
 1395              		.loc 1 436 0
 1396 000e 4FF00003 		mov	r3, #0
 1397 0012 BB60     		str	r3, [r7, #8]
 437:../libs/StdPeripheralDriver/src/stm32f10x_dma.c ****   
 438:../libs/StdPeripheralDriver/src/stm32f10x_dma.c ****   /* Check the parameters */
 439:../libs/StdPeripheralDriver/src/stm32f10x_dma.c ****   assert_param(IS_DMA_GET_FLAG(DMAy_FLAG));
 1398              		.loc 1 439 0
 1399 0014 7B68     		ldr	r3, [r7, #4]
 1400 0016 012B     		cmp	r3, #1
 1401 0018 00F0C380 		beq	.L90
 1402              		.loc 1 439 0 is_stmt 0 discriminator 2
 1403 001c 7B68     		ldr	r3, [r7, #4]
 1404 001e 022B     		cmp	r3, #2
 1405 0020 00F0BF80 		beq	.L90
 1406              		.loc 1 439 0 discriminator 1
 1407 0024 7B68     		ldr	r3, [r7, #4]
 1408 0026 042B     		cmp	r3, #4
 1409 0028 00F0BB80 		beq	.L90
 1410              		.loc 1 439 0 discriminator 2
 1411 002c 7B68     		ldr	r3, [r7, #4]
 1412 002e 082B     		cmp	r3, #8
 1413 0030 00F0B780 		beq	.L90
 1414              		.loc 1 439 0 discriminator 3
 1415 0034 7B68     		ldr	r3, [r7, #4]
 1416 0036 102B     		cmp	r3, #16
 1417 0038 00F0B380 		beq	.L90
 1418              		.loc 1 439 0 discriminator 4
 1419 003c 7B68     		ldr	r3, [r7, #4]
 1420 003e 202B     		cmp	r3, #32
 1421 0040 00F0AF80 		beq	.L90
 1422              		.loc 1 439 0 discriminator 5
 1423 0044 7B68     		ldr	r3, [r7, #4]
 1424 0046 402B     		cmp	r3, #64
 1425 0048 00F0AB80 		beq	.L90
 1426              		.loc 1 439 0 discriminator 6
 1427 004c 7B68     		ldr	r3, [r7, #4]
 1428 004e 802B     		cmp	r3, #128
 1429 0050 00F0A780 		beq	.L90
 1430              		.loc 1 439 0 discriminator 7
 1431 0054 7B68     		ldr	r3, [r7, #4]
 1432 0056 B3F5807F 		cmp	r3, #256
 1433 005a 00F0A280 		beq	.L90
 1434              		.loc 1 439 0 discriminator 8
 1435 005e 7B68     		ldr	r3, [r7, #4]
 1436 0060 B3F5007F 		cmp	r3, #512
 1437 0064 00F09D80 		beq	.L90
 1438              		.loc 1 439 0 discriminator 9
 1439 0068 7B68     		ldr	r3, [r7, #4]
 1440 006a B3F5806F 		cmp	r3, #1024
 1441 006e 00F09880 		beq	.L90
 1442              		.loc 1 439 0 discriminator 10
 1443 0072 7B68     		ldr	r3, [r7, #4]
 1444 0074 B3F5006F 		cmp	r3, #2048
 1445 0078 00F09380 		beq	.L90
 1446              		.loc 1 439 0 discriminator 11
 1447 007c 7B68     		ldr	r3, [r7, #4]
 1448 007e B3F5805F 		cmp	r3, #4096
 1449 0082 00F08E80 		beq	.L90
 1450              		.loc 1 439 0 discriminator 12
 1451 0086 7B68     		ldr	r3, [r7, #4]
 1452 0088 B3F5005F 		cmp	r3, #8192
 1453 008c 00F08980 		beq	.L90
 1454              		.loc 1 439 0 discriminator 13
 1455 0090 7B68     		ldr	r3, [r7, #4]
 1456 0092 B3F5804F 		cmp	r3, #16384
 1457 0096 00F08480 		beq	.L90
 1458              		.loc 1 439 0 discriminator 14
 1459 009a 7B68     		ldr	r3, [r7, #4]
 1460 009c B3F5004F 		cmp	r3, #32768
 1461 00a0 7FD0     		beq	.L90
 1462              		.loc 1 439 0 discriminator 15
 1463 00a2 7B68     		ldr	r3, [r7, #4]
 1464 00a4 B3F5803F 		cmp	r3, #65536
 1465 00a8 7BD0     		beq	.L90
 1466              		.loc 1 439 0 discriminator 16
 1467 00aa 7B68     		ldr	r3, [r7, #4]
 1468 00ac B3F5003F 		cmp	r3, #131072
 1469 00b0 77D0     		beq	.L90
 1470              		.loc 1 439 0 discriminator 17
 1471 00b2 7B68     		ldr	r3, [r7, #4]
 1472 00b4 B3F5802F 		cmp	r3, #262144
 1473 00b8 73D0     		beq	.L90
 1474              		.loc 1 439 0 discriminator 18
 1475 00ba 7B68     		ldr	r3, [r7, #4]
 1476 00bc B3F5002F 		cmp	r3, #524288
 1477 00c0 6FD0     		beq	.L90
 1478              		.loc 1 439 0 discriminator 19
 1479 00c2 7B68     		ldr	r3, [r7, #4]
 1480 00c4 B3F5801F 		cmp	r3, #1048576
 1481 00c8 6BD0     		beq	.L90
 1482              		.loc 1 439 0 discriminator 20
 1483 00ca 7B68     		ldr	r3, [r7, #4]
 1484 00cc B3F5001F 		cmp	r3, #2097152
 1485 00d0 67D0     		beq	.L90
 1486              		.loc 1 439 0 discriminator 21
 1487 00d2 7B68     		ldr	r3, [r7, #4]
 1488 00d4 B3F5800F 		cmp	r3, #4194304
 1489 00d8 63D0     		beq	.L90
 1490              		.loc 1 439 0 discriminator 22
 1491 00da 7B68     		ldr	r3, [r7, #4]
 1492 00dc B3F5000F 		cmp	r3, #8388608
 1493 00e0 5FD0     		beq	.L90
 1494              		.loc 1 439 0 discriminator 23
 1495 00e2 7B68     		ldr	r3, [r7, #4]
 1496 00e4 B3F1807F 		cmp	r3, #16777216
 1497 00e8 5BD0     		beq	.L90
 1498              		.loc 1 439 0 discriminator 24
 1499 00ea 7B68     		ldr	r3, [r7, #4]
 1500 00ec B3F1007F 		cmp	r3, #33554432
 1501 00f0 57D0     		beq	.L90
 1502              		.loc 1 439 0 discriminator 25
 1503 00f2 7B68     		ldr	r3, [r7, #4]
 1504 00f4 B3F1806F 		cmp	r3, #67108864
 1505 00f8 53D0     		beq	.L90
 1506              		.loc 1 439 0 discriminator 26
 1507 00fa 7B68     		ldr	r3, [r7, #4]
 1508 00fc B3F1006F 		cmp	r3, #134217728
 1509 0100 4FD0     		beq	.L90
 1510              		.loc 1 439 0 discriminator 27
 1511 0102 7A68     		ldr	r2, [r7, #4]
 1512 0104 3A4B     		ldr	r3, .L98
 1513 0106 9A42     		cmp	r2, r3
 1514 0108 4BD0     		beq	.L90
 1515              		.loc 1 439 0 discriminator 28
 1516 010a 7A68     		ldr	r2, [r7, #4]
 1517 010c 394B     		ldr	r3, .L98+4
 1518 010e 9A42     		cmp	r2, r3
 1519 0110 47D0     		beq	.L90
 1520              		.loc 1 439 0 discriminator 29
 1521 0112 7A68     		ldr	r2, [r7, #4]
 1522 0114 384B     		ldr	r3, .L98+8
 1523 0116 9A42     		cmp	r2, r3
 1524 0118 43D0     		beq	.L90
 1525              		.loc 1 439 0 discriminator 30
 1526 011a 7A68     		ldr	r2, [r7, #4]
 1527 011c 374B     		ldr	r3, .L98+12
 1528 011e 9A42     		cmp	r2, r3
 1529 0120 3FD0     		beq	.L90
 1530              		.loc 1 439 0 discriminator 31
 1531 0122 7A68     		ldr	r2, [r7, #4]
 1532 0124 364B     		ldr	r3, .L98+16
 1533 0126 9A42     		cmp	r2, r3
 1534 0128 3BD0     		beq	.L90
 1535              		.loc 1 439 0 discriminator 32
 1536 012a 7A68     		ldr	r2, [r7, #4]
 1537 012c 354B     		ldr	r3, .L98+20
 1538 012e 9A42     		cmp	r2, r3
 1539 0130 37D0     		beq	.L90
 1540              		.loc 1 439 0 discriminator 33
 1541 0132 7A68     		ldr	r2, [r7, #4]
 1542 0134 344B     		ldr	r3, .L98+24
 1543 0136 9A42     		cmp	r2, r3
 1544 0138 33D0     		beq	.L90
 1545              		.loc 1 439 0 discriminator 34
 1546 013a 7A68     		ldr	r2, [r7, #4]
 1547 013c 334B     		ldr	r3, .L98+28
 1548 013e 9A42     		cmp	r2, r3
 1549 0140 2FD0     		beq	.L90
 1550              		.loc 1 439 0 discriminator 35
 1551 0142 7A68     		ldr	r2, [r7, #4]
 1552 0144 324B     		ldr	r3, .L98+32
 1553 0146 9A42     		cmp	r2, r3
 1554 0148 2BD0     		beq	.L90
 1555              		.loc 1 439 0 discriminator 36
 1556 014a 7A68     		ldr	r2, [r7, #4]
 1557 014c 314B     		ldr	r3, .L98+36
 1558 014e 9A42     		cmp	r2, r3
 1559 0150 27D0     		beq	.L90
 1560              		.loc 1 439 0 discriminator 37
 1561 0152 7A68     		ldr	r2, [r7, #4]
 1562 0154 304B     		ldr	r3, .L98+40
 1563 0156 9A42     		cmp	r2, r3
 1564 0158 23D0     		beq	.L90
 1565              		.loc 1 439 0 discriminator 38
 1566 015a 7A68     		ldr	r2, [r7, #4]
 1567 015c 2F4B     		ldr	r3, .L98+44
 1568 015e 9A42     		cmp	r2, r3
 1569 0160 1FD0     		beq	.L90
 1570              		.loc 1 439 0 discriminator 39
 1571 0162 7B68     		ldr	r3, [r7, #4]
 1572 0164 B3F1102F 		cmp	r3, #268439552
 1573 0168 1BD0     		beq	.L90
 1574              		.loc 1 439 0 discriminator 40
 1575 016a 7A68     		ldr	r2, [r7, #4]
 1576 016c 2C4B     		ldr	r3, .L98+48
 1577 016e 9A42     		cmp	r2, r3
 1578 0170 17D0     		beq	.L90
 1579              		.loc 1 439 0 discriminator 41
 1580 0172 7A68     		ldr	r2, [r7, #4]
 1581 0174 2B4B     		ldr	r3, .L98+52
 1582 0176 9A42     		cmp	r2, r3
 1583 0178 13D0     		beq	.L90
 1584              		.loc 1 439 0 discriminator 42
 1585 017a 7A68     		ldr	r2, [r7, #4]
 1586 017c 2A4B     		ldr	r3, .L98+56
 1587 017e 9A42     		cmp	r2, r3
 1588 0180 0FD0     		beq	.L90
 1589              		.loc 1 439 0 discriminator 43
 1590 0182 7A68     		ldr	r2, [r7, #4]
 1591 0184 294B     		ldr	r3, .L98+60
 1592 0186 9A42     		cmp	r2, r3
 1593 0188 0BD0     		beq	.L90
 1594              		.loc 1 439 0 discriminator 44
 1595 018a 7A68     		ldr	r2, [r7, #4]
 1596 018c 284B     		ldr	r3, .L98+64
 1597 018e 9A42     		cmp	r2, r3
 1598 0190 07D0     		beq	.L90
 1599              		.loc 1 439 0 discriminator 45
 1600 0192 7A68     		ldr	r2, [r7, #4]
 1601 0194 274B     		ldr	r3, .L98+68
 1602 0196 9A42     		cmp	r2, r3
 1603 0198 03D0     		beq	.L90
 1604              		.loc 1 439 0 discriminator 46
 1605 019a 7A68     		ldr	r2, [r7, #4]
 1606 019c 264B     		ldr	r3, .L98+72
 1607 019e 9A42     		cmp	r2, r3
 1608 01a0 02D1     		bne	.L91
 1609              	.L90:
 1610              		.loc 1 439 0 discriminator 1
 1611 01a2 4FF00103 		mov	r3, #1
 1612 01a6 01E0     		b	.L92
 1613              	.L91:
 1614              		.loc 1 439 0 discriminator 3
 1615 01a8 4FF00003 		mov	r3, #0
 1616              	.L92:
 1617              		.loc 1 439 0 discriminator 4
 1618 01ac 1846     		mov	r0, r3
 1619 01ae FFF7FEFF 		bl	assert_param
 440:../libs/StdPeripheralDriver/src/stm32f10x_dma.c **** 
 441:../libs/StdPeripheralDriver/src/stm32f10x_dma.c ****   /* Calculate the used DMAy */
 442:../libs/StdPeripheralDriver/src/stm32f10x_dma.c ****   if ((DMAy_FLAG & FLAG_Mask) != (uint32_t)RESET)
 1620              		.loc 1 442 0 is_stmt 1 discriminator 4
 1621 01b2 7B68     		ldr	r3, [r7, #4]
 1622 01b4 03F08053 		and	r3, r3, #268435456
 1623 01b8 002B     		cmp	r3, #0
 1624 01ba 03D0     		beq	.L93
 443:../libs/StdPeripheralDriver/src/stm32f10x_dma.c ****   {
 444:../libs/StdPeripheralDriver/src/stm32f10x_dma.c ****     /* Get DMA2 ISR register value */
 445:../libs/StdPeripheralDriver/src/stm32f10x_dma.c ****     tmpreg = DMA2->ISR ;
 1625              		.loc 1 445 0
 1626 01bc 1F4B     		ldr	r3, .L98+76
 1627 01be 1B68     		ldr	r3, [r3, #0]
 1628 01c0 BB60     		str	r3, [r7, #8]
 1629 01c2 02E0     		b	.L94
 1630              	.L93:
 446:../libs/StdPeripheralDriver/src/stm32f10x_dma.c ****   }
 447:../libs/StdPeripheralDriver/src/stm32f10x_dma.c ****   else
 448:../libs/StdPeripheralDriver/src/stm32f10x_dma.c ****   {
 449:../libs/StdPeripheralDriver/src/stm32f10x_dma.c ****     /* Get DMA1 ISR register value */
 450:../libs/StdPeripheralDriver/src/stm32f10x_dma.c ****     tmpreg = DMA1->ISR ;
 1631              		.loc 1 450 0
 1632 01c4 1E4B     		ldr	r3, .L98+80
 1633 01c6 1B68     		ldr	r3, [r3, #0]
 1634 01c8 BB60     		str	r3, [r7, #8]
 1635              	.L94:
 451:../libs/StdPeripheralDriver/src/stm32f10x_dma.c ****   }
 452:../libs/StdPeripheralDriver/src/stm32f10x_dma.c **** 
 453:../libs/StdPeripheralDriver/src/stm32f10x_dma.c ****   /* Check the status of the specified DMAy flag */
 454:../libs/StdPeripheralDriver/src/stm32f10x_dma.c ****   if ((tmpreg & DMAy_FLAG) != (uint32_t)RESET)
 1636              		.loc 1 454 0
 1637 01ca BA68     		ldr	r2, [r7, #8]
 1638 01cc 7B68     		ldr	r3, [r7, #4]
 1639 01ce 1340     		ands	r3, r3, r2
 1640 01d0 002B     		cmp	r3, #0
 1641 01d2 03D0     		beq	.L95
 455:../libs/StdPeripheralDriver/src/stm32f10x_dma.c ****   {
 456:../libs/StdPeripheralDriver/src/stm32f10x_dma.c ****     /* DMAy_FLAG is set */
 457:../libs/StdPeripheralDriver/src/stm32f10x_dma.c ****     bitstatus = SET;
 1642              		.loc 1 457 0
 1643 01d4 4FF00103 		mov	r3, #1
 1644 01d8 FB73     		strb	r3, [r7, #15]
 1645 01da 02E0     		b	.L96
 1646              	.L95:
 458:../libs/StdPeripheralDriver/src/stm32f10x_dma.c ****   }
 459:../libs/StdPeripheralDriver/src/stm32f10x_dma.c ****   else
 460:../libs/StdPeripheralDriver/src/stm32f10x_dma.c ****   {
 461:../libs/StdPeripheralDriver/src/stm32f10x_dma.c ****     /* DMAy_FLAG is reset */
 462:../libs/StdPeripheralDriver/src/stm32f10x_dma.c ****     bitstatus = RESET;
 1647              		.loc 1 462 0
 1648 01dc 4FF00003 		mov	r3, #0
 1649 01e0 FB73     		strb	r3, [r7, #15]
 1650              	.L96:
 463:../libs/StdPeripheralDriver/src/stm32f10x_dma.c ****   }
 464:../libs/StdPeripheralDriver/src/stm32f10x_dma.c ****   
 465:../libs/StdPeripheralDriver/src/stm32f10x_dma.c ****   /* Return the DMAy_FLAG status */
 466:../libs/StdPeripheralDriver/src/stm32f10x_dma.c ****   return  bitstatus;
 1651              		.loc 1 466 0
 1652 01e2 FB7B     		ldrb	r3, [r7, #15]	@ zero_extendqisi2
 467:../libs/StdPeripheralDriver/src/stm32f10x_dma.c **** }
 1653              		.loc 1 467 0
 1654 01e4 1846     		mov	r0, r3
 1655 01e6 07F11007 		add	r7, r7, #16
 1656 01ea BD46     		mov	sp, r7
 1657 01ec 80BD     		pop	{r7, pc}
 1658              	.L99:
 1659 01ee 00BF     		.align	2
 1660              	.L98:
 1661 01f0 01000010 		.word	268435457
 1662 01f4 02000010 		.word	268435458
 1663 01f8 04000010 		.word	268435460
 1664 01fc 08000010 		.word	268435464
 1665 0200 10000010 		.word	268435472
 1666 0204 20000010 		.word	268435488
 1667 0208 40000010 		.word	268435520
 1668 020c 80000010 		.word	268435584
 1669 0210 00010010 		.word	268435712
 1670 0214 00020010 		.word	268435968
 1671 0218 00040010 		.word	268436480
 1672 021c 00080010 		.word	268437504
 1673 0220 00200010 		.word	268443648
 1674 0224 00400010 		.word	268451840
 1675 0228 00800010 		.word	268468224
 1676 022c 00000110 		.word	268500992
 1677 0230 00000210 		.word	268566528
 1678 0234 00000410 		.word	268697600
 1679 0238 00000810 		.word	268959744
 1680 023c 00040240 		.word	1073873920
 1681 0240 00000240 		.word	1073872896
 1682              		.cfi_endproc
 1683              	.LFE36:
 1685              		.section	.text.DMA_ClearFlag,"ax",%progbits
 1686              		.align	2
 1687              		.global	DMA_ClearFlag
 1688              		.thumb
 1689              		.thumb_func
 1691              	DMA_ClearFlag:
 1692              	.LFB37:
 468:../libs/StdPeripheralDriver/src/stm32f10x_dma.c **** 
 469:../libs/StdPeripheralDriver/src/stm32f10x_dma.c **** /**
 470:../libs/StdPeripheralDriver/src/stm32f10x_dma.c ****   * @brief  Clears the DMAy Channelx's pending flags.
 471:../libs/StdPeripheralDriver/src/stm32f10x_dma.c ****   * @param  DMAy_FLAG: specifies the flag to clear.
 472:../libs/StdPeripheralDriver/src/stm32f10x_dma.c ****   *   This parameter can be any combination (for the same DMA) of the following values:
 473:../libs/StdPeripheralDriver/src/stm32f10x_dma.c ****   *     @arg DMA1_FLAG_GL1: DMA1 Channel1 global flag.
 474:../libs/StdPeripheralDriver/src/stm32f10x_dma.c ****   *     @arg DMA1_FLAG_TC1: DMA1 Channel1 transfer complete flag.
 475:../libs/StdPeripheralDriver/src/stm32f10x_dma.c ****   *     @arg DMA1_FLAG_HT1: DMA1 Channel1 half transfer flag.
 476:../libs/StdPeripheralDriver/src/stm32f10x_dma.c ****   *     @arg DMA1_FLAG_TE1: DMA1 Channel1 transfer error flag.
 477:../libs/StdPeripheralDriver/src/stm32f10x_dma.c ****   *     @arg DMA1_FLAG_GL2: DMA1 Channel2 global flag.
 478:../libs/StdPeripheralDriver/src/stm32f10x_dma.c ****   *     @arg DMA1_FLAG_TC2: DMA1 Channel2 transfer complete flag.
 479:../libs/StdPeripheralDriver/src/stm32f10x_dma.c ****   *     @arg DMA1_FLAG_HT2: DMA1 Channel2 half transfer flag.
 480:../libs/StdPeripheralDriver/src/stm32f10x_dma.c ****   *     @arg DMA1_FLAG_TE2: DMA1 Channel2 transfer error flag.
 481:../libs/StdPeripheralDriver/src/stm32f10x_dma.c ****   *     @arg DMA1_FLAG_GL3: DMA1 Channel3 global flag.
 482:../libs/StdPeripheralDriver/src/stm32f10x_dma.c ****   *     @arg DMA1_FLAG_TC3: DMA1 Channel3 transfer complete flag.
 483:../libs/StdPeripheralDriver/src/stm32f10x_dma.c ****   *     @arg DMA1_FLAG_HT3: DMA1 Channel3 half transfer flag.
 484:../libs/StdPeripheralDriver/src/stm32f10x_dma.c ****   *     @arg DMA1_FLAG_TE3: DMA1 Channel3 transfer error flag.
 485:../libs/StdPeripheralDriver/src/stm32f10x_dma.c ****   *     @arg DMA1_FLAG_GL4: DMA1 Channel4 global flag.
 486:../libs/StdPeripheralDriver/src/stm32f10x_dma.c ****   *     @arg DMA1_FLAG_TC4: DMA1 Channel4 transfer complete flag.
 487:../libs/StdPeripheralDriver/src/stm32f10x_dma.c ****   *     @arg DMA1_FLAG_HT4: DMA1 Channel4 half transfer flag.
 488:../libs/StdPeripheralDriver/src/stm32f10x_dma.c ****   *     @arg DMA1_FLAG_TE4: DMA1 Channel4 transfer error flag.
 489:../libs/StdPeripheralDriver/src/stm32f10x_dma.c ****   *     @arg DMA1_FLAG_GL5: DMA1 Channel5 global flag.
 490:../libs/StdPeripheralDriver/src/stm32f10x_dma.c ****   *     @arg DMA1_FLAG_TC5: DMA1 Channel5 transfer complete flag.
 491:../libs/StdPeripheralDriver/src/stm32f10x_dma.c ****   *     @arg DMA1_FLAG_HT5: DMA1 Channel5 half transfer flag.
 492:../libs/StdPeripheralDriver/src/stm32f10x_dma.c ****   *     @arg DMA1_FLAG_TE5: DMA1 Channel5 transfer error flag.
 493:../libs/StdPeripheralDriver/src/stm32f10x_dma.c ****   *     @arg DMA1_FLAG_GL6: DMA1 Channel6 global flag.
 494:../libs/StdPeripheralDriver/src/stm32f10x_dma.c ****   *     @arg DMA1_FLAG_TC6: DMA1 Channel6 transfer complete flag.
 495:../libs/StdPeripheralDriver/src/stm32f10x_dma.c ****   *     @arg DMA1_FLAG_HT6: DMA1 Channel6 half transfer flag.
 496:../libs/StdPeripheralDriver/src/stm32f10x_dma.c ****   *     @arg DMA1_FLAG_TE6: DMA1 Channel6 transfer error flag.
 497:../libs/StdPeripheralDriver/src/stm32f10x_dma.c ****   *     @arg DMA1_FLAG_GL7: DMA1 Channel7 global flag.
 498:../libs/StdPeripheralDriver/src/stm32f10x_dma.c ****   *     @arg DMA1_FLAG_TC7: DMA1 Channel7 transfer complete flag.
 499:../libs/StdPeripheralDriver/src/stm32f10x_dma.c ****   *     @arg DMA1_FLAG_HT7: DMA1 Channel7 half transfer flag.
 500:../libs/StdPeripheralDriver/src/stm32f10x_dma.c ****   *     @arg DMA1_FLAG_TE7: DMA1 Channel7 transfer error flag.
 501:../libs/StdPeripheralDriver/src/stm32f10x_dma.c ****   *     @arg DMA2_FLAG_GL1: DMA2 Channel1 global flag.
 502:../libs/StdPeripheralDriver/src/stm32f10x_dma.c ****   *     @arg DMA2_FLAG_TC1: DMA2 Channel1 transfer complete flag.
 503:../libs/StdPeripheralDriver/src/stm32f10x_dma.c ****   *     @arg DMA2_FLAG_HT1: DMA2 Channel1 half transfer flag.
 504:../libs/StdPeripheralDriver/src/stm32f10x_dma.c ****   *     @arg DMA2_FLAG_TE1: DMA2 Channel1 transfer error flag.
 505:../libs/StdPeripheralDriver/src/stm32f10x_dma.c ****   *     @arg DMA2_FLAG_GL2: DMA2 Channel2 global flag.
 506:../libs/StdPeripheralDriver/src/stm32f10x_dma.c ****   *     @arg DMA2_FLAG_TC2: DMA2 Channel2 transfer complete flag.
 507:../libs/StdPeripheralDriver/src/stm32f10x_dma.c ****   *     @arg DMA2_FLAG_HT2: DMA2 Channel2 half transfer flag.
 508:../libs/StdPeripheralDriver/src/stm32f10x_dma.c ****   *     @arg DMA2_FLAG_TE2: DMA2 Channel2 transfer error flag.
 509:../libs/StdPeripheralDriver/src/stm32f10x_dma.c ****   *     @arg DMA2_FLAG_GL3: DMA2 Channel3 global flag.
 510:../libs/StdPeripheralDriver/src/stm32f10x_dma.c ****   *     @arg DMA2_FLAG_TC3: DMA2 Channel3 transfer complete flag.
 511:../libs/StdPeripheralDriver/src/stm32f10x_dma.c ****   *     @arg DMA2_FLAG_HT3: DMA2 Channel3 half transfer flag.
 512:../libs/StdPeripheralDriver/src/stm32f10x_dma.c ****   *     @arg DMA2_FLAG_TE3: DMA2 Channel3 transfer error flag.
 513:../libs/StdPeripheralDriver/src/stm32f10x_dma.c ****   *     @arg DMA2_FLAG_GL4: DMA2 Channel4 global flag.
 514:../libs/StdPeripheralDriver/src/stm32f10x_dma.c ****   *     @arg DMA2_FLAG_TC4: DMA2 Channel4 transfer complete flag.
 515:../libs/StdPeripheralDriver/src/stm32f10x_dma.c ****   *     @arg DMA2_FLAG_HT4: DMA2 Channel4 half transfer flag.
 516:../libs/StdPeripheralDriver/src/stm32f10x_dma.c ****   *     @arg DMA2_FLAG_TE4: DMA2 Channel4 transfer error flag.
 517:../libs/StdPeripheralDriver/src/stm32f10x_dma.c ****   *     @arg DMA2_FLAG_GL5: DMA2 Channel5 global flag.
 518:../libs/StdPeripheralDriver/src/stm32f10x_dma.c ****   *     @arg DMA2_FLAG_TC5: DMA2 Channel5 transfer complete flag.
 519:../libs/StdPeripheralDriver/src/stm32f10x_dma.c ****   *     @arg DMA2_FLAG_HT5: DMA2 Channel5 half transfer flag.
 520:../libs/StdPeripheralDriver/src/stm32f10x_dma.c ****   *     @arg DMA2_FLAG_TE5: DMA2 Channel5 transfer error flag.
 521:../libs/StdPeripheralDriver/src/stm32f10x_dma.c ****   * @retval None
 522:../libs/StdPeripheralDriver/src/stm32f10x_dma.c ****   */
 523:../libs/StdPeripheralDriver/src/stm32f10x_dma.c **** void DMA_ClearFlag(uint32_t DMAy_FLAG)
 524:../libs/StdPeripheralDriver/src/stm32f10x_dma.c **** {
 1693              		.loc 1 524 0
 1694              		.cfi_startproc
 1695              		@ args = 0, pretend = 0, frame = 8
 1696              		@ frame_needed = 1, uses_anonymous_args = 0
 1697 0000 80B5     		push	{r7, lr}
 1698              	.LCFI24:
 1699              		.cfi_def_cfa_offset 8
 1700              		.cfi_offset 7, -8
 1701              		.cfi_offset 14, -4
 1702 0002 82B0     		sub	sp, sp, #8
 1703              	.LCFI25:
 1704              		.cfi_def_cfa_offset 16
 1705 0004 00AF     		add	r7, sp, #0
 1706              	.LCFI26:
 1707              		.cfi_def_cfa_register 7
 1708 0006 7860     		str	r0, [r7, #4]
 525:../libs/StdPeripheralDriver/src/stm32f10x_dma.c ****   /* Check the parameters */
 526:../libs/StdPeripheralDriver/src/stm32f10x_dma.c ****   assert_param(IS_DMA_CLEAR_FLAG(DMAy_FLAG));
 1709              		.loc 1 526 0
 1710 0008 7B68     		ldr	r3, [r7, #4]
 1711 000a 03F07043 		and	r3, r3, #-268435456
 1712 000e 002B     		cmp	r3, #0
 1713 0010 04D0     		beq	.L101
 1714              		.loc 1 526 0 is_stmt 0 discriminator 2
 1715 0012 7A68     		ldr	r2, [r7, #4]
 1716 0014 0F4B     		ldr	r3, .L106
 1717 0016 1340     		ands	r3, r3, r2
 1718 0018 002B     		cmp	r3, #0
 1719 001a 05D1     		bne	.L102
 1720              	.L101:
 1721              		.loc 1 526 0 discriminator 1
 1722 001c 7B68     		ldr	r3, [r7, #4]
 1723 001e 002B     		cmp	r3, #0
 1724 0020 02D0     		beq	.L102
 1725              		.loc 1 526 0 discriminator 3
 1726 0022 4FF00103 		mov	r3, #1
 1727 0026 01E0     		b	.L103
 1728              	.L102:
 1729              		.loc 1 526 0 discriminator 1
 1730 0028 4FF00003 		mov	r3, #0
 1731              	.L103:
 1732              		.loc 1 526 0 discriminator 4
 1733 002c 1846     		mov	r0, r3
 1734 002e FFF7FEFF 		bl	assert_param
 527:../libs/StdPeripheralDriver/src/stm32f10x_dma.c **** 
 528:../libs/StdPeripheralDriver/src/stm32f10x_dma.c ****   /* Calculate the used DMAy */
 529:../libs/StdPeripheralDriver/src/stm32f10x_dma.c ****   if ((DMAy_FLAG & FLAG_Mask) != (uint32_t)RESET)
 1735              		.loc 1 529 0 is_stmt 1 discriminator 4
 1736 0032 7B68     		ldr	r3, [r7, #4]
 1737 0034 03F08053 		and	r3, r3, #268435456
 1738 0038 002B     		cmp	r3, #0
 1739 003a 03D0     		beq	.L104
 530:../libs/StdPeripheralDriver/src/stm32f10x_dma.c ****   {
 531:../libs/StdPeripheralDriver/src/stm32f10x_dma.c ****     /* Clear the selected DMAy flags */
 532:../libs/StdPeripheralDriver/src/stm32f10x_dma.c ****     DMA2->IFCR = DMAy_FLAG;
 1740              		.loc 1 532 0
 1741 003c 064B     		ldr	r3, .L106+4
 1742 003e 7A68     		ldr	r2, [r7, #4]
 1743 0040 5A60     		str	r2, [r3, #4]
 1744 0042 02E0     		b	.L100
 1745              	.L104:
 533:../libs/StdPeripheralDriver/src/stm32f10x_dma.c ****   }
 534:../libs/StdPeripheralDriver/src/stm32f10x_dma.c ****   else
 535:../libs/StdPeripheralDriver/src/stm32f10x_dma.c ****   {
 536:../libs/StdPeripheralDriver/src/stm32f10x_dma.c ****     /* Clear the selected DMAy flags */
 537:../libs/StdPeripheralDriver/src/stm32f10x_dma.c ****     DMA1->IFCR = DMAy_FLAG;
 1746              		.loc 1 537 0
 1747 0044 054B     		ldr	r3, .L106+8
 1748 0046 7A68     		ldr	r2, [r7, #4]
 1749 0048 5A60     		str	r2, [r3, #4]
 1750              	.L100:
 538:../libs/StdPeripheralDriver/src/stm32f10x_dma.c ****   }
 539:../libs/StdPeripheralDriver/src/stm32f10x_dma.c **** }
 1751              		.loc 1 539 0
 1752 004a 07F10807 		add	r7, r7, #8
 1753 004e BD46     		mov	sp, r7
 1754 0050 80BD     		pop	{r7, pc}
 1755              	.L107:
 1756 0052 00BF     		.align	2
 1757              	.L106:
 1758 0054 0000F0EF 		.word	-269484032
 1759 0058 00040240 		.word	1073873920
 1760 005c 00000240 		.word	1073872896
 1761              		.cfi_endproc
 1762              	.LFE37:
 1764              		.section	.text.DMA_GetITStatus,"ax",%progbits
 1765              		.align	2
 1766              		.global	DMA_GetITStatus
 1767              		.thumb
 1768              		.thumb_func
 1770              	DMA_GetITStatus:
 1771              	.LFB38:
 540:../libs/StdPeripheralDriver/src/stm32f10x_dma.c **** 
 541:../libs/StdPeripheralDriver/src/stm32f10x_dma.c **** /**
 542:../libs/StdPeripheralDriver/src/stm32f10x_dma.c ****   * @brief  Checks whether the specified DMAy Channelx interrupt has occurred or not.
 543:../libs/StdPeripheralDriver/src/stm32f10x_dma.c ****   * @param  DMAy_IT: specifies the DMAy interrupt source to check. 
 544:../libs/StdPeripheralDriver/src/stm32f10x_dma.c ****   *   This parameter can be one of the following values:
 545:../libs/StdPeripheralDriver/src/stm32f10x_dma.c ****   *     @arg DMA1_IT_GL1: DMA1 Channel1 global interrupt.
 546:../libs/StdPeripheralDriver/src/stm32f10x_dma.c ****   *     @arg DMA1_IT_TC1: DMA1 Channel1 transfer complete interrupt.
 547:../libs/StdPeripheralDriver/src/stm32f10x_dma.c ****   *     @arg DMA1_IT_HT1: DMA1 Channel1 half transfer interrupt.
 548:../libs/StdPeripheralDriver/src/stm32f10x_dma.c ****   *     @arg DMA1_IT_TE1: DMA1 Channel1 transfer error interrupt.
 549:../libs/StdPeripheralDriver/src/stm32f10x_dma.c ****   *     @arg DMA1_IT_GL2: DMA1 Channel2 global interrupt.
 550:../libs/StdPeripheralDriver/src/stm32f10x_dma.c ****   *     @arg DMA1_IT_TC2: DMA1 Channel2 transfer complete interrupt.
 551:../libs/StdPeripheralDriver/src/stm32f10x_dma.c ****   *     @arg DMA1_IT_HT2: DMA1 Channel2 half transfer interrupt.
 552:../libs/StdPeripheralDriver/src/stm32f10x_dma.c ****   *     @arg DMA1_IT_TE2: DMA1 Channel2 transfer error interrupt.
 553:../libs/StdPeripheralDriver/src/stm32f10x_dma.c ****   *     @arg DMA1_IT_GL3: DMA1 Channel3 global interrupt.
 554:../libs/StdPeripheralDriver/src/stm32f10x_dma.c ****   *     @arg DMA1_IT_TC3: DMA1 Channel3 transfer complete interrupt.
 555:../libs/StdPeripheralDriver/src/stm32f10x_dma.c ****   *     @arg DMA1_IT_HT3: DMA1 Channel3 half transfer interrupt.
 556:../libs/StdPeripheralDriver/src/stm32f10x_dma.c ****   *     @arg DMA1_IT_TE3: DMA1 Channel3 transfer error interrupt.
 557:../libs/StdPeripheralDriver/src/stm32f10x_dma.c ****   *     @arg DMA1_IT_GL4: DMA1 Channel4 global interrupt.
 558:../libs/StdPeripheralDriver/src/stm32f10x_dma.c ****   *     @arg DMA1_IT_TC4: DMA1 Channel4 transfer complete interrupt.
 559:../libs/StdPeripheralDriver/src/stm32f10x_dma.c ****   *     @arg DMA1_IT_HT4: DMA1 Channel4 half transfer interrupt.
 560:../libs/StdPeripheralDriver/src/stm32f10x_dma.c ****   *     @arg DMA1_IT_TE4: DMA1 Channel4 transfer error interrupt.
 561:../libs/StdPeripheralDriver/src/stm32f10x_dma.c ****   *     @arg DMA1_IT_GL5: DMA1 Channel5 global interrupt.
 562:../libs/StdPeripheralDriver/src/stm32f10x_dma.c ****   *     @arg DMA1_IT_TC5: DMA1 Channel5 transfer complete interrupt.
 563:../libs/StdPeripheralDriver/src/stm32f10x_dma.c ****   *     @arg DMA1_IT_HT5: DMA1 Channel5 half transfer interrupt.
 564:../libs/StdPeripheralDriver/src/stm32f10x_dma.c ****   *     @arg DMA1_IT_TE5: DMA1 Channel5 transfer error interrupt.
 565:../libs/StdPeripheralDriver/src/stm32f10x_dma.c ****   *     @arg DMA1_IT_GL6: DMA1 Channel6 global interrupt.
 566:../libs/StdPeripheralDriver/src/stm32f10x_dma.c ****   *     @arg DMA1_IT_TC6: DMA1 Channel6 transfer complete interrupt.
 567:../libs/StdPeripheralDriver/src/stm32f10x_dma.c ****   *     @arg DMA1_IT_HT6: DMA1 Channel6 half transfer interrupt.
 568:../libs/StdPeripheralDriver/src/stm32f10x_dma.c ****   *     @arg DMA1_IT_TE6: DMA1 Channel6 transfer error interrupt.
 569:../libs/StdPeripheralDriver/src/stm32f10x_dma.c ****   *     @arg DMA1_IT_GL7: DMA1 Channel7 global interrupt.
 570:../libs/StdPeripheralDriver/src/stm32f10x_dma.c ****   *     @arg DMA1_IT_TC7: DMA1 Channel7 transfer complete interrupt.
 571:../libs/StdPeripheralDriver/src/stm32f10x_dma.c ****   *     @arg DMA1_IT_HT7: DMA1 Channel7 half transfer interrupt.
 572:../libs/StdPeripheralDriver/src/stm32f10x_dma.c ****   *     @arg DMA1_IT_TE7: DMA1 Channel7 transfer error interrupt.
 573:../libs/StdPeripheralDriver/src/stm32f10x_dma.c ****   *     @arg DMA2_IT_GL1: DMA2 Channel1 global interrupt.
 574:../libs/StdPeripheralDriver/src/stm32f10x_dma.c ****   *     @arg DMA2_IT_TC1: DMA2 Channel1 transfer complete interrupt.
 575:../libs/StdPeripheralDriver/src/stm32f10x_dma.c ****   *     @arg DMA2_IT_HT1: DMA2 Channel1 half transfer interrupt.
 576:../libs/StdPeripheralDriver/src/stm32f10x_dma.c ****   *     @arg DMA2_IT_TE1: DMA2 Channel1 transfer error interrupt.
 577:../libs/StdPeripheralDriver/src/stm32f10x_dma.c ****   *     @arg DMA2_IT_GL2: DMA2 Channel2 global interrupt.
 578:../libs/StdPeripheralDriver/src/stm32f10x_dma.c ****   *     @arg DMA2_IT_TC2: DMA2 Channel2 transfer complete interrupt.
 579:../libs/StdPeripheralDriver/src/stm32f10x_dma.c ****   *     @arg DMA2_IT_HT2: DMA2 Channel2 half transfer interrupt.
 580:../libs/StdPeripheralDriver/src/stm32f10x_dma.c ****   *     @arg DMA2_IT_TE2: DMA2 Channel2 transfer error interrupt.
 581:../libs/StdPeripheralDriver/src/stm32f10x_dma.c ****   *     @arg DMA2_IT_GL3: DMA2 Channel3 global interrupt.
 582:../libs/StdPeripheralDriver/src/stm32f10x_dma.c ****   *     @arg DMA2_IT_TC3: DMA2 Channel3 transfer complete interrupt.
 583:../libs/StdPeripheralDriver/src/stm32f10x_dma.c ****   *     @arg DMA2_IT_HT3: DMA2 Channel3 half transfer interrupt.
 584:../libs/StdPeripheralDriver/src/stm32f10x_dma.c ****   *     @arg DMA2_IT_TE3: DMA2 Channel3 transfer error interrupt.
 585:../libs/StdPeripheralDriver/src/stm32f10x_dma.c ****   *     @arg DMA2_IT_GL4: DMA2 Channel4 global interrupt.
 586:../libs/StdPeripheralDriver/src/stm32f10x_dma.c ****   *     @arg DMA2_IT_TC4: DMA2 Channel4 transfer complete interrupt.
 587:../libs/StdPeripheralDriver/src/stm32f10x_dma.c ****   *     @arg DMA2_IT_HT4: DMA2 Channel4 half transfer interrupt.
 588:../libs/StdPeripheralDriver/src/stm32f10x_dma.c ****   *     @arg DMA2_IT_TE4: DMA2 Channel4 transfer error interrupt.
 589:../libs/StdPeripheralDriver/src/stm32f10x_dma.c ****   *     @arg DMA2_IT_GL5: DMA2 Channel5 global interrupt.
 590:../libs/StdPeripheralDriver/src/stm32f10x_dma.c ****   *     @arg DMA2_IT_TC5: DMA2 Channel5 transfer complete interrupt.
 591:../libs/StdPeripheralDriver/src/stm32f10x_dma.c ****   *     @arg DMA2_IT_HT5: DMA2 Channel5 half transfer interrupt.
 592:../libs/StdPeripheralDriver/src/stm32f10x_dma.c ****   *     @arg DMA2_IT_TE5: DMA2 Channel5 transfer error interrupt.
 593:../libs/StdPeripheralDriver/src/stm32f10x_dma.c ****   * @retval The new state of DMAy_IT (SET or RESET).
 594:../libs/StdPeripheralDriver/src/stm32f10x_dma.c ****   */
 595:../libs/StdPeripheralDriver/src/stm32f10x_dma.c **** ITStatus DMA_GetITStatus(uint32_t DMAy_IT)
 596:../libs/StdPeripheralDriver/src/stm32f10x_dma.c **** {
 1772              		.loc 1 596 0
 1773              		.cfi_startproc
 1774              		@ args = 0, pretend = 0, frame = 16
 1775              		@ frame_needed = 1, uses_anonymous_args = 0
 1776 0000 80B5     		push	{r7, lr}
 1777              	.LCFI27:
 1778              		.cfi_def_cfa_offset 8
 1779              		.cfi_offset 7, -8
 1780              		.cfi_offset 14, -4
 1781 0002 84B0     		sub	sp, sp, #16
 1782              	.LCFI28:
 1783              		.cfi_def_cfa_offset 24
 1784 0004 00AF     		add	r7, sp, #0
 1785              	.LCFI29:
 1786              		.cfi_def_cfa_register 7
 1787 0006 7860     		str	r0, [r7, #4]
 597:../libs/StdPeripheralDriver/src/stm32f10x_dma.c ****   ITStatus bitstatus = RESET;
 1788              		.loc 1 597 0
 1789 0008 4FF00003 		mov	r3, #0
 1790 000c FB73     		strb	r3, [r7, #15]
 598:../libs/StdPeripheralDriver/src/stm32f10x_dma.c ****   uint32_t tmpreg = 0;
 1791              		.loc 1 598 0
 1792 000e 4FF00003 		mov	r3, #0
 1793 0012 BB60     		str	r3, [r7, #8]
 599:../libs/StdPeripheralDriver/src/stm32f10x_dma.c **** 
 600:../libs/StdPeripheralDriver/src/stm32f10x_dma.c ****   /* Check the parameters */
 601:../libs/StdPeripheralDriver/src/stm32f10x_dma.c ****   assert_param(IS_DMA_GET_IT(DMAy_IT));
 1794              		.loc 1 601 0
 1795 0014 7B68     		ldr	r3, [r7, #4]
 1796 0016 012B     		cmp	r3, #1
 1797 0018 00F0C380 		beq	.L109
 1798              		.loc 1 601 0 is_stmt 0 discriminator 2
 1799 001c 7B68     		ldr	r3, [r7, #4]
 1800 001e 022B     		cmp	r3, #2
 1801 0020 00F0BF80 		beq	.L109
 1802              		.loc 1 601 0 discriminator 1
 1803 0024 7B68     		ldr	r3, [r7, #4]
 1804 0026 042B     		cmp	r3, #4
 1805 0028 00F0BB80 		beq	.L109
 1806              		.loc 1 601 0 discriminator 2
 1807 002c 7B68     		ldr	r3, [r7, #4]
 1808 002e 082B     		cmp	r3, #8
 1809 0030 00F0B780 		beq	.L109
 1810              		.loc 1 601 0 discriminator 3
 1811 0034 7B68     		ldr	r3, [r7, #4]
 1812 0036 102B     		cmp	r3, #16
 1813 0038 00F0B380 		beq	.L109
 1814              		.loc 1 601 0 discriminator 4
 1815 003c 7B68     		ldr	r3, [r7, #4]
 1816 003e 202B     		cmp	r3, #32
 1817 0040 00F0AF80 		beq	.L109
 1818              		.loc 1 601 0 discriminator 5
 1819 0044 7B68     		ldr	r3, [r7, #4]
 1820 0046 402B     		cmp	r3, #64
 1821 0048 00F0AB80 		beq	.L109
 1822              		.loc 1 601 0 discriminator 6
 1823 004c 7B68     		ldr	r3, [r7, #4]
 1824 004e 802B     		cmp	r3, #128
 1825 0050 00F0A780 		beq	.L109
 1826              		.loc 1 601 0 discriminator 7
 1827 0054 7B68     		ldr	r3, [r7, #4]
 1828 0056 B3F5807F 		cmp	r3, #256
 1829 005a 00F0A280 		beq	.L109
 1830              		.loc 1 601 0 discriminator 8
 1831 005e 7B68     		ldr	r3, [r7, #4]
 1832 0060 B3F5007F 		cmp	r3, #512
 1833 0064 00F09D80 		beq	.L109
 1834              		.loc 1 601 0 discriminator 9
 1835 0068 7B68     		ldr	r3, [r7, #4]
 1836 006a B3F5806F 		cmp	r3, #1024
 1837 006e 00F09880 		beq	.L109
 1838              		.loc 1 601 0 discriminator 10
 1839 0072 7B68     		ldr	r3, [r7, #4]
 1840 0074 B3F5006F 		cmp	r3, #2048
 1841 0078 00F09380 		beq	.L109
 1842              		.loc 1 601 0 discriminator 11
 1843 007c 7B68     		ldr	r3, [r7, #4]
 1844 007e B3F5805F 		cmp	r3, #4096
 1845 0082 00F08E80 		beq	.L109
 1846              		.loc 1 601 0 discriminator 12
 1847 0086 7B68     		ldr	r3, [r7, #4]
 1848 0088 B3F5005F 		cmp	r3, #8192
 1849 008c 00F08980 		beq	.L109
 1850              		.loc 1 601 0 discriminator 13
 1851 0090 7B68     		ldr	r3, [r7, #4]
 1852 0092 B3F5804F 		cmp	r3, #16384
 1853 0096 00F08480 		beq	.L109
 1854              		.loc 1 601 0 discriminator 14
 1855 009a 7B68     		ldr	r3, [r7, #4]
 1856 009c B3F5004F 		cmp	r3, #32768
 1857 00a0 7FD0     		beq	.L109
 1858              		.loc 1 601 0 discriminator 15
 1859 00a2 7B68     		ldr	r3, [r7, #4]
 1860 00a4 B3F5803F 		cmp	r3, #65536
 1861 00a8 7BD0     		beq	.L109
 1862              		.loc 1 601 0 discriminator 16
 1863 00aa 7B68     		ldr	r3, [r7, #4]
 1864 00ac B3F5003F 		cmp	r3, #131072
 1865 00b0 77D0     		beq	.L109
 1866              		.loc 1 601 0 discriminator 17
 1867 00b2 7B68     		ldr	r3, [r7, #4]
 1868 00b4 B3F5802F 		cmp	r3, #262144
 1869 00b8 73D0     		beq	.L109
 1870              		.loc 1 601 0 discriminator 18
 1871 00ba 7B68     		ldr	r3, [r7, #4]
 1872 00bc B3F5002F 		cmp	r3, #524288
 1873 00c0 6FD0     		beq	.L109
 1874              		.loc 1 601 0 discriminator 19
 1875 00c2 7B68     		ldr	r3, [r7, #4]
 1876 00c4 B3F5801F 		cmp	r3, #1048576
 1877 00c8 6BD0     		beq	.L109
 1878              		.loc 1 601 0 discriminator 20
 1879 00ca 7B68     		ldr	r3, [r7, #4]
 1880 00cc B3F5001F 		cmp	r3, #2097152
 1881 00d0 67D0     		beq	.L109
 1882              		.loc 1 601 0 discriminator 21
 1883 00d2 7B68     		ldr	r3, [r7, #4]
 1884 00d4 B3F5800F 		cmp	r3, #4194304
 1885 00d8 63D0     		beq	.L109
 1886              		.loc 1 601 0 discriminator 22
 1887 00da 7B68     		ldr	r3, [r7, #4]
 1888 00dc B3F5000F 		cmp	r3, #8388608
 1889 00e0 5FD0     		beq	.L109
 1890              		.loc 1 601 0 discriminator 23
 1891 00e2 7B68     		ldr	r3, [r7, #4]
 1892 00e4 B3F1807F 		cmp	r3, #16777216
 1893 00e8 5BD0     		beq	.L109
 1894              		.loc 1 601 0 discriminator 24
 1895 00ea 7B68     		ldr	r3, [r7, #4]
 1896 00ec B3F1007F 		cmp	r3, #33554432
 1897 00f0 57D0     		beq	.L109
 1898              		.loc 1 601 0 discriminator 25
 1899 00f2 7B68     		ldr	r3, [r7, #4]
 1900 00f4 B3F1806F 		cmp	r3, #67108864
 1901 00f8 53D0     		beq	.L109
 1902              		.loc 1 601 0 discriminator 26
 1903 00fa 7B68     		ldr	r3, [r7, #4]
 1904 00fc B3F1006F 		cmp	r3, #134217728
 1905 0100 4FD0     		beq	.L109
 1906              		.loc 1 601 0 discriminator 27
 1907 0102 7A68     		ldr	r2, [r7, #4]
 1908 0104 3A4B     		ldr	r3, .L117
 1909 0106 9A42     		cmp	r2, r3
 1910 0108 4BD0     		beq	.L109
 1911              		.loc 1 601 0 discriminator 28
 1912 010a 7A68     		ldr	r2, [r7, #4]
 1913 010c 394B     		ldr	r3, .L117+4
 1914 010e 9A42     		cmp	r2, r3
 1915 0110 47D0     		beq	.L109
 1916              		.loc 1 601 0 discriminator 29
 1917 0112 7A68     		ldr	r2, [r7, #4]
 1918 0114 384B     		ldr	r3, .L117+8
 1919 0116 9A42     		cmp	r2, r3
 1920 0118 43D0     		beq	.L109
 1921              		.loc 1 601 0 discriminator 30
 1922 011a 7A68     		ldr	r2, [r7, #4]
 1923 011c 374B     		ldr	r3, .L117+12
 1924 011e 9A42     		cmp	r2, r3
 1925 0120 3FD0     		beq	.L109
 1926              		.loc 1 601 0 discriminator 31
 1927 0122 7A68     		ldr	r2, [r7, #4]
 1928 0124 364B     		ldr	r3, .L117+16
 1929 0126 9A42     		cmp	r2, r3
 1930 0128 3BD0     		beq	.L109
 1931              		.loc 1 601 0 discriminator 32
 1932 012a 7A68     		ldr	r2, [r7, #4]
 1933 012c 354B     		ldr	r3, .L117+20
 1934 012e 9A42     		cmp	r2, r3
 1935 0130 37D0     		beq	.L109
 1936              		.loc 1 601 0 discriminator 33
 1937 0132 7A68     		ldr	r2, [r7, #4]
 1938 0134 344B     		ldr	r3, .L117+24
 1939 0136 9A42     		cmp	r2, r3
 1940 0138 33D0     		beq	.L109
 1941              		.loc 1 601 0 discriminator 34
 1942 013a 7A68     		ldr	r2, [r7, #4]
 1943 013c 334B     		ldr	r3, .L117+28
 1944 013e 9A42     		cmp	r2, r3
 1945 0140 2FD0     		beq	.L109
 1946              		.loc 1 601 0 discriminator 35
 1947 0142 7A68     		ldr	r2, [r7, #4]
 1948 0144 324B     		ldr	r3, .L117+32
 1949 0146 9A42     		cmp	r2, r3
 1950 0148 2BD0     		beq	.L109
 1951              		.loc 1 601 0 discriminator 36
 1952 014a 7A68     		ldr	r2, [r7, #4]
 1953 014c 314B     		ldr	r3, .L117+36
 1954 014e 9A42     		cmp	r2, r3
 1955 0150 27D0     		beq	.L109
 1956              		.loc 1 601 0 discriminator 37
 1957 0152 7A68     		ldr	r2, [r7, #4]
 1958 0154 304B     		ldr	r3, .L117+40
 1959 0156 9A42     		cmp	r2, r3
 1960 0158 23D0     		beq	.L109
 1961              		.loc 1 601 0 discriminator 38
 1962 015a 7A68     		ldr	r2, [r7, #4]
 1963 015c 2F4B     		ldr	r3, .L117+44
 1964 015e 9A42     		cmp	r2, r3
 1965 0160 1FD0     		beq	.L109
 1966              		.loc 1 601 0 discriminator 39
 1967 0162 7B68     		ldr	r3, [r7, #4]
 1968 0164 B3F1102F 		cmp	r3, #268439552
 1969 0168 1BD0     		beq	.L109
 1970              		.loc 1 601 0 discriminator 40
 1971 016a 7A68     		ldr	r2, [r7, #4]
 1972 016c 2C4B     		ldr	r3, .L117+48
 1973 016e 9A42     		cmp	r2, r3
 1974 0170 17D0     		beq	.L109
 1975              		.loc 1 601 0 discriminator 41
 1976 0172 7A68     		ldr	r2, [r7, #4]
 1977 0174 2B4B     		ldr	r3, .L117+52
 1978 0176 9A42     		cmp	r2, r3
 1979 0178 13D0     		beq	.L109
 1980              		.loc 1 601 0 discriminator 42
 1981 017a 7A68     		ldr	r2, [r7, #4]
 1982 017c 2A4B     		ldr	r3, .L117+56
 1983 017e 9A42     		cmp	r2, r3
 1984 0180 0FD0     		beq	.L109
 1985              		.loc 1 601 0 discriminator 43
 1986 0182 7A68     		ldr	r2, [r7, #4]
 1987 0184 294B     		ldr	r3, .L117+60
 1988 0186 9A42     		cmp	r2, r3
 1989 0188 0BD0     		beq	.L109
 1990              		.loc 1 601 0 discriminator 44
 1991 018a 7A68     		ldr	r2, [r7, #4]
 1992 018c 284B     		ldr	r3, .L117+64
 1993 018e 9A42     		cmp	r2, r3
 1994 0190 07D0     		beq	.L109
 1995              		.loc 1 601 0 discriminator 45
 1996 0192 7A68     		ldr	r2, [r7, #4]
 1997 0194 274B     		ldr	r3, .L117+68
 1998 0196 9A42     		cmp	r2, r3
 1999 0198 03D0     		beq	.L109
 2000              		.loc 1 601 0 discriminator 46
 2001 019a 7A68     		ldr	r2, [r7, #4]
 2002 019c 264B     		ldr	r3, .L117+72
 2003 019e 9A42     		cmp	r2, r3
 2004 01a0 02D1     		bne	.L110
 2005              	.L109:
 2006              		.loc 1 601 0 discriminator 1
 2007 01a2 4FF00103 		mov	r3, #1
 2008 01a6 01E0     		b	.L111
 2009              	.L110:
 2010              		.loc 1 601 0 discriminator 3
 2011 01a8 4FF00003 		mov	r3, #0
 2012              	.L111:
 2013              		.loc 1 601 0 discriminator 4
 2014 01ac 1846     		mov	r0, r3
 2015 01ae FFF7FEFF 		bl	assert_param
 602:../libs/StdPeripheralDriver/src/stm32f10x_dma.c **** 
 603:../libs/StdPeripheralDriver/src/stm32f10x_dma.c ****   /* Calculate the used DMA */
 604:../libs/StdPeripheralDriver/src/stm32f10x_dma.c ****   if ((DMAy_IT & FLAG_Mask) != (uint32_t)RESET)
 2016              		.loc 1 604 0 is_stmt 1 discriminator 4
 2017 01b2 7B68     		ldr	r3, [r7, #4]
 2018 01b4 03F08053 		and	r3, r3, #268435456
 2019 01b8 002B     		cmp	r3, #0
 2020 01ba 03D0     		beq	.L112
 605:../libs/StdPeripheralDriver/src/stm32f10x_dma.c ****   {
 606:../libs/StdPeripheralDriver/src/stm32f10x_dma.c ****     /* Get DMA2 ISR register value */
 607:../libs/StdPeripheralDriver/src/stm32f10x_dma.c ****     tmpreg = DMA2->ISR;
 2021              		.loc 1 607 0
 2022 01bc 1F4B     		ldr	r3, .L117+76
 2023 01be 1B68     		ldr	r3, [r3, #0]
 2024 01c0 BB60     		str	r3, [r7, #8]
 2025 01c2 02E0     		b	.L113
 2026              	.L112:
 608:../libs/StdPeripheralDriver/src/stm32f10x_dma.c ****   }
 609:../libs/StdPeripheralDriver/src/stm32f10x_dma.c ****   else
 610:../libs/StdPeripheralDriver/src/stm32f10x_dma.c ****   {
 611:../libs/StdPeripheralDriver/src/stm32f10x_dma.c ****     /* Get DMA1 ISR register value */
 612:../libs/StdPeripheralDriver/src/stm32f10x_dma.c ****     tmpreg = DMA1->ISR;
 2027              		.loc 1 612 0
 2028 01c4 1E4B     		ldr	r3, .L117+80
 2029 01c6 1B68     		ldr	r3, [r3, #0]
 2030 01c8 BB60     		str	r3, [r7, #8]
 2031              	.L113:
 613:../libs/StdPeripheralDriver/src/stm32f10x_dma.c ****   }
 614:../libs/StdPeripheralDriver/src/stm32f10x_dma.c **** 
 615:../libs/StdPeripheralDriver/src/stm32f10x_dma.c ****   /* Check the status of the specified DMAy interrupt */
 616:../libs/StdPeripheralDriver/src/stm32f10x_dma.c ****   if ((tmpreg & DMAy_IT) != (uint32_t)RESET)
 2032              		.loc 1 616 0
 2033 01ca BA68     		ldr	r2, [r7, #8]
 2034 01cc 7B68     		ldr	r3, [r7, #4]
 2035 01ce 1340     		ands	r3, r3, r2
 2036 01d0 002B     		cmp	r3, #0
 2037 01d2 03D0     		beq	.L114
 617:../libs/StdPeripheralDriver/src/stm32f10x_dma.c ****   {
 618:../libs/StdPeripheralDriver/src/stm32f10x_dma.c ****     /* DMAy_IT is set */
 619:../libs/StdPeripheralDriver/src/stm32f10x_dma.c ****     bitstatus = SET;
 2038              		.loc 1 619 0
 2039 01d4 4FF00103 		mov	r3, #1
 2040 01d8 FB73     		strb	r3, [r7, #15]
 2041 01da 02E0     		b	.L115
 2042              	.L114:
 620:../libs/StdPeripheralDriver/src/stm32f10x_dma.c ****   }
 621:../libs/StdPeripheralDriver/src/stm32f10x_dma.c ****   else
 622:../libs/StdPeripheralDriver/src/stm32f10x_dma.c ****   {
 623:../libs/StdPeripheralDriver/src/stm32f10x_dma.c ****     /* DMAy_IT is reset */
 624:../libs/StdPeripheralDriver/src/stm32f10x_dma.c ****     bitstatus = RESET;
 2043              		.loc 1 624 0
 2044 01dc 4FF00003 		mov	r3, #0
 2045 01e0 FB73     		strb	r3, [r7, #15]
 2046              	.L115:
 625:../libs/StdPeripheralDriver/src/stm32f10x_dma.c ****   }
 626:../libs/StdPeripheralDriver/src/stm32f10x_dma.c ****   /* Return the DMA_IT status */
 627:../libs/StdPeripheralDriver/src/stm32f10x_dma.c ****   return  bitstatus;
 2047              		.loc 1 627 0
 2048 01e2 FB7B     		ldrb	r3, [r7, #15]	@ zero_extendqisi2
 628:../libs/StdPeripheralDriver/src/stm32f10x_dma.c **** }
 2049              		.loc 1 628 0
 2050 01e4 1846     		mov	r0, r3
 2051 01e6 07F11007 		add	r7, r7, #16
 2052 01ea BD46     		mov	sp, r7
 2053 01ec 80BD     		pop	{r7, pc}
 2054              	.L118:
 2055 01ee 00BF     		.align	2
 2056              	.L117:
 2057 01f0 01000010 		.word	268435457
 2058 01f4 02000010 		.word	268435458
 2059 01f8 04000010 		.word	268435460
 2060 01fc 08000010 		.word	268435464
 2061 0200 10000010 		.word	268435472
 2062 0204 20000010 		.word	268435488
 2063 0208 40000010 		.word	268435520
 2064 020c 80000010 		.word	268435584
 2065 0210 00010010 		.word	268435712
 2066 0214 00020010 		.word	268435968
 2067 0218 00040010 		.word	268436480
 2068 021c 00080010 		.word	268437504
 2069 0220 00200010 		.word	268443648
 2070 0224 00400010 		.word	268451840
 2071 0228 00800010 		.word	268468224
 2072 022c 00000110 		.word	268500992
 2073 0230 00000210 		.word	268566528
 2074 0234 00000410 		.word	268697600
 2075 0238 00000810 		.word	268959744
 2076 023c 00040240 		.word	1073873920
 2077 0240 00000240 		.word	1073872896
 2078              		.cfi_endproc
 2079              	.LFE38:
 2081              		.section	.text.DMA_ClearITPendingBit,"ax",%progbits
 2082              		.align	2
 2083              		.global	DMA_ClearITPendingBit
 2084              		.thumb
 2085              		.thumb_func
 2087              	DMA_ClearITPendingBit:
 2088              	.LFB39:
 629:../libs/StdPeripheralDriver/src/stm32f10x_dma.c **** 
 630:../libs/StdPeripheralDriver/src/stm32f10x_dma.c **** /**
 631:../libs/StdPeripheralDriver/src/stm32f10x_dma.c ****   * @brief  Clears the DMAy Channelx's interrupt pending bits.
 632:../libs/StdPeripheralDriver/src/stm32f10x_dma.c ****   * @param  DMAy_IT: specifies the DMAy interrupt pending bit to clear.
 633:../libs/StdPeripheralDriver/src/stm32f10x_dma.c ****   *   This parameter can be any combination (for the same DMA) of the following values:
 634:../libs/StdPeripheralDriver/src/stm32f10x_dma.c ****   *     @arg DMA1_IT_GL1: DMA1 Channel1 global interrupt.
 635:../libs/StdPeripheralDriver/src/stm32f10x_dma.c ****   *     @arg DMA1_IT_TC1: DMA1 Channel1 transfer complete interrupt.
 636:../libs/StdPeripheralDriver/src/stm32f10x_dma.c ****   *     @arg DMA1_IT_HT1: DMA1 Channel1 half transfer interrupt.
 637:../libs/StdPeripheralDriver/src/stm32f10x_dma.c ****   *     @arg DMA1_IT_TE1: DMA1 Channel1 transfer error interrupt.
 638:../libs/StdPeripheralDriver/src/stm32f10x_dma.c ****   *     @arg DMA1_IT_GL2: DMA1 Channel2 global interrupt.
 639:../libs/StdPeripheralDriver/src/stm32f10x_dma.c ****   *     @arg DMA1_IT_TC2: DMA1 Channel2 transfer complete interrupt.
 640:../libs/StdPeripheralDriver/src/stm32f10x_dma.c ****   *     @arg DMA1_IT_HT2: DMA1 Channel2 half transfer interrupt.
 641:../libs/StdPeripheralDriver/src/stm32f10x_dma.c ****   *     @arg DMA1_IT_TE2: DMA1 Channel2 transfer error interrupt.
 642:../libs/StdPeripheralDriver/src/stm32f10x_dma.c ****   *     @arg DMA1_IT_GL3: DMA1 Channel3 global interrupt.
 643:../libs/StdPeripheralDriver/src/stm32f10x_dma.c ****   *     @arg DMA1_IT_TC3: DMA1 Channel3 transfer complete interrupt.
 644:../libs/StdPeripheralDriver/src/stm32f10x_dma.c ****   *     @arg DMA1_IT_HT3: DMA1 Channel3 half transfer interrupt.
 645:../libs/StdPeripheralDriver/src/stm32f10x_dma.c ****   *     @arg DMA1_IT_TE3: DMA1 Channel3 transfer error interrupt.
 646:../libs/StdPeripheralDriver/src/stm32f10x_dma.c ****   *     @arg DMA1_IT_GL4: DMA1 Channel4 global interrupt.
 647:../libs/StdPeripheralDriver/src/stm32f10x_dma.c ****   *     @arg DMA1_IT_TC4: DMA1 Channel4 transfer complete interrupt.
 648:../libs/StdPeripheralDriver/src/stm32f10x_dma.c ****   *     @arg DMA1_IT_HT4: DMA1 Channel4 half transfer interrupt.
 649:../libs/StdPeripheralDriver/src/stm32f10x_dma.c ****   *     @arg DMA1_IT_TE4: DMA1 Channel4 transfer error interrupt.
 650:../libs/StdPeripheralDriver/src/stm32f10x_dma.c ****   *     @arg DMA1_IT_GL5: DMA1 Channel5 global interrupt.
 651:../libs/StdPeripheralDriver/src/stm32f10x_dma.c ****   *     @arg DMA1_IT_TC5: DMA1 Channel5 transfer complete interrupt.
 652:../libs/StdPeripheralDriver/src/stm32f10x_dma.c ****   *     @arg DMA1_IT_HT5: DMA1 Channel5 half transfer interrupt.
 653:../libs/StdPeripheralDriver/src/stm32f10x_dma.c ****   *     @arg DMA1_IT_TE5: DMA1 Channel5 transfer error interrupt.
 654:../libs/StdPeripheralDriver/src/stm32f10x_dma.c ****   *     @arg DMA1_IT_GL6: DMA1 Channel6 global interrupt.
 655:../libs/StdPeripheralDriver/src/stm32f10x_dma.c ****   *     @arg DMA1_IT_TC6: DMA1 Channel6 transfer complete interrupt.
 656:../libs/StdPeripheralDriver/src/stm32f10x_dma.c ****   *     @arg DMA1_IT_HT6: DMA1 Channel6 half transfer interrupt.
 657:../libs/StdPeripheralDriver/src/stm32f10x_dma.c ****   *     @arg DMA1_IT_TE6: DMA1 Channel6 transfer error interrupt.
 658:../libs/StdPeripheralDriver/src/stm32f10x_dma.c ****   *     @arg DMA1_IT_GL7: DMA1 Channel7 global interrupt.
 659:../libs/StdPeripheralDriver/src/stm32f10x_dma.c ****   *     @arg DMA1_IT_TC7: DMA1 Channel7 transfer complete interrupt.
 660:../libs/StdPeripheralDriver/src/stm32f10x_dma.c ****   *     @arg DMA1_IT_HT7: DMA1 Channel7 half transfer interrupt.
 661:../libs/StdPeripheralDriver/src/stm32f10x_dma.c ****   *     @arg DMA1_IT_TE7: DMA1 Channel7 transfer error interrupt.
 662:../libs/StdPeripheralDriver/src/stm32f10x_dma.c ****   *     @arg DMA2_IT_GL1: DMA2 Channel1 global interrupt.
 663:../libs/StdPeripheralDriver/src/stm32f10x_dma.c ****   *     @arg DMA2_IT_TC1: DMA2 Channel1 transfer complete interrupt.
 664:../libs/StdPeripheralDriver/src/stm32f10x_dma.c ****   *     @arg DMA2_IT_HT1: DMA2 Channel1 half transfer interrupt.
 665:../libs/StdPeripheralDriver/src/stm32f10x_dma.c ****   *     @arg DMA2_IT_TE1: DMA2 Channel1 transfer error interrupt.
 666:../libs/StdPeripheralDriver/src/stm32f10x_dma.c ****   *     @arg DMA2_IT_GL2: DMA2 Channel2 global interrupt.
 667:../libs/StdPeripheralDriver/src/stm32f10x_dma.c ****   *     @arg DMA2_IT_TC2: DMA2 Channel2 transfer complete interrupt.
 668:../libs/StdPeripheralDriver/src/stm32f10x_dma.c ****   *     @arg DMA2_IT_HT2: DMA2 Channel2 half transfer interrupt.
 669:../libs/StdPeripheralDriver/src/stm32f10x_dma.c ****   *     @arg DMA2_IT_TE2: DMA2 Channel2 transfer error interrupt.
 670:../libs/StdPeripheralDriver/src/stm32f10x_dma.c ****   *     @arg DMA2_IT_GL3: DMA2 Channel3 global interrupt.
 671:../libs/StdPeripheralDriver/src/stm32f10x_dma.c ****   *     @arg DMA2_IT_TC3: DMA2 Channel3 transfer complete interrupt.
 672:../libs/StdPeripheralDriver/src/stm32f10x_dma.c ****   *     @arg DMA2_IT_HT3: DMA2 Channel3 half transfer interrupt.
 673:../libs/StdPeripheralDriver/src/stm32f10x_dma.c ****   *     @arg DMA2_IT_TE3: DMA2 Channel3 transfer error interrupt.
 674:../libs/StdPeripheralDriver/src/stm32f10x_dma.c ****   *     @arg DMA2_IT_GL4: DMA2 Channel4 global interrupt.
 675:../libs/StdPeripheralDriver/src/stm32f10x_dma.c ****   *     @arg DMA2_IT_TC4: DMA2 Channel4 transfer complete interrupt.
 676:../libs/StdPeripheralDriver/src/stm32f10x_dma.c ****   *     @arg DMA2_IT_HT4: DMA2 Channel4 half transfer interrupt.
 677:../libs/StdPeripheralDriver/src/stm32f10x_dma.c ****   *     @arg DMA2_IT_TE4: DMA2 Channel4 transfer error interrupt.
 678:../libs/StdPeripheralDriver/src/stm32f10x_dma.c ****   *     @arg DMA2_IT_GL5: DMA2 Channel5 global interrupt.
 679:../libs/StdPeripheralDriver/src/stm32f10x_dma.c ****   *     @arg DMA2_IT_TC5: DMA2 Channel5 transfer complete interrupt.
 680:../libs/StdPeripheralDriver/src/stm32f10x_dma.c ****   *     @arg DMA2_IT_HT5: DMA2 Channel5 half transfer interrupt.
 681:../libs/StdPeripheralDriver/src/stm32f10x_dma.c ****   *     @arg DMA2_IT_TE5: DMA2 Channel5 transfer error interrupt.
 682:../libs/StdPeripheralDriver/src/stm32f10x_dma.c ****   * @retval None
 683:../libs/StdPeripheralDriver/src/stm32f10x_dma.c ****   */
 684:../libs/StdPeripheralDriver/src/stm32f10x_dma.c **** void DMA_ClearITPendingBit(uint32_t DMAy_IT)
 685:../libs/StdPeripheralDriver/src/stm32f10x_dma.c **** {
 2089              		.loc 1 685 0
 2090              		.cfi_startproc
 2091              		@ args = 0, pretend = 0, frame = 8
 2092              		@ frame_needed = 1, uses_anonymous_args = 0
 2093 0000 80B5     		push	{r7, lr}
 2094              	.LCFI30:
 2095              		.cfi_def_cfa_offset 8
 2096              		.cfi_offset 7, -8
 2097              		.cfi_offset 14, -4
 2098 0002 82B0     		sub	sp, sp, #8
 2099              	.LCFI31:
 2100              		.cfi_def_cfa_offset 16
 2101 0004 00AF     		add	r7, sp, #0
 2102              	.LCFI32:
 2103              		.cfi_def_cfa_register 7
 2104 0006 7860     		str	r0, [r7, #4]
 686:../libs/StdPeripheralDriver/src/stm32f10x_dma.c ****   /* Check the parameters */
 687:../libs/StdPeripheralDriver/src/stm32f10x_dma.c ****   assert_param(IS_DMA_CLEAR_IT(DMAy_IT));
 2105              		.loc 1 687 0
 2106 0008 7B68     		ldr	r3, [r7, #4]
 2107 000a 03F07043 		and	r3, r3, #-268435456
 2108 000e 002B     		cmp	r3, #0
 2109 0010 04D0     		beq	.L120
 2110              		.loc 1 687 0 is_stmt 0 discriminator 2
 2111 0012 7A68     		ldr	r2, [r7, #4]
 2112 0014 0F4B     		ldr	r3, .L125
 2113 0016 1340     		ands	r3, r3, r2
 2114 0018 002B     		cmp	r3, #0
 2115 001a 05D1     		bne	.L121
 2116              	.L120:
 2117              		.loc 1 687 0 discriminator 1
 2118 001c 7B68     		ldr	r3, [r7, #4]
 2119 001e 002B     		cmp	r3, #0
 2120 0020 02D0     		beq	.L121
 2121              		.loc 1 687 0 discriminator 3
 2122 0022 4FF00103 		mov	r3, #1
 2123 0026 01E0     		b	.L122
 2124              	.L121:
 2125              		.loc 1 687 0 discriminator 1
 2126 0028 4FF00003 		mov	r3, #0
 2127              	.L122:
 2128              		.loc 1 687 0 discriminator 4
 2129 002c 1846     		mov	r0, r3
 2130 002e FFF7FEFF 		bl	assert_param
 688:../libs/StdPeripheralDriver/src/stm32f10x_dma.c **** 
 689:../libs/StdPeripheralDriver/src/stm32f10x_dma.c ****   /* Calculate the used DMAy */
 690:../libs/StdPeripheralDriver/src/stm32f10x_dma.c ****   if ((DMAy_IT & FLAG_Mask) != (uint32_t)RESET)
 2131              		.loc 1 690 0 is_stmt 1 discriminator 4
 2132 0032 7B68     		ldr	r3, [r7, #4]
 2133 0034 03F08053 		and	r3, r3, #268435456
 2134 0038 002B     		cmp	r3, #0
 2135 003a 03D0     		beq	.L123
 691:../libs/StdPeripheralDriver/src/stm32f10x_dma.c ****   {
 692:../libs/StdPeripheralDriver/src/stm32f10x_dma.c ****     /* Clear the selected DMAy interrupt pending bits */
 693:../libs/StdPeripheralDriver/src/stm32f10x_dma.c ****     DMA2->IFCR = DMAy_IT;
 2136              		.loc 1 693 0
 2137 003c 064B     		ldr	r3, .L125+4
 2138 003e 7A68     		ldr	r2, [r7, #4]
 2139 0040 5A60     		str	r2, [r3, #4]
 2140 0042 02E0     		b	.L119
 2141              	.L123:
 694:../libs/StdPeripheralDriver/src/stm32f10x_dma.c ****   }
 695:../libs/StdPeripheralDriver/src/stm32f10x_dma.c ****   else
 696:../libs/StdPeripheralDriver/src/stm32f10x_dma.c ****   {
 697:../libs/StdPeripheralDriver/src/stm32f10x_dma.c ****     /* Clear the selected DMAy interrupt pending bits */
 698:../libs/StdPeripheralDriver/src/stm32f10x_dma.c ****     DMA1->IFCR = DMAy_IT;
 2142              		.loc 1 698 0
 2143 0044 054B     		ldr	r3, .L125+8
 2144 0046 7A68     		ldr	r2, [r7, #4]
 2145 0048 5A60     		str	r2, [r3, #4]
 2146              	.L119:
 699:../libs/StdPeripheralDriver/src/stm32f10x_dma.c ****   }
 700:../libs/StdPeripheralDriver/src/stm32f10x_dma.c **** }
 2147              		.loc 1 700 0
 2148 004a 07F10807 		add	r7, r7, #8
 2149 004e BD46     		mov	sp, r7
 2150 0050 80BD     		pop	{r7, pc}
 2151              	.L126:
 2152 0052 00BF     		.align	2
 2153              	.L125:
 2154 0054 0000F0EF 		.word	-269484032
 2155 0058 00040240 		.word	1073873920
 2156 005c 00000240 		.word	1073872896
 2157              		.cfi_endproc
 2158              	.LFE39:
 2160              		.text
 2161              	.Letext0:
 2162              		.file 2 "d:\\programs\\stm programs\\codebench\\bin\\../lib/gcc/arm-none-eabi/4.7.3/../../../../ar
 2163              		.file 3 "D:\\PROGRAMMING\\stm\\stm-discovery_test_project\\libs\\CMSIS/stm32f10x.h"
 2164              		.file 4 "D:\\PROGRAMMING\\stm\\stm-discovery_test_project\\libs\\StdPeripheralDriver\\inc/stm32f10
 2165              		.file 5 "D:\\PROGRAMMING\\stm\\stm-discovery_test_project\\libs\\CMSIS/core_cm3.h"
DEFINED SYMBOLS
                            *ABS*:00000000 stm32f10x_dma.c
C:\Users\6262~1\AppData\Local\Temp\ccwMc5kd.s:19     .text.DMA_DeInit:00000000 $t
C:\Users\6262~1\AppData\Local\Temp\ccwMc5kd.s:24     .text.DMA_DeInit:00000000 DMA_DeInit
C:\Users\6262~1\AppData\Local\Temp\ccwMc5kd.s:299    .text.DMA_DeInit:000001b4 $d
C:\Users\6262~1\AppData\Local\Temp\ccwMc5kd.s:317    .text.DMA_Init:00000000 $t
C:\Users\6262~1\AppData\Local\Temp\ccwMc5kd.s:322    .text.DMA_Init:00000000 DMA_Init
C:\Users\6262~1\AppData\Local\Temp\ccwMc5kd.s:694    .text.DMA_Init:00000240 $d
C:\Users\6262~1\AppData\Local\Temp\ccwMc5kd.s:710    .text.DMA_StructInit:00000000 $t
C:\Users\6262~1\AppData\Local\Temp\ccwMc5kd.s:715    .text.DMA_StructInit:00000000 DMA_StructInit
C:\Users\6262~1\AppData\Local\Temp\ccwMc5kd.s:786    .text.DMA_Cmd:00000000 $t
C:\Users\6262~1\AppData\Local\Temp\ccwMc5kd.s:791    .text.DMA_Cmd:00000000 DMA_Cmd
C:\Users\6262~1\AppData\Local\Temp\ccwMc5kd.s:928    .text.DMA_Cmd:000000c4 $d
C:\Users\6262~1\AppData\Local\Temp\ccwMc5kd.s:944    .text.DMA_ITConfig:00000000 $t
C:\Users\6262~1\AppData\Local\Temp\ccwMc5kd.s:949    .text.DMA_ITConfig:00000000 DMA_ITConfig
C:\Users\6262~1\AppData\Local\Temp\ccwMc5kd.s:1108   .text.DMA_ITConfig:000000e8 $d
C:\Users\6262~1\AppData\Local\Temp\ccwMc5kd.s:1124   .text.DMA_SetCurrDataCounter:00000000 $t
C:\Users\6262~1\AppData\Local\Temp\ccwMc5kd.s:1129   .text.DMA_SetCurrDataCounter:00000000 DMA_SetCurrDataCounter
C:\Users\6262~1\AppData\Local\Temp\ccwMc5kd.s:1231   .text.DMA_SetCurrDataCounter:0000008c $d
C:\Users\6262~1\AppData\Local\Temp\ccwMc5kd.s:1247   .text.DMA_GetCurrDataCounter:00000000 $t
C:\Users\6262~1\AppData\Local\Temp\ccwMc5kd.s:1252   .text.DMA_GetCurrDataCounter:00000000 DMA_GetCurrDataCounter
C:\Users\6262~1\AppData\Local\Temp\ccwMc5kd.s:1353   .text.DMA_GetCurrDataCounter:00000088 $d
C:\Users\6262~1\AppData\Local\Temp\ccwMc5kd.s:1369   .text.DMA_GetFlagStatus:00000000 $t
C:\Users\6262~1\AppData\Local\Temp\ccwMc5kd.s:1374   .text.DMA_GetFlagStatus:00000000 DMA_GetFlagStatus
C:\Users\6262~1\AppData\Local\Temp\ccwMc5kd.s:1661   .text.DMA_GetFlagStatus:000001f0 $d
C:\Users\6262~1\AppData\Local\Temp\ccwMc5kd.s:1686   .text.DMA_ClearFlag:00000000 $t
C:\Users\6262~1\AppData\Local\Temp\ccwMc5kd.s:1691   .text.DMA_ClearFlag:00000000 DMA_ClearFlag
C:\Users\6262~1\AppData\Local\Temp\ccwMc5kd.s:1758   .text.DMA_ClearFlag:00000054 $d
C:\Users\6262~1\AppData\Local\Temp\ccwMc5kd.s:1765   .text.DMA_GetITStatus:00000000 $t
C:\Users\6262~1\AppData\Local\Temp\ccwMc5kd.s:1770   .text.DMA_GetITStatus:00000000 DMA_GetITStatus
C:\Users\6262~1\AppData\Local\Temp\ccwMc5kd.s:2057   .text.DMA_GetITStatus:000001f0 $d
C:\Users\6262~1\AppData\Local\Temp\ccwMc5kd.s:2082   .text.DMA_ClearITPendingBit:00000000 $t
C:\Users\6262~1\AppData\Local\Temp\ccwMc5kd.s:2087   .text.DMA_ClearITPendingBit:00000000 DMA_ClearITPendingBit
C:\Users\6262~1\AppData\Local\Temp\ccwMc5kd.s:2154   .text.DMA_ClearITPendingBit:00000054 $d
                     .debug_frame:00000010 $d
                           .group:00000000 wm4.1.a89c7a2b9e0955e95368adfe2cbc52f6
                           .group:00000000 wm4.stm32f10x.h.51.b859cb68ed44ee02c916b41cb8c68f1c
                           .group:00000000 wm4.core_cm3.h.25.d35e9a9b04ec4aaebae9bf79fff061f9
                           .group:00000000 wm4.stdint.h.10.90b695f550ca6cc3fb08fa83baf01e05
                           .group:00000000 wm4.core_cm3.h.113.b286929a54d33b4c8909a7132437b244
                           .group:00000000 wm4.stm32f10x.h.522.a925aafc848b1f088438cf0e9b167b78
                           .group:00000000 wm4.stm32f10x.h.8304.f7d8ad90959e99679b3257267c3aadfe
                           .group:00000000 wm4.stm32f10x_dma.h.95.3ba03f0eac1ed728f3bbe553623f105a
                           .group:00000000 wm4.stm32f10x_rcc.h.25.fe8897e7491f2eb0cff54551d08eb765

UNDEFINED SYMBOLS
assert_param
