   1              		.syntax unified
   2              		.cpu cortex-m3
   3              		.fpu softvfp
   4              		.eabi_attribute 20, 1
   5              		.eabi_attribute 21, 1
   6              		.eabi_attribute 23, 3
   7              		.eabi_attribute 24, 1
   8              		.eabi_attribute 25, 1
   9              		.eabi_attribute 26, 1
  10              		.eabi_attribute 30, 6
  11              		.eabi_attribute 34, 1
  12              		.eabi_attribute 18, 4
  13              		.thumb
  14              		.file	"stm32f10x_fsmc.c"
  15              		.text
  16              	.Ltext0:
  17              		.cfi_sections	.debug_frame
  18              		.section	.text.FSMC_NORSRAMDeInit,"ax",%progbits
  19              		.align	2
  20              		.global	FSMC_NORSRAMDeInit
  21              		.thumb
  22              		.thumb_func
  24              	FSMC_NORSRAMDeInit:
  25              	.LFB29:
  26              		.file 1 "../libs/StdPeripheralDriver/src/stm32f10x_fsmc.c"
   1:../libs/StdPeripheralDriver/src/stm32f10x_fsmc.c **** /**
   2:../libs/StdPeripheralDriver/src/stm32f10x_fsmc.c ****   ******************************************************************************
   3:../libs/StdPeripheralDriver/src/stm32f10x_fsmc.c ****   * @file    stm32f10x_fsmc.c
   4:../libs/StdPeripheralDriver/src/stm32f10x_fsmc.c ****   * @author  MCD Application Team
   5:../libs/StdPeripheralDriver/src/stm32f10x_fsmc.c ****   * @version V3.5.0
   6:../libs/StdPeripheralDriver/src/stm32f10x_fsmc.c ****   * @date    11-March-2011
   7:../libs/StdPeripheralDriver/src/stm32f10x_fsmc.c ****   * @brief   This file provides all the FSMC firmware functions.
   8:../libs/StdPeripheralDriver/src/stm32f10x_fsmc.c ****   ******************************************************************************
   9:../libs/StdPeripheralDriver/src/stm32f10x_fsmc.c ****   * @attention
  10:../libs/StdPeripheralDriver/src/stm32f10x_fsmc.c ****   *
  11:../libs/StdPeripheralDriver/src/stm32f10x_fsmc.c ****   * THE PRESENT FIRMWARE WHICH IS FOR GUIDANCE ONLY AIMS AT PROVIDING CUSTOMERS
  12:../libs/StdPeripheralDriver/src/stm32f10x_fsmc.c ****   * WITH CODING INFORMATION REGARDING THEIR PRODUCTS IN ORDER FOR THEM TO SAVE
  13:../libs/StdPeripheralDriver/src/stm32f10x_fsmc.c ****   * TIME. AS A RESULT, STMICROELECTRONICS SHALL NOT BE HELD LIABLE FOR ANY
  14:../libs/StdPeripheralDriver/src/stm32f10x_fsmc.c ****   * DIRECT, INDIRECT OR CONSEQUENTIAL DAMAGES WITH RESPECT TO ANY CLAIMS ARISING
  15:../libs/StdPeripheralDriver/src/stm32f10x_fsmc.c ****   * FROM THE CONTENT OF SUCH FIRMWARE AND/OR THE USE MADE BY CUSTOMERS OF THE
  16:../libs/StdPeripheralDriver/src/stm32f10x_fsmc.c ****   * CODING INFORMATION CONTAINED HEREIN IN CONNECTION WITH THEIR PRODUCTS.
  17:../libs/StdPeripheralDriver/src/stm32f10x_fsmc.c ****   *
  18:../libs/StdPeripheralDriver/src/stm32f10x_fsmc.c ****   * <h2><center>&copy; COPYRIGHT 2011 STMicroelectronics</center></h2>
  19:../libs/StdPeripheralDriver/src/stm32f10x_fsmc.c ****   ******************************************************************************
  20:../libs/StdPeripheralDriver/src/stm32f10x_fsmc.c ****   */
  21:../libs/StdPeripheralDriver/src/stm32f10x_fsmc.c **** 
  22:../libs/StdPeripheralDriver/src/stm32f10x_fsmc.c **** /* Includes ------------------------------------------------------------------*/
  23:../libs/StdPeripheralDriver/src/stm32f10x_fsmc.c **** #include "stm32f10x_fsmc.h"
  24:../libs/StdPeripheralDriver/src/stm32f10x_fsmc.c **** #include "stm32f10x_rcc.h"
  25:../libs/StdPeripheralDriver/src/stm32f10x_fsmc.c **** 
  26:../libs/StdPeripheralDriver/src/stm32f10x_fsmc.c **** /** @addtogroup STM32F10x_StdPeriph_Driver
  27:../libs/StdPeripheralDriver/src/stm32f10x_fsmc.c ****   * @{
  28:../libs/StdPeripheralDriver/src/stm32f10x_fsmc.c ****   */
  29:../libs/StdPeripheralDriver/src/stm32f10x_fsmc.c **** 
  30:../libs/StdPeripheralDriver/src/stm32f10x_fsmc.c **** /** @defgroup FSMC 
  31:../libs/StdPeripheralDriver/src/stm32f10x_fsmc.c ****   * @brief FSMC driver modules
  32:../libs/StdPeripheralDriver/src/stm32f10x_fsmc.c ****   * @{
  33:../libs/StdPeripheralDriver/src/stm32f10x_fsmc.c ****   */ 
  34:../libs/StdPeripheralDriver/src/stm32f10x_fsmc.c **** 
  35:../libs/StdPeripheralDriver/src/stm32f10x_fsmc.c **** /** @defgroup FSMC_Private_TypesDefinitions
  36:../libs/StdPeripheralDriver/src/stm32f10x_fsmc.c ****   * @{
  37:../libs/StdPeripheralDriver/src/stm32f10x_fsmc.c ****   */ 
  38:../libs/StdPeripheralDriver/src/stm32f10x_fsmc.c **** /**
  39:../libs/StdPeripheralDriver/src/stm32f10x_fsmc.c ****   * @}
  40:../libs/StdPeripheralDriver/src/stm32f10x_fsmc.c ****   */
  41:../libs/StdPeripheralDriver/src/stm32f10x_fsmc.c **** 
  42:../libs/StdPeripheralDriver/src/stm32f10x_fsmc.c **** /** @defgroup FSMC_Private_Defines
  43:../libs/StdPeripheralDriver/src/stm32f10x_fsmc.c ****   * @{
  44:../libs/StdPeripheralDriver/src/stm32f10x_fsmc.c ****   */
  45:../libs/StdPeripheralDriver/src/stm32f10x_fsmc.c **** 
  46:../libs/StdPeripheralDriver/src/stm32f10x_fsmc.c **** /* --------------------- FSMC registers bit mask ---------------------------- */
  47:../libs/StdPeripheralDriver/src/stm32f10x_fsmc.c **** 
  48:../libs/StdPeripheralDriver/src/stm32f10x_fsmc.c **** /* FSMC BCRx Mask */
  49:../libs/StdPeripheralDriver/src/stm32f10x_fsmc.c **** #define BCR_MBKEN_Set                       ((uint32_t)0x00000001)
  50:../libs/StdPeripheralDriver/src/stm32f10x_fsmc.c **** #define BCR_MBKEN_Reset                     ((uint32_t)0x000FFFFE)
  51:../libs/StdPeripheralDriver/src/stm32f10x_fsmc.c **** #define BCR_FACCEN_Set                      ((uint32_t)0x00000040)
  52:../libs/StdPeripheralDriver/src/stm32f10x_fsmc.c **** 
  53:../libs/StdPeripheralDriver/src/stm32f10x_fsmc.c **** /* FSMC PCRx Mask */
  54:../libs/StdPeripheralDriver/src/stm32f10x_fsmc.c **** #define PCR_PBKEN_Set                       ((uint32_t)0x00000004)
  55:../libs/StdPeripheralDriver/src/stm32f10x_fsmc.c **** #define PCR_PBKEN_Reset                     ((uint32_t)0x000FFFFB)
  56:../libs/StdPeripheralDriver/src/stm32f10x_fsmc.c **** #define PCR_ECCEN_Set                       ((uint32_t)0x00000040)
  57:../libs/StdPeripheralDriver/src/stm32f10x_fsmc.c **** #define PCR_ECCEN_Reset                     ((uint32_t)0x000FFFBF)
  58:../libs/StdPeripheralDriver/src/stm32f10x_fsmc.c **** #define PCR_MemoryType_NAND                 ((uint32_t)0x00000008)
  59:../libs/StdPeripheralDriver/src/stm32f10x_fsmc.c **** /**
  60:../libs/StdPeripheralDriver/src/stm32f10x_fsmc.c ****   * @}
  61:../libs/StdPeripheralDriver/src/stm32f10x_fsmc.c ****   */
  62:../libs/StdPeripheralDriver/src/stm32f10x_fsmc.c **** 
  63:../libs/StdPeripheralDriver/src/stm32f10x_fsmc.c **** /** @defgroup FSMC_Private_Macros
  64:../libs/StdPeripheralDriver/src/stm32f10x_fsmc.c ****   * @{
  65:../libs/StdPeripheralDriver/src/stm32f10x_fsmc.c ****   */
  66:../libs/StdPeripheralDriver/src/stm32f10x_fsmc.c **** 
  67:../libs/StdPeripheralDriver/src/stm32f10x_fsmc.c **** /**
  68:../libs/StdPeripheralDriver/src/stm32f10x_fsmc.c ****   * @}
  69:../libs/StdPeripheralDriver/src/stm32f10x_fsmc.c ****   */
  70:../libs/StdPeripheralDriver/src/stm32f10x_fsmc.c **** 
  71:../libs/StdPeripheralDriver/src/stm32f10x_fsmc.c **** /** @defgroup FSMC_Private_Variables
  72:../libs/StdPeripheralDriver/src/stm32f10x_fsmc.c ****   * @{
  73:../libs/StdPeripheralDriver/src/stm32f10x_fsmc.c ****   */
  74:../libs/StdPeripheralDriver/src/stm32f10x_fsmc.c **** 
  75:../libs/StdPeripheralDriver/src/stm32f10x_fsmc.c **** /**
  76:../libs/StdPeripheralDriver/src/stm32f10x_fsmc.c ****   * @}
  77:../libs/StdPeripheralDriver/src/stm32f10x_fsmc.c ****   */
  78:../libs/StdPeripheralDriver/src/stm32f10x_fsmc.c **** 
  79:../libs/StdPeripheralDriver/src/stm32f10x_fsmc.c **** /** @defgroup FSMC_Private_FunctionPrototypes
  80:../libs/StdPeripheralDriver/src/stm32f10x_fsmc.c ****   * @{
  81:../libs/StdPeripheralDriver/src/stm32f10x_fsmc.c ****   */
  82:../libs/StdPeripheralDriver/src/stm32f10x_fsmc.c **** 
  83:../libs/StdPeripheralDriver/src/stm32f10x_fsmc.c **** /**
  84:../libs/StdPeripheralDriver/src/stm32f10x_fsmc.c ****   * @}
  85:../libs/StdPeripheralDriver/src/stm32f10x_fsmc.c ****   */
  86:../libs/StdPeripheralDriver/src/stm32f10x_fsmc.c **** 
  87:../libs/StdPeripheralDriver/src/stm32f10x_fsmc.c **** /** @defgroup FSMC_Private_Functions
  88:../libs/StdPeripheralDriver/src/stm32f10x_fsmc.c ****   * @{
  89:../libs/StdPeripheralDriver/src/stm32f10x_fsmc.c ****   */
  90:../libs/StdPeripheralDriver/src/stm32f10x_fsmc.c **** 
  91:../libs/StdPeripheralDriver/src/stm32f10x_fsmc.c **** /**
  92:../libs/StdPeripheralDriver/src/stm32f10x_fsmc.c ****   * @brief  Deinitializes the FSMC NOR/SRAM Banks registers to their default 
  93:../libs/StdPeripheralDriver/src/stm32f10x_fsmc.c ****   *         reset values.
  94:../libs/StdPeripheralDriver/src/stm32f10x_fsmc.c ****   * @param  FSMC_Bank: specifies the FSMC Bank to be used
  95:../libs/StdPeripheralDriver/src/stm32f10x_fsmc.c ****   *   This parameter can be one of the following values:
  96:../libs/StdPeripheralDriver/src/stm32f10x_fsmc.c ****   *     @arg FSMC_Bank1_NORSRAM1: FSMC Bank1 NOR/SRAM1  
  97:../libs/StdPeripheralDriver/src/stm32f10x_fsmc.c ****   *     @arg FSMC_Bank1_NORSRAM2: FSMC Bank1 NOR/SRAM2 
  98:../libs/StdPeripheralDriver/src/stm32f10x_fsmc.c ****   *     @arg FSMC_Bank1_NORSRAM3: FSMC Bank1 NOR/SRAM3 
  99:../libs/StdPeripheralDriver/src/stm32f10x_fsmc.c ****   *     @arg FSMC_Bank1_NORSRAM4: FSMC Bank1 NOR/SRAM4 
 100:../libs/StdPeripheralDriver/src/stm32f10x_fsmc.c ****   * @retval None
 101:../libs/StdPeripheralDriver/src/stm32f10x_fsmc.c ****   */
 102:../libs/StdPeripheralDriver/src/stm32f10x_fsmc.c **** void FSMC_NORSRAMDeInit(uint32_t FSMC_Bank)
 103:../libs/StdPeripheralDriver/src/stm32f10x_fsmc.c **** {
  27              		.loc 1 103 0
  28              		.cfi_startproc
  29              		@ args = 0, pretend = 0, frame = 8
  30              		@ frame_needed = 1, uses_anonymous_args = 0
  31 0000 80B5     		push	{r7, lr}
  32              	.LCFI0:
  33              		.cfi_def_cfa_offset 8
  34              		.cfi_offset 7, -8
  35              		.cfi_offset 14, -4
  36 0002 82B0     		sub	sp, sp, #8
  37              	.LCFI1:
  38              		.cfi_def_cfa_offset 16
  39 0004 00AF     		add	r7, sp, #0
  40              	.LCFI2:
  41              		.cfi_def_cfa_register 7
  42 0006 7860     		str	r0, [r7, #4]
 104:../libs/StdPeripheralDriver/src/stm32f10x_fsmc.c ****   /* Check the parameter */
 105:../libs/StdPeripheralDriver/src/stm32f10x_fsmc.c ****   assert_param(IS_FSMC_NORSRAM_BANK(FSMC_Bank));
  43              		.loc 1 105 0
  44 0008 7B68     		ldr	r3, [r7, #4]
  45 000a 002B     		cmp	r3, #0
  46 000c 08D0     		beq	.L2
  47              		.loc 1 105 0 is_stmt 0 discriminator 2
  48 000e 7B68     		ldr	r3, [r7, #4]
  49 0010 022B     		cmp	r3, #2
  50 0012 05D0     		beq	.L2
  51              		.loc 1 105 0 discriminator 1
  52 0014 7B68     		ldr	r3, [r7, #4]
  53 0016 042B     		cmp	r3, #4
  54 0018 02D0     		beq	.L2
  55              		.loc 1 105 0 discriminator 2
  56 001a 7B68     		ldr	r3, [r7, #4]
  57 001c 062B     		cmp	r3, #6
  58 001e 02D1     		bne	.L3
  59              	.L2:
  60              		.loc 1 105 0 discriminator 1
  61 0020 4FF00103 		mov	r3, #1
  62 0024 01E0     		b	.L4
  63              	.L3:
  64              		.loc 1 105 0 discriminator 3
  65 0026 4FF00003 		mov	r3, #0
  66              	.L4:
  67              		.loc 1 105 0 discriminator 4
  68 002a 1846     		mov	r0, r3
  69 002c FFF7FEFF 		bl	assert_param
 106:../libs/StdPeripheralDriver/src/stm32f10x_fsmc.c ****   
 107:../libs/StdPeripheralDriver/src/stm32f10x_fsmc.c ****   /* FSMC_Bank1_NORSRAM1 */
 108:../libs/StdPeripheralDriver/src/stm32f10x_fsmc.c ****   if(FSMC_Bank == FSMC_Bank1_NORSRAM1)
  70              		.loc 1 108 0 is_stmt 1 discriminator 4
  71 0030 7B68     		ldr	r3, [r7, #4]
  72 0032 002B     		cmp	r3, #0
  73 0034 07D1     		bne	.L5
 109:../libs/StdPeripheralDriver/src/stm32f10x_fsmc.c ****   {
 110:../libs/StdPeripheralDriver/src/stm32f10x_fsmc.c ****     FSMC_Bank1->BTCR[FSMC_Bank] = 0x000030DB;    
  74              		.loc 1 110 0
  75 0036 4FF02043 		mov	r3, #-1610612736
  76 003a 7A68     		ldr	r2, [r7, #4]
  77 003c 43F2DB01 		movw	r1, #12507
  78 0040 43F82210 		str	r1, [r3, r2, lsl #2]
  79 0044 06E0     		b	.L6
  80              	.L5:
 111:../libs/StdPeripheralDriver/src/stm32f10x_fsmc.c ****   }
 112:../libs/StdPeripheralDriver/src/stm32f10x_fsmc.c ****   /* FSMC_Bank1_NORSRAM2,  FSMC_Bank1_NORSRAM3 or FSMC_Bank1_NORSRAM4 */
 113:../libs/StdPeripheralDriver/src/stm32f10x_fsmc.c ****   else
 114:../libs/StdPeripheralDriver/src/stm32f10x_fsmc.c ****   {   
 115:../libs/StdPeripheralDriver/src/stm32f10x_fsmc.c ****     FSMC_Bank1->BTCR[FSMC_Bank] = 0x000030D2; 
  81              		.loc 1 115 0
  82 0046 4FF02043 		mov	r3, #-1610612736
  83 004a 7A68     		ldr	r2, [r7, #4]
  84 004c 43F2D201 		movw	r1, #12498
  85 0050 43F82210 		str	r1, [r3, r2, lsl #2]
  86              	.L6:
 116:../libs/StdPeripheralDriver/src/stm32f10x_fsmc.c ****   }
 117:../libs/StdPeripheralDriver/src/stm32f10x_fsmc.c ****   FSMC_Bank1->BTCR[FSMC_Bank + 1] = 0x0FFFFFFF;
  87              		.loc 1 117 0
  88 0054 4FF02043 		mov	r3, #-1610612736
  89 0058 7A68     		ldr	r2, [r7, #4]
  90 005a 02F10102 		add	r2, r2, #1
  91 005e 6FF07041 		mvn	r1, #-268435456
  92 0062 43F82210 		str	r1, [r3, r2, lsl #2]
 118:../libs/StdPeripheralDriver/src/stm32f10x_fsmc.c ****   FSMC_Bank1E->BWTR[FSMC_Bank] = 0x0FFFFFFF;  
  93              		.loc 1 118 0
  94 0066 054B     		ldr	r3, .L7
  95 0068 7A68     		ldr	r2, [r7, #4]
  96 006a 6FF07041 		mvn	r1, #-268435456
  97 006e 43F82210 		str	r1, [r3, r2, lsl #2]
 119:../libs/StdPeripheralDriver/src/stm32f10x_fsmc.c **** }
  98              		.loc 1 119 0
  99 0072 07F10807 		add	r7, r7, #8
 100 0076 BD46     		mov	sp, r7
 101 0078 80BD     		pop	{r7, pc}
 102              	.L8:
 103 007a 00BF     		.align	2
 104              	.L7:
 105 007c 040100A0 		.word	-1610612476
 106              		.cfi_endproc
 107              	.LFE29:
 109              		.section	.text.FSMC_NANDDeInit,"ax",%progbits
 110              		.align	2
 111              		.global	FSMC_NANDDeInit
 112              		.thumb
 113              		.thumb_func
 115              	FSMC_NANDDeInit:
 116              	.LFB30:
 120:../libs/StdPeripheralDriver/src/stm32f10x_fsmc.c **** 
 121:../libs/StdPeripheralDriver/src/stm32f10x_fsmc.c **** /**
 122:../libs/StdPeripheralDriver/src/stm32f10x_fsmc.c ****   * @brief  Deinitializes the FSMC NAND Banks registers to their default reset values.
 123:../libs/StdPeripheralDriver/src/stm32f10x_fsmc.c ****   * @param  FSMC_Bank: specifies the FSMC Bank to be used
 124:../libs/StdPeripheralDriver/src/stm32f10x_fsmc.c ****   *   This parameter can be one of the following values:
 125:../libs/StdPeripheralDriver/src/stm32f10x_fsmc.c ****   *     @arg FSMC_Bank2_NAND: FSMC Bank2 NAND 
 126:../libs/StdPeripheralDriver/src/stm32f10x_fsmc.c ****   *     @arg FSMC_Bank3_NAND: FSMC Bank3 NAND 
 127:../libs/StdPeripheralDriver/src/stm32f10x_fsmc.c ****   * @retval None
 128:../libs/StdPeripheralDriver/src/stm32f10x_fsmc.c ****   */
 129:../libs/StdPeripheralDriver/src/stm32f10x_fsmc.c **** void FSMC_NANDDeInit(uint32_t FSMC_Bank)
 130:../libs/StdPeripheralDriver/src/stm32f10x_fsmc.c **** {
 117              		.loc 1 130 0
 118              		.cfi_startproc
 119              		@ args = 0, pretend = 0, frame = 8
 120              		@ frame_needed = 1, uses_anonymous_args = 0
 121 0000 80B5     		push	{r7, lr}
 122              	.LCFI3:
 123              		.cfi_def_cfa_offset 8
 124              		.cfi_offset 7, -8
 125              		.cfi_offset 14, -4
 126 0002 82B0     		sub	sp, sp, #8
 127              	.LCFI4:
 128              		.cfi_def_cfa_offset 16
 129 0004 00AF     		add	r7, sp, #0
 130              	.LCFI5:
 131              		.cfi_def_cfa_register 7
 132 0006 7860     		str	r0, [r7, #4]
 131:../libs/StdPeripheralDriver/src/stm32f10x_fsmc.c ****   /* Check the parameter */
 132:../libs/StdPeripheralDriver/src/stm32f10x_fsmc.c ****   assert_param(IS_FSMC_NAND_BANK(FSMC_Bank));
 133              		.loc 1 132 0
 134 0008 7B68     		ldr	r3, [r7, #4]
 135 000a 102B     		cmp	r3, #16
 136 000c 03D0     		beq	.L10
 137              		.loc 1 132 0 is_stmt 0 discriminator 2
 138 000e 7B68     		ldr	r3, [r7, #4]
 139 0010 B3F5807F 		cmp	r3, #256
 140 0014 02D1     		bne	.L11
 141              	.L10:
 142              		.loc 1 132 0 discriminator 1
 143 0016 4FF00103 		mov	r3, #1
 144 001a 01E0     		b	.L12
 145              	.L11:
 146              		.loc 1 132 0 discriminator 3
 147 001c 4FF00003 		mov	r3, #0
 148              	.L12:
 149              		.loc 1 132 0 discriminator 4
 150 0020 1846     		mov	r0, r3
 151 0022 FFF7FEFF 		bl	assert_param
 133:../libs/StdPeripheralDriver/src/stm32f10x_fsmc.c ****   
 134:../libs/StdPeripheralDriver/src/stm32f10x_fsmc.c ****   if(FSMC_Bank == FSMC_Bank2_NAND)
 152              		.loc 1 134 0 is_stmt 1 discriminator 4
 153 0026 7B68     		ldr	r3, [r7, #4]
 154 0028 102B     		cmp	r3, #16
 155 002a 10D1     		bne	.L13
 135:../libs/StdPeripheralDriver/src/stm32f10x_fsmc.c ****   {
 136:../libs/StdPeripheralDriver/src/stm32f10x_fsmc.c ****     /* Set the FSMC_Bank2 registers to their reset values */
 137:../libs/StdPeripheralDriver/src/stm32f10x_fsmc.c ****     FSMC_Bank2->PCR2 = 0x00000018;
 156              		.loc 1 137 0
 157 002c 124B     		ldr	r3, .L15
 158 002e 4FF01802 		mov	r2, #24
 159 0032 1A60     		str	r2, [r3, #0]
 138:../libs/StdPeripheralDriver/src/stm32f10x_fsmc.c ****     FSMC_Bank2->SR2 = 0x00000040;
 160              		.loc 1 138 0
 161 0034 104B     		ldr	r3, .L15
 162 0036 4FF04002 		mov	r2, #64
 163 003a 5A60     		str	r2, [r3, #4]
 139:../libs/StdPeripheralDriver/src/stm32f10x_fsmc.c ****     FSMC_Bank2->PMEM2 = 0xFCFCFCFC;
 164              		.loc 1 139 0
 165 003c 0E4B     		ldr	r3, .L15
 166 003e 4FF0FC32 		mov	r2, #-50529028
 167 0042 9A60     		str	r2, [r3, #8]
 140:../libs/StdPeripheralDriver/src/stm32f10x_fsmc.c ****     FSMC_Bank2->PATT2 = 0xFCFCFCFC;  
 168              		.loc 1 140 0
 169 0044 0C4B     		ldr	r3, .L15
 170 0046 4FF0FC32 		mov	r2, #-50529028
 171 004a DA60     		str	r2, [r3, #12]
 172 004c 0FE0     		b	.L9
 173              	.L13:
 141:../libs/StdPeripheralDriver/src/stm32f10x_fsmc.c ****   }
 142:../libs/StdPeripheralDriver/src/stm32f10x_fsmc.c ****   /* FSMC_Bank3_NAND */  
 143:../libs/StdPeripheralDriver/src/stm32f10x_fsmc.c ****   else
 144:../libs/StdPeripheralDriver/src/stm32f10x_fsmc.c ****   {
 145:../libs/StdPeripheralDriver/src/stm32f10x_fsmc.c ****     /* Set the FSMC_Bank3 registers to their reset values */
 146:../libs/StdPeripheralDriver/src/stm32f10x_fsmc.c ****     FSMC_Bank3->PCR3 = 0x00000018;
 174              		.loc 1 146 0
 175 004e 0B4B     		ldr	r3, .L15+4
 176 0050 4FF01802 		mov	r2, #24
 177 0054 1A60     		str	r2, [r3, #0]
 147:../libs/StdPeripheralDriver/src/stm32f10x_fsmc.c ****     FSMC_Bank3->SR3 = 0x00000040;
 178              		.loc 1 147 0
 179 0056 094B     		ldr	r3, .L15+4
 180 0058 4FF04002 		mov	r2, #64
 181 005c 5A60     		str	r2, [r3, #4]
 148:../libs/StdPeripheralDriver/src/stm32f10x_fsmc.c ****     FSMC_Bank3->PMEM3 = 0xFCFCFCFC;
 182              		.loc 1 148 0
 183 005e 074B     		ldr	r3, .L15+4
 184 0060 4FF0FC32 		mov	r2, #-50529028
 185 0064 9A60     		str	r2, [r3, #8]
 149:../libs/StdPeripheralDriver/src/stm32f10x_fsmc.c ****     FSMC_Bank3->PATT3 = 0xFCFCFCFC; 
 186              		.loc 1 149 0
 187 0066 054B     		ldr	r3, .L15+4
 188 0068 4FF0FC32 		mov	r2, #-50529028
 189 006c DA60     		str	r2, [r3, #12]
 190              	.L9:
 150:../libs/StdPeripheralDriver/src/stm32f10x_fsmc.c ****   }  
 151:../libs/StdPeripheralDriver/src/stm32f10x_fsmc.c **** }
 191              		.loc 1 151 0
 192 006e 07F10807 		add	r7, r7, #8
 193 0072 BD46     		mov	sp, r7
 194 0074 80BD     		pop	{r7, pc}
 195              	.L16:
 196 0076 00BF     		.align	2
 197              	.L15:
 198 0078 600000A0 		.word	-1610612640
 199 007c 800000A0 		.word	-1610612608
 200              		.cfi_endproc
 201              	.LFE30:
 203              		.section	.text.FSMC_PCCARDDeInit,"ax",%progbits
 204              		.align	2
 205              		.global	FSMC_PCCARDDeInit
 206              		.thumb
 207              		.thumb_func
 209              	FSMC_PCCARDDeInit:
 210              	.LFB31:
 152:../libs/StdPeripheralDriver/src/stm32f10x_fsmc.c **** 
 153:../libs/StdPeripheralDriver/src/stm32f10x_fsmc.c **** /**
 154:../libs/StdPeripheralDriver/src/stm32f10x_fsmc.c ****   * @brief  Deinitializes the FSMC PCCARD Bank registers to their default reset values.
 155:../libs/StdPeripheralDriver/src/stm32f10x_fsmc.c ****   * @param  None                       
 156:../libs/StdPeripheralDriver/src/stm32f10x_fsmc.c ****   * @retval None
 157:../libs/StdPeripheralDriver/src/stm32f10x_fsmc.c ****   */
 158:../libs/StdPeripheralDriver/src/stm32f10x_fsmc.c **** void FSMC_PCCARDDeInit(void)
 159:../libs/StdPeripheralDriver/src/stm32f10x_fsmc.c **** {
 211              		.loc 1 159 0
 212              		.cfi_startproc
 213              		@ args = 0, pretend = 0, frame = 0
 214              		@ frame_needed = 1, uses_anonymous_args = 0
 215              		@ link register save eliminated.
 216 0000 80B4     		push	{r7}
 217              	.LCFI6:
 218              		.cfi_def_cfa_offset 4
 219              		.cfi_offset 7, -4
 220 0002 00AF     		add	r7, sp, #0
 221              	.LCFI7:
 222              		.cfi_def_cfa_register 7
 160:../libs/StdPeripheralDriver/src/stm32f10x_fsmc.c ****   /* Set the FSMC_Bank4 registers to their reset values */
 161:../libs/StdPeripheralDriver/src/stm32f10x_fsmc.c ****   FSMC_Bank4->PCR4 = 0x00000018; 
 223              		.loc 1 161 0
 224 0004 0B4B     		ldr	r3, .L18
 225 0006 4FF01802 		mov	r2, #24
 226 000a 1A60     		str	r2, [r3, #0]
 162:../libs/StdPeripheralDriver/src/stm32f10x_fsmc.c ****   FSMC_Bank4->SR4 = 0x00000000;	
 227              		.loc 1 162 0
 228 000c 094B     		ldr	r3, .L18
 229 000e 4FF00002 		mov	r2, #0
 230 0012 5A60     		str	r2, [r3, #4]
 163:../libs/StdPeripheralDriver/src/stm32f10x_fsmc.c ****   FSMC_Bank4->PMEM4 = 0xFCFCFCFC;
 231              		.loc 1 163 0
 232 0014 074B     		ldr	r3, .L18
 233 0016 4FF0FC32 		mov	r2, #-50529028
 234 001a 9A60     		str	r2, [r3, #8]
 164:../libs/StdPeripheralDriver/src/stm32f10x_fsmc.c ****   FSMC_Bank4->PATT4 = 0xFCFCFCFC;
 235              		.loc 1 164 0
 236 001c 054B     		ldr	r3, .L18
 237 001e 4FF0FC32 		mov	r2, #-50529028
 238 0022 DA60     		str	r2, [r3, #12]
 165:../libs/StdPeripheralDriver/src/stm32f10x_fsmc.c ****   FSMC_Bank4->PIO4 = 0xFCFCFCFC;
 239              		.loc 1 165 0
 240 0024 034B     		ldr	r3, .L18
 241 0026 4FF0FC32 		mov	r2, #-50529028
 242 002a 1A61     		str	r2, [r3, #16]
 166:../libs/StdPeripheralDriver/src/stm32f10x_fsmc.c **** }
 243              		.loc 1 166 0
 244 002c BD46     		mov	sp, r7
 245 002e 80BC     		pop	{r7}
 246 0030 7047     		bx	lr
 247              	.L19:
 248 0032 00BF     		.align	2
 249              	.L18:
 250 0034 A00000A0 		.word	-1610612576
 251              		.cfi_endproc
 252              	.LFE31:
 254              		.section	.text.FSMC_NORSRAMInit,"ax",%progbits
 255              		.align	2
 256              		.global	FSMC_NORSRAMInit
 257              		.thumb
 258              		.thumb_func
 260              	FSMC_NORSRAMInit:
 261              	.LFB32:
 167:../libs/StdPeripheralDriver/src/stm32f10x_fsmc.c **** 
 168:../libs/StdPeripheralDriver/src/stm32f10x_fsmc.c **** /**
 169:../libs/StdPeripheralDriver/src/stm32f10x_fsmc.c ****   * @brief  Initializes the FSMC NOR/SRAM Banks according to the specified
 170:../libs/StdPeripheralDriver/src/stm32f10x_fsmc.c ****   *         parameters in the FSMC_NORSRAMInitStruct.
 171:../libs/StdPeripheralDriver/src/stm32f10x_fsmc.c ****   * @param  FSMC_NORSRAMInitStruct : pointer to a FSMC_NORSRAMInitTypeDef
 172:../libs/StdPeripheralDriver/src/stm32f10x_fsmc.c ****   *         structure that contains the configuration information for 
 173:../libs/StdPeripheralDriver/src/stm32f10x_fsmc.c ****   *        the FSMC NOR/SRAM specified Banks.                       
 174:../libs/StdPeripheralDriver/src/stm32f10x_fsmc.c ****   * @retval None
 175:../libs/StdPeripheralDriver/src/stm32f10x_fsmc.c ****   */
 176:../libs/StdPeripheralDriver/src/stm32f10x_fsmc.c **** void FSMC_NORSRAMInit(FSMC_NORSRAMInitTypeDef* FSMC_NORSRAMInitStruct)
 177:../libs/StdPeripheralDriver/src/stm32f10x_fsmc.c **** { 
 262              		.loc 1 177 0
 263              		.cfi_startproc
 264              		@ args = 0, pretend = 0, frame = 8
 265              		@ frame_needed = 1, uses_anonymous_args = 0
 266 0000 80B5     		push	{r7, lr}
 267              	.LCFI8:
 268              		.cfi_def_cfa_offset 8
 269              		.cfi_offset 7, -8
 270              		.cfi_offset 14, -4
 271 0002 82B0     		sub	sp, sp, #8
 272              	.LCFI9:
 273              		.cfi_def_cfa_offset 16
 274 0004 00AF     		add	r7, sp, #0
 275              	.LCFI10:
 276              		.cfi_def_cfa_register 7
 277 0006 7860     		str	r0, [r7, #4]
 178:../libs/StdPeripheralDriver/src/stm32f10x_fsmc.c ****   /* Check the parameters */
 179:../libs/StdPeripheralDriver/src/stm32f10x_fsmc.c ****   assert_param(IS_FSMC_NORSRAM_BANK(FSMC_NORSRAMInitStruct->FSMC_Bank));
 278              		.loc 1 179 0
 279 0008 7B68     		ldr	r3, [r7, #4]
 280 000a 1B68     		ldr	r3, [r3, #0]
 281 000c 002B     		cmp	r3, #0
 282 000e 0BD0     		beq	.L21
 283              		.loc 1 179 0 is_stmt 0 discriminator 2
 284 0010 7B68     		ldr	r3, [r7, #4]
 285 0012 1B68     		ldr	r3, [r3, #0]
 286 0014 022B     		cmp	r3, #2
 287 0016 07D0     		beq	.L21
 288              		.loc 1 179 0 discriminator 1
 289 0018 7B68     		ldr	r3, [r7, #4]
 290 001a 1B68     		ldr	r3, [r3, #0]
 291 001c 042B     		cmp	r3, #4
 292 001e 03D0     		beq	.L21
 293              		.loc 1 179 0 discriminator 2
 294 0020 7B68     		ldr	r3, [r7, #4]
 295 0022 1B68     		ldr	r3, [r3, #0]
 296 0024 062B     		cmp	r3, #6
 297 0026 02D1     		bne	.L22
 298              	.L21:
 299              		.loc 1 179 0 discriminator 1
 300 0028 4FF00103 		mov	r3, #1
 301 002c 01E0     		b	.L23
 302              	.L22:
 303              		.loc 1 179 0 discriminator 3
 304 002e 4FF00003 		mov	r3, #0
 305              	.L23:
 306              		.loc 1 179 0 discriminator 4
 307 0032 1846     		mov	r0, r3
 308 0034 FFF7FEFF 		bl	assert_param
 180:../libs/StdPeripheralDriver/src/stm32f10x_fsmc.c ****   assert_param(IS_FSMC_MUX(FSMC_NORSRAMInitStruct->FSMC_DataAddressMux));
 309              		.loc 1 180 0 is_stmt 1 discriminator 4
 310 0038 7B68     		ldr	r3, [r7, #4]
 311 003a 5B68     		ldr	r3, [r3, #4]
 312 003c 002B     		cmp	r3, #0
 313 003e 03D0     		beq	.L24
 314              		.loc 1 180 0 is_stmt 0 discriminator 2
 315 0040 7B68     		ldr	r3, [r7, #4]
 316 0042 5B68     		ldr	r3, [r3, #4]
 317 0044 022B     		cmp	r3, #2
 318 0046 02D1     		bne	.L25
 319              	.L24:
 320              		.loc 1 180 0 discriminator 1
 321 0048 4FF00103 		mov	r3, #1
 322 004c 01E0     		b	.L26
 323              	.L25:
 324              		.loc 1 180 0 discriminator 3
 325 004e 4FF00003 		mov	r3, #0
 326              	.L26:
 327              		.loc 1 180 0 discriminator 4
 328 0052 1846     		mov	r0, r3
 329 0054 FFF7FEFF 		bl	assert_param
 181:../libs/StdPeripheralDriver/src/stm32f10x_fsmc.c ****   assert_param(IS_FSMC_MEMORY(FSMC_NORSRAMInitStruct->FSMC_MemoryType));
 330              		.loc 1 181 0 is_stmt 1 discriminator 4
 331 0058 7B68     		ldr	r3, [r7, #4]
 332 005a 9B68     		ldr	r3, [r3, #8]
 333 005c 002B     		cmp	r3, #0
 334 005e 07D0     		beq	.L27
 335              		.loc 1 181 0 is_stmt 0 discriminator 2
 336 0060 7B68     		ldr	r3, [r7, #4]
 337 0062 9B68     		ldr	r3, [r3, #8]
 338 0064 042B     		cmp	r3, #4
 339 0066 03D0     		beq	.L27
 340              		.loc 1 181 0 discriminator 1
 341 0068 7B68     		ldr	r3, [r7, #4]
 342 006a 9B68     		ldr	r3, [r3, #8]
 343 006c 082B     		cmp	r3, #8
 344 006e 02D1     		bne	.L28
 345              	.L27:
 346 0070 4FF00103 		mov	r3, #1
 347 0074 01E0     		b	.L29
 348              	.L28:
 349              		.loc 1 181 0 discriminator 3
 350 0076 4FF00003 		mov	r3, #0
 351              	.L29:
 352              		.loc 1 181 0 discriminator 4
 353 007a 1846     		mov	r0, r3
 354 007c FFF7FEFF 		bl	assert_param
 182:../libs/StdPeripheralDriver/src/stm32f10x_fsmc.c ****   assert_param(IS_FSMC_MEMORY_WIDTH(FSMC_NORSRAMInitStruct->FSMC_MemoryDataWidth));
 355              		.loc 1 182 0 is_stmt 1 discriminator 4
 356 0080 7B68     		ldr	r3, [r7, #4]
 357 0082 DB68     		ldr	r3, [r3, #12]
 358 0084 002B     		cmp	r3, #0
 359 0086 03D0     		beq	.L30
 360              		.loc 1 182 0 is_stmt 0 discriminator 2
 361 0088 7B68     		ldr	r3, [r7, #4]
 362 008a DB68     		ldr	r3, [r3, #12]
 363 008c 102B     		cmp	r3, #16
 364 008e 02D1     		bne	.L31
 365              	.L30:
 366              		.loc 1 182 0 discriminator 1
 367 0090 4FF00103 		mov	r3, #1
 368 0094 01E0     		b	.L32
 369              	.L31:
 370              		.loc 1 182 0 discriminator 3
 371 0096 4FF00003 		mov	r3, #0
 372              	.L32:
 373              		.loc 1 182 0 discriminator 4
 374 009a 1846     		mov	r0, r3
 375 009c FFF7FEFF 		bl	assert_param
 183:../libs/StdPeripheralDriver/src/stm32f10x_fsmc.c ****   assert_param(IS_FSMC_BURSTMODE(FSMC_NORSRAMInitStruct->FSMC_BurstAccessMode));
 376              		.loc 1 183 0 is_stmt 1 discriminator 4
 377 00a0 7B68     		ldr	r3, [r7, #4]
 378 00a2 1B69     		ldr	r3, [r3, #16]
 379 00a4 002B     		cmp	r3, #0
 380 00a6 04D0     		beq	.L33
 381              		.loc 1 183 0 is_stmt 0 discriminator 2
 382 00a8 7B68     		ldr	r3, [r7, #4]
 383 00aa 1B69     		ldr	r3, [r3, #16]
 384 00ac B3F5807F 		cmp	r3, #256
 385 00b0 02D1     		bne	.L34
 386              	.L33:
 387              		.loc 1 183 0 discriminator 1
 388 00b2 4FF00103 		mov	r3, #1
 389 00b6 01E0     		b	.L35
 390              	.L34:
 391              		.loc 1 183 0 discriminator 3
 392 00b8 4FF00003 		mov	r3, #0
 393              	.L35:
 394              		.loc 1 183 0 discriminator 4
 395 00bc 1846     		mov	r0, r3
 396 00be FFF7FEFF 		bl	assert_param
 184:../libs/StdPeripheralDriver/src/stm32f10x_fsmc.c ****   assert_param(IS_FSMC_ASYNWAIT(FSMC_NORSRAMInitStruct->FSMC_AsynchronousWait));
 397              		.loc 1 184 0 is_stmt 1 discriminator 4
 398 00c2 7B68     		ldr	r3, [r7, #4]
 399 00c4 5B69     		ldr	r3, [r3, #20]
 400 00c6 002B     		cmp	r3, #0
 401 00c8 04D0     		beq	.L36
 402              		.loc 1 184 0 is_stmt 0 discriminator 2
 403 00ca 7B68     		ldr	r3, [r7, #4]
 404 00cc 5B69     		ldr	r3, [r3, #20]
 405 00ce B3F5004F 		cmp	r3, #32768
 406 00d2 02D1     		bne	.L37
 407              	.L36:
 408              		.loc 1 184 0 discriminator 1
 409 00d4 4FF00103 		mov	r3, #1
 410 00d8 01E0     		b	.L38
 411              	.L37:
 412              		.loc 1 184 0 discriminator 3
 413 00da 4FF00003 		mov	r3, #0
 414              	.L38:
 415              		.loc 1 184 0 discriminator 4
 416 00de 1846     		mov	r0, r3
 417 00e0 FFF7FEFF 		bl	assert_param
 185:../libs/StdPeripheralDriver/src/stm32f10x_fsmc.c ****   assert_param(IS_FSMC_WAIT_POLARITY(FSMC_NORSRAMInitStruct->FSMC_WaitSignalPolarity));
 418              		.loc 1 185 0 is_stmt 1 discriminator 4
 419 00e4 7B68     		ldr	r3, [r7, #4]
 420 00e6 9B69     		ldr	r3, [r3, #24]
 421 00e8 002B     		cmp	r3, #0
 422 00ea 04D0     		beq	.L39
 423              		.loc 1 185 0 is_stmt 0 discriminator 2
 424 00ec 7B68     		ldr	r3, [r7, #4]
 425 00ee 9B69     		ldr	r3, [r3, #24]
 426 00f0 B3F5007F 		cmp	r3, #512
 427 00f4 02D1     		bne	.L40
 428              	.L39:
 429              		.loc 1 185 0 discriminator 1
 430 00f6 4FF00103 		mov	r3, #1
 431 00fa 01E0     		b	.L41
 432              	.L40:
 433              		.loc 1 185 0 discriminator 3
 434 00fc 4FF00003 		mov	r3, #0
 435              	.L41:
 436              		.loc 1 185 0 discriminator 4
 437 0100 1846     		mov	r0, r3
 438 0102 FFF7FEFF 		bl	assert_param
 186:../libs/StdPeripheralDriver/src/stm32f10x_fsmc.c ****   assert_param(IS_FSMC_WRAP_MODE(FSMC_NORSRAMInitStruct->FSMC_WrapMode));
 439              		.loc 1 186 0 is_stmt 1 discriminator 4
 440 0106 7B68     		ldr	r3, [r7, #4]
 441 0108 DB69     		ldr	r3, [r3, #28]
 442 010a 002B     		cmp	r3, #0
 443 010c 04D0     		beq	.L42
 444              		.loc 1 186 0 is_stmt 0 discriminator 2
 445 010e 7B68     		ldr	r3, [r7, #4]
 446 0110 DB69     		ldr	r3, [r3, #28]
 447 0112 B3F5806F 		cmp	r3, #1024
 448 0116 02D1     		bne	.L43
 449              	.L42:
 450              		.loc 1 186 0 discriminator 1
 451 0118 4FF00103 		mov	r3, #1
 452 011c 01E0     		b	.L44
 453              	.L43:
 454              		.loc 1 186 0 discriminator 3
 455 011e 4FF00003 		mov	r3, #0
 456              	.L44:
 457              		.loc 1 186 0 discriminator 4
 458 0122 1846     		mov	r0, r3
 459 0124 FFF7FEFF 		bl	assert_param
 187:../libs/StdPeripheralDriver/src/stm32f10x_fsmc.c ****   assert_param(IS_FSMC_WAIT_SIGNAL_ACTIVE(FSMC_NORSRAMInitStruct->FSMC_WaitSignalActive));
 460              		.loc 1 187 0 is_stmt 1 discriminator 4
 461 0128 7B68     		ldr	r3, [r7, #4]
 462 012a 1B6A     		ldr	r3, [r3, #32]
 463 012c 002B     		cmp	r3, #0
 464 012e 04D0     		beq	.L45
 465              		.loc 1 187 0 is_stmt 0 discriminator 2
 466 0130 7B68     		ldr	r3, [r7, #4]
 467 0132 1B6A     		ldr	r3, [r3, #32]
 468 0134 B3F5006F 		cmp	r3, #2048
 469 0138 02D1     		bne	.L46
 470              	.L45:
 471              		.loc 1 187 0 discriminator 1
 472 013a 4FF00103 		mov	r3, #1
 473 013e 01E0     		b	.L47
 474              	.L46:
 475              		.loc 1 187 0 discriminator 3
 476 0140 4FF00003 		mov	r3, #0
 477              	.L47:
 478              		.loc 1 187 0 discriminator 4
 479 0144 1846     		mov	r0, r3
 480 0146 FFF7FEFF 		bl	assert_param
 188:../libs/StdPeripheralDriver/src/stm32f10x_fsmc.c ****   assert_param(IS_FSMC_WRITE_OPERATION(FSMC_NORSRAMInitStruct->FSMC_WriteOperation));
 481              		.loc 1 188 0 is_stmt 1 discriminator 4
 482 014a 7B68     		ldr	r3, [r7, #4]
 483 014c 5B6A     		ldr	r3, [r3, #36]
 484 014e 002B     		cmp	r3, #0
 485 0150 04D0     		beq	.L48
 486              		.loc 1 188 0 is_stmt 0 discriminator 2
 487 0152 7B68     		ldr	r3, [r7, #4]
 488 0154 5B6A     		ldr	r3, [r3, #36]
 489 0156 B3F5805F 		cmp	r3, #4096
 490 015a 02D1     		bne	.L49
 491              	.L48:
 492              		.loc 1 188 0 discriminator 1
 493 015c 4FF00103 		mov	r3, #1
 494 0160 01E0     		b	.L50
 495              	.L49:
 496              		.loc 1 188 0 discriminator 3
 497 0162 4FF00003 		mov	r3, #0
 498              	.L50:
 499              		.loc 1 188 0 discriminator 4
 500 0166 1846     		mov	r0, r3
 501 0168 FFF7FEFF 		bl	assert_param
 189:../libs/StdPeripheralDriver/src/stm32f10x_fsmc.c ****   assert_param(IS_FSMC_WAITE_SIGNAL(FSMC_NORSRAMInitStruct->FSMC_WaitSignal));
 502              		.loc 1 189 0 is_stmt 1 discriminator 4
 503 016c 7B68     		ldr	r3, [r7, #4]
 504 016e 9B6A     		ldr	r3, [r3, #40]
 505 0170 002B     		cmp	r3, #0
 506 0172 04D0     		beq	.L51
 507              		.loc 1 189 0 is_stmt 0 discriminator 2
 508 0174 7B68     		ldr	r3, [r7, #4]
 509 0176 9B6A     		ldr	r3, [r3, #40]
 510 0178 B3F5005F 		cmp	r3, #8192
 511 017c 02D1     		bne	.L52
 512              	.L51:
 513              		.loc 1 189 0 discriminator 1
 514 017e 4FF00103 		mov	r3, #1
 515 0182 01E0     		b	.L53
 516              	.L52:
 517              		.loc 1 189 0 discriminator 3
 518 0184 4FF00003 		mov	r3, #0
 519              	.L53:
 520              		.loc 1 189 0 discriminator 4
 521 0188 1846     		mov	r0, r3
 522 018a FFF7FEFF 		bl	assert_param
 190:../libs/StdPeripheralDriver/src/stm32f10x_fsmc.c ****   assert_param(IS_FSMC_EXTENDED_MODE(FSMC_NORSRAMInitStruct->FSMC_ExtendedMode));
 523              		.loc 1 190 0 is_stmt 1 discriminator 4
 524 018e 7B68     		ldr	r3, [r7, #4]
 525 0190 DB6A     		ldr	r3, [r3, #44]
 526 0192 002B     		cmp	r3, #0
 527 0194 04D0     		beq	.L54
 528              		.loc 1 190 0 is_stmt 0 discriminator 2
 529 0196 7B68     		ldr	r3, [r7, #4]
 530 0198 DB6A     		ldr	r3, [r3, #44]
 531 019a B3F5804F 		cmp	r3, #16384
 532 019e 02D1     		bne	.L55
 533              	.L54:
 534              		.loc 1 190 0 discriminator 1
 535 01a0 4FF00103 		mov	r3, #1
 536 01a4 01E0     		b	.L56
 537              	.L55:
 538              		.loc 1 190 0 discriminator 3
 539 01a6 4FF00003 		mov	r3, #0
 540              	.L56:
 541              		.loc 1 190 0 discriminator 4
 542 01aa 1846     		mov	r0, r3
 543 01ac FFF7FEFF 		bl	assert_param
 191:../libs/StdPeripheralDriver/src/stm32f10x_fsmc.c ****   assert_param(IS_FSMC_WRITE_BURST(FSMC_NORSRAMInitStruct->FSMC_WriteBurst));  
 544              		.loc 1 191 0 is_stmt 1 discriminator 4
 545 01b0 7B68     		ldr	r3, [r7, #4]
 546 01b2 1B6B     		ldr	r3, [r3, #48]
 547 01b4 002B     		cmp	r3, #0
 548 01b6 04D0     		beq	.L57
 549              		.loc 1 191 0 is_stmt 0 discriminator 2
 550 01b8 7B68     		ldr	r3, [r7, #4]
 551 01ba 1B6B     		ldr	r3, [r3, #48]
 552 01bc B3F5002F 		cmp	r3, #524288
 553 01c0 02D1     		bne	.L58
 554              	.L57:
 555              		.loc 1 191 0 discriminator 1
 556 01c2 4FF00103 		mov	r3, #1
 557 01c6 01E0     		b	.L59
 558              	.L58:
 559              		.loc 1 191 0 discriminator 3
 560 01c8 4FF00003 		mov	r3, #0
 561              	.L59:
 562              		.loc 1 191 0 discriminator 4
 563 01cc 1846     		mov	r0, r3
 564 01ce FFF7FEFF 		bl	assert_param
 192:../libs/StdPeripheralDriver/src/stm32f10x_fsmc.c ****   assert_param(IS_FSMC_ADDRESS_SETUP_TIME(FSMC_NORSRAMInitStruct->FSMC_ReadWriteTimingStruct->FSMC_
 565              		.loc 1 192 0 is_stmt 1 discriminator 4
 566 01d2 7B68     		ldr	r3, [r7, #4]
 567 01d4 5B6B     		ldr	r3, [r3, #52]
 568 01d6 1B68     		ldr	r3, [r3, #0]
 569 01d8 0F2B     		cmp	r3, #15
 570 01da 8CBF     		ite	hi
 571 01dc 0023     		movhi	r3, #0
 572 01de 0123     		movls	r3, #1
 573 01e0 DBB2     		uxtb	r3, r3
 574 01e2 1846     		mov	r0, r3
 575 01e4 FFF7FEFF 		bl	assert_param
 193:../libs/StdPeripheralDriver/src/stm32f10x_fsmc.c ****   assert_param(IS_FSMC_ADDRESS_HOLD_TIME(FSMC_NORSRAMInitStruct->FSMC_ReadWriteTimingStruct->FSMC_A
 576              		.loc 1 193 0 discriminator 4
 577 01e8 7B68     		ldr	r3, [r7, #4]
 578 01ea 5B6B     		ldr	r3, [r3, #52]
 579 01ec 5B68     		ldr	r3, [r3, #4]
 580 01ee 0F2B     		cmp	r3, #15
 581 01f0 8CBF     		ite	hi
 582 01f2 0023     		movhi	r3, #0
 583 01f4 0123     		movls	r3, #1
 584 01f6 DBB2     		uxtb	r3, r3
 585 01f8 1846     		mov	r0, r3
 586 01fa FFF7FEFF 		bl	assert_param
 194:../libs/StdPeripheralDriver/src/stm32f10x_fsmc.c ****   assert_param(IS_FSMC_DATASETUP_TIME(FSMC_NORSRAMInitStruct->FSMC_ReadWriteTimingStruct->FSMC_Data
 587              		.loc 1 194 0 discriminator 4
 588 01fe 7B68     		ldr	r3, [r7, #4]
 589 0200 5B6B     		ldr	r3, [r3, #52]
 590 0202 9B68     		ldr	r3, [r3, #8]
 591 0204 002B     		cmp	r3, #0
 592 0206 07D0     		beq	.L60
 593              		.loc 1 194 0 is_stmt 0 discriminator 1
 594 0208 7B68     		ldr	r3, [r7, #4]
 595 020a 5B6B     		ldr	r3, [r3, #52]
 596 020c 9B68     		ldr	r3, [r3, #8]
 597 020e FF2B     		cmp	r3, #255
 598 0210 02D8     		bhi	.L60
 599              		.loc 1 194 0 discriminator 3
 600 0212 4FF00103 		mov	r3, #1
 601 0216 01E0     		b	.L61
 602              	.L60:
 603              		.loc 1 194 0 discriminator 2
 604 0218 4FF00003 		mov	r3, #0
 605              	.L61:
 606              		.loc 1 194 0 discriminator 4
 607 021c 1846     		mov	r0, r3
 608 021e FFF7FEFF 		bl	assert_param
 195:../libs/StdPeripheralDriver/src/stm32f10x_fsmc.c ****   assert_param(IS_FSMC_TURNAROUND_TIME(FSMC_NORSRAMInitStruct->FSMC_ReadWriteTimingStruct->FSMC_Bus
 609              		.loc 1 195 0 is_stmt 1 discriminator 4
 610 0222 7B68     		ldr	r3, [r7, #4]
 611 0224 5B6B     		ldr	r3, [r3, #52]
 612 0226 DB68     		ldr	r3, [r3, #12]
 613 0228 0F2B     		cmp	r3, #15
 614 022a 8CBF     		ite	hi
 615 022c 0023     		movhi	r3, #0
 616 022e 0123     		movls	r3, #1
 617 0230 DBB2     		uxtb	r3, r3
 618 0232 1846     		mov	r0, r3
 619 0234 FFF7FEFF 		bl	assert_param
 196:../libs/StdPeripheralDriver/src/stm32f10x_fsmc.c ****   assert_param(IS_FSMC_CLK_DIV(FSMC_NORSRAMInitStruct->FSMC_ReadWriteTimingStruct->FSMC_CLKDivision
 620              		.loc 1 196 0 discriminator 4
 621 0238 7B68     		ldr	r3, [r7, #4]
 622 023a 5B6B     		ldr	r3, [r3, #52]
 623 023c 1B69     		ldr	r3, [r3, #16]
 624 023e 0F2B     		cmp	r3, #15
 625 0240 8CBF     		ite	hi
 626 0242 0023     		movhi	r3, #0
 627 0244 0123     		movls	r3, #1
 628 0246 DBB2     		uxtb	r3, r3
 629 0248 1846     		mov	r0, r3
 630 024a FFF7FEFF 		bl	assert_param
 197:../libs/StdPeripheralDriver/src/stm32f10x_fsmc.c ****   assert_param(IS_FSMC_DATA_LATENCY(FSMC_NORSRAMInitStruct->FSMC_ReadWriteTimingStruct->FSMC_DataLa
 631              		.loc 1 197 0 discriminator 4
 632 024e 7B68     		ldr	r3, [r7, #4]
 633 0250 5B6B     		ldr	r3, [r3, #52]
 634 0252 5B69     		ldr	r3, [r3, #20]
 635 0254 0F2B     		cmp	r3, #15
 636 0256 8CBF     		ite	hi
 637 0258 0023     		movhi	r3, #0
 638 025a 0123     		movls	r3, #1
 639 025c DBB2     		uxtb	r3, r3
 640 025e 1846     		mov	r0, r3
 641 0260 FFF7FEFF 		bl	assert_param
 198:../libs/StdPeripheralDriver/src/stm32f10x_fsmc.c ****   assert_param(IS_FSMC_ACCESS_MODE(FSMC_NORSRAMInitStruct->FSMC_ReadWriteTimingStruct->FSMC_AccessM
 642              		.loc 1 198 0 discriminator 4
 643 0264 7B68     		ldr	r3, [r7, #4]
 644 0266 5B6B     		ldr	r3, [r3, #52]
 645 0268 9B69     		ldr	r3, [r3, #24]
 646 026a 002B     		cmp	r3, #0
 647 026c 11D0     		beq	.L62
 648              		.loc 1 198 0 is_stmt 0 discriminator 2
 649 026e 7B68     		ldr	r3, [r7, #4]
 650 0270 5B6B     		ldr	r3, [r3, #52]
 651 0272 9B69     		ldr	r3, [r3, #24]
 652 0274 B3F1805F 		cmp	r3, #268435456
 653 0278 0BD0     		beq	.L62
 654              		.loc 1 198 0 discriminator 1
 655 027a 7B68     		ldr	r3, [r7, #4]
 656 027c 5B6B     		ldr	r3, [r3, #52]
 657 027e 9B69     		ldr	r3, [r3, #24]
 658 0280 B3F1005F 		cmp	r3, #536870912
 659 0284 05D0     		beq	.L62
 660              		.loc 1 198 0 discriminator 2
 661 0286 7B68     		ldr	r3, [r7, #4]
 662 0288 5B6B     		ldr	r3, [r3, #52]
 663 028a 9B69     		ldr	r3, [r3, #24]
 664 028c B3F1405F 		cmp	r3, #805306368
 665 0290 02D1     		bne	.L63
 666              	.L62:
 667              		.loc 1 198 0 discriminator 1
 668 0292 4FF00103 		mov	r3, #1
 669 0296 01E0     		b	.L64
 670              	.L63:
 671              		.loc 1 198 0 discriminator 3
 672 0298 4FF00003 		mov	r3, #0
 673              	.L64:
 674              		.loc 1 198 0 discriminator 4
 675 029c 1846     		mov	r0, r3
 676 029e FFF7FEFF 		bl	assert_param
 199:../libs/StdPeripheralDriver/src/stm32f10x_fsmc.c ****   
 200:../libs/StdPeripheralDriver/src/stm32f10x_fsmc.c ****   /* Bank1 NOR/SRAM control register configuration */ 
 201:../libs/StdPeripheralDriver/src/stm32f10x_fsmc.c ****   FSMC_Bank1->BTCR[FSMC_NORSRAMInitStruct->FSMC_Bank] = 
 677              		.loc 1 201 0 is_stmt 1 discriminator 4
 678 02a2 4FF02043 		mov	r3, #-1610612736
 679 02a6 7A68     		ldr	r2, [r7, #4]
 680 02a8 1268     		ldr	r2, [r2, #0]
 202:../libs/StdPeripheralDriver/src/stm32f10x_fsmc.c ****             (uint32_t)FSMC_NORSRAMInitStruct->FSMC_DataAddressMux |
 681              		.loc 1 202 0 discriminator 4
 682 02aa 7968     		ldr	r1, [r7, #4]
 683 02ac 4868     		ldr	r0, [r1, #4]
 203:../libs/StdPeripheralDriver/src/stm32f10x_fsmc.c ****             FSMC_NORSRAMInitStruct->FSMC_MemoryType |
 684              		.loc 1 203 0 discriminator 4
 685 02ae 7968     		ldr	r1, [r7, #4]
 686 02b0 8968     		ldr	r1, [r1, #8]
 202:../libs/StdPeripheralDriver/src/stm32f10x_fsmc.c ****             (uint32_t)FSMC_NORSRAMInitStruct->FSMC_DataAddressMux |
 687              		.loc 1 202 0 discriminator 4
 688 02b2 0843     		orrs	r0, r0, r1
 204:../libs/StdPeripheralDriver/src/stm32f10x_fsmc.c ****             FSMC_NORSRAMInitStruct->FSMC_MemoryDataWidth |
 689              		.loc 1 204 0 discriminator 4
 690 02b4 7968     		ldr	r1, [r7, #4]
 691 02b6 C968     		ldr	r1, [r1, #12]
 203:../libs/StdPeripheralDriver/src/stm32f10x_fsmc.c ****             FSMC_NORSRAMInitStruct->FSMC_MemoryType |
 692              		.loc 1 203 0 discriminator 4
 693 02b8 0843     		orrs	r0, r0, r1
 205:../libs/StdPeripheralDriver/src/stm32f10x_fsmc.c ****             FSMC_NORSRAMInitStruct->FSMC_BurstAccessMode |
 694              		.loc 1 205 0 discriminator 4
 695 02ba 7968     		ldr	r1, [r7, #4]
 696 02bc 0969     		ldr	r1, [r1, #16]
 204:../libs/StdPeripheralDriver/src/stm32f10x_fsmc.c ****             FSMC_NORSRAMInitStruct->FSMC_MemoryDataWidth |
 697              		.loc 1 204 0 discriminator 4
 698 02be 0843     		orrs	r0, r0, r1
 206:../libs/StdPeripheralDriver/src/stm32f10x_fsmc.c ****             FSMC_NORSRAMInitStruct->FSMC_AsynchronousWait |
 699              		.loc 1 206 0 discriminator 4
 700 02c0 7968     		ldr	r1, [r7, #4]
 701 02c2 4969     		ldr	r1, [r1, #20]
 205:../libs/StdPeripheralDriver/src/stm32f10x_fsmc.c ****             FSMC_NORSRAMInitStruct->FSMC_BurstAccessMode |
 702              		.loc 1 205 0 discriminator 4
 703 02c4 0843     		orrs	r0, r0, r1
 207:../libs/StdPeripheralDriver/src/stm32f10x_fsmc.c ****             FSMC_NORSRAMInitStruct->FSMC_WaitSignalPolarity |
 704              		.loc 1 207 0 discriminator 4
 705 02c6 7968     		ldr	r1, [r7, #4]
 706 02c8 8969     		ldr	r1, [r1, #24]
 206:../libs/StdPeripheralDriver/src/stm32f10x_fsmc.c ****             FSMC_NORSRAMInitStruct->FSMC_AsynchronousWait |
 707              		.loc 1 206 0 discriminator 4
 708 02ca 0843     		orrs	r0, r0, r1
 208:../libs/StdPeripheralDriver/src/stm32f10x_fsmc.c ****             FSMC_NORSRAMInitStruct->FSMC_WrapMode |
 709              		.loc 1 208 0 discriminator 4
 710 02cc 7968     		ldr	r1, [r7, #4]
 711 02ce C969     		ldr	r1, [r1, #28]
 207:../libs/StdPeripheralDriver/src/stm32f10x_fsmc.c ****             FSMC_NORSRAMInitStruct->FSMC_WaitSignalPolarity |
 712              		.loc 1 207 0 discriminator 4
 713 02d0 0843     		orrs	r0, r0, r1
 209:../libs/StdPeripheralDriver/src/stm32f10x_fsmc.c ****             FSMC_NORSRAMInitStruct->FSMC_WaitSignalActive |
 714              		.loc 1 209 0 discriminator 4
 715 02d2 7968     		ldr	r1, [r7, #4]
 716 02d4 096A     		ldr	r1, [r1, #32]
 208:../libs/StdPeripheralDriver/src/stm32f10x_fsmc.c ****             FSMC_NORSRAMInitStruct->FSMC_WrapMode |
 717              		.loc 1 208 0 discriminator 4
 718 02d6 0843     		orrs	r0, r0, r1
 210:../libs/StdPeripheralDriver/src/stm32f10x_fsmc.c ****             FSMC_NORSRAMInitStruct->FSMC_WriteOperation |
 719              		.loc 1 210 0 discriminator 4
 720 02d8 7968     		ldr	r1, [r7, #4]
 721 02da 496A     		ldr	r1, [r1, #36]
 209:../libs/StdPeripheralDriver/src/stm32f10x_fsmc.c ****             FSMC_NORSRAMInitStruct->FSMC_WaitSignalActive |
 722              		.loc 1 209 0 discriminator 4
 723 02dc 0843     		orrs	r0, r0, r1
 211:../libs/StdPeripheralDriver/src/stm32f10x_fsmc.c ****             FSMC_NORSRAMInitStruct->FSMC_WaitSignal |
 724              		.loc 1 211 0 discriminator 4
 725 02de 7968     		ldr	r1, [r7, #4]
 726 02e0 896A     		ldr	r1, [r1, #40]
 210:../libs/StdPeripheralDriver/src/stm32f10x_fsmc.c ****             FSMC_NORSRAMInitStruct->FSMC_WriteOperation |
 727              		.loc 1 210 0 discriminator 4
 728 02e2 0843     		orrs	r0, r0, r1
 212:../libs/StdPeripheralDriver/src/stm32f10x_fsmc.c ****             FSMC_NORSRAMInitStruct->FSMC_ExtendedMode |
 729              		.loc 1 212 0 discriminator 4
 730 02e4 7968     		ldr	r1, [r7, #4]
 731 02e6 C96A     		ldr	r1, [r1, #44]
 211:../libs/StdPeripheralDriver/src/stm32f10x_fsmc.c ****             FSMC_NORSRAMInitStruct->FSMC_WaitSignal |
 732              		.loc 1 211 0 discriminator 4
 733 02e8 0843     		orrs	r0, r0, r1
 213:../libs/StdPeripheralDriver/src/stm32f10x_fsmc.c ****             FSMC_NORSRAMInitStruct->FSMC_WriteBurst;
 734              		.loc 1 213 0 discriminator 4
 735 02ea 7968     		ldr	r1, [r7, #4]
 736 02ec 096B     		ldr	r1, [r1, #48]
 212:../libs/StdPeripheralDriver/src/stm32f10x_fsmc.c ****             FSMC_NORSRAMInitStruct->FSMC_ExtendedMode |
 737              		.loc 1 212 0 discriminator 4
 738 02ee 0143     		orrs	r1, r1, r0
 201:../libs/StdPeripheralDriver/src/stm32f10x_fsmc.c ****   FSMC_Bank1->BTCR[FSMC_NORSRAMInitStruct->FSMC_Bank] = 
 739              		.loc 1 201 0 discriminator 4
 740 02f0 43F82210 		str	r1, [r3, r2, lsl #2]
 214:../libs/StdPeripheralDriver/src/stm32f10x_fsmc.c **** 
 215:../libs/StdPeripheralDriver/src/stm32f10x_fsmc.c ****   if(FSMC_NORSRAMInitStruct->FSMC_MemoryType == FSMC_MemoryType_NOR)
 741              		.loc 1 215 0 discriminator 4
 742 02f4 7B68     		ldr	r3, [r7, #4]
 743 02f6 9B68     		ldr	r3, [r3, #8]
 744 02f8 082B     		cmp	r3, #8
 745 02fa 0DD1     		bne	.L65
 216:../libs/StdPeripheralDriver/src/stm32f10x_fsmc.c ****   {
 217:../libs/StdPeripheralDriver/src/stm32f10x_fsmc.c ****     FSMC_Bank1->BTCR[FSMC_NORSRAMInitStruct->FSMC_Bank] |= (uint32_t)BCR_FACCEN_Set;
 746              		.loc 1 217 0
 747 02fc 4FF02043 		mov	r3, #-1610612736
 748 0300 7A68     		ldr	r2, [r7, #4]
 749 0302 1268     		ldr	r2, [r2, #0]
 750 0304 4FF02041 		mov	r1, #-1610612736
 751 0308 7868     		ldr	r0, [r7, #4]
 752 030a 0068     		ldr	r0, [r0, #0]
 753 030c 51F82010 		ldr	r1, [r1, r0, lsl #2]
 754 0310 41F04001 		orr	r1, r1, #64
 755 0314 43F82210 		str	r1, [r3, r2, lsl #2]
 756              	.L65:
 218:../libs/StdPeripheralDriver/src/stm32f10x_fsmc.c ****   }
 219:../libs/StdPeripheralDriver/src/stm32f10x_fsmc.c ****   
 220:../libs/StdPeripheralDriver/src/stm32f10x_fsmc.c ****   /* Bank1 NOR/SRAM timing register configuration */
 221:../libs/StdPeripheralDriver/src/stm32f10x_fsmc.c ****   FSMC_Bank1->BTCR[FSMC_NORSRAMInitStruct->FSMC_Bank+1] = 
 757              		.loc 1 221 0
 758 0318 4FF02043 		mov	r3, #-1610612736
 759 031c 7A68     		ldr	r2, [r7, #4]
 760 031e 1268     		ldr	r2, [r2, #0]
 761 0320 02F10102 		add	r2, r2, #1
 222:../libs/StdPeripheralDriver/src/stm32f10x_fsmc.c ****             (uint32_t)FSMC_NORSRAMInitStruct->FSMC_ReadWriteTimingStruct->FSMC_AddressSetupTime |
 762              		.loc 1 222 0
 763 0324 7968     		ldr	r1, [r7, #4]
 764 0326 496B     		ldr	r1, [r1, #52]
 765 0328 0868     		ldr	r0, [r1, #0]
 223:../libs/StdPeripheralDriver/src/stm32f10x_fsmc.c ****             (FSMC_NORSRAMInitStruct->FSMC_ReadWriteTimingStruct->FSMC_AddressHoldTime << 4) |
 766              		.loc 1 223 0
 767 032a 7968     		ldr	r1, [r7, #4]
 768 032c 496B     		ldr	r1, [r1, #52]
 769 032e 4968     		ldr	r1, [r1, #4]
 770 0330 4FEA0111 		lsl	r1, r1, #4
 222:../libs/StdPeripheralDriver/src/stm32f10x_fsmc.c ****             (uint32_t)FSMC_NORSRAMInitStruct->FSMC_ReadWriteTimingStruct->FSMC_AddressSetupTime |
 771              		.loc 1 222 0
 772 0334 0843     		orrs	r0, r0, r1
 224:../libs/StdPeripheralDriver/src/stm32f10x_fsmc.c ****             (FSMC_NORSRAMInitStruct->FSMC_ReadWriteTimingStruct->FSMC_DataSetupTime << 8) |
 773              		.loc 1 224 0
 774 0336 7968     		ldr	r1, [r7, #4]
 775 0338 496B     		ldr	r1, [r1, #52]
 776 033a 8968     		ldr	r1, [r1, #8]
 777 033c 4FEA0121 		lsl	r1, r1, #8
 223:../libs/StdPeripheralDriver/src/stm32f10x_fsmc.c ****             (FSMC_NORSRAMInitStruct->FSMC_ReadWriteTimingStruct->FSMC_AddressHoldTime << 4) |
 778              		.loc 1 223 0
 779 0340 0843     		orrs	r0, r0, r1
 225:../libs/StdPeripheralDriver/src/stm32f10x_fsmc.c ****             (FSMC_NORSRAMInitStruct->FSMC_ReadWriteTimingStruct->FSMC_BusTurnAroundDuration << 16) 
 780              		.loc 1 225 0
 781 0342 7968     		ldr	r1, [r7, #4]
 782 0344 496B     		ldr	r1, [r1, #52]
 783 0346 C968     		ldr	r1, [r1, #12]
 784 0348 4FEA0141 		lsl	r1, r1, #16
 224:../libs/StdPeripheralDriver/src/stm32f10x_fsmc.c ****             (FSMC_NORSRAMInitStruct->FSMC_ReadWriteTimingStruct->FSMC_DataSetupTime << 8) |
 785              		.loc 1 224 0
 786 034c 0843     		orrs	r0, r0, r1
 226:../libs/StdPeripheralDriver/src/stm32f10x_fsmc.c ****             (FSMC_NORSRAMInitStruct->FSMC_ReadWriteTimingStruct->FSMC_CLKDivision << 20) |
 787              		.loc 1 226 0
 788 034e 7968     		ldr	r1, [r7, #4]
 789 0350 496B     		ldr	r1, [r1, #52]
 790 0352 0969     		ldr	r1, [r1, #16]
 791 0354 4FEA0151 		lsl	r1, r1, #20
 225:../libs/StdPeripheralDriver/src/stm32f10x_fsmc.c ****             (FSMC_NORSRAMInitStruct->FSMC_ReadWriteTimingStruct->FSMC_BusTurnAroundDuration << 16) 
 792              		.loc 1 225 0
 793 0358 0843     		orrs	r0, r0, r1
 227:../libs/StdPeripheralDriver/src/stm32f10x_fsmc.c ****             (FSMC_NORSRAMInitStruct->FSMC_ReadWriteTimingStruct->FSMC_DataLatency << 24) |
 794              		.loc 1 227 0
 795 035a 7968     		ldr	r1, [r7, #4]
 796 035c 496B     		ldr	r1, [r1, #52]
 797 035e 4969     		ldr	r1, [r1, #20]
 798 0360 4FEA0161 		lsl	r1, r1, #24
 226:../libs/StdPeripheralDriver/src/stm32f10x_fsmc.c ****             (FSMC_NORSRAMInitStruct->FSMC_ReadWriteTimingStruct->FSMC_CLKDivision << 20) |
 799              		.loc 1 226 0
 800 0364 0843     		orrs	r0, r0, r1
 228:../libs/StdPeripheralDriver/src/stm32f10x_fsmc.c ****              FSMC_NORSRAMInitStruct->FSMC_ReadWriteTimingStruct->FSMC_AccessMode;
 801              		.loc 1 228 0
 802 0366 7968     		ldr	r1, [r7, #4]
 803 0368 496B     		ldr	r1, [r1, #52]
 804 036a 8969     		ldr	r1, [r1, #24]
 227:../libs/StdPeripheralDriver/src/stm32f10x_fsmc.c ****             (FSMC_NORSRAMInitStruct->FSMC_ReadWriteTimingStruct->FSMC_DataLatency << 24) |
 805              		.loc 1 227 0
 806 036c 0143     		orrs	r1, r1, r0
 221:../libs/StdPeripheralDriver/src/stm32f10x_fsmc.c ****   FSMC_Bank1->BTCR[FSMC_NORSRAMInitStruct->FSMC_Bank+1] = 
 807              		.loc 1 221 0
 808 036e 43F82210 		str	r1, [r3, r2, lsl #2]
 229:../libs/StdPeripheralDriver/src/stm32f10x_fsmc.c ****             
 230:../libs/StdPeripheralDriver/src/stm32f10x_fsmc.c ****     
 231:../libs/StdPeripheralDriver/src/stm32f10x_fsmc.c ****   /* Bank1 NOR/SRAM timing register for write configuration, if extended mode is used */
 232:../libs/StdPeripheralDriver/src/stm32f10x_fsmc.c ****   if(FSMC_NORSRAMInitStruct->FSMC_ExtendedMode == FSMC_ExtendedMode_Enable)
 809              		.loc 1 232 0
 810 0372 7B68     		ldr	r3, [r7, #4]
 811 0374 DB6A     		ldr	r3, [r3, #44]
 812 0376 B3F5804F 		cmp	r3, #16384
 813 037a 40F08280 		bne	.L66
 233:../libs/StdPeripheralDriver/src/stm32f10x_fsmc.c ****   {
 234:../libs/StdPeripheralDriver/src/stm32f10x_fsmc.c ****     assert_param(IS_FSMC_ADDRESS_SETUP_TIME(FSMC_NORSRAMInitStruct->FSMC_WriteTimingStruct->FSMC_Ad
 814              		.loc 1 234 0
 815 037e 7B68     		ldr	r3, [r7, #4]
 816 0380 9B6B     		ldr	r3, [r3, #56]
 817 0382 1B68     		ldr	r3, [r3, #0]
 818 0384 0F2B     		cmp	r3, #15
 819 0386 8CBF     		ite	hi
 820 0388 0023     		movhi	r3, #0
 821 038a 0123     		movls	r3, #1
 822 038c DBB2     		uxtb	r3, r3
 823 038e 1846     		mov	r0, r3
 824 0390 FFF7FEFF 		bl	assert_param
 235:../libs/StdPeripheralDriver/src/stm32f10x_fsmc.c ****     assert_param(IS_FSMC_ADDRESS_HOLD_TIME(FSMC_NORSRAMInitStruct->FSMC_WriteTimingStruct->FSMC_Add
 825              		.loc 1 235 0
 826 0394 7B68     		ldr	r3, [r7, #4]
 827 0396 9B6B     		ldr	r3, [r3, #56]
 828 0398 5B68     		ldr	r3, [r3, #4]
 829 039a 0F2B     		cmp	r3, #15
 830 039c 8CBF     		ite	hi
 831 039e 0023     		movhi	r3, #0
 832 03a0 0123     		movls	r3, #1
 833 03a2 DBB2     		uxtb	r3, r3
 834 03a4 1846     		mov	r0, r3
 835 03a6 FFF7FEFF 		bl	assert_param
 236:../libs/StdPeripheralDriver/src/stm32f10x_fsmc.c ****     assert_param(IS_FSMC_DATASETUP_TIME(FSMC_NORSRAMInitStruct->FSMC_WriteTimingStruct->FSMC_DataSe
 836              		.loc 1 236 0
 837 03aa 7B68     		ldr	r3, [r7, #4]
 838 03ac 9B6B     		ldr	r3, [r3, #56]
 839 03ae 9B68     		ldr	r3, [r3, #8]
 840 03b0 002B     		cmp	r3, #0
 841 03b2 07D0     		beq	.L67
 842              		.loc 1 236 0 is_stmt 0 discriminator 1
 843 03b4 7B68     		ldr	r3, [r7, #4]
 844 03b6 9B6B     		ldr	r3, [r3, #56]
 845 03b8 9B68     		ldr	r3, [r3, #8]
 846 03ba FF2B     		cmp	r3, #255
 847 03bc 02D8     		bhi	.L67
 848              		.loc 1 236 0 discriminator 3
 849 03be 4FF00103 		mov	r3, #1
 850 03c2 01E0     		b	.L68
 851              	.L67:
 852              		.loc 1 236 0 discriminator 2
 853 03c4 4FF00003 		mov	r3, #0
 854              	.L68:
 855              		.loc 1 236 0 discriminator 4
 856 03c8 1846     		mov	r0, r3
 857 03ca FFF7FEFF 		bl	assert_param
 237:../libs/StdPeripheralDriver/src/stm32f10x_fsmc.c ****     assert_param(IS_FSMC_CLK_DIV(FSMC_NORSRAMInitStruct->FSMC_WriteTimingStruct->FSMC_CLKDivision))
 858              		.loc 1 237 0 is_stmt 1 discriminator 4
 859 03ce 7B68     		ldr	r3, [r7, #4]
 860 03d0 9B6B     		ldr	r3, [r3, #56]
 861 03d2 1B69     		ldr	r3, [r3, #16]
 862 03d4 0F2B     		cmp	r3, #15
 863 03d6 8CBF     		ite	hi
 864 03d8 0023     		movhi	r3, #0
 865 03da 0123     		movls	r3, #1
 866 03dc DBB2     		uxtb	r3, r3
 867 03de 1846     		mov	r0, r3
 868 03e0 FFF7FEFF 		bl	assert_param
 238:../libs/StdPeripheralDriver/src/stm32f10x_fsmc.c ****     assert_param(IS_FSMC_DATA_LATENCY(FSMC_NORSRAMInitStruct->FSMC_WriteTimingStruct->FSMC_DataLate
 869              		.loc 1 238 0 discriminator 4
 870 03e4 7B68     		ldr	r3, [r7, #4]
 871 03e6 9B6B     		ldr	r3, [r3, #56]
 872 03e8 5B69     		ldr	r3, [r3, #20]
 873 03ea 0F2B     		cmp	r3, #15
 874 03ec 8CBF     		ite	hi
 875 03ee 0023     		movhi	r3, #0
 876 03f0 0123     		movls	r3, #1
 877 03f2 DBB2     		uxtb	r3, r3
 878 03f4 1846     		mov	r0, r3
 879 03f6 FFF7FEFF 		bl	assert_param
 239:../libs/StdPeripheralDriver/src/stm32f10x_fsmc.c ****     assert_param(IS_FSMC_ACCESS_MODE(FSMC_NORSRAMInitStruct->FSMC_WriteTimingStruct->FSMC_AccessMod
 880              		.loc 1 239 0 discriminator 4
 881 03fa 7B68     		ldr	r3, [r7, #4]
 882 03fc 9B6B     		ldr	r3, [r3, #56]
 883 03fe 9B69     		ldr	r3, [r3, #24]
 884 0400 002B     		cmp	r3, #0
 885 0402 11D0     		beq	.L69
 886              		.loc 1 239 0 is_stmt 0 discriminator 2
 887 0404 7B68     		ldr	r3, [r7, #4]
 888 0406 9B6B     		ldr	r3, [r3, #56]
 889 0408 9B69     		ldr	r3, [r3, #24]
 890 040a B3F1805F 		cmp	r3, #268435456
 891 040e 0BD0     		beq	.L69
 892              		.loc 1 239 0 discriminator 1
 893 0410 7B68     		ldr	r3, [r7, #4]
 894 0412 9B6B     		ldr	r3, [r3, #56]
 895 0414 9B69     		ldr	r3, [r3, #24]
 896 0416 B3F1005F 		cmp	r3, #536870912
 897 041a 05D0     		beq	.L69
 898              		.loc 1 239 0 discriminator 2
 899 041c 7B68     		ldr	r3, [r7, #4]
 900 041e 9B6B     		ldr	r3, [r3, #56]
 901 0420 9B69     		ldr	r3, [r3, #24]
 902 0422 B3F1405F 		cmp	r3, #805306368
 903 0426 02D1     		bne	.L70
 904              	.L69:
 905              		.loc 1 239 0 discriminator 1
 906 0428 4FF00103 		mov	r3, #1
 907 042c 01E0     		b	.L71
 908              	.L70:
 909              		.loc 1 239 0 discriminator 3
 910 042e 4FF00003 		mov	r3, #0
 911              	.L71:
 912              		.loc 1 239 0 discriminator 4
 913 0432 1846     		mov	r0, r3
 914 0434 FFF7FEFF 		bl	assert_param
 240:../libs/StdPeripheralDriver/src/stm32f10x_fsmc.c ****     FSMC_Bank1E->BWTR[FSMC_NORSRAMInitStruct->FSMC_Bank] = 
 915              		.loc 1 240 0 is_stmt 1 discriminator 4
 916 0438 174B     		ldr	r3, .L73
 917 043a 7A68     		ldr	r2, [r7, #4]
 918 043c 1268     		ldr	r2, [r2, #0]
 241:../libs/StdPeripheralDriver/src/stm32f10x_fsmc.c ****               (uint32_t)FSMC_NORSRAMInitStruct->FSMC_WriteTimingStruct->FSMC_AddressSetupTime |
 919              		.loc 1 241 0 discriminator 4
 920 043e 7968     		ldr	r1, [r7, #4]
 921 0440 896B     		ldr	r1, [r1, #56]
 922 0442 0868     		ldr	r0, [r1, #0]
 242:../libs/StdPeripheralDriver/src/stm32f10x_fsmc.c ****               (FSMC_NORSRAMInitStruct->FSMC_WriteTimingStruct->FSMC_AddressHoldTime << 4 )|
 923              		.loc 1 242 0 discriminator 4
 924 0444 7968     		ldr	r1, [r7, #4]
 925 0446 896B     		ldr	r1, [r1, #56]
 926 0448 4968     		ldr	r1, [r1, #4]
 927 044a 4FEA0111 		lsl	r1, r1, #4
 241:../libs/StdPeripheralDriver/src/stm32f10x_fsmc.c ****               (uint32_t)FSMC_NORSRAMInitStruct->FSMC_WriteTimingStruct->FSMC_AddressSetupTime |
 928              		.loc 1 241 0 discriminator 4
 929 044e 0843     		orrs	r0, r0, r1
 243:../libs/StdPeripheralDriver/src/stm32f10x_fsmc.c ****               (FSMC_NORSRAMInitStruct->FSMC_WriteTimingStruct->FSMC_DataSetupTime << 8) |
 930              		.loc 1 243 0 discriminator 4
 931 0450 7968     		ldr	r1, [r7, #4]
 932 0452 896B     		ldr	r1, [r1, #56]
 933 0454 8968     		ldr	r1, [r1, #8]
 934 0456 4FEA0121 		lsl	r1, r1, #8
 242:../libs/StdPeripheralDriver/src/stm32f10x_fsmc.c ****               (FSMC_NORSRAMInitStruct->FSMC_WriteTimingStruct->FSMC_AddressHoldTime << 4 )|
 935              		.loc 1 242 0 discriminator 4
 936 045a 0843     		orrs	r0, r0, r1
 244:../libs/StdPeripheralDriver/src/stm32f10x_fsmc.c ****               (FSMC_NORSRAMInitStruct->FSMC_WriteTimingStruct->FSMC_CLKDivision << 20) |
 937              		.loc 1 244 0 discriminator 4
 938 045c 7968     		ldr	r1, [r7, #4]
 939 045e 896B     		ldr	r1, [r1, #56]
 940 0460 0969     		ldr	r1, [r1, #16]
 941 0462 4FEA0151 		lsl	r1, r1, #20
 243:../libs/StdPeripheralDriver/src/stm32f10x_fsmc.c ****               (FSMC_NORSRAMInitStruct->FSMC_WriteTimingStruct->FSMC_DataSetupTime << 8) |
 942              		.loc 1 243 0 discriminator 4
 943 0466 0843     		orrs	r0, r0, r1
 245:../libs/StdPeripheralDriver/src/stm32f10x_fsmc.c ****               (FSMC_NORSRAMInitStruct->FSMC_WriteTimingStruct->FSMC_DataLatency << 24) |
 944              		.loc 1 245 0 discriminator 4
 945 0468 7968     		ldr	r1, [r7, #4]
 946 046a 896B     		ldr	r1, [r1, #56]
 947 046c 4969     		ldr	r1, [r1, #20]
 948 046e 4FEA0161 		lsl	r1, r1, #24
 244:../libs/StdPeripheralDriver/src/stm32f10x_fsmc.c ****               (FSMC_NORSRAMInitStruct->FSMC_WriteTimingStruct->FSMC_CLKDivision << 20) |
 949              		.loc 1 244 0 discriminator 4
 950 0472 0843     		orrs	r0, r0, r1
 246:../libs/StdPeripheralDriver/src/stm32f10x_fsmc.c ****                FSMC_NORSRAMInitStruct->FSMC_WriteTimingStruct->FSMC_AccessMode;
 951              		.loc 1 246 0 discriminator 4
 952 0474 7968     		ldr	r1, [r7, #4]
 953 0476 896B     		ldr	r1, [r1, #56]
 954 0478 8969     		ldr	r1, [r1, #24]
 245:../libs/StdPeripheralDriver/src/stm32f10x_fsmc.c ****               (FSMC_NORSRAMInitStruct->FSMC_WriteTimingStruct->FSMC_DataLatency << 24) |
 955              		.loc 1 245 0 discriminator 4
 956 047a 0143     		orrs	r1, r1, r0
 240:../libs/StdPeripheralDriver/src/stm32f10x_fsmc.c ****     FSMC_Bank1E->BWTR[FSMC_NORSRAMInitStruct->FSMC_Bank] = 
 957              		.loc 1 240 0 discriminator 4
 958 047c 43F82210 		str	r1, [r3, r2, lsl #2]
 959 0480 06E0     		b	.L20
 960              	.L66:
 247:../libs/StdPeripheralDriver/src/stm32f10x_fsmc.c ****   }
 248:../libs/StdPeripheralDriver/src/stm32f10x_fsmc.c ****   else
 249:../libs/StdPeripheralDriver/src/stm32f10x_fsmc.c ****   {
 250:../libs/StdPeripheralDriver/src/stm32f10x_fsmc.c ****     FSMC_Bank1E->BWTR[FSMC_NORSRAMInitStruct->FSMC_Bank] = 0x0FFFFFFF;
 961              		.loc 1 250 0
 962 0482 054B     		ldr	r3, .L73
 963 0484 7A68     		ldr	r2, [r7, #4]
 964 0486 1268     		ldr	r2, [r2, #0]
 965 0488 6FF07041 		mvn	r1, #-268435456
 966 048c 43F82210 		str	r1, [r3, r2, lsl #2]
 967              	.L20:
 251:../libs/StdPeripheralDriver/src/stm32f10x_fsmc.c ****   }
 252:../libs/StdPeripheralDriver/src/stm32f10x_fsmc.c **** }
 968              		.loc 1 252 0
 969 0490 07F10807 		add	r7, r7, #8
 970 0494 BD46     		mov	sp, r7
 971 0496 80BD     		pop	{r7, pc}
 972              	.L74:
 973              		.align	2
 974              	.L73:
 975 0498 040100A0 		.word	-1610612476
 976              		.cfi_endproc
 977              	.LFE32:
 979              		.section	.text.FSMC_NANDInit,"ax",%progbits
 980              		.align	2
 981              		.global	FSMC_NANDInit
 982              		.thumb
 983              		.thumb_func
 985              	FSMC_NANDInit:
 986              	.LFB33:
 253:../libs/StdPeripheralDriver/src/stm32f10x_fsmc.c **** 
 254:../libs/StdPeripheralDriver/src/stm32f10x_fsmc.c **** /**
 255:../libs/StdPeripheralDriver/src/stm32f10x_fsmc.c ****   * @brief  Initializes the FSMC NAND Banks according to the specified 
 256:../libs/StdPeripheralDriver/src/stm32f10x_fsmc.c ****   *         parameters in the FSMC_NANDInitStruct.
 257:../libs/StdPeripheralDriver/src/stm32f10x_fsmc.c ****   * @param  FSMC_NANDInitStruct : pointer to a FSMC_NANDInitTypeDef 
 258:../libs/StdPeripheralDriver/src/stm32f10x_fsmc.c ****   *         structure that contains the configuration information for the FSMC 
 259:../libs/StdPeripheralDriver/src/stm32f10x_fsmc.c ****   *         NAND specified Banks.                       
 260:../libs/StdPeripheralDriver/src/stm32f10x_fsmc.c ****   * @retval None
 261:../libs/StdPeripheralDriver/src/stm32f10x_fsmc.c ****   */
 262:../libs/StdPeripheralDriver/src/stm32f10x_fsmc.c **** void FSMC_NANDInit(FSMC_NANDInitTypeDef* FSMC_NANDInitStruct)
 263:../libs/StdPeripheralDriver/src/stm32f10x_fsmc.c **** {
 987              		.loc 1 263 0
 988              		.cfi_startproc
 989              		@ args = 0, pretend = 0, frame = 24
 990              		@ frame_needed = 1, uses_anonymous_args = 0
 991 0000 80B5     		push	{r7, lr}
 992              	.LCFI11:
 993              		.cfi_def_cfa_offset 8
 994              		.cfi_offset 7, -8
 995              		.cfi_offset 14, -4
 996 0002 86B0     		sub	sp, sp, #24
 997              	.LCFI12:
 998              		.cfi_def_cfa_offset 32
 999 0004 00AF     		add	r7, sp, #0
 1000              	.LCFI13:
 1001              		.cfi_def_cfa_register 7
 1002 0006 7860     		str	r0, [r7, #4]
 264:../libs/StdPeripheralDriver/src/stm32f10x_fsmc.c ****   uint32_t tmppcr = 0x00000000, tmppmem = 0x00000000, tmppatt = 0x00000000; 
 1003              		.loc 1 264 0
 1004 0008 4FF00003 		mov	r3, #0
 1005 000c 7B61     		str	r3, [r7, #20]
 1006 000e 4FF00003 		mov	r3, #0
 1007 0012 3B61     		str	r3, [r7, #16]
 1008 0014 4FF00003 		mov	r3, #0
 1009 0018 FB60     		str	r3, [r7, #12]
 265:../libs/StdPeripheralDriver/src/stm32f10x_fsmc.c ****     
 266:../libs/StdPeripheralDriver/src/stm32f10x_fsmc.c ****   /* Check the parameters */
 267:../libs/StdPeripheralDriver/src/stm32f10x_fsmc.c ****   assert_param( IS_FSMC_NAND_BANK(FSMC_NANDInitStruct->FSMC_Bank));
 1010              		.loc 1 267 0
 1011 001a 7B68     		ldr	r3, [r7, #4]
 1012 001c 1B68     		ldr	r3, [r3, #0]
 1013 001e 102B     		cmp	r3, #16
 1014 0020 04D0     		beq	.L76
 1015              		.loc 1 267 0 is_stmt 0 discriminator 2
 1016 0022 7B68     		ldr	r3, [r7, #4]
 1017 0024 1B68     		ldr	r3, [r3, #0]
 1018 0026 B3F5807F 		cmp	r3, #256
 1019 002a 02D1     		bne	.L77
 1020              	.L76:
 1021              		.loc 1 267 0 discriminator 1
 1022 002c 4FF00103 		mov	r3, #1
 1023 0030 01E0     		b	.L78
 1024              	.L77:
 1025              		.loc 1 267 0 discriminator 3
 1026 0032 4FF00003 		mov	r3, #0
 1027              	.L78:
 1028              		.loc 1 267 0 discriminator 4
 1029 0036 1846     		mov	r0, r3
 1030 0038 FFF7FEFF 		bl	assert_param
 268:../libs/StdPeripheralDriver/src/stm32f10x_fsmc.c ****   assert_param( IS_FSMC_WAIT_FEATURE(FSMC_NANDInitStruct->FSMC_Waitfeature));
 1031              		.loc 1 268 0 is_stmt 1 discriminator 4
 1032 003c 7B68     		ldr	r3, [r7, #4]
 1033 003e 5B68     		ldr	r3, [r3, #4]
 1034 0040 002B     		cmp	r3, #0
 1035 0042 03D0     		beq	.L79
 1036              		.loc 1 268 0 is_stmt 0 discriminator 2
 1037 0044 7B68     		ldr	r3, [r7, #4]
 1038 0046 5B68     		ldr	r3, [r3, #4]
 1039 0048 022B     		cmp	r3, #2
 1040 004a 02D1     		bne	.L80
 1041              	.L79:
 1042              		.loc 1 268 0 discriminator 1
 1043 004c 4FF00103 		mov	r3, #1
 1044 0050 01E0     		b	.L81
 1045              	.L80:
 1046              		.loc 1 268 0 discriminator 3
 1047 0052 4FF00003 		mov	r3, #0
 1048              	.L81:
 1049              		.loc 1 268 0 discriminator 4
 1050 0056 1846     		mov	r0, r3
 1051 0058 FFF7FEFF 		bl	assert_param
 269:../libs/StdPeripheralDriver/src/stm32f10x_fsmc.c ****   assert_param( IS_FSMC_MEMORY_WIDTH(FSMC_NANDInitStruct->FSMC_MemoryDataWidth));
 1052              		.loc 1 269 0 is_stmt 1 discriminator 4
 1053 005c 7B68     		ldr	r3, [r7, #4]
 1054 005e 9B68     		ldr	r3, [r3, #8]
 1055 0060 002B     		cmp	r3, #0
 1056 0062 03D0     		beq	.L82
 1057              		.loc 1 269 0 is_stmt 0 discriminator 2
 1058 0064 7B68     		ldr	r3, [r7, #4]
 1059 0066 9B68     		ldr	r3, [r3, #8]
 1060 0068 102B     		cmp	r3, #16
 1061 006a 02D1     		bne	.L83
 1062              	.L82:
 1063              		.loc 1 269 0 discriminator 1
 1064 006c 4FF00103 		mov	r3, #1
 1065 0070 01E0     		b	.L84
 1066              	.L83:
 1067              		.loc 1 269 0 discriminator 3
 1068 0072 4FF00003 		mov	r3, #0
 1069              	.L84:
 1070              		.loc 1 269 0 discriminator 4
 1071 0076 1846     		mov	r0, r3
 1072 0078 FFF7FEFF 		bl	assert_param
 270:../libs/StdPeripheralDriver/src/stm32f10x_fsmc.c ****   assert_param( IS_FSMC_ECC_STATE(FSMC_NANDInitStruct->FSMC_ECC));
 1073              		.loc 1 270 0 is_stmt 1 discriminator 4
 1074 007c 7B68     		ldr	r3, [r7, #4]
 1075 007e DB68     		ldr	r3, [r3, #12]
 1076 0080 002B     		cmp	r3, #0
 1077 0082 03D0     		beq	.L85
 1078              		.loc 1 270 0 is_stmt 0 discriminator 2
 1079 0084 7B68     		ldr	r3, [r7, #4]
 1080 0086 DB68     		ldr	r3, [r3, #12]
 1081 0088 402B     		cmp	r3, #64
 1082 008a 02D1     		bne	.L86
 1083              	.L85:
 1084              		.loc 1 270 0 discriminator 1
 1085 008c 4FF00103 		mov	r3, #1
 1086 0090 01E0     		b	.L87
 1087              	.L86:
 1088              		.loc 1 270 0 discriminator 3
 1089 0092 4FF00003 		mov	r3, #0
 1090              	.L87:
 1091              		.loc 1 270 0 discriminator 4
 1092 0096 1846     		mov	r0, r3
 1093 0098 FFF7FEFF 		bl	assert_param
 271:../libs/StdPeripheralDriver/src/stm32f10x_fsmc.c ****   assert_param( IS_FSMC_ECCPAGE_SIZE(FSMC_NANDInitStruct->FSMC_ECCPageSize));
 1094              		.loc 1 271 0 is_stmt 1 discriminator 4
 1095 009c 7B68     		ldr	r3, [r7, #4]
 1096 009e 1B69     		ldr	r3, [r3, #16]
 1097 00a0 002B     		cmp	r3, #0
 1098 00a2 18D0     		beq	.L88
 1099              		.loc 1 271 0 is_stmt 0 discriminator 2
 1100 00a4 7B68     		ldr	r3, [r7, #4]
 1101 00a6 1B69     		ldr	r3, [r3, #16]
 1102 00a8 B3F5003F 		cmp	r3, #131072
 1103 00ac 13D0     		beq	.L88
 1104              		.loc 1 271 0 discriminator 1
 1105 00ae 7B68     		ldr	r3, [r7, #4]
 1106 00b0 1B69     		ldr	r3, [r3, #16]
 1107 00b2 B3F5802F 		cmp	r3, #262144
 1108 00b6 0ED0     		beq	.L88
 1109              		.loc 1 271 0 discriminator 2
 1110 00b8 7B68     		ldr	r3, [r7, #4]
 1111 00ba 1B69     		ldr	r3, [r3, #16]
 1112 00bc B3F5C02F 		cmp	r3, #393216
 1113 00c0 09D0     		beq	.L88
 1114              		.loc 1 271 0 discriminator 3
 1115 00c2 7B68     		ldr	r3, [r7, #4]
 1116 00c4 1B69     		ldr	r3, [r3, #16]
 1117 00c6 B3F5002F 		cmp	r3, #524288
 1118 00ca 04D0     		beq	.L88
 1119              		.loc 1 271 0 discriminator 4
 1120 00cc 7B68     		ldr	r3, [r7, #4]
 1121 00ce 1B69     		ldr	r3, [r3, #16]
 1122 00d0 B3F5202F 		cmp	r3, #655360
 1123 00d4 02D1     		bne	.L89
 1124              	.L88:
 1125              		.loc 1 271 0 discriminator 1
 1126 00d6 4FF00103 		mov	r3, #1
 1127 00da 01E0     		b	.L90
 1128              	.L89:
 1129              		.loc 1 271 0 discriminator 3
 1130 00dc 4FF00003 		mov	r3, #0
 1131              	.L90:
 1132              		.loc 1 271 0 discriminator 4
 1133 00e0 1846     		mov	r0, r3
 1134 00e2 FFF7FEFF 		bl	assert_param
 272:../libs/StdPeripheralDriver/src/stm32f10x_fsmc.c ****   assert_param( IS_FSMC_TCLR_TIME(FSMC_NANDInitStruct->FSMC_TCLRSetupTime));
 1135              		.loc 1 272 0 is_stmt 1 discriminator 4
 1136 00e6 7B68     		ldr	r3, [r7, #4]
 1137 00e8 5B69     		ldr	r3, [r3, #20]
 1138 00ea FF2B     		cmp	r3, #255
 1139 00ec 8CBF     		ite	hi
 1140 00ee 0023     		movhi	r3, #0
 1141 00f0 0123     		movls	r3, #1
 1142 00f2 DBB2     		uxtb	r3, r3
 1143 00f4 1846     		mov	r0, r3
 1144 00f6 FFF7FEFF 		bl	assert_param
 273:../libs/StdPeripheralDriver/src/stm32f10x_fsmc.c ****   assert_param( IS_FSMC_TAR_TIME(FSMC_NANDInitStruct->FSMC_TARSetupTime));
 1145              		.loc 1 273 0 discriminator 4
 1146 00fa 7B68     		ldr	r3, [r7, #4]
 1147 00fc 9B69     		ldr	r3, [r3, #24]
 1148 00fe FF2B     		cmp	r3, #255
 1149 0100 8CBF     		ite	hi
 1150 0102 0023     		movhi	r3, #0
 1151 0104 0123     		movls	r3, #1
 1152 0106 DBB2     		uxtb	r3, r3
 1153 0108 1846     		mov	r0, r3
 1154 010a FFF7FEFF 		bl	assert_param
 274:../libs/StdPeripheralDriver/src/stm32f10x_fsmc.c ****   assert_param(IS_FSMC_SETUP_TIME(FSMC_NANDInitStruct->FSMC_CommonSpaceTimingStruct->FSMC_SetupTime
 1155              		.loc 1 274 0 discriminator 4
 1156 010e 7B68     		ldr	r3, [r7, #4]
 1157 0110 DB69     		ldr	r3, [r3, #28]
 1158 0112 1B68     		ldr	r3, [r3, #0]
 1159 0114 FF2B     		cmp	r3, #255
 1160 0116 8CBF     		ite	hi
 1161 0118 0023     		movhi	r3, #0
 1162 011a 0123     		movls	r3, #1
 1163 011c DBB2     		uxtb	r3, r3
 1164 011e 1846     		mov	r0, r3
 1165 0120 FFF7FEFF 		bl	assert_param
 275:../libs/StdPeripheralDriver/src/stm32f10x_fsmc.c ****   assert_param(IS_FSMC_WAIT_TIME(FSMC_NANDInitStruct->FSMC_CommonSpaceTimingStruct->FSMC_WaitSetupT
 1166              		.loc 1 275 0 discriminator 4
 1167 0124 7B68     		ldr	r3, [r7, #4]
 1168 0126 DB69     		ldr	r3, [r3, #28]
 1169 0128 5B68     		ldr	r3, [r3, #4]
 1170 012a FF2B     		cmp	r3, #255
 1171 012c 8CBF     		ite	hi
 1172 012e 0023     		movhi	r3, #0
 1173 0130 0123     		movls	r3, #1
 1174 0132 DBB2     		uxtb	r3, r3
 1175 0134 1846     		mov	r0, r3
 1176 0136 FFF7FEFF 		bl	assert_param
 276:../libs/StdPeripheralDriver/src/stm32f10x_fsmc.c ****   assert_param(IS_FSMC_HOLD_TIME(FSMC_NANDInitStruct->FSMC_CommonSpaceTimingStruct->FSMC_HoldSetupT
 1177              		.loc 1 276 0 discriminator 4
 1178 013a 7B68     		ldr	r3, [r7, #4]
 1179 013c DB69     		ldr	r3, [r3, #28]
 1180 013e 9B68     		ldr	r3, [r3, #8]
 1181 0140 FF2B     		cmp	r3, #255
 1182 0142 8CBF     		ite	hi
 1183 0144 0023     		movhi	r3, #0
 1184 0146 0123     		movls	r3, #1
 1185 0148 DBB2     		uxtb	r3, r3
 1186 014a 1846     		mov	r0, r3
 1187 014c FFF7FEFF 		bl	assert_param
 277:../libs/StdPeripheralDriver/src/stm32f10x_fsmc.c ****   assert_param(IS_FSMC_HIZ_TIME(FSMC_NANDInitStruct->FSMC_CommonSpaceTimingStruct->FSMC_HiZSetupTim
 1188              		.loc 1 277 0 discriminator 4
 1189 0150 7B68     		ldr	r3, [r7, #4]
 1190 0152 DB69     		ldr	r3, [r3, #28]
 1191 0154 DB68     		ldr	r3, [r3, #12]
 1192 0156 FF2B     		cmp	r3, #255
 1193 0158 8CBF     		ite	hi
 1194 015a 0023     		movhi	r3, #0
 1195 015c 0123     		movls	r3, #1
 1196 015e DBB2     		uxtb	r3, r3
 1197 0160 1846     		mov	r0, r3
 1198 0162 FFF7FEFF 		bl	assert_param
 278:../libs/StdPeripheralDriver/src/stm32f10x_fsmc.c ****   assert_param(IS_FSMC_SETUP_TIME(FSMC_NANDInitStruct->FSMC_AttributeSpaceTimingStruct->FSMC_SetupT
 1199              		.loc 1 278 0 discriminator 4
 1200 0166 7B68     		ldr	r3, [r7, #4]
 1201 0168 1B6A     		ldr	r3, [r3, #32]
 1202 016a 1B68     		ldr	r3, [r3, #0]
 1203 016c FF2B     		cmp	r3, #255
 1204 016e 8CBF     		ite	hi
 1205 0170 0023     		movhi	r3, #0
 1206 0172 0123     		movls	r3, #1
 1207 0174 DBB2     		uxtb	r3, r3
 1208 0176 1846     		mov	r0, r3
 1209 0178 FFF7FEFF 		bl	assert_param
 279:../libs/StdPeripheralDriver/src/stm32f10x_fsmc.c ****   assert_param(IS_FSMC_WAIT_TIME(FSMC_NANDInitStruct->FSMC_AttributeSpaceTimingStruct->FSMC_WaitSet
 1210              		.loc 1 279 0 discriminator 4
 1211 017c 7B68     		ldr	r3, [r7, #4]
 1212 017e 1B6A     		ldr	r3, [r3, #32]
 1213 0180 5B68     		ldr	r3, [r3, #4]
 1214 0182 FF2B     		cmp	r3, #255
 1215 0184 8CBF     		ite	hi
 1216 0186 0023     		movhi	r3, #0
 1217 0188 0123     		movls	r3, #1
 1218 018a DBB2     		uxtb	r3, r3
 1219 018c 1846     		mov	r0, r3
 1220 018e FFF7FEFF 		bl	assert_param
 280:../libs/StdPeripheralDriver/src/stm32f10x_fsmc.c ****   assert_param(IS_FSMC_HOLD_TIME(FSMC_NANDInitStruct->FSMC_AttributeSpaceTimingStruct->FSMC_HoldSet
 1221              		.loc 1 280 0 discriminator 4
 1222 0192 7B68     		ldr	r3, [r7, #4]
 1223 0194 1B6A     		ldr	r3, [r3, #32]
 1224 0196 9B68     		ldr	r3, [r3, #8]
 1225 0198 FF2B     		cmp	r3, #255
 1226 019a 8CBF     		ite	hi
 1227 019c 0023     		movhi	r3, #0
 1228 019e 0123     		movls	r3, #1
 1229 01a0 DBB2     		uxtb	r3, r3
 1230 01a2 1846     		mov	r0, r3
 1231 01a4 FFF7FEFF 		bl	assert_param
 281:../libs/StdPeripheralDriver/src/stm32f10x_fsmc.c ****   assert_param(IS_FSMC_HIZ_TIME(FSMC_NANDInitStruct->FSMC_AttributeSpaceTimingStruct->FSMC_HiZSetup
 1232              		.loc 1 281 0 discriminator 4
 1233 01a8 7B68     		ldr	r3, [r7, #4]
 1234 01aa 1B6A     		ldr	r3, [r3, #32]
 1235 01ac DB68     		ldr	r3, [r3, #12]
 1236 01ae FF2B     		cmp	r3, #255
 1237 01b0 8CBF     		ite	hi
 1238 01b2 0023     		movhi	r3, #0
 1239 01b4 0123     		movls	r3, #1
 1240 01b6 DBB2     		uxtb	r3, r3
 1241 01b8 1846     		mov	r0, r3
 1242 01ba FFF7FEFF 		bl	assert_param
 282:../libs/StdPeripheralDriver/src/stm32f10x_fsmc.c ****   
 283:../libs/StdPeripheralDriver/src/stm32f10x_fsmc.c ****   /* Set the tmppcr value according to FSMC_NANDInitStruct parameters */
 284:../libs/StdPeripheralDriver/src/stm32f10x_fsmc.c ****   tmppcr = (uint32_t)FSMC_NANDInitStruct->FSMC_Waitfeature |
 1243              		.loc 1 284 0 discriminator 4
 1244 01be 7B68     		ldr	r3, [r7, #4]
 1245 01c0 5A68     		ldr	r2, [r3, #4]
 285:../libs/StdPeripheralDriver/src/stm32f10x_fsmc.c ****             PCR_MemoryType_NAND |
 286:../libs/StdPeripheralDriver/src/stm32f10x_fsmc.c ****             FSMC_NANDInitStruct->FSMC_MemoryDataWidth |
 1246              		.loc 1 286 0 discriminator 4
 1247 01c2 7B68     		ldr	r3, [r7, #4]
 1248 01c4 9B68     		ldr	r3, [r3, #8]
 285:../libs/StdPeripheralDriver/src/stm32f10x_fsmc.c ****             PCR_MemoryType_NAND |
 1249              		.loc 1 285 0 discriminator 4
 1250 01c6 1A43     		orrs	r2, r2, r3
 287:../libs/StdPeripheralDriver/src/stm32f10x_fsmc.c ****             FSMC_NANDInitStruct->FSMC_ECC |
 1251              		.loc 1 287 0 discriminator 4
 1252 01c8 7B68     		ldr	r3, [r7, #4]
 1253 01ca DB68     		ldr	r3, [r3, #12]
 286:../libs/StdPeripheralDriver/src/stm32f10x_fsmc.c ****             FSMC_NANDInitStruct->FSMC_MemoryDataWidth |
 1254              		.loc 1 286 0 discriminator 4
 1255 01cc 1A43     		orrs	r2, r2, r3
 288:../libs/StdPeripheralDriver/src/stm32f10x_fsmc.c ****             FSMC_NANDInitStruct->FSMC_ECCPageSize |
 1256              		.loc 1 288 0 discriminator 4
 1257 01ce 7B68     		ldr	r3, [r7, #4]
 1258 01d0 1B69     		ldr	r3, [r3, #16]
 287:../libs/StdPeripheralDriver/src/stm32f10x_fsmc.c ****             FSMC_NANDInitStruct->FSMC_ECC |
 1259              		.loc 1 287 0 discriminator 4
 1260 01d2 1A43     		orrs	r2, r2, r3
 289:../libs/StdPeripheralDriver/src/stm32f10x_fsmc.c ****             (FSMC_NANDInitStruct->FSMC_TCLRSetupTime << 9 )|
 1261              		.loc 1 289 0 discriminator 4
 1262 01d4 7B68     		ldr	r3, [r7, #4]
 1263 01d6 5B69     		ldr	r3, [r3, #20]
 1264 01d8 4FEA4323 		lsl	r3, r3, #9
 288:../libs/StdPeripheralDriver/src/stm32f10x_fsmc.c ****             FSMC_NANDInitStruct->FSMC_ECCPageSize |
 1265              		.loc 1 288 0 discriminator 4
 1266 01dc 1A43     		orrs	r2, r2, r3
 290:../libs/StdPeripheralDriver/src/stm32f10x_fsmc.c ****             (FSMC_NANDInitStruct->FSMC_TARSetupTime << 13);
 1267              		.loc 1 290 0 discriminator 4
 1268 01de 7B68     		ldr	r3, [r7, #4]
 1269 01e0 9B69     		ldr	r3, [r3, #24]
 1270 01e2 4FEA4333 		lsl	r3, r3, #13
 289:../libs/StdPeripheralDriver/src/stm32f10x_fsmc.c ****             (FSMC_NANDInitStruct->FSMC_TCLRSetupTime << 9 )|
 1271              		.loc 1 289 0 discriminator 4
 1272 01e6 1343     		orrs	r3, r3, r2
 284:../libs/StdPeripheralDriver/src/stm32f10x_fsmc.c ****   tmppcr = (uint32_t)FSMC_NANDInitStruct->FSMC_Waitfeature |
 1273              		.loc 1 284 0 discriminator 4
 1274 01e8 43F00803 		orr	r3, r3, #8
 1275 01ec 7B61     		str	r3, [r7, #20]
 291:../libs/StdPeripheralDriver/src/stm32f10x_fsmc.c ****             
 292:../libs/StdPeripheralDriver/src/stm32f10x_fsmc.c ****   /* Set tmppmem value according to FSMC_CommonSpaceTimingStructure parameters */
 293:../libs/StdPeripheralDriver/src/stm32f10x_fsmc.c ****   tmppmem = (uint32_t)FSMC_NANDInitStruct->FSMC_CommonSpaceTimingStruct->FSMC_SetupTime |
 1276              		.loc 1 293 0 discriminator 4
 1277 01ee 7B68     		ldr	r3, [r7, #4]
 1278 01f0 DB69     		ldr	r3, [r3, #28]
 1279 01f2 1A68     		ldr	r2, [r3, #0]
 294:../libs/StdPeripheralDriver/src/stm32f10x_fsmc.c ****             (FSMC_NANDInitStruct->FSMC_CommonSpaceTimingStruct->FSMC_WaitSetupTime << 8) |
 1280              		.loc 1 294 0 discriminator 4
 1281 01f4 7B68     		ldr	r3, [r7, #4]
 1282 01f6 DB69     		ldr	r3, [r3, #28]
 1283 01f8 5B68     		ldr	r3, [r3, #4]
 1284 01fa 4FEA0323 		lsl	r3, r3, #8
 293:../libs/StdPeripheralDriver/src/stm32f10x_fsmc.c ****   tmppmem = (uint32_t)FSMC_NANDInitStruct->FSMC_CommonSpaceTimingStruct->FSMC_SetupTime |
 1285              		.loc 1 293 0 discriminator 4
 1286 01fe 1A43     		orrs	r2, r2, r3
 295:../libs/StdPeripheralDriver/src/stm32f10x_fsmc.c ****             (FSMC_NANDInitStruct->FSMC_CommonSpaceTimingStruct->FSMC_HoldSetupTime << 16)|
 1287              		.loc 1 295 0 discriminator 4
 1288 0200 7B68     		ldr	r3, [r7, #4]
 1289 0202 DB69     		ldr	r3, [r3, #28]
 1290 0204 9B68     		ldr	r3, [r3, #8]
 1291 0206 4FEA0343 		lsl	r3, r3, #16
 294:../libs/StdPeripheralDriver/src/stm32f10x_fsmc.c ****             (FSMC_NANDInitStruct->FSMC_CommonSpaceTimingStruct->FSMC_WaitSetupTime << 8) |
 1292              		.loc 1 294 0 discriminator 4
 1293 020a 1A43     		orrs	r2, r2, r3
 296:../libs/StdPeripheralDriver/src/stm32f10x_fsmc.c ****             (FSMC_NANDInitStruct->FSMC_CommonSpaceTimingStruct->FSMC_HiZSetupTime << 24); 
 1294              		.loc 1 296 0 discriminator 4
 1295 020c 7B68     		ldr	r3, [r7, #4]
 1296 020e DB69     		ldr	r3, [r3, #28]
 1297 0210 DB68     		ldr	r3, [r3, #12]
 1298 0212 4FEA0363 		lsl	r3, r3, #24
 293:../libs/StdPeripheralDriver/src/stm32f10x_fsmc.c ****   tmppmem = (uint32_t)FSMC_NANDInitStruct->FSMC_CommonSpaceTimingStruct->FSMC_SetupTime |
 1299              		.loc 1 293 0 discriminator 4
 1300 0216 1343     		orrs	r3, r3, r2
 1301 0218 3B61     		str	r3, [r7, #16]
 297:../libs/StdPeripheralDriver/src/stm32f10x_fsmc.c ****             
 298:../libs/StdPeripheralDriver/src/stm32f10x_fsmc.c ****   /* Set tmppatt value according to FSMC_AttributeSpaceTimingStructure parameters */
 299:../libs/StdPeripheralDriver/src/stm32f10x_fsmc.c ****   tmppatt = (uint32_t)FSMC_NANDInitStruct->FSMC_AttributeSpaceTimingStruct->FSMC_SetupTime |
 1302              		.loc 1 299 0 discriminator 4
 1303 021a 7B68     		ldr	r3, [r7, #4]
 1304 021c 1B6A     		ldr	r3, [r3, #32]
 1305 021e 1A68     		ldr	r2, [r3, #0]
 300:../libs/StdPeripheralDriver/src/stm32f10x_fsmc.c ****             (FSMC_NANDInitStruct->FSMC_AttributeSpaceTimingStruct->FSMC_WaitSetupTime << 8) |
 1306              		.loc 1 300 0 discriminator 4
 1307 0220 7B68     		ldr	r3, [r7, #4]
 1308 0222 1B6A     		ldr	r3, [r3, #32]
 1309 0224 5B68     		ldr	r3, [r3, #4]
 1310 0226 4FEA0323 		lsl	r3, r3, #8
 299:../libs/StdPeripheralDriver/src/stm32f10x_fsmc.c ****   tmppatt = (uint32_t)FSMC_NANDInitStruct->FSMC_AttributeSpaceTimingStruct->FSMC_SetupTime |
 1311              		.loc 1 299 0 discriminator 4
 1312 022a 1A43     		orrs	r2, r2, r3
 301:../libs/StdPeripheralDriver/src/stm32f10x_fsmc.c ****             (FSMC_NANDInitStruct->FSMC_AttributeSpaceTimingStruct->FSMC_HoldSetupTime << 16)|
 1313              		.loc 1 301 0 discriminator 4
 1314 022c 7B68     		ldr	r3, [r7, #4]
 1315 022e 1B6A     		ldr	r3, [r3, #32]
 1316 0230 9B68     		ldr	r3, [r3, #8]
 1317 0232 4FEA0343 		lsl	r3, r3, #16
 300:../libs/StdPeripheralDriver/src/stm32f10x_fsmc.c ****             (FSMC_NANDInitStruct->FSMC_AttributeSpaceTimingStruct->FSMC_WaitSetupTime << 8) |
 1318              		.loc 1 300 0 discriminator 4
 1319 0236 1A43     		orrs	r2, r2, r3
 302:../libs/StdPeripheralDriver/src/stm32f10x_fsmc.c ****             (FSMC_NANDInitStruct->FSMC_AttributeSpaceTimingStruct->FSMC_HiZSetupTime << 24);
 1320              		.loc 1 302 0 discriminator 4
 1321 0238 7B68     		ldr	r3, [r7, #4]
 1322 023a 1B6A     		ldr	r3, [r3, #32]
 1323 023c DB68     		ldr	r3, [r3, #12]
 1324 023e 4FEA0363 		lsl	r3, r3, #24
 299:../libs/StdPeripheralDriver/src/stm32f10x_fsmc.c ****   tmppatt = (uint32_t)FSMC_NANDInitStruct->FSMC_AttributeSpaceTimingStruct->FSMC_SetupTime |
 1325              		.loc 1 299 0 discriminator 4
 1326 0242 1343     		orrs	r3, r3, r2
 1327 0244 FB60     		str	r3, [r7, #12]
 303:../libs/StdPeripheralDriver/src/stm32f10x_fsmc.c ****   
 304:../libs/StdPeripheralDriver/src/stm32f10x_fsmc.c ****   if(FSMC_NANDInitStruct->FSMC_Bank == FSMC_Bank2_NAND)
 1328              		.loc 1 304 0 discriminator 4
 1329 0246 7B68     		ldr	r3, [r7, #4]
 1330 0248 1B68     		ldr	r3, [r3, #0]
 1331 024a 102B     		cmp	r3, #16
 1332 024c 09D1     		bne	.L91
 305:../libs/StdPeripheralDriver/src/stm32f10x_fsmc.c ****   {
 306:../libs/StdPeripheralDriver/src/stm32f10x_fsmc.c ****     /* FSMC_Bank2_NAND registers configuration */
 307:../libs/StdPeripheralDriver/src/stm32f10x_fsmc.c ****     FSMC_Bank2->PCR2 = tmppcr;
 1333              		.loc 1 307 0
 1334 024e 0B4B     		ldr	r3, .L93
 1335 0250 7A69     		ldr	r2, [r7, #20]
 1336 0252 1A60     		str	r2, [r3, #0]
 308:../libs/StdPeripheralDriver/src/stm32f10x_fsmc.c ****     FSMC_Bank2->PMEM2 = tmppmem;
 1337              		.loc 1 308 0
 1338 0254 094B     		ldr	r3, .L93
 1339 0256 3A69     		ldr	r2, [r7, #16]
 1340 0258 9A60     		str	r2, [r3, #8]
 309:../libs/StdPeripheralDriver/src/stm32f10x_fsmc.c ****     FSMC_Bank2->PATT2 = tmppatt;
 1341              		.loc 1 309 0
 1342 025a 084B     		ldr	r3, .L93
 1343 025c FA68     		ldr	r2, [r7, #12]
 1344 025e DA60     		str	r2, [r3, #12]
 1345 0260 08E0     		b	.L75
 1346              	.L91:
 310:../libs/StdPeripheralDriver/src/stm32f10x_fsmc.c ****   }
 311:../libs/StdPeripheralDriver/src/stm32f10x_fsmc.c ****   else
 312:../libs/StdPeripheralDriver/src/stm32f10x_fsmc.c ****   {
 313:../libs/StdPeripheralDriver/src/stm32f10x_fsmc.c ****     /* FSMC_Bank3_NAND registers configuration */
 314:../libs/StdPeripheralDriver/src/stm32f10x_fsmc.c ****     FSMC_Bank3->PCR3 = tmppcr;
 1347              		.loc 1 314 0
 1348 0262 074B     		ldr	r3, .L93+4
 1349 0264 7A69     		ldr	r2, [r7, #20]
 1350 0266 1A60     		str	r2, [r3, #0]
 315:../libs/StdPeripheralDriver/src/stm32f10x_fsmc.c ****     FSMC_Bank3->PMEM3 = tmppmem;
 1351              		.loc 1 315 0
 1352 0268 054B     		ldr	r3, .L93+4
 1353 026a 3A69     		ldr	r2, [r7, #16]
 1354 026c 9A60     		str	r2, [r3, #8]
 316:../libs/StdPeripheralDriver/src/stm32f10x_fsmc.c ****     FSMC_Bank3->PATT3 = tmppatt;
 1355              		.loc 1 316 0
 1356 026e 044B     		ldr	r3, .L93+4
 1357 0270 FA68     		ldr	r2, [r7, #12]
 1358 0272 DA60     		str	r2, [r3, #12]
 1359              	.L75:
 317:../libs/StdPeripheralDriver/src/stm32f10x_fsmc.c ****   }
 318:../libs/StdPeripheralDriver/src/stm32f10x_fsmc.c **** }
 1360              		.loc 1 318 0
 1361 0274 07F11807 		add	r7, r7, #24
 1362 0278 BD46     		mov	sp, r7
 1363 027a 80BD     		pop	{r7, pc}
 1364              	.L94:
 1365              		.align	2
 1366              	.L93:
 1367 027c 600000A0 		.word	-1610612640
 1368 0280 800000A0 		.word	-1610612608
 1369              		.cfi_endproc
 1370              	.LFE33:
 1372              		.section	.text.FSMC_PCCARDInit,"ax",%progbits
 1373              		.align	2
 1374              		.global	FSMC_PCCARDInit
 1375              		.thumb
 1376              		.thumb_func
 1378              	FSMC_PCCARDInit:
 1379              	.LFB34:
 319:../libs/StdPeripheralDriver/src/stm32f10x_fsmc.c **** 
 320:../libs/StdPeripheralDriver/src/stm32f10x_fsmc.c **** /**
 321:../libs/StdPeripheralDriver/src/stm32f10x_fsmc.c ****   * @brief  Initializes the FSMC PCCARD Bank according to the specified 
 322:../libs/StdPeripheralDriver/src/stm32f10x_fsmc.c ****   *         parameters in the FSMC_PCCARDInitStruct.
 323:../libs/StdPeripheralDriver/src/stm32f10x_fsmc.c ****   * @param  FSMC_PCCARDInitStruct : pointer to a FSMC_PCCARDInitTypeDef
 324:../libs/StdPeripheralDriver/src/stm32f10x_fsmc.c ****   *         structure that contains the configuration information for the FSMC 
 325:../libs/StdPeripheralDriver/src/stm32f10x_fsmc.c ****   *         PCCARD Bank.                       
 326:../libs/StdPeripheralDriver/src/stm32f10x_fsmc.c ****   * @retval None
 327:../libs/StdPeripheralDriver/src/stm32f10x_fsmc.c ****   */
 328:../libs/StdPeripheralDriver/src/stm32f10x_fsmc.c **** void FSMC_PCCARDInit(FSMC_PCCARDInitTypeDef* FSMC_PCCARDInitStruct)
 329:../libs/StdPeripheralDriver/src/stm32f10x_fsmc.c **** {
 1380              		.loc 1 329 0
 1381              		.cfi_startproc
 1382              		@ args = 0, pretend = 0, frame = 8
 1383              		@ frame_needed = 1, uses_anonymous_args = 0
 1384 0000 80B5     		push	{r7, lr}
 1385              	.LCFI14:
 1386              		.cfi_def_cfa_offset 8
 1387              		.cfi_offset 7, -8
 1388              		.cfi_offset 14, -4
 1389 0002 82B0     		sub	sp, sp, #8
 1390              	.LCFI15:
 1391              		.cfi_def_cfa_offset 16
 1392 0004 00AF     		add	r7, sp, #0
 1393              	.LCFI16:
 1394              		.cfi_def_cfa_register 7
 1395 0006 7860     		str	r0, [r7, #4]
 330:../libs/StdPeripheralDriver/src/stm32f10x_fsmc.c ****   /* Check the parameters */
 331:../libs/StdPeripheralDriver/src/stm32f10x_fsmc.c ****   assert_param(IS_FSMC_WAIT_FEATURE(FSMC_PCCARDInitStruct->FSMC_Waitfeature));
 1396              		.loc 1 331 0
 1397 0008 7B68     		ldr	r3, [r7, #4]
 1398 000a 1B68     		ldr	r3, [r3, #0]
 1399 000c 002B     		cmp	r3, #0
 1400 000e 03D0     		beq	.L96
 1401              		.loc 1 331 0 is_stmt 0 discriminator 2
 1402 0010 7B68     		ldr	r3, [r7, #4]
 1403 0012 1B68     		ldr	r3, [r3, #0]
 1404 0014 022B     		cmp	r3, #2
 1405 0016 02D1     		bne	.L97
 1406              	.L96:
 1407              		.loc 1 331 0 discriminator 1
 1408 0018 4FF00103 		mov	r3, #1
 1409 001c 01E0     		b	.L98
 1410              	.L97:
 1411              		.loc 1 331 0 discriminator 3
 1412 001e 4FF00003 		mov	r3, #0
 1413              	.L98:
 1414              		.loc 1 331 0 discriminator 4
 1415 0022 1846     		mov	r0, r3
 1416 0024 FFF7FEFF 		bl	assert_param
 332:../libs/StdPeripheralDriver/src/stm32f10x_fsmc.c ****   assert_param(IS_FSMC_TCLR_TIME(FSMC_PCCARDInitStruct->FSMC_TCLRSetupTime));
 1417              		.loc 1 332 0 is_stmt 1 discriminator 4
 1418 0028 7B68     		ldr	r3, [r7, #4]
 1419 002a 5B68     		ldr	r3, [r3, #4]
 1420 002c FF2B     		cmp	r3, #255
 1421 002e 8CBF     		ite	hi
 1422 0030 0023     		movhi	r3, #0
 1423 0032 0123     		movls	r3, #1
 1424 0034 DBB2     		uxtb	r3, r3
 1425 0036 1846     		mov	r0, r3
 1426 0038 FFF7FEFF 		bl	assert_param
 333:../libs/StdPeripheralDriver/src/stm32f10x_fsmc.c ****   assert_param(IS_FSMC_TAR_TIME(FSMC_PCCARDInitStruct->FSMC_TARSetupTime));
 1427              		.loc 1 333 0 discriminator 4
 1428 003c 7B68     		ldr	r3, [r7, #4]
 1429 003e 9B68     		ldr	r3, [r3, #8]
 1430 0040 FF2B     		cmp	r3, #255
 1431 0042 8CBF     		ite	hi
 1432 0044 0023     		movhi	r3, #0
 1433 0046 0123     		movls	r3, #1
 1434 0048 DBB2     		uxtb	r3, r3
 1435 004a 1846     		mov	r0, r3
 1436 004c FFF7FEFF 		bl	assert_param
 334:../libs/StdPeripheralDriver/src/stm32f10x_fsmc.c ****  
 335:../libs/StdPeripheralDriver/src/stm32f10x_fsmc.c ****   assert_param(IS_FSMC_SETUP_TIME(FSMC_PCCARDInitStruct->FSMC_CommonSpaceTimingStruct->FSMC_SetupTi
 1437              		.loc 1 335 0 discriminator 4
 1438 0050 7B68     		ldr	r3, [r7, #4]
 1439 0052 DB68     		ldr	r3, [r3, #12]
 1440 0054 1B68     		ldr	r3, [r3, #0]
 1441 0056 FF2B     		cmp	r3, #255
 1442 0058 8CBF     		ite	hi
 1443 005a 0023     		movhi	r3, #0
 1444 005c 0123     		movls	r3, #1
 1445 005e DBB2     		uxtb	r3, r3
 1446 0060 1846     		mov	r0, r3
 1447 0062 FFF7FEFF 		bl	assert_param
 336:../libs/StdPeripheralDriver/src/stm32f10x_fsmc.c ****   assert_param(IS_FSMC_WAIT_TIME(FSMC_PCCARDInitStruct->FSMC_CommonSpaceTimingStruct->FSMC_WaitSetu
 1448              		.loc 1 336 0 discriminator 4
 1449 0066 7B68     		ldr	r3, [r7, #4]
 1450 0068 DB68     		ldr	r3, [r3, #12]
 1451 006a 5B68     		ldr	r3, [r3, #4]
 1452 006c FF2B     		cmp	r3, #255
 1453 006e 8CBF     		ite	hi
 1454 0070 0023     		movhi	r3, #0
 1455 0072 0123     		movls	r3, #1
 1456 0074 DBB2     		uxtb	r3, r3
 1457 0076 1846     		mov	r0, r3
 1458 0078 FFF7FEFF 		bl	assert_param
 337:../libs/StdPeripheralDriver/src/stm32f10x_fsmc.c ****   assert_param(IS_FSMC_HOLD_TIME(FSMC_PCCARDInitStruct->FSMC_CommonSpaceTimingStruct->FSMC_HoldSetu
 1459              		.loc 1 337 0 discriminator 4
 1460 007c 7B68     		ldr	r3, [r7, #4]
 1461 007e DB68     		ldr	r3, [r3, #12]
 1462 0080 9B68     		ldr	r3, [r3, #8]
 1463 0082 FF2B     		cmp	r3, #255
 1464 0084 8CBF     		ite	hi
 1465 0086 0023     		movhi	r3, #0
 1466 0088 0123     		movls	r3, #1
 1467 008a DBB2     		uxtb	r3, r3
 1468 008c 1846     		mov	r0, r3
 1469 008e FFF7FEFF 		bl	assert_param
 338:../libs/StdPeripheralDriver/src/stm32f10x_fsmc.c ****   assert_param(IS_FSMC_HIZ_TIME(FSMC_PCCARDInitStruct->FSMC_CommonSpaceTimingStruct->FSMC_HiZSetupT
 1470              		.loc 1 338 0 discriminator 4
 1471 0092 7B68     		ldr	r3, [r7, #4]
 1472 0094 DB68     		ldr	r3, [r3, #12]
 1473 0096 DB68     		ldr	r3, [r3, #12]
 1474 0098 FF2B     		cmp	r3, #255
 1475 009a 8CBF     		ite	hi
 1476 009c 0023     		movhi	r3, #0
 1477 009e 0123     		movls	r3, #1
 1478 00a0 DBB2     		uxtb	r3, r3
 1479 00a2 1846     		mov	r0, r3
 1480 00a4 FFF7FEFF 		bl	assert_param
 339:../libs/StdPeripheralDriver/src/stm32f10x_fsmc.c ****   
 340:../libs/StdPeripheralDriver/src/stm32f10x_fsmc.c ****   assert_param(IS_FSMC_SETUP_TIME(FSMC_PCCARDInitStruct->FSMC_AttributeSpaceTimingStruct->FSMC_Setu
 1481              		.loc 1 340 0 discriminator 4
 1482 00a8 7B68     		ldr	r3, [r7, #4]
 1483 00aa 1B69     		ldr	r3, [r3, #16]
 1484 00ac 1B68     		ldr	r3, [r3, #0]
 1485 00ae FF2B     		cmp	r3, #255
 1486 00b0 8CBF     		ite	hi
 1487 00b2 0023     		movhi	r3, #0
 1488 00b4 0123     		movls	r3, #1
 1489 00b6 DBB2     		uxtb	r3, r3
 1490 00b8 1846     		mov	r0, r3
 1491 00ba FFF7FEFF 		bl	assert_param
 341:../libs/StdPeripheralDriver/src/stm32f10x_fsmc.c ****   assert_param(IS_FSMC_WAIT_TIME(FSMC_PCCARDInitStruct->FSMC_AttributeSpaceTimingStruct->FSMC_WaitS
 1492              		.loc 1 341 0 discriminator 4
 1493 00be 7B68     		ldr	r3, [r7, #4]
 1494 00c0 1B69     		ldr	r3, [r3, #16]
 1495 00c2 5B68     		ldr	r3, [r3, #4]
 1496 00c4 FF2B     		cmp	r3, #255
 1497 00c6 8CBF     		ite	hi
 1498 00c8 0023     		movhi	r3, #0
 1499 00ca 0123     		movls	r3, #1
 1500 00cc DBB2     		uxtb	r3, r3
 1501 00ce 1846     		mov	r0, r3
 1502 00d0 FFF7FEFF 		bl	assert_param
 342:../libs/StdPeripheralDriver/src/stm32f10x_fsmc.c ****   assert_param(IS_FSMC_HOLD_TIME(FSMC_PCCARDInitStruct->FSMC_AttributeSpaceTimingStruct->FSMC_HoldS
 1503              		.loc 1 342 0 discriminator 4
 1504 00d4 7B68     		ldr	r3, [r7, #4]
 1505 00d6 1B69     		ldr	r3, [r3, #16]
 1506 00d8 9B68     		ldr	r3, [r3, #8]
 1507 00da FF2B     		cmp	r3, #255
 1508 00dc 8CBF     		ite	hi
 1509 00de 0023     		movhi	r3, #0
 1510 00e0 0123     		movls	r3, #1
 1511 00e2 DBB2     		uxtb	r3, r3
 1512 00e4 1846     		mov	r0, r3
 1513 00e6 FFF7FEFF 		bl	assert_param
 343:../libs/StdPeripheralDriver/src/stm32f10x_fsmc.c ****   assert_param(IS_FSMC_HIZ_TIME(FSMC_PCCARDInitStruct->FSMC_AttributeSpaceTimingStruct->FSMC_HiZSet
 1514              		.loc 1 343 0 discriminator 4
 1515 00ea 7B68     		ldr	r3, [r7, #4]
 1516 00ec 1B69     		ldr	r3, [r3, #16]
 1517 00ee DB68     		ldr	r3, [r3, #12]
 1518 00f0 FF2B     		cmp	r3, #255
 1519 00f2 8CBF     		ite	hi
 1520 00f4 0023     		movhi	r3, #0
 1521 00f6 0123     		movls	r3, #1
 1522 00f8 DBB2     		uxtb	r3, r3
 1523 00fa 1846     		mov	r0, r3
 1524 00fc FFF7FEFF 		bl	assert_param
 344:../libs/StdPeripheralDriver/src/stm32f10x_fsmc.c ****   assert_param(IS_FSMC_SETUP_TIME(FSMC_PCCARDInitStruct->FSMC_IOSpaceTimingStruct->FSMC_SetupTime))
 1525              		.loc 1 344 0 discriminator 4
 1526 0100 7B68     		ldr	r3, [r7, #4]
 1527 0102 5B69     		ldr	r3, [r3, #20]
 1528 0104 1B68     		ldr	r3, [r3, #0]
 1529 0106 FF2B     		cmp	r3, #255
 1530 0108 8CBF     		ite	hi
 1531 010a 0023     		movhi	r3, #0
 1532 010c 0123     		movls	r3, #1
 1533 010e DBB2     		uxtb	r3, r3
 1534 0110 1846     		mov	r0, r3
 1535 0112 FFF7FEFF 		bl	assert_param
 345:../libs/StdPeripheralDriver/src/stm32f10x_fsmc.c ****   assert_param(IS_FSMC_WAIT_TIME(FSMC_PCCARDInitStruct->FSMC_IOSpaceTimingStruct->FSMC_WaitSetupTim
 1536              		.loc 1 345 0 discriminator 4
 1537 0116 7B68     		ldr	r3, [r7, #4]
 1538 0118 5B69     		ldr	r3, [r3, #20]
 1539 011a 5B68     		ldr	r3, [r3, #4]
 1540 011c FF2B     		cmp	r3, #255
 1541 011e 8CBF     		ite	hi
 1542 0120 0023     		movhi	r3, #0
 1543 0122 0123     		movls	r3, #1
 1544 0124 DBB2     		uxtb	r3, r3
 1545 0126 1846     		mov	r0, r3
 1546 0128 FFF7FEFF 		bl	assert_param
 346:../libs/StdPeripheralDriver/src/stm32f10x_fsmc.c ****   assert_param(IS_FSMC_HOLD_TIME(FSMC_PCCARDInitStruct->FSMC_IOSpaceTimingStruct->FSMC_HoldSetupTim
 1547              		.loc 1 346 0 discriminator 4
 1548 012c 7B68     		ldr	r3, [r7, #4]
 1549 012e 5B69     		ldr	r3, [r3, #20]
 1550 0130 9B68     		ldr	r3, [r3, #8]
 1551 0132 FF2B     		cmp	r3, #255
 1552 0134 8CBF     		ite	hi
 1553 0136 0023     		movhi	r3, #0
 1554 0138 0123     		movls	r3, #1
 1555 013a DBB2     		uxtb	r3, r3
 1556 013c 1846     		mov	r0, r3
 1557 013e FFF7FEFF 		bl	assert_param
 347:../libs/StdPeripheralDriver/src/stm32f10x_fsmc.c ****   assert_param(IS_FSMC_HIZ_TIME(FSMC_PCCARDInitStruct->FSMC_IOSpaceTimingStruct->FSMC_HiZSetupTime)
 1558              		.loc 1 347 0 discriminator 4
 1559 0142 7B68     		ldr	r3, [r7, #4]
 1560 0144 5B69     		ldr	r3, [r3, #20]
 1561 0146 DB68     		ldr	r3, [r3, #12]
 1562 0148 FF2B     		cmp	r3, #255
 1563 014a 8CBF     		ite	hi
 1564 014c 0023     		movhi	r3, #0
 1565 014e 0123     		movls	r3, #1
 1566 0150 DBB2     		uxtb	r3, r3
 1567 0152 1846     		mov	r0, r3
 1568 0154 FFF7FEFF 		bl	assert_param
 348:../libs/StdPeripheralDriver/src/stm32f10x_fsmc.c ****   
 349:../libs/StdPeripheralDriver/src/stm32f10x_fsmc.c ****   /* Set the PCR4 register value according to FSMC_PCCARDInitStruct parameters */
 350:../libs/StdPeripheralDriver/src/stm32f10x_fsmc.c ****   FSMC_Bank4->PCR4 = (uint32_t)FSMC_PCCARDInitStruct->FSMC_Waitfeature |
 1569              		.loc 1 350 0 discriminator 4
 1570 0158 2C4B     		ldr	r3, .L99
 1571 015a 7A68     		ldr	r2, [r7, #4]
 1572 015c 1168     		ldr	r1, [r2, #0]
 351:../libs/StdPeripheralDriver/src/stm32f10x_fsmc.c ****                      FSMC_MemoryDataWidth_16b |  
 352:../libs/StdPeripheralDriver/src/stm32f10x_fsmc.c ****                      (FSMC_PCCARDInitStruct->FSMC_TCLRSetupTime << 9) |
 1573              		.loc 1 352 0 discriminator 4
 1574 015e 7A68     		ldr	r2, [r7, #4]
 1575 0160 5268     		ldr	r2, [r2, #4]
 1576 0162 4FEA4222 		lsl	r2, r2, #9
 351:../libs/StdPeripheralDriver/src/stm32f10x_fsmc.c ****                      FSMC_MemoryDataWidth_16b |  
 1577              		.loc 1 351 0 discriminator 4
 1578 0166 1143     		orrs	r1, r1, r2
 353:../libs/StdPeripheralDriver/src/stm32f10x_fsmc.c ****                      (FSMC_PCCARDInitStruct->FSMC_TARSetupTime << 13);
 1579              		.loc 1 353 0 discriminator 4
 1580 0168 7A68     		ldr	r2, [r7, #4]
 1581 016a 9268     		ldr	r2, [r2, #8]
 1582 016c 4FEA4232 		lsl	r2, r2, #13
 352:../libs/StdPeripheralDriver/src/stm32f10x_fsmc.c ****                      (FSMC_PCCARDInitStruct->FSMC_TCLRSetupTime << 9) |
 1583              		.loc 1 352 0 discriminator 4
 1584 0170 0A43     		orrs	r2, r2, r1
 1585 0172 42F01002 		orr	r2, r2, #16
 350:../libs/StdPeripheralDriver/src/stm32f10x_fsmc.c ****   FSMC_Bank4->PCR4 = (uint32_t)FSMC_PCCARDInitStruct->FSMC_Waitfeature |
 1586              		.loc 1 350 0 discriminator 4
 1587 0176 1A60     		str	r2, [r3, #0]
 354:../libs/StdPeripheralDriver/src/stm32f10x_fsmc.c ****             
 355:../libs/StdPeripheralDriver/src/stm32f10x_fsmc.c ****   /* Set PMEM4 register value according to FSMC_CommonSpaceTimingStructure parameters */
 356:../libs/StdPeripheralDriver/src/stm32f10x_fsmc.c ****   FSMC_Bank4->PMEM4 = (uint32_t)FSMC_PCCARDInitStruct->FSMC_CommonSpaceTimingStruct->FSMC_SetupTime
 1588              		.loc 1 356 0 discriminator 4
 1589 0178 244B     		ldr	r3, .L99
 1590 017a 7A68     		ldr	r2, [r7, #4]
 1591 017c D268     		ldr	r2, [r2, #12]
 1592 017e 1168     		ldr	r1, [r2, #0]
 357:../libs/StdPeripheralDriver/src/stm32f10x_fsmc.c ****                       (FSMC_PCCARDInitStruct->FSMC_CommonSpaceTimingStruct->FSMC_WaitSetupTime << 8
 1593              		.loc 1 357 0 discriminator 4
 1594 0180 7A68     		ldr	r2, [r7, #4]
 1595 0182 D268     		ldr	r2, [r2, #12]
 1596 0184 5268     		ldr	r2, [r2, #4]
 1597 0186 4FEA0222 		lsl	r2, r2, #8
 356:../libs/StdPeripheralDriver/src/stm32f10x_fsmc.c ****   FSMC_Bank4->PMEM4 = (uint32_t)FSMC_PCCARDInitStruct->FSMC_CommonSpaceTimingStruct->FSMC_SetupTime
 1598              		.loc 1 356 0 discriminator 4
 1599 018a 1143     		orrs	r1, r1, r2
 358:../libs/StdPeripheralDriver/src/stm32f10x_fsmc.c ****                       (FSMC_PCCARDInitStruct->FSMC_CommonSpaceTimingStruct->FSMC_HoldSetupTime << 1
 1600              		.loc 1 358 0 discriminator 4
 1601 018c 7A68     		ldr	r2, [r7, #4]
 1602 018e D268     		ldr	r2, [r2, #12]
 1603 0190 9268     		ldr	r2, [r2, #8]
 1604 0192 4FEA0242 		lsl	r2, r2, #16
 357:../libs/StdPeripheralDriver/src/stm32f10x_fsmc.c ****                       (FSMC_PCCARDInitStruct->FSMC_CommonSpaceTimingStruct->FSMC_WaitSetupTime << 8
 1605              		.loc 1 357 0 discriminator 4
 1606 0196 1143     		orrs	r1, r1, r2
 359:../libs/StdPeripheralDriver/src/stm32f10x_fsmc.c ****                       (FSMC_PCCARDInitStruct->FSMC_CommonSpaceTimingStruct->FSMC_HiZSetupTime << 24
 1607              		.loc 1 359 0 discriminator 4
 1608 0198 7A68     		ldr	r2, [r7, #4]
 1609 019a D268     		ldr	r2, [r2, #12]
 1610 019c D268     		ldr	r2, [r2, #12]
 1611 019e 4FEA0262 		lsl	r2, r2, #24
 358:../libs/StdPeripheralDriver/src/stm32f10x_fsmc.c ****                       (FSMC_PCCARDInitStruct->FSMC_CommonSpaceTimingStruct->FSMC_HoldSetupTime << 1
 1612              		.loc 1 358 0 discriminator 4
 1613 01a2 0A43     		orrs	r2, r2, r1
 356:../libs/StdPeripheralDriver/src/stm32f10x_fsmc.c ****   FSMC_Bank4->PMEM4 = (uint32_t)FSMC_PCCARDInitStruct->FSMC_CommonSpaceTimingStruct->FSMC_SetupTime
 1614              		.loc 1 356 0 discriminator 4
 1615 01a4 9A60     		str	r2, [r3, #8]
 360:../libs/StdPeripheralDriver/src/stm32f10x_fsmc.c ****             
 361:../libs/StdPeripheralDriver/src/stm32f10x_fsmc.c ****   /* Set PATT4 register value according to FSMC_AttributeSpaceTimingStructure parameters */
 362:../libs/StdPeripheralDriver/src/stm32f10x_fsmc.c ****   FSMC_Bank4->PATT4 = (uint32_t)FSMC_PCCARDInitStruct->FSMC_AttributeSpaceTimingStruct->FSMC_SetupT
 1616              		.loc 1 362 0 discriminator 4
 1617 01a6 194B     		ldr	r3, .L99
 1618 01a8 7A68     		ldr	r2, [r7, #4]
 1619 01aa 1269     		ldr	r2, [r2, #16]
 1620 01ac 1168     		ldr	r1, [r2, #0]
 363:../libs/StdPeripheralDriver/src/stm32f10x_fsmc.c ****                       (FSMC_PCCARDInitStruct->FSMC_AttributeSpaceTimingStruct->FSMC_WaitSetupTime <
 1621              		.loc 1 363 0 discriminator 4
 1622 01ae 7A68     		ldr	r2, [r7, #4]
 1623 01b0 1269     		ldr	r2, [r2, #16]
 1624 01b2 5268     		ldr	r2, [r2, #4]
 1625 01b4 4FEA0222 		lsl	r2, r2, #8
 362:../libs/StdPeripheralDriver/src/stm32f10x_fsmc.c ****   FSMC_Bank4->PATT4 = (uint32_t)FSMC_PCCARDInitStruct->FSMC_AttributeSpaceTimingStruct->FSMC_SetupT
 1626              		.loc 1 362 0 discriminator 4
 1627 01b8 1143     		orrs	r1, r1, r2
 364:../libs/StdPeripheralDriver/src/stm32f10x_fsmc.c ****                       (FSMC_PCCARDInitStruct->FSMC_AttributeSpaceTimingStruct->FSMC_HoldSetupTime <
 1628              		.loc 1 364 0 discriminator 4
 1629 01ba 7A68     		ldr	r2, [r7, #4]
 1630 01bc 1269     		ldr	r2, [r2, #16]
 1631 01be 9268     		ldr	r2, [r2, #8]
 1632 01c0 4FEA0242 		lsl	r2, r2, #16
 363:../libs/StdPeripheralDriver/src/stm32f10x_fsmc.c ****                       (FSMC_PCCARDInitStruct->FSMC_AttributeSpaceTimingStruct->FSMC_WaitSetupTime <
 1633              		.loc 1 363 0 discriminator 4
 1634 01c4 1143     		orrs	r1, r1, r2
 365:../libs/StdPeripheralDriver/src/stm32f10x_fsmc.c ****                       (FSMC_PCCARDInitStruct->FSMC_AttributeSpaceTimingStruct->FSMC_HiZSetupTime <<
 1635              		.loc 1 365 0 discriminator 4
 1636 01c6 7A68     		ldr	r2, [r7, #4]
 1637 01c8 1269     		ldr	r2, [r2, #16]
 1638 01ca D268     		ldr	r2, [r2, #12]
 1639 01cc 4FEA0262 		lsl	r2, r2, #24
 364:../libs/StdPeripheralDriver/src/stm32f10x_fsmc.c ****                       (FSMC_PCCARDInitStruct->FSMC_AttributeSpaceTimingStruct->FSMC_HoldSetupTime <
 1640              		.loc 1 364 0 discriminator 4
 1641 01d0 0A43     		orrs	r2, r2, r1
 362:../libs/StdPeripheralDriver/src/stm32f10x_fsmc.c ****   FSMC_Bank4->PATT4 = (uint32_t)FSMC_PCCARDInitStruct->FSMC_AttributeSpaceTimingStruct->FSMC_SetupT
 1642              		.loc 1 362 0 discriminator 4
 1643 01d2 DA60     		str	r2, [r3, #12]
 366:../libs/StdPeripheralDriver/src/stm32f10x_fsmc.c ****             
 367:../libs/StdPeripheralDriver/src/stm32f10x_fsmc.c ****   /* Set PIO4 register value according to FSMC_IOSpaceTimingStructure parameters */
 368:../libs/StdPeripheralDriver/src/stm32f10x_fsmc.c ****   FSMC_Bank4->PIO4 = (uint32_t)FSMC_PCCARDInitStruct->FSMC_IOSpaceTimingStruct->FSMC_SetupTime |
 1644              		.loc 1 368 0 discriminator 4
 1645 01d4 0D4B     		ldr	r3, .L99
 1646 01d6 7A68     		ldr	r2, [r7, #4]
 1647 01d8 5269     		ldr	r2, [r2, #20]
 1648 01da 1168     		ldr	r1, [r2, #0]
 369:../libs/StdPeripheralDriver/src/stm32f10x_fsmc.c ****                      (FSMC_PCCARDInitStruct->FSMC_IOSpaceTimingStruct->FSMC_WaitSetupTime << 8) |
 1649              		.loc 1 369 0 discriminator 4
 1650 01dc 7A68     		ldr	r2, [r7, #4]
 1651 01de 5269     		ldr	r2, [r2, #20]
 1652 01e0 5268     		ldr	r2, [r2, #4]
 1653 01e2 4FEA0222 		lsl	r2, r2, #8
 368:../libs/StdPeripheralDriver/src/stm32f10x_fsmc.c ****   FSMC_Bank4->PIO4 = (uint32_t)FSMC_PCCARDInitStruct->FSMC_IOSpaceTimingStruct->FSMC_SetupTime |
 1654              		.loc 1 368 0 discriminator 4
 1655 01e6 1143     		orrs	r1, r1, r2
 370:../libs/StdPeripheralDriver/src/stm32f10x_fsmc.c ****                      (FSMC_PCCARDInitStruct->FSMC_IOSpaceTimingStruct->FSMC_HoldSetupTime << 16)|
 1656              		.loc 1 370 0 discriminator 4
 1657 01e8 7A68     		ldr	r2, [r7, #4]
 1658 01ea 5269     		ldr	r2, [r2, #20]
 1659 01ec 9268     		ldr	r2, [r2, #8]
 1660 01ee 4FEA0242 		lsl	r2, r2, #16
 369:../libs/StdPeripheralDriver/src/stm32f10x_fsmc.c ****                      (FSMC_PCCARDInitStruct->FSMC_IOSpaceTimingStruct->FSMC_WaitSetupTime << 8) |
 1661              		.loc 1 369 0 discriminator 4
 1662 01f2 1143     		orrs	r1, r1, r2
 371:../libs/StdPeripheralDriver/src/stm32f10x_fsmc.c ****                      (FSMC_PCCARDInitStruct->FSMC_IOSpaceTimingStruct->FSMC_HiZSetupTime << 24);   
 1663              		.loc 1 371 0 discriminator 4
 1664 01f4 7A68     		ldr	r2, [r7, #4]
 1665 01f6 5269     		ldr	r2, [r2, #20]
 1666 01f8 D268     		ldr	r2, [r2, #12]
 1667 01fa 4FEA0262 		lsl	r2, r2, #24
 370:../libs/StdPeripheralDriver/src/stm32f10x_fsmc.c ****                      (FSMC_PCCARDInitStruct->FSMC_IOSpaceTimingStruct->FSMC_HoldSetupTime << 16)|
 1668              		.loc 1 370 0 discriminator 4
 1669 01fe 0A43     		orrs	r2, r2, r1
 368:../libs/StdPeripheralDriver/src/stm32f10x_fsmc.c ****   FSMC_Bank4->PIO4 = (uint32_t)FSMC_PCCARDInitStruct->FSMC_IOSpaceTimingStruct->FSMC_SetupTime |
 1670              		.loc 1 368 0 discriminator 4
 1671 0200 1A61     		str	r2, [r3, #16]
 372:../libs/StdPeripheralDriver/src/stm32f10x_fsmc.c **** }
 1672              		.loc 1 372 0 discriminator 4
 1673 0202 07F10807 		add	r7, r7, #8
 1674 0206 BD46     		mov	sp, r7
 1675 0208 80BD     		pop	{r7, pc}
 1676              	.L100:
 1677 020a 00BF     		.align	2
 1678              	.L99:
 1679 020c A00000A0 		.word	-1610612576
 1680              		.cfi_endproc
 1681              	.LFE34:
 1683              		.section	.text.FSMC_NORSRAMStructInit,"ax",%progbits
 1684              		.align	2
 1685              		.global	FSMC_NORSRAMStructInit
 1686              		.thumb
 1687              		.thumb_func
 1689              	FSMC_NORSRAMStructInit:
 1690              	.LFB35:
 373:../libs/StdPeripheralDriver/src/stm32f10x_fsmc.c **** 
 374:../libs/StdPeripheralDriver/src/stm32f10x_fsmc.c **** /**
 375:../libs/StdPeripheralDriver/src/stm32f10x_fsmc.c ****   * @brief  Fills each FSMC_NORSRAMInitStruct member with its default value.
 376:../libs/StdPeripheralDriver/src/stm32f10x_fsmc.c ****   * @param  FSMC_NORSRAMInitStruct: pointer to a FSMC_NORSRAMInitTypeDef 
 377:../libs/StdPeripheralDriver/src/stm32f10x_fsmc.c ****   *         structure which will be initialized.
 378:../libs/StdPeripheralDriver/src/stm32f10x_fsmc.c ****   * @retval None
 379:../libs/StdPeripheralDriver/src/stm32f10x_fsmc.c ****   */
 380:../libs/StdPeripheralDriver/src/stm32f10x_fsmc.c **** void FSMC_NORSRAMStructInit(FSMC_NORSRAMInitTypeDef* FSMC_NORSRAMInitStruct)
 381:../libs/StdPeripheralDriver/src/stm32f10x_fsmc.c **** {  
 1691              		.loc 1 381 0
 1692              		.cfi_startproc
 1693              		@ args = 0, pretend = 0, frame = 8
 1694              		@ frame_needed = 1, uses_anonymous_args = 0
 1695              		@ link register save eliminated.
 1696 0000 80B4     		push	{r7}
 1697              	.LCFI17:
 1698              		.cfi_def_cfa_offset 4
 1699              		.cfi_offset 7, -4
 1700 0002 83B0     		sub	sp, sp, #12
 1701              	.LCFI18:
 1702              		.cfi_def_cfa_offset 16
 1703 0004 00AF     		add	r7, sp, #0
 1704              	.LCFI19:
 1705              		.cfi_def_cfa_register 7
 1706 0006 7860     		str	r0, [r7, #4]
 382:../libs/StdPeripheralDriver/src/stm32f10x_fsmc.c ****   /* Reset NOR/SRAM Init structure parameters values */
 383:../libs/StdPeripheralDriver/src/stm32f10x_fsmc.c ****   FSMC_NORSRAMInitStruct->FSMC_Bank = FSMC_Bank1_NORSRAM1;
 1707              		.loc 1 383 0
 1708 0008 7B68     		ldr	r3, [r7, #4]
 1709 000a 4FF00002 		mov	r2, #0
 1710 000e 1A60     		str	r2, [r3, #0]
 384:../libs/StdPeripheralDriver/src/stm32f10x_fsmc.c ****   FSMC_NORSRAMInitStruct->FSMC_DataAddressMux = FSMC_DataAddressMux_Enable;
 1711              		.loc 1 384 0
 1712 0010 7B68     		ldr	r3, [r7, #4]
 1713 0012 4FF00202 		mov	r2, #2
 1714 0016 5A60     		str	r2, [r3, #4]
 385:../libs/StdPeripheralDriver/src/stm32f10x_fsmc.c ****   FSMC_NORSRAMInitStruct->FSMC_MemoryType = FSMC_MemoryType_SRAM;
 1715              		.loc 1 385 0
 1716 0018 7B68     		ldr	r3, [r7, #4]
 1717 001a 4FF00002 		mov	r2, #0
 1718 001e 9A60     		str	r2, [r3, #8]
 386:../libs/StdPeripheralDriver/src/stm32f10x_fsmc.c ****   FSMC_NORSRAMInitStruct->FSMC_MemoryDataWidth = FSMC_MemoryDataWidth_8b;
 1719              		.loc 1 386 0
 1720 0020 7B68     		ldr	r3, [r7, #4]
 1721 0022 4FF00002 		mov	r2, #0
 1722 0026 DA60     		str	r2, [r3, #12]
 387:../libs/StdPeripheralDriver/src/stm32f10x_fsmc.c ****   FSMC_NORSRAMInitStruct->FSMC_BurstAccessMode = FSMC_BurstAccessMode_Disable;
 1723              		.loc 1 387 0
 1724 0028 7B68     		ldr	r3, [r7, #4]
 1725 002a 4FF00002 		mov	r2, #0
 1726 002e 1A61     		str	r2, [r3, #16]
 388:../libs/StdPeripheralDriver/src/stm32f10x_fsmc.c ****   FSMC_NORSRAMInitStruct->FSMC_AsynchronousWait = FSMC_AsynchronousWait_Disable;
 1727              		.loc 1 388 0
 1728 0030 7B68     		ldr	r3, [r7, #4]
 1729 0032 4FF00002 		mov	r2, #0
 1730 0036 5A61     		str	r2, [r3, #20]
 389:../libs/StdPeripheralDriver/src/stm32f10x_fsmc.c ****   FSMC_NORSRAMInitStruct->FSMC_WaitSignalPolarity = FSMC_WaitSignalPolarity_Low;
 1731              		.loc 1 389 0
 1732 0038 7B68     		ldr	r3, [r7, #4]
 1733 003a 4FF00002 		mov	r2, #0
 1734 003e 9A61     		str	r2, [r3, #24]
 390:../libs/StdPeripheralDriver/src/stm32f10x_fsmc.c ****   FSMC_NORSRAMInitStruct->FSMC_WrapMode = FSMC_WrapMode_Disable;
 1735              		.loc 1 390 0
 1736 0040 7B68     		ldr	r3, [r7, #4]
 1737 0042 4FF00002 		mov	r2, #0
 1738 0046 DA61     		str	r2, [r3, #28]
 391:../libs/StdPeripheralDriver/src/stm32f10x_fsmc.c ****   FSMC_NORSRAMInitStruct->FSMC_WaitSignalActive = FSMC_WaitSignalActive_BeforeWaitState;
 1739              		.loc 1 391 0
 1740 0048 7B68     		ldr	r3, [r7, #4]
 1741 004a 4FF00002 		mov	r2, #0
 1742 004e 1A62     		str	r2, [r3, #32]
 392:../libs/StdPeripheralDriver/src/stm32f10x_fsmc.c ****   FSMC_NORSRAMInitStruct->FSMC_WriteOperation = FSMC_WriteOperation_Enable;
 1743              		.loc 1 392 0
 1744 0050 7B68     		ldr	r3, [r7, #4]
 1745 0052 4FF48052 		mov	r2, #4096
 1746 0056 5A62     		str	r2, [r3, #36]
 393:../libs/StdPeripheralDriver/src/stm32f10x_fsmc.c ****   FSMC_NORSRAMInitStruct->FSMC_WaitSignal = FSMC_WaitSignal_Enable;
 1747              		.loc 1 393 0
 1748 0058 7B68     		ldr	r3, [r7, #4]
 1749 005a 4FF40052 		mov	r2, #8192
 1750 005e 9A62     		str	r2, [r3, #40]
 394:../libs/StdPeripheralDriver/src/stm32f10x_fsmc.c ****   FSMC_NORSRAMInitStruct->FSMC_ExtendedMode = FSMC_ExtendedMode_Disable;
 1751              		.loc 1 394 0
 1752 0060 7B68     		ldr	r3, [r7, #4]
 1753 0062 4FF00002 		mov	r2, #0
 1754 0066 DA62     		str	r2, [r3, #44]
 395:../libs/StdPeripheralDriver/src/stm32f10x_fsmc.c ****   FSMC_NORSRAMInitStruct->FSMC_WriteBurst = FSMC_WriteBurst_Disable;
 1755              		.loc 1 395 0
 1756 0068 7B68     		ldr	r3, [r7, #4]
 1757 006a 4FF00002 		mov	r2, #0
 1758 006e 1A63     		str	r2, [r3, #48]
 396:../libs/StdPeripheralDriver/src/stm32f10x_fsmc.c ****   FSMC_NORSRAMInitStruct->FSMC_ReadWriteTimingStruct->FSMC_AddressSetupTime = 0xF;
 1759              		.loc 1 396 0
 1760 0070 7B68     		ldr	r3, [r7, #4]
 1761 0072 5B6B     		ldr	r3, [r3, #52]
 1762 0074 4FF00F02 		mov	r2, #15
 1763 0078 1A60     		str	r2, [r3, #0]
 397:../libs/StdPeripheralDriver/src/stm32f10x_fsmc.c ****   FSMC_NORSRAMInitStruct->FSMC_ReadWriteTimingStruct->FSMC_AddressHoldTime = 0xF;
 1764              		.loc 1 397 0
 1765 007a 7B68     		ldr	r3, [r7, #4]
 1766 007c 5B6B     		ldr	r3, [r3, #52]
 1767 007e 4FF00F02 		mov	r2, #15
 1768 0082 5A60     		str	r2, [r3, #4]
 398:../libs/StdPeripheralDriver/src/stm32f10x_fsmc.c ****   FSMC_NORSRAMInitStruct->FSMC_ReadWriteTimingStruct->FSMC_DataSetupTime = 0xFF;
 1769              		.loc 1 398 0
 1770 0084 7B68     		ldr	r3, [r7, #4]
 1771 0086 5B6B     		ldr	r3, [r3, #52]
 1772 0088 4FF0FF02 		mov	r2, #255
 1773 008c 9A60     		str	r2, [r3, #8]
 399:../libs/StdPeripheralDriver/src/stm32f10x_fsmc.c ****   FSMC_NORSRAMInitStruct->FSMC_ReadWriteTimingStruct->FSMC_BusTurnAroundDuration = 0xF;
 1774              		.loc 1 399 0
 1775 008e 7B68     		ldr	r3, [r7, #4]
 1776 0090 5B6B     		ldr	r3, [r3, #52]
 1777 0092 4FF00F02 		mov	r2, #15
 1778 0096 DA60     		str	r2, [r3, #12]
 400:../libs/StdPeripheralDriver/src/stm32f10x_fsmc.c ****   FSMC_NORSRAMInitStruct->FSMC_ReadWriteTimingStruct->FSMC_CLKDivision = 0xF;
 1779              		.loc 1 400 0
 1780 0098 7B68     		ldr	r3, [r7, #4]
 1781 009a 5B6B     		ldr	r3, [r3, #52]
 1782 009c 4FF00F02 		mov	r2, #15
 1783 00a0 1A61     		str	r2, [r3, #16]
 401:../libs/StdPeripheralDriver/src/stm32f10x_fsmc.c ****   FSMC_NORSRAMInitStruct->FSMC_ReadWriteTimingStruct->FSMC_DataLatency = 0xF;
 1784              		.loc 1 401 0
 1785 00a2 7B68     		ldr	r3, [r7, #4]
 1786 00a4 5B6B     		ldr	r3, [r3, #52]
 1787 00a6 4FF00F02 		mov	r2, #15
 1788 00aa 5A61     		str	r2, [r3, #20]
 402:../libs/StdPeripheralDriver/src/stm32f10x_fsmc.c ****   FSMC_NORSRAMInitStruct->FSMC_ReadWriteTimingStruct->FSMC_AccessMode = FSMC_AccessMode_A; 
 1789              		.loc 1 402 0
 1790 00ac 7B68     		ldr	r3, [r7, #4]
 1791 00ae 5B6B     		ldr	r3, [r3, #52]
 1792 00b0 4FF00002 		mov	r2, #0
 1793 00b4 9A61     		str	r2, [r3, #24]
 403:../libs/StdPeripheralDriver/src/stm32f10x_fsmc.c ****   FSMC_NORSRAMInitStruct->FSMC_WriteTimingStruct->FSMC_AddressSetupTime = 0xF;
 1794              		.loc 1 403 0
 1795 00b6 7B68     		ldr	r3, [r7, #4]
 1796 00b8 9B6B     		ldr	r3, [r3, #56]
 1797 00ba 4FF00F02 		mov	r2, #15
 1798 00be 1A60     		str	r2, [r3, #0]
 404:../libs/StdPeripheralDriver/src/stm32f10x_fsmc.c ****   FSMC_NORSRAMInitStruct->FSMC_WriteTimingStruct->FSMC_AddressHoldTime = 0xF;
 1799              		.loc 1 404 0
 1800 00c0 7B68     		ldr	r3, [r7, #4]
 1801 00c2 9B6B     		ldr	r3, [r3, #56]
 1802 00c4 4FF00F02 		mov	r2, #15
 1803 00c8 5A60     		str	r2, [r3, #4]
 405:../libs/StdPeripheralDriver/src/stm32f10x_fsmc.c ****   FSMC_NORSRAMInitStruct->FSMC_WriteTimingStruct->FSMC_DataSetupTime = 0xFF;
 1804              		.loc 1 405 0
 1805 00ca 7B68     		ldr	r3, [r7, #4]
 1806 00cc 9B6B     		ldr	r3, [r3, #56]
 1807 00ce 4FF0FF02 		mov	r2, #255
 1808 00d2 9A60     		str	r2, [r3, #8]
 406:../libs/StdPeripheralDriver/src/stm32f10x_fsmc.c ****   FSMC_NORSRAMInitStruct->FSMC_WriteTimingStruct->FSMC_BusTurnAroundDuration = 0xF;
 1809              		.loc 1 406 0
 1810 00d4 7B68     		ldr	r3, [r7, #4]
 1811 00d6 9B6B     		ldr	r3, [r3, #56]
 1812 00d8 4FF00F02 		mov	r2, #15
 1813 00dc DA60     		str	r2, [r3, #12]
 407:../libs/StdPeripheralDriver/src/stm32f10x_fsmc.c ****   FSMC_NORSRAMInitStruct->FSMC_WriteTimingStruct->FSMC_CLKDivision = 0xF;
 1814              		.loc 1 407 0
 1815 00de 7B68     		ldr	r3, [r7, #4]
 1816 00e0 9B6B     		ldr	r3, [r3, #56]
 1817 00e2 4FF00F02 		mov	r2, #15
 1818 00e6 1A61     		str	r2, [r3, #16]
 408:../libs/StdPeripheralDriver/src/stm32f10x_fsmc.c ****   FSMC_NORSRAMInitStruct->FSMC_WriteTimingStruct->FSMC_DataLatency = 0xF;
 1819              		.loc 1 408 0
 1820 00e8 7B68     		ldr	r3, [r7, #4]
 1821 00ea 9B6B     		ldr	r3, [r3, #56]
 1822 00ec 4FF00F02 		mov	r2, #15
 1823 00f0 5A61     		str	r2, [r3, #20]
 409:../libs/StdPeripheralDriver/src/stm32f10x_fsmc.c ****   FSMC_NORSRAMInitStruct->FSMC_WriteTimingStruct->FSMC_AccessMode = FSMC_AccessMode_A;
 1824              		.loc 1 409 0
 1825 00f2 7B68     		ldr	r3, [r7, #4]
 1826 00f4 9B6B     		ldr	r3, [r3, #56]
 1827 00f6 4FF00002 		mov	r2, #0
 1828 00fa 9A61     		str	r2, [r3, #24]
 410:../libs/StdPeripheralDriver/src/stm32f10x_fsmc.c **** }
 1829              		.loc 1 410 0
 1830 00fc 07F10C07 		add	r7, r7, #12
 1831 0100 BD46     		mov	sp, r7
 1832 0102 80BC     		pop	{r7}
 1833 0104 7047     		bx	lr
 1834              		.cfi_endproc
 1835              	.LFE35:
 1837 0106 00BF     		.section	.text.FSMC_NANDStructInit,"ax",%progbits
 1838              		.align	2
 1839              		.global	FSMC_NANDStructInit
 1840              		.thumb
 1841              		.thumb_func
 1843              	FSMC_NANDStructInit:
 1844              	.LFB36:
 411:../libs/StdPeripheralDriver/src/stm32f10x_fsmc.c **** 
 412:../libs/StdPeripheralDriver/src/stm32f10x_fsmc.c **** /**
 413:../libs/StdPeripheralDriver/src/stm32f10x_fsmc.c ****   * @brief  Fills each FSMC_NANDInitStruct member with its default value.
 414:../libs/StdPeripheralDriver/src/stm32f10x_fsmc.c ****   * @param  FSMC_NANDInitStruct: pointer to a FSMC_NANDInitTypeDef 
 415:../libs/StdPeripheralDriver/src/stm32f10x_fsmc.c ****   *         structure which will be initialized.
 416:../libs/StdPeripheralDriver/src/stm32f10x_fsmc.c ****   * @retval None
 417:../libs/StdPeripheralDriver/src/stm32f10x_fsmc.c ****   */
 418:../libs/StdPeripheralDriver/src/stm32f10x_fsmc.c **** void FSMC_NANDStructInit(FSMC_NANDInitTypeDef* FSMC_NANDInitStruct)
 419:../libs/StdPeripheralDriver/src/stm32f10x_fsmc.c **** { 
 1845              		.loc 1 419 0
 1846              		.cfi_startproc
 1847              		@ args = 0, pretend = 0, frame = 8
 1848              		@ frame_needed = 1, uses_anonymous_args = 0
 1849              		@ link register save eliminated.
 1850 0000 80B4     		push	{r7}
 1851              	.LCFI20:
 1852              		.cfi_def_cfa_offset 4
 1853              		.cfi_offset 7, -4
 1854 0002 83B0     		sub	sp, sp, #12
 1855              	.LCFI21:
 1856              		.cfi_def_cfa_offset 16
 1857 0004 00AF     		add	r7, sp, #0
 1858              	.LCFI22:
 1859              		.cfi_def_cfa_register 7
 1860 0006 7860     		str	r0, [r7, #4]
 420:../libs/StdPeripheralDriver/src/stm32f10x_fsmc.c ****   /* Reset NAND Init structure parameters values */
 421:../libs/StdPeripheralDriver/src/stm32f10x_fsmc.c ****   FSMC_NANDInitStruct->FSMC_Bank = FSMC_Bank2_NAND;
 1861              		.loc 1 421 0
 1862 0008 7B68     		ldr	r3, [r7, #4]
 1863 000a 4FF01002 		mov	r2, #16
 1864 000e 1A60     		str	r2, [r3, #0]
 422:../libs/StdPeripheralDriver/src/stm32f10x_fsmc.c ****   FSMC_NANDInitStruct->FSMC_Waitfeature = FSMC_Waitfeature_Disable;
 1865              		.loc 1 422 0
 1866 0010 7B68     		ldr	r3, [r7, #4]
 1867 0012 4FF00002 		mov	r2, #0
 1868 0016 5A60     		str	r2, [r3, #4]
 423:../libs/StdPeripheralDriver/src/stm32f10x_fsmc.c ****   FSMC_NANDInitStruct->FSMC_MemoryDataWidth = FSMC_MemoryDataWidth_8b;
 1869              		.loc 1 423 0
 1870 0018 7B68     		ldr	r3, [r7, #4]
 1871 001a 4FF00002 		mov	r2, #0
 1872 001e 9A60     		str	r2, [r3, #8]
 424:../libs/StdPeripheralDriver/src/stm32f10x_fsmc.c ****   FSMC_NANDInitStruct->FSMC_ECC = FSMC_ECC_Disable;
 1873              		.loc 1 424 0
 1874 0020 7B68     		ldr	r3, [r7, #4]
 1875 0022 4FF00002 		mov	r2, #0
 1876 0026 DA60     		str	r2, [r3, #12]
 425:../libs/StdPeripheralDriver/src/stm32f10x_fsmc.c ****   FSMC_NANDInitStruct->FSMC_ECCPageSize = FSMC_ECCPageSize_256Bytes;
 1877              		.loc 1 425 0
 1878 0028 7B68     		ldr	r3, [r7, #4]
 1879 002a 4FF00002 		mov	r2, #0
 1880 002e 1A61     		str	r2, [r3, #16]
 426:../libs/StdPeripheralDriver/src/stm32f10x_fsmc.c ****   FSMC_NANDInitStruct->FSMC_TCLRSetupTime = 0x0;
 1881              		.loc 1 426 0
 1882 0030 7B68     		ldr	r3, [r7, #4]
 1883 0032 4FF00002 		mov	r2, #0
 1884 0036 5A61     		str	r2, [r3, #20]
 427:../libs/StdPeripheralDriver/src/stm32f10x_fsmc.c ****   FSMC_NANDInitStruct->FSMC_TARSetupTime = 0x0;
 1885              		.loc 1 427 0
 1886 0038 7B68     		ldr	r3, [r7, #4]
 1887 003a 4FF00002 		mov	r2, #0
 1888 003e 9A61     		str	r2, [r3, #24]
 428:../libs/StdPeripheralDriver/src/stm32f10x_fsmc.c ****   FSMC_NANDInitStruct->FSMC_CommonSpaceTimingStruct->FSMC_SetupTime = 0xFC;
 1889              		.loc 1 428 0
 1890 0040 7B68     		ldr	r3, [r7, #4]
 1891 0042 DB69     		ldr	r3, [r3, #28]
 1892 0044 4FF0FC02 		mov	r2, #252
 1893 0048 1A60     		str	r2, [r3, #0]
 429:../libs/StdPeripheralDriver/src/stm32f10x_fsmc.c ****   FSMC_NANDInitStruct->FSMC_CommonSpaceTimingStruct->FSMC_WaitSetupTime = 0xFC;
 1894              		.loc 1 429 0
 1895 004a 7B68     		ldr	r3, [r7, #4]
 1896 004c DB69     		ldr	r3, [r3, #28]
 1897 004e 4FF0FC02 		mov	r2, #252
 1898 0052 5A60     		str	r2, [r3, #4]
 430:../libs/StdPeripheralDriver/src/stm32f10x_fsmc.c ****   FSMC_NANDInitStruct->FSMC_CommonSpaceTimingStruct->FSMC_HoldSetupTime = 0xFC;
 1899              		.loc 1 430 0
 1900 0054 7B68     		ldr	r3, [r7, #4]
 1901 0056 DB69     		ldr	r3, [r3, #28]
 1902 0058 4FF0FC02 		mov	r2, #252
 1903 005c 9A60     		str	r2, [r3, #8]
 431:../libs/StdPeripheralDriver/src/stm32f10x_fsmc.c ****   FSMC_NANDInitStruct->FSMC_CommonSpaceTimingStruct->FSMC_HiZSetupTime = 0xFC;
 1904              		.loc 1 431 0
 1905 005e 7B68     		ldr	r3, [r7, #4]
 1906 0060 DB69     		ldr	r3, [r3, #28]
 1907 0062 4FF0FC02 		mov	r2, #252
 1908 0066 DA60     		str	r2, [r3, #12]
 432:../libs/StdPeripheralDriver/src/stm32f10x_fsmc.c ****   FSMC_NANDInitStruct->FSMC_AttributeSpaceTimingStruct->FSMC_SetupTime = 0xFC;
 1909              		.loc 1 432 0
 1910 0068 7B68     		ldr	r3, [r7, #4]
 1911 006a 1B6A     		ldr	r3, [r3, #32]
 1912 006c 4FF0FC02 		mov	r2, #252
 1913 0070 1A60     		str	r2, [r3, #0]
 433:../libs/StdPeripheralDriver/src/stm32f10x_fsmc.c ****   FSMC_NANDInitStruct->FSMC_AttributeSpaceTimingStruct->FSMC_WaitSetupTime = 0xFC;
 1914              		.loc 1 433 0
 1915 0072 7B68     		ldr	r3, [r7, #4]
 1916 0074 1B6A     		ldr	r3, [r3, #32]
 1917 0076 4FF0FC02 		mov	r2, #252
 1918 007a 5A60     		str	r2, [r3, #4]
 434:../libs/StdPeripheralDriver/src/stm32f10x_fsmc.c ****   FSMC_NANDInitStruct->FSMC_AttributeSpaceTimingStruct->FSMC_HoldSetupTime = 0xFC;
 1919              		.loc 1 434 0
 1920 007c 7B68     		ldr	r3, [r7, #4]
 1921 007e 1B6A     		ldr	r3, [r3, #32]
 1922 0080 4FF0FC02 		mov	r2, #252
 1923 0084 9A60     		str	r2, [r3, #8]
 435:../libs/StdPeripheralDriver/src/stm32f10x_fsmc.c ****   FSMC_NANDInitStruct->FSMC_AttributeSpaceTimingStruct->FSMC_HiZSetupTime = 0xFC;	  
 1924              		.loc 1 435 0
 1925 0086 7B68     		ldr	r3, [r7, #4]
 1926 0088 1B6A     		ldr	r3, [r3, #32]
 1927 008a 4FF0FC02 		mov	r2, #252
 1928 008e DA60     		str	r2, [r3, #12]
 436:../libs/StdPeripheralDriver/src/stm32f10x_fsmc.c **** }
 1929              		.loc 1 436 0
 1930 0090 07F10C07 		add	r7, r7, #12
 1931 0094 BD46     		mov	sp, r7
 1932 0096 80BC     		pop	{r7}
 1933 0098 7047     		bx	lr
 1934              		.cfi_endproc
 1935              	.LFE36:
 1937 009a 00BF     		.section	.text.FSMC_PCCARDStructInit,"ax",%progbits
 1938              		.align	2
 1939              		.global	FSMC_PCCARDStructInit
 1940              		.thumb
 1941              		.thumb_func
 1943              	FSMC_PCCARDStructInit:
 1944              	.LFB37:
 437:../libs/StdPeripheralDriver/src/stm32f10x_fsmc.c **** 
 438:../libs/StdPeripheralDriver/src/stm32f10x_fsmc.c **** /**
 439:../libs/StdPeripheralDriver/src/stm32f10x_fsmc.c ****   * @brief  Fills each FSMC_PCCARDInitStruct member with its default value.
 440:../libs/StdPeripheralDriver/src/stm32f10x_fsmc.c ****   * @param  FSMC_PCCARDInitStruct: pointer to a FSMC_PCCARDInitTypeDef 
 441:../libs/StdPeripheralDriver/src/stm32f10x_fsmc.c ****   *         structure which will be initialized.
 442:../libs/StdPeripheralDriver/src/stm32f10x_fsmc.c ****   * @retval None
 443:../libs/StdPeripheralDriver/src/stm32f10x_fsmc.c ****   */
 444:../libs/StdPeripheralDriver/src/stm32f10x_fsmc.c **** void FSMC_PCCARDStructInit(FSMC_PCCARDInitTypeDef* FSMC_PCCARDInitStruct)
 445:../libs/StdPeripheralDriver/src/stm32f10x_fsmc.c **** {
 1945              		.loc 1 445 0
 1946              		.cfi_startproc
 1947              		@ args = 0, pretend = 0, frame = 8
 1948              		@ frame_needed = 1, uses_anonymous_args = 0
 1949              		@ link register save eliminated.
 1950 0000 80B4     		push	{r7}
 1951              	.LCFI23:
 1952              		.cfi_def_cfa_offset 4
 1953              		.cfi_offset 7, -4
 1954 0002 83B0     		sub	sp, sp, #12
 1955              	.LCFI24:
 1956              		.cfi_def_cfa_offset 16
 1957 0004 00AF     		add	r7, sp, #0
 1958              	.LCFI25:
 1959              		.cfi_def_cfa_register 7
 1960 0006 7860     		str	r0, [r7, #4]
 446:../libs/StdPeripheralDriver/src/stm32f10x_fsmc.c ****   /* Reset PCCARD Init structure parameters values */
 447:../libs/StdPeripheralDriver/src/stm32f10x_fsmc.c ****   FSMC_PCCARDInitStruct->FSMC_Waitfeature = FSMC_Waitfeature_Disable;
 1961              		.loc 1 447 0
 1962 0008 7B68     		ldr	r3, [r7, #4]
 1963 000a 4FF00002 		mov	r2, #0
 1964 000e 1A60     		str	r2, [r3, #0]
 448:../libs/StdPeripheralDriver/src/stm32f10x_fsmc.c ****   FSMC_PCCARDInitStruct->FSMC_TCLRSetupTime = 0x0;
 1965              		.loc 1 448 0
 1966 0010 7B68     		ldr	r3, [r7, #4]
 1967 0012 4FF00002 		mov	r2, #0
 1968 0016 5A60     		str	r2, [r3, #4]
 449:../libs/StdPeripheralDriver/src/stm32f10x_fsmc.c ****   FSMC_PCCARDInitStruct->FSMC_TARSetupTime = 0x0;
 1969              		.loc 1 449 0
 1970 0018 7B68     		ldr	r3, [r7, #4]
 1971 001a 4FF00002 		mov	r2, #0
 1972 001e 9A60     		str	r2, [r3, #8]
 450:../libs/StdPeripheralDriver/src/stm32f10x_fsmc.c ****   FSMC_PCCARDInitStruct->FSMC_CommonSpaceTimingStruct->FSMC_SetupTime = 0xFC;
 1973              		.loc 1 450 0
 1974 0020 7B68     		ldr	r3, [r7, #4]
 1975 0022 DB68     		ldr	r3, [r3, #12]
 1976 0024 4FF0FC02 		mov	r2, #252
 1977 0028 1A60     		str	r2, [r3, #0]
 451:../libs/StdPeripheralDriver/src/stm32f10x_fsmc.c ****   FSMC_PCCARDInitStruct->FSMC_CommonSpaceTimingStruct->FSMC_WaitSetupTime = 0xFC;
 1978              		.loc 1 451 0
 1979 002a 7B68     		ldr	r3, [r7, #4]
 1980 002c DB68     		ldr	r3, [r3, #12]
 1981 002e 4FF0FC02 		mov	r2, #252
 1982 0032 5A60     		str	r2, [r3, #4]
 452:../libs/StdPeripheralDriver/src/stm32f10x_fsmc.c ****   FSMC_PCCARDInitStruct->FSMC_CommonSpaceTimingStruct->FSMC_HoldSetupTime = 0xFC;
 1983              		.loc 1 452 0
 1984 0034 7B68     		ldr	r3, [r7, #4]
 1985 0036 DB68     		ldr	r3, [r3, #12]
 1986 0038 4FF0FC02 		mov	r2, #252
 1987 003c 9A60     		str	r2, [r3, #8]
 453:../libs/StdPeripheralDriver/src/stm32f10x_fsmc.c ****   FSMC_PCCARDInitStruct->FSMC_CommonSpaceTimingStruct->FSMC_HiZSetupTime = 0xFC;
 1988              		.loc 1 453 0
 1989 003e 7B68     		ldr	r3, [r7, #4]
 1990 0040 DB68     		ldr	r3, [r3, #12]
 1991 0042 4FF0FC02 		mov	r2, #252
 1992 0046 DA60     		str	r2, [r3, #12]
 454:../libs/StdPeripheralDriver/src/stm32f10x_fsmc.c ****   FSMC_PCCARDInitStruct->FSMC_AttributeSpaceTimingStruct->FSMC_SetupTime = 0xFC;
 1993              		.loc 1 454 0
 1994 0048 7B68     		ldr	r3, [r7, #4]
 1995 004a 1B69     		ldr	r3, [r3, #16]
 1996 004c 4FF0FC02 		mov	r2, #252
 1997 0050 1A60     		str	r2, [r3, #0]
 455:../libs/StdPeripheralDriver/src/stm32f10x_fsmc.c ****   FSMC_PCCARDInitStruct->FSMC_AttributeSpaceTimingStruct->FSMC_WaitSetupTime = 0xFC;
 1998              		.loc 1 455 0
 1999 0052 7B68     		ldr	r3, [r7, #4]
 2000 0054 1B69     		ldr	r3, [r3, #16]
 2001 0056 4FF0FC02 		mov	r2, #252
 2002 005a 5A60     		str	r2, [r3, #4]
 456:../libs/StdPeripheralDriver/src/stm32f10x_fsmc.c ****   FSMC_PCCARDInitStruct->FSMC_AttributeSpaceTimingStruct->FSMC_HoldSetupTime = 0xFC;
 2003              		.loc 1 456 0
 2004 005c 7B68     		ldr	r3, [r7, #4]
 2005 005e 1B69     		ldr	r3, [r3, #16]
 2006 0060 4FF0FC02 		mov	r2, #252
 2007 0064 9A60     		str	r2, [r3, #8]
 457:../libs/StdPeripheralDriver/src/stm32f10x_fsmc.c ****   FSMC_PCCARDInitStruct->FSMC_AttributeSpaceTimingStruct->FSMC_HiZSetupTime = 0xFC;	
 2008              		.loc 1 457 0
 2009 0066 7B68     		ldr	r3, [r7, #4]
 2010 0068 1B69     		ldr	r3, [r3, #16]
 2011 006a 4FF0FC02 		mov	r2, #252
 2012 006e DA60     		str	r2, [r3, #12]
 458:../libs/StdPeripheralDriver/src/stm32f10x_fsmc.c ****   FSMC_PCCARDInitStruct->FSMC_IOSpaceTimingStruct->FSMC_SetupTime = 0xFC;
 2013              		.loc 1 458 0
 2014 0070 7B68     		ldr	r3, [r7, #4]
 2015 0072 5B69     		ldr	r3, [r3, #20]
 2016 0074 4FF0FC02 		mov	r2, #252
 2017 0078 1A60     		str	r2, [r3, #0]
 459:../libs/StdPeripheralDriver/src/stm32f10x_fsmc.c ****   FSMC_PCCARDInitStruct->FSMC_IOSpaceTimingStruct->FSMC_WaitSetupTime = 0xFC;
 2018              		.loc 1 459 0
 2019 007a 7B68     		ldr	r3, [r7, #4]
 2020 007c 5B69     		ldr	r3, [r3, #20]
 2021 007e 4FF0FC02 		mov	r2, #252
 2022 0082 5A60     		str	r2, [r3, #4]
 460:../libs/StdPeripheralDriver/src/stm32f10x_fsmc.c ****   FSMC_PCCARDInitStruct->FSMC_IOSpaceTimingStruct->FSMC_HoldSetupTime = 0xFC;
 2023              		.loc 1 460 0
 2024 0084 7B68     		ldr	r3, [r7, #4]
 2025 0086 5B69     		ldr	r3, [r3, #20]
 2026 0088 4FF0FC02 		mov	r2, #252
 2027 008c 9A60     		str	r2, [r3, #8]
 461:../libs/StdPeripheralDriver/src/stm32f10x_fsmc.c ****   FSMC_PCCARDInitStruct->FSMC_IOSpaceTimingStruct->FSMC_HiZSetupTime = 0xFC;
 2028              		.loc 1 461 0
 2029 008e 7B68     		ldr	r3, [r7, #4]
 2030 0090 5B69     		ldr	r3, [r3, #20]
 2031 0092 4FF0FC02 		mov	r2, #252
 2032 0096 DA60     		str	r2, [r3, #12]
 462:../libs/StdPeripheralDriver/src/stm32f10x_fsmc.c **** }
 2033              		.loc 1 462 0
 2034 0098 07F10C07 		add	r7, r7, #12
 2035 009c BD46     		mov	sp, r7
 2036 009e 80BC     		pop	{r7}
 2037 00a0 7047     		bx	lr
 2038              		.cfi_endproc
 2039              	.LFE37:
 2041 00a2 00BF     		.section	.text.FSMC_NORSRAMCmd,"ax",%progbits
 2042              		.align	2
 2043              		.global	FSMC_NORSRAMCmd
 2044              		.thumb
 2045              		.thumb_func
 2047              	FSMC_NORSRAMCmd:
 2048              	.LFB38:
 463:../libs/StdPeripheralDriver/src/stm32f10x_fsmc.c **** 
 464:../libs/StdPeripheralDriver/src/stm32f10x_fsmc.c **** /**
 465:../libs/StdPeripheralDriver/src/stm32f10x_fsmc.c ****   * @brief  Enables or disables the specified NOR/SRAM Memory Bank.
 466:../libs/StdPeripheralDriver/src/stm32f10x_fsmc.c ****   * @param  FSMC_Bank: specifies the FSMC Bank to be used
 467:../libs/StdPeripheralDriver/src/stm32f10x_fsmc.c ****   *   This parameter can be one of the following values:
 468:../libs/StdPeripheralDriver/src/stm32f10x_fsmc.c ****   *     @arg FSMC_Bank1_NORSRAM1: FSMC Bank1 NOR/SRAM1  
 469:../libs/StdPeripheralDriver/src/stm32f10x_fsmc.c ****   *     @arg FSMC_Bank1_NORSRAM2: FSMC Bank1 NOR/SRAM2 
 470:../libs/StdPeripheralDriver/src/stm32f10x_fsmc.c ****   *     @arg FSMC_Bank1_NORSRAM3: FSMC Bank1 NOR/SRAM3 
 471:../libs/StdPeripheralDriver/src/stm32f10x_fsmc.c ****   *     @arg FSMC_Bank1_NORSRAM4: FSMC Bank1 NOR/SRAM4 
 472:../libs/StdPeripheralDriver/src/stm32f10x_fsmc.c ****   * @param  NewState: new state of the FSMC_Bank. This parameter can be: ENABLE or DISABLE.
 473:../libs/StdPeripheralDriver/src/stm32f10x_fsmc.c ****   * @retval None
 474:../libs/StdPeripheralDriver/src/stm32f10x_fsmc.c ****   */
 475:../libs/StdPeripheralDriver/src/stm32f10x_fsmc.c **** void FSMC_NORSRAMCmd(uint32_t FSMC_Bank, FunctionalState NewState)
 476:../libs/StdPeripheralDriver/src/stm32f10x_fsmc.c **** {
 2049              		.loc 1 476 0
 2050              		.cfi_startproc
 2051              		@ args = 0, pretend = 0, frame = 8
 2052              		@ frame_needed = 1, uses_anonymous_args = 0
 2053 0000 80B5     		push	{r7, lr}
 2054              	.LCFI26:
 2055              		.cfi_def_cfa_offset 8
 2056              		.cfi_offset 7, -8
 2057              		.cfi_offset 14, -4
 2058 0002 82B0     		sub	sp, sp, #8
 2059              	.LCFI27:
 2060              		.cfi_def_cfa_offset 16
 2061 0004 00AF     		add	r7, sp, #0
 2062              	.LCFI28:
 2063              		.cfi_def_cfa_register 7
 2064 0006 7860     		str	r0, [r7, #4]
 2065 0008 0B46     		mov	r3, r1
 2066 000a FB70     		strb	r3, [r7, #3]
 477:../libs/StdPeripheralDriver/src/stm32f10x_fsmc.c ****   assert_param(IS_FSMC_NORSRAM_BANK(FSMC_Bank));
 2067              		.loc 1 477 0
 2068 000c 7B68     		ldr	r3, [r7, #4]
 2069 000e 002B     		cmp	r3, #0
 2070 0010 08D0     		beq	.L105
 2071              		.loc 1 477 0 is_stmt 0 discriminator 2
 2072 0012 7B68     		ldr	r3, [r7, #4]
 2073 0014 022B     		cmp	r3, #2
 2074 0016 05D0     		beq	.L105
 2075              		.loc 1 477 0 discriminator 1
 2076 0018 7B68     		ldr	r3, [r7, #4]
 2077 001a 042B     		cmp	r3, #4
 2078 001c 02D0     		beq	.L105
 2079              		.loc 1 477 0 discriminator 2
 2080 001e 7B68     		ldr	r3, [r7, #4]
 2081 0020 062B     		cmp	r3, #6
 2082 0022 02D1     		bne	.L106
 2083              	.L105:
 2084              		.loc 1 477 0 discriminator 1
 2085 0024 4FF00103 		mov	r3, #1
 2086 0028 01E0     		b	.L107
 2087              	.L106:
 2088              		.loc 1 477 0 discriminator 3
 2089 002a 4FF00003 		mov	r3, #0
 2090              	.L107:
 2091              		.loc 1 477 0 discriminator 4
 2092 002e 1846     		mov	r0, r3
 2093 0030 FFF7FEFF 		bl	assert_param
 478:../libs/StdPeripheralDriver/src/stm32f10x_fsmc.c ****   assert_param(IS_FUNCTIONAL_STATE(NewState));
 2094              		.loc 1 478 0 is_stmt 1 discriminator 4
 2095 0034 FB78     		ldrb	r3, [r7, #3]	@ zero_extendqisi2
 2096 0036 002B     		cmp	r3, #0
 2097 0038 02D0     		beq	.L108
 2098              		.loc 1 478 0 is_stmt 0 discriminator 2
 2099 003a FB78     		ldrb	r3, [r7, #3]	@ zero_extendqisi2
 2100 003c 012B     		cmp	r3, #1
 2101 003e 02D1     		bne	.L109
 2102              	.L108:
 2103              		.loc 1 478 0 discriminator 1
 2104 0040 4FF00103 		mov	r3, #1
 2105 0044 01E0     		b	.L110
 2106              	.L109:
 2107              		.loc 1 478 0 discriminator 3
 2108 0046 4FF00003 		mov	r3, #0
 2109              	.L110:
 2110              		.loc 1 478 0 discriminator 4
 2111 004a 1846     		mov	r0, r3
 2112 004c FFF7FEFF 		bl	assert_param
 479:../libs/StdPeripheralDriver/src/stm32f10x_fsmc.c ****   
 480:../libs/StdPeripheralDriver/src/stm32f10x_fsmc.c ****   if (NewState != DISABLE)
 2113              		.loc 1 480 0 is_stmt 1 discriminator 4
 2114 0050 FB78     		ldrb	r3, [r7, #3]	@ zero_extendqisi2
 2115 0052 002B     		cmp	r3, #0
 2116 0054 0CD0     		beq	.L111
 481:../libs/StdPeripheralDriver/src/stm32f10x_fsmc.c ****   {
 482:../libs/StdPeripheralDriver/src/stm32f10x_fsmc.c ****     /* Enable the selected NOR/SRAM Bank by setting the PBKEN bit in the BCRx register */
 483:../libs/StdPeripheralDriver/src/stm32f10x_fsmc.c ****     FSMC_Bank1->BTCR[FSMC_Bank] |= BCR_MBKEN_Set;
 2117              		.loc 1 483 0
 2118 0056 4FF02043 		mov	r3, #-1610612736
 2119 005a 4FF02042 		mov	r2, #-1610612736
 2120 005e 7968     		ldr	r1, [r7, #4]
 2121 0060 52F82120 		ldr	r2, [r2, r1, lsl #2]
 2122 0064 42F00101 		orr	r1, r2, #1
 2123 0068 7A68     		ldr	r2, [r7, #4]
 2124 006a 43F82210 		str	r1, [r3, r2, lsl #2]
 2125 006e 0BE0     		b	.L104
 2126              	.L111:
 484:../libs/StdPeripheralDriver/src/stm32f10x_fsmc.c ****   }
 485:../libs/StdPeripheralDriver/src/stm32f10x_fsmc.c ****   else
 486:../libs/StdPeripheralDriver/src/stm32f10x_fsmc.c ****   {
 487:../libs/StdPeripheralDriver/src/stm32f10x_fsmc.c ****     /* Disable the selected NOR/SRAM Bank by clearing the PBKEN bit in the BCRx register */
 488:../libs/StdPeripheralDriver/src/stm32f10x_fsmc.c ****     FSMC_Bank1->BTCR[FSMC_Bank] &= BCR_MBKEN_Reset;
 2127              		.loc 1 488 0
 2128 0070 4FF02042 		mov	r2, #-1610612736
 2129 0074 4FF02043 		mov	r3, #-1610612736
 2130 0078 7968     		ldr	r1, [r7, #4]
 2131 007a 53F82110 		ldr	r1, [r3, r1, lsl #2]
 2132 007e 044B     		ldr	r3, .L113
 2133 0080 0B40     		ands	r3, r3, r1
 2134 0082 7968     		ldr	r1, [r7, #4]
 2135 0084 42F82130 		str	r3, [r2, r1, lsl #2]
 2136              	.L104:
 489:../libs/StdPeripheralDriver/src/stm32f10x_fsmc.c ****   }
 490:../libs/StdPeripheralDriver/src/stm32f10x_fsmc.c **** }
 2137              		.loc 1 490 0
 2138 0088 07F10807 		add	r7, r7, #8
 2139 008c BD46     		mov	sp, r7
 2140 008e 80BD     		pop	{r7, pc}
 2141              	.L114:
 2142              		.align	2
 2143              	.L113:
 2144 0090 FEFF0F00 		.word	1048574
 2145              		.cfi_endproc
 2146              	.LFE38:
 2148              		.section	.text.FSMC_NANDCmd,"ax",%progbits
 2149              		.align	2
 2150              		.global	FSMC_NANDCmd
 2151              		.thumb
 2152              		.thumb_func
 2154              	FSMC_NANDCmd:
 2155              	.LFB39:
 491:../libs/StdPeripheralDriver/src/stm32f10x_fsmc.c **** 
 492:../libs/StdPeripheralDriver/src/stm32f10x_fsmc.c **** /**
 493:../libs/StdPeripheralDriver/src/stm32f10x_fsmc.c ****   * @brief  Enables or disables the specified NAND Memory Bank.
 494:../libs/StdPeripheralDriver/src/stm32f10x_fsmc.c ****   * @param  FSMC_Bank: specifies the FSMC Bank to be used
 495:../libs/StdPeripheralDriver/src/stm32f10x_fsmc.c ****   *   This parameter can be one of the following values:
 496:../libs/StdPeripheralDriver/src/stm32f10x_fsmc.c ****   *     @arg FSMC_Bank2_NAND: FSMC Bank2 NAND 
 497:../libs/StdPeripheralDriver/src/stm32f10x_fsmc.c ****   *     @arg FSMC_Bank3_NAND: FSMC Bank3 NAND
 498:../libs/StdPeripheralDriver/src/stm32f10x_fsmc.c ****   * @param  NewState: new state of the FSMC_Bank. This parameter can be: ENABLE or DISABLE.
 499:../libs/StdPeripheralDriver/src/stm32f10x_fsmc.c ****   * @retval None
 500:../libs/StdPeripheralDriver/src/stm32f10x_fsmc.c ****   */
 501:../libs/StdPeripheralDriver/src/stm32f10x_fsmc.c **** void FSMC_NANDCmd(uint32_t FSMC_Bank, FunctionalState NewState)
 502:../libs/StdPeripheralDriver/src/stm32f10x_fsmc.c **** {
 2156              		.loc 1 502 0
 2157              		.cfi_startproc
 2158              		@ args = 0, pretend = 0, frame = 8
 2159              		@ frame_needed = 1, uses_anonymous_args = 0
 2160 0000 80B5     		push	{r7, lr}
 2161              	.LCFI29:
 2162              		.cfi_def_cfa_offset 8
 2163              		.cfi_offset 7, -8
 2164              		.cfi_offset 14, -4
 2165 0002 82B0     		sub	sp, sp, #8
 2166              	.LCFI30:
 2167              		.cfi_def_cfa_offset 16
 2168 0004 00AF     		add	r7, sp, #0
 2169              	.LCFI31:
 2170              		.cfi_def_cfa_register 7
 2171 0006 7860     		str	r0, [r7, #4]
 2172 0008 0B46     		mov	r3, r1
 2173 000a FB70     		strb	r3, [r7, #3]
 503:../libs/StdPeripheralDriver/src/stm32f10x_fsmc.c ****   assert_param(IS_FSMC_NAND_BANK(FSMC_Bank));
 2174              		.loc 1 503 0
 2175 000c 7B68     		ldr	r3, [r7, #4]
 2176 000e 102B     		cmp	r3, #16
 2177 0010 03D0     		beq	.L116
 2178              		.loc 1 503 0 is_stmt 0 discriminator 2
 2179 0012 7B68     		ldr	r3, [r7, #4]
 2180 0014 B3F5807F 		cmp	r3, #256
 2181 0018 02D1     		bne	.L117
 2182              	.L116:
 2183              		.loc 1 503 0 discriminator 1
 2184 001a 4FF00103 		mov	r3, #1
 2185 001e 01E0     		b	.L118
 2186              	.L117:
 2187              		.loc 1 503 0 discriminator 3
 2188 0020 4FF00003 		mov	r3, #0
 2189              	.L118:
 2190              		.loc 1 503 0 discriminator 4
 2191 0024 1846     		mov	r0, r3
 2192 0026 FFF7FEFF 		bl	assert_param
 504:../libs/StdPeripheralDriver/src/stm32f10x_fsmc.c ****   assert_param(IS_FUNCTIONAL_STATE(NewState));
 2193              		.loc 1 504 0 is_stmt 1 discriminator 4
 2194 002a FB78     		ldrb	r3, [r7, #3]	@ zero_extendqisi2
 2195 002c 002B     		cmp	r3, #0
 2196 002e 02D0     		beq	.L119
 2197              		.loc 1 504 0 is_stmt 0 discriminator 2
 2198 0030 FB78     		ldrb	r3, [r7, #3]	@ zero_extendqisi2
 2199 0032 012B     		cmp	r3, #1
 2200 0034 02D1     		bne	.L120
 2201              	.L119:
 2202              		.loc 1 504 0 discriminator 1
 2203 0036 4FF00103 		mov	r3, #1
 2204 003a 01E0     		b	.L121
 2205              	.L120:
 2206              		.loc 1 504 0 discriminator 3
 2207 003c 4FF00003 		mov	r3, #0
 2208              	.L121:
 2209              		.loc 1 504 0 discriminator 4
 2210 0040 1846     		mov	r0, r3
 2211 0042 FFF7FEFF 		bl	assert_param
 505:../libs/StdPeripheralDriver/src/stm32f10x_fsmc.c ****   
 506:../libs/StdPeripheralDriver/src/stm32f10x_fsmc.c ****   if (NewState != DISABLE)
 2212              		.loc 1 506 0 is_stmt 1 discriminator 4
 2213 0046 FB78     		ldrb	r3, [r7, #3]	@ zero_extendqisi2
 2214 0048 002B     		cmp	r3, #0
 2215 004a 10D0     		beq	.L122
 507:../libs/StdPeripheralDriver/src/stm32f10x_fsmc.c ****   {
 508:../libs/StdPeripheralDriver/src/stm32f10x_fsmc.c ****     /* Enable the selected NAND Bank by setting the PBKEN bit in the PCRx register */
 509:../libs/StdPeripheralDriver/src/stm32f10x_fsmc.c ****     if(FSMC_Bank == FSMC_Bank2_NAND)
 2216              		.loc 1 509 0
 2217 004c 7B68     		ldr	r3, [r7, #4]
 2218 004e 102B     		cmp	r3, #16
 2219 0050 06D1     		bne	.L123
 510:../libs/StdPeripheralDriver/src/stm32f10x_fsmc.c ****     {
 511:../libs/StdPeripheralDriver/src/stm32f10x_fsmc.c ****       FSMC_Bank2->PCR2 |= PCR_PBKEN_Set;
 2220              		.loc 1 511 0
 2221 0052 114B     		ldr	r3, .L126
 2222 0054 104A     		ldr	r2, .L126
 2223 0056 1268     		ldr	r2, [r2, #0]
 2224 0058 42F00402 		orr	r2, r2, #4
 2225 005c 1A60     		str	r2, [r3, #0]
 2226 005e 16E0     		b	.L115
 2227              	.L123:
 512:../libs/StdPeripheralDriver/src/stm32f10x_fsmc.c ****     }
 513:../libs/StdPeripheralDriver/src/stm32f10x_fsmc.c ****     else
 514:../libs/StdPeripheralDriver/src/stm32f10x_fsmc.c ****     {
 515:../libs/StdPeripheralDriver/src/stm32f10x_fsmc.c ****       FSMC_Bank3->PCR3 |= PCR_PBKEN_Set;
 2228              		.loc 1 515 0
 2229 0060 0E4B     		ldr	r3, .L126+4
 2230 0062 0E4A     		ldr	r2, .L126+4
 2231 0064 1268     		ldr	r2, [r2, #0]
 2232 0066 42F00402 		orr	r2, r2, #4
 2233 006a 1A60     		str	r2, [r3, #0]
 2234 006c 0FE0     		b	.L115
 2235              	.L122:
 516:../libs/StdPeripheralDriver/src/stm32f10x_fsmc.c ****     }
 517:../libs/StdPeripheralDriver/src/stm32f10x_fsmc.c ****   }
 518:../libs/StdPeripheralDriver/src/stm32f10x_fsmc.c ****   else
 519:../libs/StdPeripheralDriver/src/stm32f10x_fsmc.c ****   {
 520:../libs/StdPeripheralDriver/src/stm32f10x_fsmc.c ****     /* Disable the selected NAND Bank by clearing the PBKEN bit in the PCRx register */
 521:../libs/StdPeripheralDriver/src/stm32f10x_fsmc.c ****     if(FSMC_Bank == FSMC_Bank2_NAND)
 2236              		.loc 1 521 0
 2237 006e 7B68     		ldr	r3, [r7, #4]
 2238 0070 102B     		cmp	r3, #16
 2239 0072 06D1     		bne	.L125
 522:../libs/StdPeripheralDriver/src/stm32f10x_fsmc.c ****     {
 523:../libs/StdPeripheralDriver/src/stm32f10x_fsmc.c ****       FSMC_Bank2->PCR2 &= PCR_PBKEN_Reset;
 2240              		.loc 1 523 0
 2241 0074 084A     		ldr	r2, .L126
 2242 0076 084B     		ldr	r3, .L126
 2243 0078 1968     		ldr	r1, [r3, #0]
 2244 007a 094B     		ldr	r3, .L126+8
 2245 007c 0B40     		ands	r3, r3, r1
 2246 007e 1360     		str	r3, [r2, #0]
 2247 0080 05E0     		b	.L115
 2248              	.L125:
 524:../libs/StdPeripheralDriver/src/stm32f10x_fsmc.c ****     }
 525:../libs/StdPeripheralDriver/src/stm32f10x_fsmc.c ****     else
 526:../libs/StdPeripheralDriver/src/stm32f10x_fsmc.c ****     {
 527:../libs/StdPeripheralDriver/src/stm32f10x_fsmc.c ****       FSMC_Bank3->PCR3 &= PCR_PBKEN_Reset;
 2249              		.loc 1 527 0
 2250 0082 064A     		ldr	r2, .L126+4
 2251 0084 054B     		ldr	r3, .L126+4
 2252 0086 1968     		ldr	r1, [r3, #0]
 2253 0088 054B     		ldr	r3, .L126+8
 2254 008a 0B40     		ands	r3, r3, r1
 2255 008c 1360     		str	r3, [r2, #0]
 2256              	.L115:
 528:../libs/StdPeripheralDriver/src/stm32f10x_fsmc.c ****     }
 529:../libs/StdPeripheralDriver/src/stm32f10x_fsmc.c ****   }
 530:../libs/StdPeripheralDriver/src/stm32f10x_fsmc.c **** }
 2257              		.loc 1 530 0
 2258 008e 07F10807 		add	r7, r7, #8
 2259 0092 BD46     		mov	sp, r7
 2260 0094 80BD     		pop	{r7, pc}
 2261              	.L127:
 2262 0096 00BF     		.align	2
 2263              	.L126:
 2264 0098 600000A0 		.word	-1610612640
 2265 009c 800000A0 		.word	-1610612608
 2266 00a0 FBFF0F00 		.word	1048571
 2267              		.cfi_endproc
 2268              	.LFE39:
 2270              		.section	.text.FSMC_PCCARDCmd,"ax",%progbits
 2271              		.align	2
 2272              		.global	FSMC_PCCARDCmd
 2273              		.thumb
 2274              		.thumb_func
 2276              	FSMC_PCCARDCmd:
 2277              	.LFB40:
 531:../libs/StdPeripheralDriver/src/stm32f10x_fsmc.c **** 
 532:../libs/StdPeripheralDriver/src/stm32f10x_fsmc.c **** /**
 533:../libs/StdPeripheralDriver/src/stm32f10x_fsmc.c ****   * @brief  Enables or disables the PCCARD Memory Bank.
 534:../libs/StdPeripheralDriver/src/stm32f10x_fsmc.c ****   * @param  NewState: new state of the PCCARD Memory Bank.  
 535:../libs/StdPeripheralDriver/src/stm32f10x_fsmc.c ****   *   This parameter can be: ENABLE or DISABLE.
 536:../libs/StdPeripheralDriver/src/stm32f10x_fsmc.c ****   * @retval None
 537:../libs/StdPeripheralDriver/src/stm32f10x_fsmc.c ****   */
 538:../libs/StdPeripheralDriver/src/stm32f10x_fsmc.c **** void FSMC_PCCARDCmd(FunctionalState NewState)
 539:../libs/StdPeripheralDriver/src/stm32f10x_fsmc.c **** {
 2278              		.loc 1 539 0
 2279              		.cfi_startproc
 2280              		@ args = 0, pretend = 0, frame = 8
 2281              		@ frame_needed = 1, uses_anonymous_args = 0
 2282 0000 80B5     		push	{r7, lr}
 2283              	.LCFI32:
 2284              		.cfi_def_cfa_offset 8
 2285              		.cfi_offset 7, -8
 2286              		.cfi_offset 14, -4
 2287 0002 82B0     		sub	sp, sp, #8
 2288              	.LCFI33:
 2289              		.cfi_def_cfa_offset 16
 2290 0004 00AF     		add	r7, sp, #0
 2291              	.LCFI34:
 2292              		.cfi_def_cfa_register 7
 2293 0006 0346     		mov	r3, r0
 2294 0008 FB71     		strb	r3, [r7, #7]
 540:../libs/StdPeripheralDriver/src/stm32f10x_fsmc.c ****   assert_param(IS_FUNCTIONAL_STATE(NewState));
 2295              		.loc 1 540 0
 2296 000a FB79     		ldrb	r3, [r7, #7]	@ zero_extendqisi2
 2297 000c 002B     		cmp	r3, #0
 2298 000e 02D0     		beq	.L129
 2299              		.loc 1 540 0 is_stmt 0 discriminator 2
 2300 0010 FB79     		ldrb	r3, [r7, #7]	@ zero_extendqisi2
 2301 0012 012B     		cmp	r3, #1
 2302 0014 02D1     		bne	.L130
 2303              	.L129:
 2304              		.loc 1 540 0 discriminator 1
 2305 0016 4FF00103 		mov	r3, #1
 2306 001a 01E0     		b	.L131
 2307              	.L130:
 2308              		.loc 1 540 0 discriminator 3
 2309 001c 4FF00003 		mov	r3, #0
 2310              	.L131:
 2311              		.loc 1 540 0 discriminator 4
 2312 0020 1846     		mov	r0, r3
 2313 0022 FFF7FEFF 		bl	assert_param
 541:../libs/StdPeripheralDriver/src/stm32f10x_fsmc.c ****   
 542:../libs/StdPeripheralDriver/src/stm32f10x_fsmc.c ****   if (NewState != DISABLE)
 2314              		.loc 1 542 0 is_stmt 1 discriminator 4
 2315 0026 FB79     		ldrb	r3, [r7, #7]	@ zero_extendqisi2
 2316 0028 002B     		cmp	r3, #0
 2317 002a 06D0     		beq	.L132
 543:../libs/StdPeripheralDriver/src/stm32f10x_fsmc.c ****   {
 544:../libs/StdPeripheralDriver/src/stm32f10x_fsmc.c ****     /* Enable the PCCARD Bank by setting the PBKEN bit in the PCR4 register */
 545:../libs/StdPeripheralDriver/src/stm32f10x_fsmc.c ****     FSMC_Bank4->PCR4 |= PCR_PBKEN_Set;
 2318              		.loc 1 545 0
 2319 002c 084B     		ldr	r3, .L134
 2320 002e 084A     		ldr	r2, .L134
 2321 0030 1268     		ldr	r2, [r2, #0]
 2322 0032 42F00402 		orr	r2, r2, #4
 2323 0036 1A60     		str	r2, [r3, #0]
 2324 0038 05E0     		b	.L128
 2325              	.L132:
 546:../libs/StdPeripheralDriver/src/stm32f10x_fsmc.c ****   }
 547:../libs/StdPeripheralDriver/src/stm32f10x_fsmc.c ****   else
 548:../libs/StdPeripheralDriver/src/stm32f10x_fsmc.c ****   {
 549:../libs/StdPeripheralDriver/src/stm32f10x_fsmc.c ****     /* Disable the PCCARD Bank by clearing the PBKEN bit in the PCR4 register */
 550:../libs/StdPeripheralDriver/src/stm32f10x_fsmc.c ****     FSMC_Bank4->PCR4 &= PCR_PBKEN_Reset;
 2326              		.loc 1 550 0
 2327 003a 054A     		ldr	r2, .L134
 2328 003c 044B     		ldr	r3, .L134
 2329 003e 1968     		ldr	r1, [r3, #0]
 2330 0040 044B     		ldr	r3, .L134+4
 2331 0042 0B40     		ands	r3, r3, r1
 2332 0044 1360     		str	r3, [r2, #0]
 2333              	.L128:
 551:../libs/StdPeripheralDriver/src/stm32f10x_fsmc.c ****   }
 552:../libs/StdPeripheralDriver/src/stm32f10x_fsmc.c **** }
 2334              		.loc 1 552 0
 2335 0046 07F10807 		add	r7, r7, #8
 2336 004a BD46     		mov	sp, r7
 2337 004c 80BD     		pop	{r7, pc}
 2338              	.L135:
 2339 004e 00BF     		.align	2
 2340              	.L134:
 2341 0050 A00000A0 		.word	-1610612576
 2342 0054 FBFF0F00 		.word	1048571
 2343              		.cfi_endproc
 2344              	.LFE40:
 2346              		.section	.text.FSMC_NANDECCCmd,"ax",%progbits
 2347              		.align	2
 2348              		.global	FSMC_NANDECCCmd
 2349              		.thumb
 2350              		.thumb_func
 2352              	FSMC_NANDECCCmd:
 2353              	.LFB41:
 553:../libs/StdPeripheralDriver/src/stm32f10x_fsmc.c **** 
 554:../libs/StdPeripheralDriver/src/stm32f10x_fsmc.c **** /**
 555:../libs/StdPeripheralDriver/src/stm32f10x_fsmc.c ****   * @brief  Enables or disables the FSMC NAND ECC feature.
 556:../libs/StdPeripheralDriver/src/stm32f10x_fsmc.c ****   * @param  FSMC_Bank: specifies the FSMC Bank to be used
 557:../libs/StdPeripheralDriver/src/stm32f10x_fsmc.c ****   *   This parameter can be one of the following values:
 558:../libs/StdPeripheralDriver/src/stm32f10x_fsmc.c ****   *     @arg FSMC_Bank2_NAND: FSMC Bank2 NAND 
 559:../libs/StdPeripheralDriver/src/stm32f10x_fsmc.c ****   *     @arg FSMC_Bank3_NAND: FSMC Bank3 NAND
 560:../libs/StdPeripheralDriver/src/stm32f10x_fsmc.c ****   * @param  NewState: new state of the FSMC NAND ECC feature.  
 561:../libs/StdPeripheralDriver/src/stm32f10x_fsmc.c ****   *   This parameter can be: ENABLE or DISABLE.
 562:../libs/StdPeripheralDriver/src/stm32f10x_fsmc.c ****   * @retval None
 563:../libs/StdPeripheralDriver/src/stm32f10x_fsmc.c ****   */
 564:../libs/StdPeripheralDriver/src/stm32f10x_fsmc.c **** void FSMC_NANDECCCmd(uint32_t FSMC_Bank, FunctionalState NewState)
 565:../libs/StdPeripheralDriver/src/stm32f10x_fsmc.c **** {
 2354              		.loc 1 565 0
 2355              		.cfi_startproc
 2356              		@ args = 0, pretend = 0, frame = 8
 2357              		@ frame_needed = 1, uses_anonymous_args = 0
 2358 0000 80B5     		push	{r7, lr}
 2359              	.LCFI35:
 2360              		.cfi_def_cfa_offset 8
 2361              		.cfi_offset 7, -8
 2362              		.cfi_offset 14, -4
 2363 0002 82B0     		sub	sp, sp, #8
 2364              	.LCFI36:
 2365              		.cfi_def_cfa_offset 16
 2366 0004 00AF     		add	r7, sp, #0
 2367              	.LCFI37:
 2368              		.cfi_def_cfa_register 7
 2369 0006 7860     		str	r0, [r7, #4]
 2370 0008 0B46     		mov	r3, r1
 2371 000a FB70     		strb	r3, [r7, #3]
 566:../libs/StdPeripheralDriver/src/stm32f10x_fsmc.c ****   assert_param(IS_FSMC_NAND_BANK(FSMC_Bank));
 2372              		.loc 1 566 0
 2373 000c 7B68     		ldr	r3, [r7, #4]
 2374 000e 102B     		cmp	r3, #16
 2375 0010 03D0     		beq	.L137
 2376              		.loc 1 566 0 is_stmt 0 discriminator 2
 2377 0012 7B68     		ldr	r3, [r7, #4]
 2378 0014 B3F5807F 		cmp	r3, #256
 2379 0018 02D1     		bne	.L138
 2380              	.L137:
 2381              		.loc 1 566 0 discriminator 1
 2382 001a 4FF00103 		mov	r3, #1
 2383 001e 01E0     		b	.L139
 2384              	.L138:
 2385              		.loc 1 566 0 discriminator 3
 2386 0020 4FF00003 		mov	r3, #0
 2387              	.L139:
 2388              		.loc 1 566 0 discriminator 4
 2389 0024 1846     		mov	r0, r3
 2390 0026 FFF7FEFF 		bl	assert_param
 567:../libs/StdPeripheralDriver/src/stm32f10x_fsmc.c ****   assert_param(IS_FUNCTIONAL_STATE(NewState));
 2391              		.loc 1 567 0 is_stmt 1 discriminator 4
 2392 002a FB78     		ldrb	r3, [r7, #3]	@ zero_extendqisi2
 2393 002c 002B     		cmp	r3, #0
 2394 002e 02D0     		beq	.L140
 2395              		.loc 1 567 0 is_stmt 0 discriminator 2
 2396 0030 FB78     		ldrb	r3, [r7, #3]	@ zero_extendqisi2
 2397 0032 012B     		cmp	r3, #1
 2398 0034 02D1     		bne	.L141
 2399              	.L140:
 2400              		.loc 1 567 0 discriminator 1
 2401 0036 4FF00103 		mov	r3, #1
 2402 003a 01E0     		b	.L142
 2403              	.L141:
 2404              		.loc 1 567 0 discriminator 3
 2405 003c 4FF00003 		mov	r3, #0
 2406              	.L142:
 2407              		.loc 1 567 0 discriminator 4
 2408 0040 1846     		mov	r0, r3
 2409 0042 FFF7FEFF 		bl	assert_param
 568:../libs/StdPeripheralDriver/src/stm32f10x_fsmc.c ****   
 569:../libs/StdPeripheralDriver/src/stm32f10x_fsmc.c ****   if (NewState != DISABLE)
 2410              		.loc 1 569 0 is_stmt 1 discriminator 4
 2411 0046 FB78     		ldrb	r3, [r7, #3]	@ zero_extendqisi2
 2412 0048 002B     		cmp	r3, #0
 2413 004a 10D0     		beq	.L143
 570:../libs/StdPeripheralDriver/src/stm32f10x_fsmc.c ****   {
 571:../libs/StdPeripheralDriver/src/stm32f10x_fsmc.c ****     /* Enable the selected NAND Bank ECC function by setting the ECCEN bit in the PCRx register */
 572:../libs/StdPeripheralDriver/src/stm32f10x_fsmc.c ****     if(FSMC_Bank == FSMC_Bank2_NAND)
 2414              		.loc 1 572 0
 2415 004c 7B68     		ldr	r3, [r7, #4]
 2416 004e 102B     		cmp	r3, #16
 2417 0050 06D1     		bne	.L144
 573:../libs/StdPeripheralDriver/src/stm32f10x_fsmc.c ****     {
 574:../libs/StdPeripheralDriver/src/stm32f10x_fsmc.c ****       FSMC_Bank2->PCR2 |= PCR_ECCEN_Set;
 2418              		.loc 1 574 0
 2419 0052 114B     		ldr	r3, .L147
 2420 0054 104A     		ldr	r2, .L147
 2421 0056 1268     		ldr	r2, [r2, #0]
 2422 0058 42F04002 		orr	r2, r2, #64
 2423 005c 1A60     		str	r2, [r3, #0]
 2424 005e 16E0     		b	.L136
 2425              	.L144:
 575:../libs/StdPeripheralDriver/src/stm32f10x_fsmc.c ****     }
 576:../libs/StdPeripheralDriver/src/stm32f10x_fsmc.c ****     else
 577:../libs/StdPeripheralDriver/src/stm32f10x_fsmc.c ****     {
 578:../libs/StdPeripheralDriver/src/stm32f10x_fsmc.c ****       FSMC_Bank3->PCR3 |= PCR_ECCEN_Set;
 2426              		.loc 1 578 0
 2427 0060 0E4B     		ldr	r3, .L147+4
 2428 0062 0E4A     		ldr	r2, .L147+4
 2429 0064 1268     		ldr	r2, [r2, #0]
 2430 0066 42F04002 		orr	r2, r2, #64
 2431 006a 1A60     		str	r2, [r3, #0]
 2432 006c 0FE0     		b	.L136
 2433              	.L143:
 579:../libs/StdPeripheralDriver/src/stm32f10x_fsmc.c ****     }
 580:../libs/StdPeripheralDriver/src/stm32f10x_fsmc.c ****   }
 581:../libs/StdPeripheralDriver/src/stm32f10x_fsmc.c ****   else
 582:../libs/StdPeripheralDriver/src/stm32f10x_fsmc.c ****   {
 583:../libs/StdPeripheralDriver/src/stm32f10x_fsmc.c ****     /* Disable the selected NAND Bank ECC function by clearing the ECCEN bit in the PCRx register *
 584:../libs/StdPeripheralDriver/src/stm32f10x_fsmc.c ****     if(FSMC_Bank == FSMC_Bank2_NAND)
 2434              		.loc 1 584 0
 2435 006e 7B68     		ldr	r3, [r7, #4]
 2436 0070 102B     		cmp	r3, #16
 2437 0072 06D1     		bne	.L146
 585:../libs/StdPeripheralDriver/src/stm32f10x_fsmc.c ****     {
 586:../libs/StdPeripheralDriver/src/stm32f10x_fsmc.c ****       FSMC_Bank2->PCR2 &= PCR_ECCEN_Reset;
 2438              		.loc 1 586 0
 2439 0074 084A     		ldr	r2, .L147
 2440 0076 084B     		ldr	r3, .L147
 2441 0078 1968     		ldr	r1, [r3, #0]
 2442 007a 094B     		ldr	r3, .L147+8
 2443 007c 0B40     		ands	r3, r3, r1
 2444 007e 1360     		str	r3, [r2, #0]
 2445 0080 05E0     		b	.L136
 2446              	.L146:
 587:../libs/StdPeripheralDriver/src/stm32f10x_fsmc.c ****     }
 588:../libs/StdPeripheralDriver/src/stm32f10x_fsmc.c ****     else
 589:../libs/StdPeripheralDriver/src/stm32f10x_fsmc.c ****     {
 590:../libs/StdPeripheralDriver/src/stm32f10x_fsmc.c ****       FSMC_Bank3->PCR3 &= PCR_ECCEN_Reset;
 2447              		.loc 1 590 0
 2448 0082 064A     		ldr	r2, .L147+4
 2449 0084 054B     		ldr	r3, .L147+4
 2450 0086 1968     		ldr	r1, [r3, #0]
 2451 0088 054B     		ldr	r3, .L147+8
 2452 008a 0B40     		ands	r3, r3, r1
 2453 008c 1360     		str	r3, [r2, #0]
 2454              	.L136:
 591:../libs/StdPeripheralDriver/src/stm32f10x_fsmc.c ****     }
 592:../libs/StdPeripheralDriver/src/stm32f10x_fsmc.c ****   }
 593:../libs/StdPeripheralDriver/src/stm32f10x_fsmc.c **** }
 2455              		.loc 1 593 0
 2456 008e 07F10807 		add	r7, r7, #8
 2457 0092 BD46     		mov	sp, r7
 2458 0094 80BD     		pop	{r7, pc}
 2459              	.L148:
 2460 0096 00BF     		.align	2
 2461              	.L147:
 2462 0098 600000A0 		.word	-1610612640
 2463 009c 800000A0 		.word	-1610612608
 2464 00a0 BFFF0F00 		.word	1048511
 2465              		.cfi_endproc
 2466              	.LFE41:
 2468              		.section	.text.FSMC_GetECC,"ax",%progbits
 2469              		.align	2
 2470              		.global	FSMC_GetECC
 2471              		.thumb
 2472              		.thumb_func
 2474              	FSMC_GetECC:
 2475              	.LFB42:
 594:../libs/StdPeripheralDriver/src/stm32f10x_fsmc.c **** 
 595:../libs/StdPeripheralDriver/src/stm32f10x_fsmc.c **** /**
 596:../libs/StdPeripheralDriver/src/stm32f10x_fsmc.c ****   * @brief  Returns the error correction code register value.
 597:../libs/StdPeripheralDriver/src/stm32f10x_fsmc.c ****   * @param  FSMC_Bank: specifies the FSMC Bank to be used
 598:../libs/StdPeripheralDriver/src/stm32f10x_fsmc.c ****   *   This parameter can be one of the following values:
 599:../libs/StdPeripheralDriver/src/stm32f10x_fsmc.c ****   *     @arg FSMC_Bank2_NAND: FSMC Bank2 NAND 
 600:../libs/StdPeripheralDriver/src/stm32f10x_fsmc.c ****   *     @arg FSMC_Bank3_NAND: FSMC Bank3 NAND
 601:../libs/StdPeripheralDriver/src/stm32f10x_fsmc.c ****   * @retval The Error Correction Code (ECC) value.
 602:../libs/StdPeripheralDriver/src/stm32f10x_fsmc.c ****   */
 603:../libs/StdPeripheralDriver/src/stm32f10x_fsmc.c **** uint32_t FSMC_GetECC(uint32_t FSMC_Bank)
 604:../libs/StdPeripheralDriver/src/stm32f10x_fsmc.c **** {
 2476              		.loc 1 604 0
 2477              		.cfi_startproc
 2478              		@ args = 0, pretend = 0, frame = 16
 2479              		@ frame_needed = 1, uses_anonymous_args = 0
 2480              		@ link register save eliminated.
 2481 0000 80B4     		push	{r7}
 2482              	.LCFI38:
 2483              		.cfi_def_cfa_offset 4
 2484              		.cfi_offset 7, -4
 2485 0002 85B0     		sub	sp, sp, #20
 2486              	.LCFI39:
 2487              		.cfi_def_cfa_offset 24
 2488 0004 00AF     		add	r7, sp, #0
 2489              	.LCFI40:
 2490              		.cfi_def_cfa_register 7
 2491 0006 7860     		str	r0, [r7, #4]
 605:../libs/StdPeripheralDriver/src/stm32f10x_fsmc.c ****   uint32_t eccval = 0x00000000;
 2492              		.loc 1 605 0
 2493 0008 4FF00003 		mov	r3, #0
 2494 000c FB60     		str	r3, [r7, #12]
 606:../libs/StdPeripheralDriver/src/stm32f10x_fsmc.c ****   
 607:../libs/StdPeripheralDriver/src/stm32f10x_fsmc.c ****   if(FSMC_Bank == FSMC_Bank2_NAND)
 2495              		.loc 1 607 0
 2496 000e 7B68     		ldr	r3, [r7, #4]
 2497 0010 102B     		cmp	r3, #16
 2498 0012 03D1     		bne	.L150
 608:../libs/StdPeripheralDriver/src/stm32f10x_fsmc.c ****   {
 609:../libs/StdPeripheralDriver/src/stm32f10x_fsmc.c ****     /* Get the ECCR2 register value */
 610:../libs/StdPeripheralDriver/src/stm32f10x_fsmc.c ****     eccval = FSMC_Bank2->ECCR2;
 2499              		.loc 1 610 0
 2500 0014 064B     		ldr	r3, .L153
 2501 0016 5B69     		ldr	r3, [r3, #20]
 2502 0018 FB60     		str	r3, [r7, #12]
 2503 001a 02E0     		b	.L151
 2504              	.L150:
 611:../libs/StdPeripheralDriver/src/stm32f10x_fsmc.c ****   }
 612:../libs/StdPeripheralDriver/src/stm32f10x_fsmc.c ****   else
 613:../libs/StdPeripheralDriver/src/stm32f10x_fsmc.c ****   {
 614:../libs/StdPeripheralDriver/src/stm32f10x_fsmc.c ****     /* Get the ECCR3 register value */
 615:../libs/StdPeripheralDriver/src/stm32f10x_fsmc.c ****     eccval = FSMC_Bank3->ECCR3;
 2505              		.loc 1 615 0
 2506 001c 054B     		ldr	r3, .L153+4
 2507 001e 5B69     		ldr	r3, [r3, #20]
 2508 0020 FB60     		str	r3, [r7, #12]
 2509              	.L151:
 616:../libs/StdPeripheralDriver/src/stm32f10x_fsmc.c ****   }
 617:../libs/StdPeripheralDriver/src/stm32f10x_fsmc.c ****   /* Return the error correction code value */
 618:../libs/StdPeripheralDriver/src/stm32f10x_fsmc.c ****   return(eccval);
 2510              		.loc 1 618 0
 2511 0022 FB68     		ldr	r3, [r7, #12]
 619:../libs/StdPeripheralDriver/src/stm32f10x_fsmc.c **** }
 2512              		.loc 1 619 0
 2513 0024 1846     		mov	r0, r3
 2514 0026 07F11407 		add	r7, r7, #20
 2515 002a BD46     		mov	sp, r7
 2516 002c 80BC     		pop	{r7}
 2517 002e 7047     		bx	lr
 2518              	.L154:
 2519              		.align	2
 2520              	.L153:
 2521 0030 600000A0 		.word	-1610612640
 2522 0034 800000A0 		.word	-1610612608
 2523              		.cfi_endproc
 2524              	.LFE42:
 2526              		.section	.text.FSMC_ITConfig,"ax",%progbits
 2527              		.align	2
 2528              		.global	FSMC_ITConfig
 2529              		.thumb
 2530              		.thumb_func
 2532              	FSMC_ITConfig:
 2533              	.LFB43:
 620:../libs/StdPeripheralDriver/src/stm32f10x_fsmc.c **** 
 621:../libs/StdPeripheralDriver/src/stm32f10x_fsmc.c **** /**
 622:../libs/StdPeripheralDriver/src/stm32f10x_fsmc.c ****   * @brief  Enables or disables the specified FSMC interrupts.
 623:../libs/StdPeripheralDriver/src/stm32f10x_fsmc.c ****   * @param  FSMC_Bank: specifies the FSMC Bank to be used
 624:../libs/StdPeripheralDriver/src/stm32f10x_fsmc.c ****   *   This parameter can be one of the following values:
 625:../libs/StdPeripheralDriver/src/stm32f10x_fsmc.c ****   *     @arg FSMC_Bank2_NAND: FSMC Bank2 NAND 
 626:../libs/StdPeripheralDriver/src/stm32f10x_fsmc.c ****   *     @arg FSMC_Bank3_NAND: FSMC Bank3 NAND
 627:../libs/StdPeripheralDriver/src/stm32f10x_fsmc.c ****   *     @arg FSMC_Bank4_PCCARD: FSMC Bank4 PCCARD
 628:../libs/StdPeripheralDriver/src/stm32f10x_fsmc.c ****   * @param  FSMC_IT: specifies the FSMC interrupt sources to be enabled or disabled.
 629:../libs/StdPeripheralDriver/src/stm32f10x_fsmc.c ****   *   This parameter can be any combination of the following values:
 630:../libs/StdPeripheralDriver/src/stm32f10x_fsmc.c ****   *     @arg FSMC_IT_RisingEdge: Rising edge detection interrupt. 
 631:../libs/StdPeripheralDriver/src/stm32f10x_fsmc.c ****   *     @arg FSMC_IT_Level: Level edge detection interrupt.
 632:../libs/StdPeripheralDriver/src/stm32f10x_fsmc.c ****   *     @arg FSMC_IT_FallingEdge: Falling edge detection interrupt.
 633:../libs/StdPeripheralDriver/src/stm32f10x_fsmc.c ****   * @param  NewState: new state of the specified FSMC interrupts.
 634:../libs/StdPeripheralDriver/src/stm32f10x_fsmc.c ****   *   This parameter can be: ENABLE or DISABLE.
 635:../libs/StdPeripheralDriver/src/stm32f10x_fsmc.c ****   * @retval None
 636:../libs/StdPeripheralDriver/src/stm32f10x_fsmc.c ****   */
 637:../libs/StdPeripheralDriver/src/stm32f10x_fsmc.c **** void FSMC_ITConfig(uint32_t FSMC_Bank, uint32_t FSMC_IT, FunctionalState NewState)
 638:../libs/StdPeripheralDriver/src/stm32f10x_fsmc.c **** {
 2534              		.loc 1 638 0
 2535              		.cfi_startproc
 2536              		@ args = 0, pretend = 0, frame = 16
 2537              		@ frame_needed = 1, uses_anonymous_args = 0
 2538 0000 80B5     		push	{r7, lr}
 2539              	.LCFI41:
 2540              		.cfi_def_cfa_offset 8
 2541              		.cfi_offset 7, -8
 2542              		.cfi_offset 14, -4
 2543 0002 84B0     		sub	sp, sp, #16
 2544              	.LCFI42:
 2545              		.cfi_def_cfa_offset 24
 2546 0004 00AF     		add	r7, sp, #0
 2547              	.LCFI43:
 2548              		.cfi_def_cfa_register 7
 2549 0006 F860     		str	r0, [r7, #12]
 2550 0008 B960     		str	r1, [r7, #8]
 2551 000a 1346     		mov	r3, r2
 2552 000c FB71     		strb	r3, [r7, #7]
 639:../libs/StdPeripheralDriver/src/stm32f10x_fsmc.c ****   assert_param(IS_FSMC_IT_BANK(FSMC_Bank));
 2553              		.loc 1 639 0
 2554 000e FB68     		ldr	r3, [r7, #12]
 2555 0010 102B     		cmp	r3, #16
 2556 0012 07D0     		beq	.L156
 2557              		.loc 1 639 0 is_stmt 0 discriminator 2
 2558 0014 FB68     		ldr	r3, [r7, #12]
 2559 0016 B3F5807F 		cmp	r3, #256
 2560 001a 03D0     		beq	.L156
 2561              		.loc 1 639 0 discriminator 1
 2562 001c FB68     		ldr	r3, [r7, #12]
 2563 001e B3F5805F 		cmp	r3, #4096
 2564 0022 02D1     		bne	.L157
 2565              	.L156:
 2566 0024 4FF00103 		mov	r3, #1
 2567 0028 01E0     		b	.L158
 2568              	.L157:
 2569              		.loc 1 639 0 discriminator 3
 2570 002a 4FF00003 		mov	r3, #0
 2571              	.L158:
 2572              		.loc 1 639 0 discriminator 4
 2573 002e 1846     		mov	r0, r3
 2574 0030 FFF7FEFF 		bl	assert_param
 640:../libs/StdPeripheralDriver/src/stm32f10x_fsmc.c ****   assert_param(IS_FSMC_IT(FSMC_IT));	
 2575              		.loc 1 640 0 is_stmt 1 discriminator 4
 2576 0034 BB68     		ldr	r3, [r7, #8]
 2577 0036 23F03803 		bic	r3, r3, #56
 2578 003a 002B     		cmp	r3, #0
 2579 003c 05D1     		bne	.L159
 2580              		.loc 1 640 0 is_stmt 0 discriminator 1
 2581 003e BB68     		ldr	r3, [r7, #8]
 2582 0040 002B     		cmp	r3, #0
 2583 0042 02D0     		beq	.L159
 2584              		.loc 1 640 0 discriminator 3
 2585 0044 4FF00103 		mov	r3, #1
 2586 0048 01E0     		b	.L160
 2587              	.L159:
 2588              		.loc 1 640 0 discriminator 2
 2589 004a 4FF00003 		mov	r3, #0
 2590              	.L160:
 2591              		.loc 1 640 0 discriminator 4
 2592 004e 1846     		mov	r0, r3
 2593 0050 FFF7FEFF 		bl	assert_param
 641:../libs/StdPeripheralDriver/src/stm32f10x_fsmc.c ****   assert_param(IS_FUNCTIONAL_STATE(NewState));
 2594              		.loc 1 641 0 is_stmt 1 discriminator 4
 2595 0054 FB79     		ldrb	r3, [r7, #7]	@ zero_extendqisi2
 2596 0056 002B     		cmp	r3, #0
 2597 0058 02D0     		beq	.L161
 2598              		.loc 1 641 0 is_stmt 0 discriminator 2
 2599 005a FB79     		ldrb	r3, [r7, #7]	@ zero_extendqisi2
 2600 005c 012B     		cmp	r3, #1
 2601 005e 02D1     		bne	.L162
 2602              	.L161:
 2603              		.loc 1 641 0 discriminator 1
 2604 0060 4FF00103 		mov	r3, #1
 2605 0064 01E0     		b	.L163
 2606              	.L162:
 2607              		.loc 1 641 0 discriminator 3
 2608 0066 4FF00003 		mov	r3, #0
 2609              	.L163:
 2610              		.loc 1 641 0 discriminator 4
 2611 006a 1846     		mov	r0, r3
 2612 006c FFF7FEFF 		bl	assert_param
 642:../libs/StdPeripheralDriver/src/stm32f10x_fsmc.c ****   
 643:../libs/StdPeripheralDriver/src/stm32f10x_fsmc.c ****   if (NewState != DISABLE)
 2613              		.loc 1 643 0 is_stmt 1 discriminator 4
 2614 0070 FB79     		ldrb	r3, [r7, #7]	@ zero_extendqisi2
 2615 0072 002B     		cmp	r3, #0
 2616 0074 1BD0     		beq	.L164
 644:../libs/StdPeripheralDriver/src/stm32f10x_fsmc.c ****   {
 645:../libs/StdPeripheralDriver/src/stm32f10x_fsmc.c ****     /* Enable the selected FSMC_Bank2 interrupts */
 646:../libs/StdPeripheralDriver/src/stm32f10x_fsmc.c ****     if(FSMC_Bank == FSMC_Bank2_NAND)
 2617              		.loc 1 646 0
 2618 0076 FB68     		ldr	r3, [r7, #12]
 2619 0078 102B     		cmp	r3, #16
 2620 007a 06D1     		bne	.L165
 647:../libs/StdPeripheralDriver/src/stm32f10x_fsmc.c ****     {
 648:../libs/StdPeripheralDriver/src/stm32f10x_fsmc.c ****       FSMC_Bank2->SR2 |= FSMC_IT;
 2621              		.loc 1 648 0
 2622 007c 1E4B     		ldr	r3, .L170
 2623 007e 1E4A     		ldr	r2, .L170
 2624 0080 5168     		ldr	r1, [r2, #4]
 2625 0082 BA68     		ldr	r2, [r7, #8]
 2626 0084 0A43     		orrs	r2, r2, r1
 2627 0086 5A60     		str	r2, [r3, #4]
 2628 0088 32E0     		b	.L155
 2629              	.L165:
 649:../libs/StdPeripheralDriver/src/stm32f10x_fsmc.c ****     }
 650:../libs/StdPeripheralDriver/src/stm32f10x_fsmc.c ****     /* Enable the selected FSMC_Bank3 interrupts */
 651:../libs/StdPeripheralDriver/src/stm32f10x_fsmc.c ****     else if (FSMC_Bank == FSMC_Bank3_NAND)
 2630              		.loc 1 651 0
 2631 008a FB68     		ldr	r3, [r7, #12]
 2632 008c B3F5807F 		cmp	r3, #256
 2633 0090 06D1     		bne	.L167
 652:../libs/StdPeripheralDriver/src/stm32f10x_fsmc.c ****     {
 653:../libs/StdPeripheralDriver/src/stm32f10x_fsmc.c ****       FSMC_Bank3->SR3 |= FSMC_IT;
 2634              		.loc 1 653 0
 2635 0092 1A4B     		ldr	r3, .L170+4
 2636 0094 194A     		ldr	r2, .L170+4
 2637 0096 5168     		ldr	r1, [r2, #4]
 2638 0098 BA68     		ldr	r2, [r7, #8]
 2639 009a 0A43     		orrs	r2, r2, r1
 2640 009c 5A60     		str	r2, [r3, #4]
 2641 009e 27E0     		b	.L155
 2642              	.L167:
 654:../libs/StdPeripheralDriver/src/stm32f10x_fsmc.c ****     }
 655:../libs/StdPeripheralDriver/src/stm32f10x_fsmc.c ****     /* Enable the selected FSMC_Bank4 interrupts */
 656:../libs/StdPeripheralDriver/src/stm32f10x_fsmc.c ****     else
 657:../libs/StdPeripheralDriver/src/stm32f10x_fsmc.c ****     {
 658:../libs/StdPeripheralDriver/src/stm32f10x_fsmc.c ****       FSMC_Bank4->SR4 |= FSMC_IT;    
 2643              		.loc 1 658 0
 2644 00a0 174B     		ldr	r3, .L170+8
 2645 00a2 174A     		ldr	r2, .L170+8
 2646 00a4 5168     		ldr	r1, [r2, #4]
 2647 00a6 BA68     		ldr	r2, [r7, #8]
 2648 00a8 0A43     		orrs	r2, r2, r1
 2649 00aa 5A60     		str	r2, [r3, #4]
 2650 00ac 20E0     		b	.L155
 2651              	.L164:
 659:../libs/StdPeripheralDriver/src/stm32f10x_fsmc.c ****     }
 660:../libs/StdPeripheralDriver/src/stm32f10x_fsmc.c ****   }
 661:../libs/StdPeripheralDriver/src/stm32f10x_fsmc.c ****   else
 662:../libs/StdPeripheralDriver/src/stm32f10x_fsmc.c ****   {
 663:../libs/StdPeripheralDriver/src/stm32f10x_fsmc.c ****     /* Disable the selected FSMC_Bank2 interrupts */
 664:../libs/StdPeripheralDriver/src/stm32f10x_fsmc.c ****     if(FSMC_Bank == FSMC_Bank2_NAND)
 2652              		.loc 1 664 0
 2653 00ae FB68     		ldr	r3, [r7, #12]
 2654 00b0 102B     		cmp	r3, #16
 2655 00b2 08D1     		bne	.L168
 665:../libs/StdPeripheralDriver/src/stm32f10x_fsmc.c ****     {
 666:../libs/StdPeripheralDriver/src/stm32f10x_fsmc.c ****       
 667:../libs/StdPeripheralDriver/src/stm32f10x_fsmc.c ****       FSMC_Bank2->SR2 &= (uint32_t)~FSMC_IT;
 2656              		.loc 1 667 0
 2657 00b4 104B     		ldr	r3, .L170
 2658 00b6 104A     		ldr	r2, .L170
 2659 00b8 5168     		ldr	r1, [r2, #4]
 2660 00ba BA68     		ldr	r2, [r7, #8]
 2661 00bc 6FEA0202 		mvn	r2, r2
 2662 00c0 0A40     		ands	r2, r2, r1
 2663 00c2 5A60     		str	r2, [r3, #4]
 2664 00c4 14E0     		b	.L155
 2665              	.L168:
 668:../libs/StdPeripheralDriver/src/stm32f10x_fsmc.c ****     }
 669:../libs/StdPeripheralDriver/src/stm32f10x_fsmc.c ****     /* Disable the selected FSMC_Bank3 interrupts */
 670:../libs/StdPeripheralDriver/src/stm32f10x_fsmc.c ****     else if (FSMC_Bank == FSMC_Bank3_NAND)
 2666              		.loc 1 670 0
 2667 00c6 FB68     		ldr	r3, [r7, #12]
 2668 00c8 B3F5807F 		cmp	r3, #256
 2669 00cc 08D1     		bne	.L169
 671:../libs/StdPeripheralDriver/src/stm32f10x_fsmc.c ****     {
 672:../libs/StdPeripheralDriver/src/stm32f10x_fsmc.c ****       FSMC_Bank3->SR3 &= (uint32_t)~FSMC_IT;
 2670              		.loc 1 672 0
 2671 00ce 0B4B     		ldr	r3, .L170+4
 2672 00d0 0A4A     		ldr	r2, .L170+4
 2673 00d2 5168     		ldr	r1, [r2, #4]
 2674 00d4 BA68     		ldr	r2, [r7, #8]
 2675 00d6 6FEA0202 		mvn	r2, r2
 2676 00da 0A40     		ands	r2, r2, r1
 2677 00dc 5A60     		str	r2, [r3, #4]
 2678 00de 07E0     		b	.L155
 2679              	.L169:
 673:../libs/StdPeripheralDriver/src/stm32f10x_fsmc.c ****     }
 674:../libs/StdPeripheralDriver/src/stm32f10x_fsmc.c ****     /* Disable the selected FSMC_Bank4 interrupts */
 675:../libs/StdPeripheralDriver/src/stm32f10x_fsmc.c ****     else
 676:../libs/StdPeripheralDriver/src/stm32f10x_fsmc.c ****     {
 677:../libs/StdPeripheralDriver/src/stm32f10x_fsmc.c ****       FSMC_Bank4->SR4 &= (uint32_t)~FSMC_IT;    
 2680              		.loc 1 677 0
 2681 00e0 074B     		ldr	r3, .L170+8
 2682 00e2 074A     		ldr	r2, .L170+8
 2683 00e4 5168     		ldr	r1, [r2, #4]
 2684 00e6 BA68     		ldr	r2, [r7, #8]
 2685 00e8 6FEA0202 		mvn	r2, r2
 2686 00ec 0A40     		ands	r2, r2, r1
 2687 00ee 5A60     		str	r2, [r3, #4]
 2688              	.L155:
 678:../libs/StdPeripheralDriver/src/stm32f10x_fsmc.c ****     }
 679:../libs/StdPeripheralDriver/src/stm32f10x_fsmc.c ****   }
 680:../libs/StdPeripheralDriver/src/stm32f10x_fsmc.c **** }
 2689              		.loc 1 680 0
 2690 00f0 07F11007 		add	r7, r7, #16
 2691 00f4 BD46     		mov	sp, r7
 2692 00f6 80BD     		pop	{r7, pc}
 2693              	.L171:
 2694              		.align	2
 2695              	.L170:
 2696 00f8 600000A0 		.word	-1610612640
 2697 00fc 800000A0 		.word	-1610612608
 2698 0100 A00000A0 		.word	-1610612576
 2699              		.cfi_endproc
 2700              	.LFE43:
 2702              		.section	.text.FSMC_GetFlagStatus,"ax",%progbits
 2703              		.align	2
 2704              		.global	FSMC_GetFlagStatus
 2705              		.thumb
 2706              		.thumb_func
 2708              	FSMC_GetFlagStatus:
 2709              	.LFB44:
 681:../libs/StdPeripheralDriver/src/stm32f10x_fsmc.c **** 
 682:../libs/StdPeripheralDriver/src/stm32f10x_fsmc.c **** /**
 683:../libs/StdPeripheralDriver/src/stm32f10x_fsmc.c ****   * @brief  Checks whether the specified FSMC flag is set or not.
 684:../libs/StdPeripheralDriver/src/stm32f10x_fsmc.c ****   * @param  FSMC_Bank: specifies the FSMC Bank to be used
 685:../libs/StdPeripheralDriver/src/stm32f10x_fsmc.c ****   *   This parameter can be one of the following values:
 686:../libs/StdPeripheralDriver/src/stm32f10x_fsmc.c ****   *     @arg FSMC_Bank2_NAND: FSMC Bank2 NAND 
 687:../libs/StdPeripheralDriver/src/stm32f10x_fsmc.c ****   *     @arg FSMC_Bank3_NAND: FSMC Bank3 NAND
 688:../libs/StdPeripheralDriver/src/stm32f10x_fsmc.c ****   *     @arg FSMC_Bank4_PCCARD: FSMC Bank4 PCCARD
 689:../libs/StdPeripheralDriver/src/stm32f10x_fsmc.c ****   * @param  FSMC_FLAG: specifies the flag to check.
 690:../libs/StdPeripheralDriver/src/stm32f10x_fsmc.c ****   *   This parameter can be one of the following values:
 691:../libs/StdPeripheralDriver/src/stm32f10x_fsmc.c ****   *     @arg FSMC_FLAG_RisingEdge: Rising egde detection Flag.
 692:../libs/StdPeripheralDriver/src/stm32f10x_fsmc.c ****   *     @arg FSMC_FLAG_Level: Level detection Flag.
 693:../libs/StdPeripheralDriver/src/stm32f10x_fsmc.c ****   *     @arg FSMC_FLAG_FallingEdge: Falling egde detection Flag.
 694:../libs/StdPeripheralDriver/src/stm32f10x_fsmc.c ****   *     @arg FSMC_FLAG_FEMPT: Fifo empty Flag. 
 695:../libs/StdPeripheralDriver/src/stm32f10x_fsmc.c ****   * @retval The new state of FSMC_FLAG (SET or RESET).
 696:../libs/StdPeripheralDriver/src/stm32f10x_fsmc.c ****   */
 697:../libs/StdPeripheralDriver/src/stm32f10x_fsmc.c **** FlagStatus FSMC_GetFlagStatus(uint32_t FSMC_Bank, uint32_t FSMC_FLAG)
 698:../libs/StdPeripheralDriver/src/stm32f10x_fsmc.c **** {
 2710              		.loc 1 698 0
 2711              		.cfi_startproc
 2712              		@ args = 0, pretend = 0, frame = 16
 2713              		@ frame_needed = 1, uses_anonymous_args = 0
 2714 0000 80B5     		push	{r7, lr}
 2715              	.LCFI44:
 2716              		.cfi_def_cfa_offset 8
 2717              		.cfi_offset 7, -8
 2718              		.cfi_offset 14, -4
 2719 0002 84B0     		sub	sp, sp, #16
 2720              	.LCFI45:
 2721              		.cfi_def_cfa_offset 24
 2722 0004 00AF     		add	r7, sp, #0
 2723              	.LCFI46:
 2724              		.cfi_def_cfa_register 7
 2725 0006 7860     		str	r0, [r7, #4]
 2726 0008 3960     		str	r1, [r7, #0]
 699:../libs/StdPeripheralDriver/src/stm32f10x_fsmc.c ****   FlagStatus bitstatus = RESET;
 2727              		.loc 1 699 0
 2728 000a 4FF00003 		mov	r3, #0
 2729 000e FB73     		strb	r3, [r7, #15]
 700:../libs/StdPeripheralDriver/src/stm32f10x_fsmc.c ****   uint32_t tmpsr = 0x00000000;
 2730              		.loc 1 700 0
 2731 0010 4FF00003 		mov	r3, #0
 2732 0014 BB60     		str	r3, [r7, #8]
 701:../libs/StdPeripheralDriver/src/stm32f10x_fsmc.c ****   
 702:../libs/StdPeripheralDriver/src/stm32f10x_fsmc.c ****   /* Check the parameters */
 703:../libs/StdPeripheralDriver/src/stm32f10x_fsmc.c ****   assert_param(IS_FSMC_GETFLAG_BANK(FSMC_Bank));
 2733              		.loc 1 703 0
 2734 0016 7B68     		ldr	r3, [r7, #4]
 2735 0018 102B     		cmp	r3, #16
 2736 001a 07D0     		beq	.L173
 2737              		.loc 1 703 0 is_stmt 0 discriminator 2
 2738 001c 7B68     		ldr	r3, [r7, #4]
 2739 001e B3F5807F 		cmp	r3, #256
 2740 0022 03D0     		beq	.L173
 2741              		.loc 1 703 0 discriminator 1
 2742 0024 7B68     		ldr	r3, [r7, #4]
 2743 0026 B3F5805F 		cmp	r3, #4096
 2744 002a 02D1     		bne	.L174
 2745              	.L173:
 2746 002c 4FF00103 		mov	r3, #1
 2747 0030 01E0     		b	.L175
 2748              	.L174:
 2749              		.loc 1 703 0 discriminator 3
 2750 0032 4FF00003 		mov	r3, #0
 2751              	.L175:
 2752              		.loc 1 703 0 discriminator 4
 2753 0036 1846     		mov	r0, r3
 2754 0038 FFF7FEFF 		bl	assert_param
 704:../libs/StdPeripheralDriver/src/stm32f10x_fsmc.c ****   assert_param(IS_FSMC_GET_FLAG(FSMC_FLAG));
 2755              		.loc 1 704 0 is_stmt 1 discriminator 4
 2756 003c 3B68     		ldr	r3, [r7, #0]
 2757 003e 012B     		cmp	r3, #1
 2758 0040 08D0     		beq	.L176
 2759              		.loc 1 704 0 is_stmt 0 discriminator 2
 2760 0042 3B68     		ldr	r3, [r7, #0]
 2761 0044 022B     		cmp	r3, #2
 2762 0046 05D0     		beq	.L176
 2763              		.loc 1 704 0 discriminator 1
 2764 0048 3B68     		ldr	r3, [r7, #0]
 2765 004a 042B     		cmp	r3, #4
 2766 004c 02D0     		beq	.L176
 2767              		.loc 1 704 0 discriminator 2
 2768 004e 3B68     		ldr	r3, [r7, #0]
 2769 0050 402B     		cmp	r3, #64
 2770 0052 02D1     		bne	.L177
 2771              	.L176:
 2772              		.loc 1 704 0 discriminator 1
 2773 0054 4FF00103 		mov	r3, #1
 2774 0058 01E0     		b	.L178
 2775              	.L177:
 2776              		.loc 1 704 0 discriminator 3
 2777 005a 4FF00003 		mov	r3, #0
 2778              	.L178:
 2779              		.loc 1 704 0 discriminator 4
 2780 005e 1846     		mov	r0, r3
 2781 0060 FFF7FEFF 		bl	assert_param
 705:../libs/StdPeripheralDriver/src/stm32f10x_fsmc.c ****   
 706:../libs/StdPeripheralDriver/src/stm32f10x_fsmc.c ****   if(FSMC_Bank == FSMC_Bank2_NAND)
 2782              		.loc 1 706 0 is_stmt 1 discriminator 4
 2783 0064 7B68     		ldr	r3, [r7, #4]
 2784 0066 102B     		cmp	r3, #16
 2785 0068 03D1     		bne	.L179
 707:../libs/StdPeripheralDriver/src/stm32f10x_fsmc.c ****   {
 708:../libs/StdPeripheralDriver/src/stm32f10x_fsmc.c ****     tmpsr = FSMC_Bank2->SR2;
 2786              		.loc 1 708 0
 2787 006a 104B     		ldr	r3, .L185
 2788 006c 5B68     		ldr	r3, [r3, #4]
 2789 006e BB60     		str	r3, [r7, #8]
 2790 0070 0AE0     		b	.L180
 2791              	.L179:
 709:../libs/StdPeripheralDriver/src/stm32f10x_fsmc.c ****   }  
 710:../libs/StdPeripheralDriver/src/stm32f10x_fsmc.c ****   else if(FSMC_Bank == FSMC_Bank3_NAND)
 2792              		.loc 1 710 0
 2793 0072 7B68     		ldr	r3, [r7, #4]
 2794 0074 B3F5807F 		cmp	r3, #256
 2795 0078 03D1     		bne	.L181
 711:../libs/StdPeripheralDriver/src/stm32f10x_fsmc.c ****   {
 712:../libs/StdPeripheralDriver/src/stm32f10x_fsmc.c ****     tmpsr = FSMC_Bank3->SR3;
 2796              		.loc 1 712 0
 2797 007a 0D4B     		ldr	r3, .L185+4
 2798 007c 5B68     		ldr	r3, [r3, #4]
 2799 007e BB60     		str	r3, [r7, #8]
 2800 0080 02E0     		b	.L180
 2801              	.L181:
 713:../libs/StdPeripheralDriver/src/stm32f10x_fsmc.c ****   }
 714:../libs/StdPeripheralDriver/src/stm32f10x_fsmc.c ****   /* FSMC_Bank4_PCCARD*/
 715:../libs/StdPeripheralDriver/src/stm32f10x_fsmc.c ****   else
 716:../libs/StdPeripheralDriver/src/stm32f10x_fsmc.c ****   {
 717:../libs/StdPeripheralDriver/src/stm32f10x_fsmc.c ****     tmpsr = FSMC_Bank4->SR4;
 2802              		.loc 1 717 0
 2803 0082 0C4B     		ldr	r3, .L185+8
 2804 0084 5B68     		ldr	r3, [r3, #4]
 2805 0086 BB60     		str	r3, [r7, #8]
 2806              	.L180:
 718:../libs/StdPeripheralDriver/src/stm32f10x_fsmc.c ****   } 
 719:../libs/StdPeripheralDriver/src/stm32f10x_fsmc.c ****   
 720:../libs/StdPeripheralDriver/src/stm32f10x_fsmc.c ****   /* Get the flag status */
 721:../libs/StdPeripheralDriver/src/stm32f10x_fsmc.c ****   if ((tmpsr & FSMC_FLAG) != (uint16_t)RESET )
 2807              		.loc 1 721 0
 2808 0088 BA68     		ldr	r2, [r7, #8]
 2809 008a 3B68     		ldr	r3, [r7, #0]
 2810 008c 1340     		ands	r3, r3, r2
 2811 008e 002B     		cmp	r3, #0
 2812 0090 03D0     		beq	.L182
 722:../libs/StdPeripheralDriver/src/stm32f10x_fsmc.c ****   {
 723:../libs/StdPeripheralDriver/src/stm32f10x_fsmc.c ****     bitstatus = SET;
 2813              		.loc 1 723 0
 2814 0092 4FF00103 		mov	r3, #1
 2815 0096 FB73     		strb	r3, [r7, #15]
 2816 0098 02E0     		b	.L183
 2817              	.L182:
 724:../libs/StdPeripheralDriver/src/stm32f10x_fsmc.c ****   }
 725:../libs/StdPeripheralDriver/src/stm32f10x_fsmc.c ****   else
 726:../libs/StdPeripheralDriver/src/stm32f10x_fsmc.c ****   {
 727:../libs/StdPeripheralDriver/src/stm32f10x_fsmc.c ****     bitstatus = RESET;
 2818              		.loc 1 727 0
 2819 009a 4FF00003 		mov	r3, #0
 2820 009e FB73     		strb	r3, [r7, #15]
 2821              	.L183:
 728:../libs/StdPeripheralDriver/src/stm32f10x_fsmc.c ****   }
 729:../libs/StdPeripheralDriver/src/stm32f10x_fsmc.c ****   /* Return the flag status */
 730:../libs/StdPeripheralDriver/src/stm32f10x_fsmc.c ****   return bitstatus;
 2822              		.loc 1 730 0
 2823 00a0 FB7B     		ldrb	r3, [r7, #15]	@ zero_extendqisi2
 731:../libs/StdPeripheralDriver/src/stm32f10x_fsmc.c **** }
 2824              		.loc 1 731 0
 2825 00a2 1846     		mov	r0, r3
 2826 00a4 07F11007 		add	r7, r7, #16
 2827 00a8 BD46     		mov	sp, r7
 2828 00aa 80BD     		pop	{r7, pc}
 2829              	.L186:
 2830              		.align	2
 2831              	.L185:
 2832 00ac 600000A0 		.word	-1610612640
 2833 00b0 800000A0 		.word	-1610612608
 2834 00b4 A00000A0 		.word	-1610612576
 2835              		.cfi_endproc
 2836              	.LFE44:
 2838              		.section	.text.FSMC_ClearFlag,"ax",%progbits
 2839              		.align	2
 2840              		.global	FSMC_ClearFlag
 2841              		.thumb
 2842              		.thumb_func
 2844              	FSMC_ClearFlag:
 2845              	.LFB45:
 732:../libs/StdPeripheralDriver/src/stm32f10x_fsmc.c **** 
 733:../libs/StdPeripheralDriver/src/stm32f10x_fsmc.c **** /**
 734:../libs/StdPeripheralDriver/src/stm32f10x_fsmc.c ****   * @brief  Clears the FSMC's pending flags.
 735:../libs/StdPeripheralDriver/src/stm32f10x_fsmc.c ****   * @param  FSMC_Bank: specifies the FSMC Bank to be used
 736:../libs/StdPeripheralDriver/src/stm32f10x_fsmc.c ****   *   This parameter can be one of the following values:
 737:../libs/StdPeripheralDriver/src/stm32f10x_fsmc.c ****   *     @arg FSMC_Bank2_NAND: FSMC Bank2 NAND 
 738:../libs/StdPeripheralDriver/src/stm32f10x_fsmc.c ****   *     @arg FSMC_Bank3_NAND: FSMC Bank3 NAND
 739:../libs/StdPeripheralDriver/src/stm32f10x_fsmc.c ****   *     @arg FSMC_Bank4_PCCARD: FSMC Bank4 PCCARD
 740:../libs/StdPeripheralDriver/src/stm32f10x_fsmc.c ****   * @param  FSMC_FLAG: specifies the flag to clear.
 741:../libs/StdPeripheralDriver/src/stm32f10x_fsmc.c ****   *   This parameter can be any combination of the following values:
 742:../libs/StdPeripheralDriver/src/stm32f10x_fsmc.c ****   *     @arg FSMC_FLAG_RisingEdge: Rising egde detection Flag.
 743:../libs/StdPeripheralDriver/src/stm32f10x_fsmc.c ****   *     @arg FSMC_FLAG_Level: Level detection Flag.
 744:../libs/StdPeripheralDriver/src/stm32f10x_fsmc.c ****   *     @arg FSMC_FLAG_FallingEdge: Falling egde detection Flag.
 745:../libs/StdPeripheralDriver/src/stm32f10x_fsmc.c ****   * @retval None
 746:../libs/StdPeripheralDriver/src/stm32f10x_fsmc.c ****   */
 747:../libs/StdPeripheralDriver/src/stm32f10x_fsmc.c **** void FSMC_ClearFlag(uint32_t FSMC_Bank, uint32_t FSMC_FLAG)
 748:../libs/StdPeripheralDriver/src/stm32f10x_fsmc.c **** {
 2846              		.loc 1 748 0
 2847              		.cfi_startproc
 2848              		@ args = 0, pretend = 0, frame = 8
 2849              		@ frame_needed = 1, uses_anonymous_args = 0
 2850 0000 80B5     		push	{r7, lr}
 2851              	.LCFI47:
 2852              		.cfi_def_cfa_offset 8
 2853              		.cfi_offset 7, -8
 2854              		.cfi_offset 14, -4
 2855 0002 82B0     		sub	sp, sp, #8
 2856              	.LCFI48:
 2857              		.cfi_def_cfa_offset 16
 2858 0004 00AF     		add	r7, sp, #0
 2859              	.LCFI49:
 2860              		.cfi_def_cfa_register 7
 2861 0006 7860     		str	r0, [r7, #4]
 2862 0008 3960     		str	r1, [r7, #0]
 749:../libs/StdPeripheralDriver/src/stm32f10x_fsmc.c ****  /* Check the parameters */
 750:../libs/StdPeripheralDriver/src/stm32f10x_fsmc.c ****   assert_param(IS_FSMC_GETFLAG_BANK(FSMC_Bank));
 2863              		.loc 1 750 0
 2864 000a 7B68     		ldr	r3, [r7, #4]
 2865 000c 102B     		cmp	r3, #16
 2866 000e 07D0     		beq	.L188
 2867              		.loc 1 750 0 is_stmt 0 discriminator 2
 2868 0010 7B68     		ldr	r3, [r7, #4]
 2869 0012 B3F5807F 		cmp	r3, #256
 2870 0016 03D0     		beq	.L188
 2871              		.loc 1 750 0 discriminator 1
 2872 0018 7B68     		ldr	r3, [r7, #4]
 2873 001a B3F5805F 		cmp	r3, #4096
 2874 001e 02D1     		bne	.L189
 2875              	.L188:
 2876 0020 4FF00103 		mov	r3, #1
 2877 0024 01E0     		b	.L190
 2878              	.L189:
 2879              		.loc 1 750 0 discriminator 3
 2880 0026 4FF00003 		mov	r3, #0
 2881              	.L190:
 2882              		.loc 1 750 0 discriminator 4
 2883 002a 1846     		mov	r0, r3
 2884 002c FFF7FEFF 		bl	assert_param
 751:../libs/StdPeripheralDriver/src/stm32f10x_fsmc.c ****   assert_param(IS_FSMC_CLEAR_FLAG(FSMC_FLAG)) ;
 2885              		.loc 1 751 0 is_stmt 1 discriminator 4
 2886 0030 3B68     		ldr	r3, [r7, #0]
 2887 0032 23F00703 		bic	r3, r3, #7
 2888 0036 002B     		cmp	r3, #0
 2889 0038 05D1     		bne	.L191
 2890              		.loc 1 751 0 is_stmt 0 discriminator 1
 2891 003a 3B68     		ldr	r3, [r7, #0]
 2892 003c 002B     		cmp	r3, #0
 2893 003e 02D0     		beq	.L191
 2894              		.loc 1 751 0 discriminator 3
 2895 0040 4FF00103 		mov	r3, #1
 2896 0044 01E0     		b	.L192
 2897              	.L191:
 2898              		.loc 1 751 0 discriminator 2
 2899 0046 4FF00003 		mov	r3, #0
 2900              	.L192:
 2901              		.loc 1 751 0 discriminator 4
 2902 004a 1846     		mov	r0, r3
 2903 004c FFF7FEFF 		bl	assert_param
 752:../libs/StdPeripheralDriver/src/stm32f10x_fsmc.c ****     
 753:../libs/StdPeripheralDriver/src/stm32f10x_fsmc.c ****   if(FSMC_Bank == FSMC_Bank2_NAND)
 2904              		.loc 1 753 0 is_stmt 1 discriminator 4
 2905 0050 7B68     		ldr	r3, [r7, #4]
 2906 0052 102B     		cmp	r3, #16
 2907 0054 08D1     		bne	.L193
 754:../libs/StdPeripheralDriver/src/stm32f10x_fsmc.c ****   {
 755:../libs/StdPeripheralDriver/src/stm32f10x_fsmc.c ****     FSMC_Bank2->SR2 &= ~FSMC_FLAG; 
 2908              		.loc 1 755 0
 2909 0056 114B     		ldr	r3, .L196
 2910 0058 104A     		ldr	r2, .L196
 2911 005a 5168     		ldr	r1, [r2, #4]
 2912 005c 3A68     		ldr	r2, [r7, #0]
 2913 005e 6FEA0202 		mvn	r2, r2
 2914 0062 0A40     		ands	r2, r2, r1
 2915 0064 5A60     		str	r2, [r3, #4]
 2916 0066 14E0     		b	.L187
 2917              	.L193:
 756:../libs/StdPeripheralDriver/src/stm32f10x_fsmc.c ****   }  
 757:../libs/StdPeripheralDriver/src/stm32f10x_fsmc.c ****   else if(FSMC_Bank == FSMC_Bank3_NAND)
 2918              		.loc 1 757 0
 2919 0068 7B68     		ldr	r3, [r7, #4]
 2920 006a B3F5807F 		cmp	r3, #256
 2921 006e 08D1     		bne	.L195
 758:../libs/StdPeripheralDriver/src/stm32f10x_fsmc.c ****   {
 759:../libs/StdPeripheralDriver/src/stm32f10x_fsmc.c ****     FSMC_Bank3->SR3 &= ~FSMC_FLAG;
 2922              		.loc 1 759 0
 2923 0070 0B4B     		ldr	r3, .L196+4
 2924 0072 0B4A     		ldr	r2, .L196+4
 2925 0074 5168     		ldr	r1, [r2, #4]
 2926 0076 3A68     		ldr	r2, [r7, #0]
 2927 0078 6FEA0202 		mvn	r2, r2
 2928 007c 0A40     		ands	r2, r2, r1
 2929 007e 5A60     		str	r2, [r3, #4]
 2930 0080 07E0     		b	.L187
 2931              	.L195:
 760:../libs/StdPeripheralDriver/src/stm32f10x_fsmc.c ****   }
 761:../libs/StdPeripheralDriver/src/stm32f10x_fsmc.c ****   /* FSMC_Bank4_PCCARD*/
 762:../libs/StdPeripheralDriver/src/stm32f10x_fsmc.c ****   else
 763:../libs/StdPeripheralDriver/src/stm32f10x_fsmc.c ****   {
 764:../libs/StdPeripheralDriver/src/stm32f10x_fsmc.c ****     FSMC_Bank4->SR4 &= ~FSMC_FLAG;
 2932              		.loc 1 764 0
 2933 0082 084B     		ldr	r3, .L196+8
 2934 0084 074A     		ldr	r2, .L196+8
 2935 0086 5168     		ldr	r1, [r2, #4]
 2936 0088 3A68     		ldr	r2, [r7, #0]
 2937 008a 6FEA0202 		mvn	r2, r2
 2938 008e 0A40     		ands	r2, r2, r1
 2939 0090 5A60     		str	r2, [r3, #4]
 2940              	.L187:
 765:../libs/StdPeripheralDriver/src/stm32f10x_fsmc.c ****   }
 766:../libs/StdPeripheralDriver/src/stm32f10x_fsmc.c **** }
 2941              		.loc 1 766 0
 2942 0092 07F10807 		add	r7, r7, #8
 2943 0096 BD46     		mov	sp, r7
 2944 0098 80BD     		pop	{r7, pc}
 2945              	.L197:
 2946 009a 00BF     		.align	2
 2947              	.L196:
 2948 009c 600000A0 		.word	-1610612640
 2949 00a0 800000A0 		.word	-1610612608
 2950 00a4 A00000A0 		.word	-1610612576
 2951              		.cfi_endproc
 2952              	.LFE45:
 2954              		.section	.text.FSMC_GetITStatus,"ax",%progbits
 2955              		.align	2
 2956              		.global	FSMC_GetITStatus
 2957              		.thumb
 2958              		.thumb_func
 2960              	FSMC_GetITStatus:
 2961              	.LFB46:
 767:../libs/StdPeripheralDriver/src/stm32f10x_fsmc.c **** 
 768:../libs/StdPeripheralDriver/src/stm32f10x_fsmc.c **** /**
 769:../libs/StdPeripheralDriver/src/stm32f10x_fsmc.c ****   * @brief  Checks whether the specified FSMC interrupt has occurred or not.
 770:../libs/StdPeripheralDriver/src/stm32f10x_fsmc.c ****   * @param  FSMC_Bank: specifies the FSMC Bank to be used
 771:../libs/StdPeripheralDriver/src/stm32f10x_fsmc.c ****   *   This parameter can be one of the following values:
 772:../libs/StdPeripheralDriver/src/stm32f10x_fsmc.c ****   *     @arg FSMC_Bank2_NAND: FSMC Bank2 NAND 
 773:../libs/StdPeripheralDriver/src/stm32f10x_fsmc.c ****   *     @arg FSMC_Bank3_NAND: FSMC Bank3 NAND
 774:../libs/StdPeripheralDriver/src/stm32f10x_fsmc.c ****   *     @arg FSMC_Bank4_PCCARD: FSMC Bank4 PCCARD
 775:../libs/StdPeripheralDriver/src/stm32f10x_fsmc.c ****   * @param  FSMC_IT: specifies the FSMC interrupt source to check.
 776:../libs/StdPeripheralDriver/src/stm32f10x_fsmc.c ****   *   This parameter can be one of the following values:
 777:../libs/StdPeripheralDriver/src/stm32f10x_fsmc.c ****   *     @arg FSMC_IT_RisingEdge: Rising edge detection interrupt. 
 778:../libs/StdPeripheralDriver/src/stm32f10x_fsmc.c ****   *     @arg FSMC_IT_Level: Level edge detection interrupt.
 779:../libs/StdPeripheralDriver/src/stm32f10x_fsmc.c ****   *     @arg FSMC_IT_FallingEdge: Falling edge detection interrupt. 
 780:../libs/StdPeripheralDriver/src/stm32f10x_fsmc.c ****   * @retval The new state of FSMC_IT (SET or RESET).
 781:../libs/StdPeripheralDriver/src/stm32f10x_fsmc.c ****   */
 782:../libs/StdPeripheralDriver/src/stm32f10x_fsmc.c **** ITStatus FSMC_GetITStatus(uint32_t FSMC_Bank, uint32_t FSMC_IT)
 783:../libs/StdPeripheralDriver/src/stm32f10x_fsmc.c **** {
 2962              		.loc 1 783 0
 2963              		.cfi_startproc
 2964              		@ args = 0, pretend = 0, frame = 24
 2965              		@ frame_needed = 1, uses_anonymous_args = 0
 2966 0000 80B5     		push	{r7, lr}
 2967              	.LCFI50:
 2968              		.cfi_def_cfa_offset 8
 2969              		.cfi_offset 7, -8
 2970              		.cfi_offset 14, -4
 2971 0002 86B0     		sub	sp, sp, #24
 2972              	.LCFI51:
 2973              		.cfi_def_cfa_offset 32
 2974 0004 00AF     		add	r7, sp, #0
 2975              	.LCFI52:
 2976              		.cfi_def_cfa_register 7
 2977 0006 7860     		str	r0, [r7, #4]
 2978 0008 3960     		str	r1, [r7, #0]
 784:../libs/StdPeripheralDriver/src/stm32f10x_fsmc.c ****   ITStatus bitstatus = RESET;
 2979              		.loc 1 784 0
 2980 000a 4FF00003 		mov	r3, #0
 2981 000e FB75     		strb	r3, [r7, #23]
 785:../libs/StdPeripheralDriver/src/stm32f10x_fsmc.c ****   uint32_t tmpsr = 0x0, itstatus = 0x0, itenable = 0x0; 
 2982              		.loc 1 785 0
 2983 0010 4FF00003 		mov	r3, #0
 2984 0014 3B61     		str	r3, [r7, #16]
 2985 0016 4FF00003 		mov	r3, #0
 2986 001a FB60     		str	r3, [r7, #12]
 2987 001c 4FF00003 		mov	r3, #0
 2988 0020 BB60     		str	r3, [r7, #8]
 786:../libs/StdPeripheralDriver/src/stm32f10x_fsmc.c ****   
 787:../libs/StdPeripheralDriver/src/stm32f10x_fsmc.c ****   /* Check the parameters */
 788:../libs/StdPeripheralDriver/src/stm32f10x_fsmc.c ****   assert_param(IS_FSMC_IT_BANK(FSMC_Bank));
 2989              		.loc 1 788 0
 2990 0022 7B68     		ldr	r3, [r7, #4]
 2991 0024 102B     		cmp	r3, #16
 2992 0026 07D0     		beq	.L199
 2993              		.loc 1 788 0 is_stmt 0 discriminator 2
 2994 0028 7B68     		ldr	r3, [r7, #4]
 2995 002a B3F5807F 		cmp	r3, #256
 2996 002e 03D0     		beq	.L199
 2997              		.loc 1 788 0 discriminator 1
 2998 0030 7B68     		ldr	r3, [r7, #4]
 2999 0032 B3F5805F 		cmp	r3, #4096
 3000 0036 02D1     		bne	.L200
 3001              	.L199:
 3002 0038 4FF00103 		mov	r3, #1
 3003 003c 01E0     		b	.L201
 3004              	.L200:
 3005              		.loc 1 788 0 discriminator 3
 3006 003e 4FF00003 		mov	r3, #0
 3007              	.L201:
 3008              		.loc 1 788 0 discriminator 4
 3009 0042 1846     		mov	r0, r3
 3010 0044 FFF7FEFF 		bl	assert_param
 789:../libs/StdPeripheralDriver/src/stm32f10x_fsmc.c ****   assert_param(IS_FSMC_GET_IT(FSMC_IT));
 3011              		.loc 1 789 0 is_stmt 1 discriminator 4
 3012 0048 3B68     		ldr	r3, [r7, #0]
 3013 004a 082B     		cmp	r3, #8
 3014 004c 05D0     		beq	.L202
 3015              		.loc 1 789 0 is_stmt 0 discriminator 2
 3016 004e 3B68     		ldr	r3, [r7, #0]
 3017 0050 102B     		cmp	r3, #16
 3018 0052 02D0     		beq	.L202
 3019              		.loc 1 789 0 discriminator 1
 3020 0054 3B68     		ldr	r3, [r7, #0]
 3021 0056 202B     		cmp	r3, #32
 3022 0058 02D1     		bne	.L203
 3023              	.L202:
 3024 005a 4FF00103 		mov	r3, #1
 3025 005e 01E0     		b	.L204
 3026              	.L203:
 3027              		.loc 1 789 0 discriminator 3
 3028 0060 4FF00003 		mov	r3, #0
 3029              	.L204:
 3030              		.loc 1 789 0 discriminator 4
 3031 0064 1846     		mov	r0, r3
 3032 0066 FFF7FEFF 		bl	assert_param
 790:../libs/StdPeripheralDriver/src/stm32f10x_fsmc.c ****   
 791:../libs/StdPeripheralDriver/src/stm32f10x_fsmc.c ****   if(FSMC_Bank == FSMC_Bank2_NAND)
 3033              		.loc 1 791 0 is_stmt 1 discriminator 4
 3034 006a 7B68     		ldr	r3, [r7, #4]
 3035 006c 102B     		cmp	r3, #16
 3036 006e 03D1     		bne	.L205
 792:../libs/StdPeripheralDriver/src/stm32f10x_fsmc.c ****   {
 793:../libs/StdPeripheralDriver/src/stm32f10x_fsmc.c ****     tmpsr = FSMC_Bank2->SR2;
 3037              		.loc 1 793 0
 3038 0070 154B     		ldr	r3, .L211
 3039 0072 5B68     		ldr	r3, [r3, #4]
 3040 0074 3B61     		str	r3, [r7, #16]
 3041 0076 0AE0     		b	.L206
 3042              	.L205:
 794:../libs/StdPeripheralDriver/src/stm32f10x_fsmc.c ****   }  
 795:../libs/StdPeripheralDriver/src/stm32f10x_fsmc.c ****   else if(FSMC_Bank == FSMC_Bank3_NAND)
 3043              		.loc 1 795 0
 3044 0078 7B68     		ldr	r3, [r7, #4]
 3045 007a B3F5807F 		cmp	r3, #256
 3046 007e 03D1     		bne	.L207
 796:../libs/StdPeripheralDriver/src/stm32f10x_fsmc.c ****   {
 797:../libs/StdPeripheralDriver/src/stm32f10x_fsmc.c ****     tmpsr = FSMC_Bank3->SR3;
 3047              		.loc 1 797 0
 3048 0080 124B     		ldr	r3, .L211+4
 3049 0082 5B68     		ldr	r3, [r3, #4]
 3050 0084 3B61     		str	r3, [r7, #16]
 3051 0086 02E0     		b	.L206
 3052              	.L207:
 798:../libs/StdPeripheralDriver/src/stm32f10x_fsmc.c ****   }
 799:../libs/StdPeripheralDriver/src/stm32f10x_fsmc.c ****   /* FSMC_Bank4_PCCARD*/
 800:../libs/StdPeripheralDriver/src/stm32f10x_fsmc.c ****   else
 801:../libs/StdPeripheralDriver/src/stm32f10x_fsmc.c ****   {
 802:../libs/StdPeripheralDriver/src/stm32f10x_fsmc.c ****     tmpsr = FSMC_Bank4->SR4;
 3053              		.loc 1 802 0
 3054 0088 114B     		ldr	r3, .L211+8
 3055 008a 5B68     		ldr	r3, [r3, #4]
 3056 008c 3B61     		str	r3, [r7, #16]
 3057              	.L206:
 803:../libs/StdPeripheralDriver/src/stm32f10x_fsmc.c ****   } 
 804:../libs/StdPeripheralDriver/src/stm32f10x_fsmc.c ****   
 805:../libs/StdPeripheralDriver/src/stm32f10x_fsmc.c ****   itstatus = tmpsr & FSMC_IT;
 3058              		.loc 1 805 0
 3059 008e 3A69     		ldr	r2, [r7, #16]
 3060 0090 3B68     		ldr	r3, [r7, #0]
 3061 0092 1340     		ands	r3, r3, r2
 3062 0094 FB60     		str	r3, [r7, #12]
 806:../libs/StdPeripheralDriver/src/stm32f10x_fsmc.c ****   
 807:../libs/StdPeripheralDriver/src/stm32f10x_fsmc.c ****   itenable = tmpsr & (FSMC_IT >> 3);
 3063              		.loc 1 807 0
 3064 0096 3B68     		ldr	r3, [r7, #0]
 3065 0098 4FEAD302 		lsr	r2, r3, #3
 3066 009c 3B69     		ldr	r3, [r7, #16]
 3067 009e 1340     		ands	r3, r3, r2
 3068 00a0 BB60     		str	r3, [r7, #8]
 808:../libs/StdPeripheralDriver/src/stm32f10x_fsmc.c ****   if ((itstatus != (uint32_t)RESET)  && (itenable != (uint32_t)RESET))
 3069              		.loc 1 808 0
 3070 00a2 FB68     		ldr	r3, [r7, #12]
 3071 00a4 002B     		cmp	r3, #0
 3072 00a6 06D0     		beq	.L208
 3073              		.loc 1 808 0 is_stmt 0 discriminator 1
 3074 00a8 BB68     		ldr	r3, [r7, #8]
 3075 00aa 002B     		cmp	r3, #0
 3076 00ac 03D0     		beq	.L208
 809:../libs/StdPeripheralDriver/src/stm32f10x_fsmc.c ****   {
 810:../libs/StdPeripheralDriver/src/stm32f10x_fsmc.c ****     bitstatus = SET;
 3077              		.loc 1 810 0 is_stmt 1
 3078 00ae 4FF00103 		mov	r3, #1
 3079 00b2 FB75     		strb	r3, [r7, #23]
 3080 00b4 02E0     		b	.L209
 3081              	.L208:
 811:../libs/StdPeripheralDriver/src/stm32f10x_fsmc.c ****   }
 812:../libs/StdPeripheralDriver/src/stm32f10x_fsmc.c ****   else
 813:../libs/StdPeripheralDriver/src/stm32f10x_fsmc.c ****   {
 814:../libs/StdPeripheralDriver/src/stm32f10x_fsmc.c ****     bitstatus = RESET;
 3082              		.loc 1 814 0
 3083 00b6 4FF00003 		mov	r3, #0
 3084 00ba FB75     		strb	r3, [r7, #23]
 3085              	.L209:
 815:../libs/StdPeripheralDriver/src/stm32f10x_fsmc.c ****   }
 816:../libs/StdPeripheralDriver/src/stm32f10x_fsmc.c ****   return bitstatus; 
 3086              		.loc 1 816 0
 3087 00bc FB7D     		ldrb	r3, [r7, #23]	@ zero_extendqisi2
 817:../libs/StdPeripheralDriver/src/stm32f10x_fsmc.c **** }
 3088              		.loc 1 817 0
 3089 00be 1846     		mov	r0, r3
 3090 00c0 07F11807 		add	r7, r7, #24
 3091 00c4 BD46     		mov	sp, r7
 3092 00c6 80BD     		pop	{r7, pc}
 3093              	.L212:
 3094              		.align	2
 3095              	.L211:
 3096 00c8 600000A0 		.word	-1610612640
 3097 00cc 800000A0 		.word	-1610612608
 3098 00d0 A00000A0 		.word	-1610612576
 3099              		.cfi_endproc
 3100              	.LFE46:
 3102              		.section	.text.FSMC_ClearITPendingBit,"ax",%progbits
 3103              		.align	2
 3104              		.global	FSMC_ClearITPendingBit
 3105              		.thumb
 3106              		.thumb_func
 3108              	FSMC_ClearITPendingBit:
 3109              	.LFB47:
 818:../libs/StdPeripheralDriver/src/stm32f10x_fsmc.c **** 
 819:../libs/StdPeripheralDriver/src/stm32f10x_fsmc.c **** /**
 820:../libs/StdPeripheralDriver/src/stm32f10x_fsmc.c ****   * @brief  Clears the FSMC's interrupt pending bits.
 821:../libs/StdPeripheralDriver/src/stm32f10x_fsmc.c ****   * @param  FSMC_Bank: specifies the FSMC Bank to be used
 822:../libs/StdPeripheralDriver/src/stm32f10x_fsmc.c ****   *   This parameter can be one of the following values:
 823:../libs/StdPeripheralDriver/src/stm32f10x_fsmc.c ****   *     @arg FSMC_Bank2_NAND: FSMC Bank2 NAND 
 824:../libs/StdPeripheralDriver/src/stm32f10x_fsmc.c ****   *     @arg FSMC_Bank3_NAND: FSMC Bank3 NAND
 825:../libs/StdPeripheralDriver/src/stm32f10x_fsmc.c ****   *     @arg FSMC_Bank4_PCCARD: FSMC Bank4 PCCARD
 826:../libs/StdPeripheralDriver/src/stm32f10x_fsmc.c ****   * @param  FSMC_IT: specifies the interrupt pending bit to clear.
 827:../libs/StdPeripheralDriver/src/stm32f10x_fsmc.c ****   *   This parameter can be any combination of the following values:
 828:../libs/StdPeripheralDriver/src/stm32f10x_fsmc.c ****   *     @arg FSMC_IT_RisingEdge: Rising edge detection interrupt. 
 829:../libs/StdPeripheralDriver/src/stm32f10x_fsmc.c ****   *     @arg FSMC_IT_Level: Level edge detection interrupt.
 830:../libs/StdPeripheralDriver/src/stm32f10x_fsmc.c ****   *     @arg FSMC_IT_FallingEdge: Falling edge detection interrupt.
 831:../libs/StdPeripheralDriver/src/stm32f10x_fsmc.c ****   * @retval None
 832:../libs/StdPeripheralDriver/src/stm32f10x_fsmc.c ****   */
 833:../libs/StdPeripheralDriver/src/stm32f10x_fsmc.c **** void FSMC_ClearITPendingBit(uint32_t FSMC_Bank, uint32_t FSMC_IT)
 834:../libs/StdPeripheralDriver/src/stm32f10x_fsmc.c **** {
 3110              		.loc 1 834 0
 3111              		.cfi_startproc
 3112              		@ args = 0, pretend = 0, frame = 8
 3113              		@ frame_needed = 1, uses_anonymous_args = 0
 3114 0000 80B5     		push	{r7, lr}
 3115              	.LCFI53:
 3116              		.cfi_def_cfa_offset 8
 3117              		.cfi_offset 7, -8
 3118              		.cfi_offset 14, -4
 3119 0002 82B0     		sub	sp, sp, #8
 3120              	.LCFI54:
 3121              		.cfi_def_cfa_offset 16
 3122 0004 00AF     		add	r7, sp, #0
 3123              	.LCFI55:
 3124              		.cfi_def_cfa_register 7
 3125 0006 7860     		str	r0, [r7, #4]
 3126 0008 3960     		str	r1, [r7, #0]
 835:../libs/StdPeripheralDriver/src/stm32f10x_fsmc.c ****   /* Check the parameters */
 836:../libs/StdPeripheralDriver/src/stm32f10x_fsmc.c ****   assert_param(IS_FSMC_IT_BANK(FSMC_Bank));
 3127              		.loc 1 836 0
 3128 000a 7B68     		ldr	r3, [r7, #4]
 3129 000c 102B     		cmp	r3, #16
 3130 000e 07D0     		beq	.L214
 3131              		.loc 1 836 0 is_stmt 0 discriminator 2
 3132 0010 7B68     		ldr	r3, [r7, #4]
 3133 0012 B3F5807F 		cmp	r3, #256
 3134 0016 03D0     		beq	.L214
 3135              		.loc 1 836 0 discriminator 1
 3136 0018 7B68     		ldr	r3, [r7, #4]
 3137 001a B3F5805F 		cmp	r3, #4096
 3138 001e 02D1     		bne	.L215
 3139              	.L214:
 3140 0020 4FF00103 		mov	r3, #1
 3141 0024 01E0     		b	.L216
 3142              	.L215:
 3143              		.loc 1 836 0 discriminator 3
 3144 0026 4FF00003 		mov	r3, #0
 3145              	.L216:
 3146              		.loc 1 836 0 discriminator 4
 3147 002a 1846     		mov	r0, r3
 3148 002c FFF7FEFF 		bl	assert_param
 837:../libs/StdPeripheralDriver/src/stm32f10x_fsmc.c ****   assert_param(IS_FSMC_IT(FSMC_IT));
 3149              		.loc 1 837 0 is_stmt 1 discriminator 4
 3150 0030 3B68     		ldr	r3, [r7, #0]
 3151 0032 23F03803 		bic	r3, r3, #56
 3152 0036 002B     		cmp	r3, #0
 3153 0038 05D1     		bne	.L217
 3154              		.loc 1 837 0 is_stmt 0 discriminator 1
 3155 003a 3B68     		ldr	r3, [r7, #0]
 3156 003c 002B     		cmp	r3, #0
 3157 003e 02D0     		beq	.L217
 3158              		.loc 1 837 0 discriminator 3
 3159 0040 4FF00103 		mov	r3, #1
 3160 0044 01E0     		b	.L218
 3161              	.L217:
 3162              		.loc 1 837 0 discriminator 2
 3163 0046 4FF00003 		mov	r3, #0
 3164              	.L218:
 3165              		.loc 1 837 0 discriminator 4
 3166 004a 1846     		mov	r0, r3
 3167 004c FFF7FEFF 		bl	assert_param
 838:../libs/StdPeripheralDriver/src/stm32f10x_fsmc.c ****     
 839:../libs/StdPeripheralDriver/src/stm32f10x_fsmc.c ****   if(FSMC_Bank == FSMC_Bank2_NAND)
 3168              		.loc 1 839 0 is_stmt 1 discriminator 4
 3169 0050 7B68     		ldr	r3, [r7, #4]
 3170 0052 102B     		cmp	r3, #16
 3171 0054 0AD1     		bne	.L219
 840:../libs/StdPeripheralDriver/src/stm32f10x_fsmc.c ****   {
 841:../libs/StdPeripheralDriver/src/stm32f10x_fsmc.c ****     FSMC_Bank2->SR2 &= ~(FSMC_IT >> 3); 
 3172              		.loc 1 841 0
 3173 0056 144B     		ldr	r3, .L222
 3174 0058 134A     		ldr	r2, .L222
 3175 005a 5168     		ldr	r1, [r2, #4]
 3176 005c 3A68     		ldr	r2, [r7, #0]
 3177 005e 4FEAD202 		lsr	r2, r2, #3
 3178 0062 6FEA0202 		mvn	r2, r2
 3179 0066 0A40     		ands	r2, r2, r1
 3180 0068 5A60     		str	r2, [r3, #4]
 3181 006a 18E0     		b	.L213
 3182              	.L219:
 842:../libs/StdPeripheralDriver/src/stm32f10x_fsmc.c ****   }  
 843:../libs/StdPeripheralDriver/src/stm32f10x_fsmc.c ****   else if(FSMC_Bank == FSMC_Bank3_NAND)
 3183              		.loc 1 843 0
 3184 006c 7B68     		ldr	r3, [r7, #4]
 3185 006e B3F5807F 		cmp	r3, #256
 3186 0072 0AD1     		bne	.L221
 844:../libs/StdPeripheralDriver/src/stm32f10x_fsmc.c ****   {
 845:../libs/StdPeripheralDriver/src/stm32f10x_fsmc.c ****     FSMC_Bank3->SR3 &= ~(FSMC_IT >> 3);
 3187              		.loc 1 845 0
 3188 0074 0D4B     		ldr	r3, .L222+4
 3189 0076 0D4A     		ldr	r2, .L222+4
 3190 0078 5168     		ldr	r1, [r2, #4]
 3191 007a 3A68     		ldr	r2, [r7, #0]
 3192 007c 4FEAD202 		lsr	r2, r2, #3
 3193 0080 6FEA0202 		mvn	r2, r2
 3194 0084 0A40     		ands	r2, r2, r1
 3195 0086 5A60     		str	r2, [r3, #4]
 3196 0088 09E0     		b	.L213
 3197              	.L221:
 846:../libs/StdPeripheralDriver/src/stm32f10x_fsmc.c ****   }
 847:../libs/StdPeripheralDriver/src/stm32f10x_fsmc.c ****   /* FSMC_Bank4_PCCARD*/
 848:../libs/StdPeripheralDriver/src/stm32f10x_fsmc.c ****   else
 849:../libs/StdPeripheralDriver/src/stm32f10x_fsmc.c ****   {
 850:../libs/StdPeripheralDriver/src/stm32f10x_fsmc.c ****     FSMC_Bank4->SR4 &= ~(FSMC_IT >> 3);
 3198              		.loc 1 850 0
 3199 008a 094B     		ldr	r3, .L222+8
 3200 008c 084A     		ldr	r2, .L222+8
 3201 008e 5168     		ldr	r1, [r2, #4]
 3202 0090 3A68     		ldr	r2, [r7, #0]
 3203 0092 4FEAD202 		lsr	r2, r2, #3
 3204 0096 6FEA0202 		mvn	r2, r2
 3205 009a 0A40     		ands	r2, r2, r1
 3206 009c 5A60     		str	r2, [r3, #4]
 3207              	.L213:
 851:../libs/StdPeripheralDriver/src/stm32f10x_fsmc.c ****   }
 852:../libs/StdPeripheralDriver/src/stm32f10x_fsmc.c **** }
 3208              		.loc 1 852 0
 3209 009e 07F10807 		add	r7, r7, #8
 3210 00a2 BD46     		mov	sp, r7
 3211 00a4 80BD     		pop	{r7, pc}
 3212              	.L223:
 3213 00a6 00BF     		.align	2
 3214              	.L222:
 3215 00a8 600000A0 		.word	-1610612640
 3216 00ac 800000A0 		.word	-1610612608
 3217 00b0 A00000A0 		.word	-1610612576
 3218              		.cfi_endproc
 3219              	.LFE47:
 3221              		.text
 3222              	.Letext0:
 3223              		.file 2 "d:\\programs\\stm programs\\codebench\\bin\\../lib/gcc/arm-none-eabi/4.7.3/../../../../ar
 3224              		.file 3 "D:\\PROGRAMMING\\stm\\stm-discovery_test_project\\libs\\CMSIS/stm32f10x.h"
 3225              		.file 4 "D:\\PROGRAMMING\\stm\\stm-discovery_test_project\\libs\\StdPeripheralDriver\\inc/stm32f10
 3226              		.file 5 "D:\\PROGRAMMING\\stm\\stm-discovery_test_project\\libs\\CMSIS/core_cm3.h"
DEFINED SYMBOLS
                            *ABS*:00000000 stm32f10x_fsmc.c
C:\Users\6262~1\AppData\Local\Temp\cclwf0ea.s:19     .text.FSMC_NORSRAMDeInit:00000000 $t
C:\Users\6262~1\AppData\Local\Temp\cclwf0ea.s:24     .text.FSMC_NORSRAMDeInit:00000000 FSMC_NORSRAMDeInit
C:\Users\6262~1\AppData\Local\Temp\cclwf0ea.s:105    .text.FSMC_NORSRAMDeInit:0000007c $d
C:\Users\6262~1\AppData\Local\Temp\cclwf0ea.s:110    .text.FSMC_NANDDeInit:00000000 $t
C:\Users\6262~1\AppData\Local\Temp\cclwf0ea.s:115    .text.FSMC_NANDDeInit:00000000 FSMC_NANDDeInit
C:\Users\6262~1\AppData\Local\Temp\cclwf0ea.s:198    .text.FSMC_NANDDeInit:00000078 $d
C:\Users\6262~1\AppData\Local\Temp\cclwf0ea.s:204    .text.FSMC_PCCARDDeInit:00000000 $t
C:\Users\6262~1\AppData\Local\Temp\cclwf0ea.s:209    .text.FSMC_PCCARDDeInit:00000000 FSMC_PCCARDDeInit
C:\Users\6262~1\AppData\Local\Temp\cclwf0ea.s:250    .text.FSMC_PCCARDDeInit:00000034 $d
C:\Users\6262~1\AppData\Local\Temp\cclwf0ea.s:255    .text.FSMC_NORSRAMInit:00000000 $t
C:\Users\6262~1\AppData\Local\Temp\cclwf0ea.s:260    .text.FSMC_NORSRAMInit:00000000 FSMC_NORSRAMInit
C:\Users\6262~1\AppData\Local\Temp\cclwf0ea.s:975    .text.FSMC_NORSRAMInit:00000498 $d
C:\Users\6262~1\AppData\Local\Temp\cclwf0ea.s:980    .text.FSMC_NANDInit:00000000 $t
C:\Users\6262~1\AppData\Local\Temp\cclwf0ea.s:985    .text.FSMC_NANDInit:00000000 FSMC_NANDInit
C:\Users\6262~1\AppData\Local\Temp\cclwf0ea.s:1367   .text.FSMC_NANDInit:0000027c $d
C:\Users\6262~1\AppData\Local\Temp\cclwf0ea.s:1373   .text.FSMC_PCCARDInit:00000000 $t
C:\Users\6262~1\AppData\Local\Temp\cclwf0ea.s:1378   .text.FSMC_PCCARDInit:00000000 FSMC_PCCARDInit
C:\Users\6262~1\AppData\Local\Temp\cclwf0ea.s:1679   .text.FSMC_PCCARDInit:0000020c $d
C:\Users\6262~1\AppData\Local\Temp\cclwf0ea.s:1684   .text.FSMC_NORSRAMStructInit:00000000 $t
C:\Users\6262~1\AppData\Local\Temp\cclwf0ea.s:1689   .text.FSMC_NORSRAMStructInit:00000000 FSMC_NORSRAMStructInit
C:\Users\6262~1\AppData\Local\Temp\cclwf0ea.s:1838   .text.FSMC_NANDStructInit:00000000 $t
C:\Users\6262~1\AppData\Local\Temp\cclwf0ea.s:1843   .text.FSMC_NANDStructInit:00000000 FSMC_NANDStructInit
C:\Users\6262~1\AppData\Local\Temp\cclwf0ea.s:1938   .text.FSMC_PCCARDStructInit:00000000 $t
C:\Users\6262~1\AppData\Local\Temp\cclwf0ea.s:1943   .text.FSMC_PCCARDStructInit:00000000 FSMC_PCCARDStructInit
C:\Users\6262~1\AppData\Local\Temp\cclwf0ea.s:2042   .text.FSMC_NORSRAMCmd:00000000 $t
C:\Users\6262~1\AppData\Local\Temp\cclwf0ea.s:2047   .text.FSMC_NORSRAMCmd:00000000 FSMC_NORSRAMCmd
C:\Users\6262~1\AppData\Local\Temp\cclwf0ea.s:2144   .text.FSMC_NORSRAMCmd:00000090 $d
C:\Users\6262~1\AppData\Local\Temp\cclwf0ea.s:2149   .text.FSMC_NANDCmd:00000000 $t
C:\Users\6262~1\AppData\Local\Temp\cclwf0ea.s:2154   .text.FSMC_NANDCmd:00000000 FSMC_NANDCmd
C:\Users\6262~1\AppData\Local\Temp\cclwf0ea.s:2264   .text.FSMC_NANDCmd:00000098 $d
C:\Users\6262~1\AppData\Local\Temp\cclwf0ea.s:2271   .text.FSMC_PCCARDCmd:00000000 $t
C:\Users\6262~1\AppData\Local\Temp\cclwf0ea.s:2276   .text.FSMC_PCCARDCmd:00000000 FSMC_PCCARDCmd
C:\Users\6262~1\AppData\Local\Temp\cclwf0ea.s:2341   .text.FSMC_PCCARDCmd:00000050 $d
C:\Users\6262~1\AppData\Local\Temp\cclwf0ea.s:2347   .text.FSMC_NANDECCCmd:00000000 $t
C:\Users\6262~1\AppData\Local\Temp\cclwf0ea.s:2352   .text.FSMC_NANDECCCmd:00000000 FSMC_NANDECCCmd
C:\Users\6262~1\AppData\Local\Temp\cclwf0ea.s:2462   .text.FSMC_NANDECCCmd:00000098 $d
C:\Users\6262~1\AppData\Local\Temp\cclwf0ea.s:2469   .text.FSMC_GetECC:00000000 $t
C:\Users\6262~1\AppData\Local\Temp\cclwf0ea.s:2474   .text.FSMC_GetECC:00000000 FSMC_GetECC
C:\Users\6262~1\AppData\Local\Temp\cclwf0ea.s:2521   .text.FSMC_GetECC:00000030 $d
C:\Users\6262~1\AppData\Local\Temp\cclwf0ea.s:2527   .text.FSMC_ITConfig:00000000 $t
C:\Users\6262~1\AppData\Local\Temp\cclwf0ea.s:2532   .text.FSMC_ITConfig:00000000 FSMC_ITConfig
C:\Users\6262~1\AppData\Local\Temp\cclwf0ea.s:2696   .text.FSMC_ITConfig:000000f8 $d
C:\Users\6262~1\AppData\Local\Temp\cclwf0ea.s:2703   .text.FSMC_GetFlagStatus:00000000 $t
C:\Users\6262~1\AppData\Local\Temp\cclwf0ea.s:2708   .text.FSMC_GetFlagStatus:00000000 FSMC_GetFlagStatus
C:\Users\6262~1\AppData\Local\Temp\cclwf0ea.s:2832   .text.FSMC_GetFlagStatus:000000ac $d
C:\Users\6262~1\AppData\Local\Temp\cclwf0ea.s:2839   .text.FSMC_ClearFlag:00000000 $t
C:\Users\6262~1\AppData\Local\Temp\cclwf0ea.s:2844   .text.FSMC_ClearFlag:00000000 FSMC_ClearFlag
C:\Users\6262~1\AppData\Local\Temp\cclwf0ea.s:2948   .text.FSMC_ClearFlag:0000009c $d
C:\Users\6262~1\AppData\Local\Temp\cclwf0ea.s:2955   .text.FSMC_GetITStatus:00000000 $t
C:\Users\6262~1\AppData\Local\Temp\cclwf0ea.s:2960   .text.FSMC_GetITStatus:00000000 FSMC_GetITStatus
C:\Users\6262~1\AppData\Local\Temp\cclwf0ea.s:3096   .text.FSMC_GetITStatus:000000c8 $d
C:\Users\6262~1\AppData\Local\Temp\cclwf0ea.s:3103   .text.FSMC_ClearITPendingBit:00000000 $t
C:\Users\6262~1\AppData\Local\Temp\cclwf0ea.s:3108   .text.FSMC_ClearITPendingBit:00000000 FSMC_ClearITPendingBit
C:\Users\6262~1\AppData\Local\Temp\cclwf0ea.s:3215   .text.FSMC_ClearITPendingBit:000000a8 $d
                     .debug_frame:00000010 $d
                           .group:00000000 wm4.1.a89c7a2b9e0955e95368adfe2cbc52f6
                           .group:00000000 wm4.stm32f10x.h.51.b859cb68ed44ee02c916b41cb8c68f1c
                           .group:00000000 wm4.core_cm3.h.25.d35e9a9b04ec4aaebae9bf79fff061f9
                           .group:00000000 wm4.stdint.h.10.90b695f550ca6cc3fb08fa83baf01e05
                           .group:00000000 wm4.core_cm3.h.113.b286929a54d33b4c8909a7132437b244
                           .group:00000000 wm4.stm32f10x.h.522.a925aafc848b1f088438cf0e9b167b78
                           .group:00000000 wm4.stm32f10x.h.8304.f7d8ad90959e99679b3257267c3aadfe
                           .group:00000000 wm4.stm32f10x_fsmc.h.249.addafa799f80b37b762a4815ce5c7dc5
                           .group:00000000 wm4.stm32f10x_rcc.h.25.fe8897e7491f2eb0cff54551d08eb765

UNDEFINED SYMBOLS
assert_param
