   1              		.syntax unified
   2              		.cpu cortex-m3
   3              		.fpu softvfp
   4              		.eabi_attribute 20, 1
   5              		.eabi_attribute 21, 1
   6              		.eabi_attribute 23, 3
   7              		.eabi_attribute 24, 1
   8              		.eabi_attribute 25, 1
   9              		.eabi_attribute 26, 1
  10              		.eabi_attribute 30, 6
  11              		.eabi_attribute 34, 1
  12              		.eabi_attribute 18, 4
  13              		.thumb
  14              		.file	"nokia1100_lcd_lib.c"
  15              		.text
  16              	.Ltext0:
  17              		.cfi_sections	.debug_frame
  18              		.section	.bss.nlcd_memory,"aw",%nobits
  19              		.align	2
  22              	nlcd_memory:
  23 0000 00000000 		.space	855
  23      00000000 
  23      00000000 
  23      00000000 
  23      00000000 
  24 0357 00       		.section	.bss.nlcd_xcurr,"aw",%nobits
  27              	nlcd_xcurr:
  28 0000 00       		.space	1
  29              		.section	.bss.nlcd_ycurr,"aw",%nobits
  32              	nlcd_ycurr:
  33 0000 00       		.space	1
  34              		.global	nlcd_Font
  35              		.section	.rodata.nlcd_Font,"a",%progbits
  36              		.align	2
  39              	nlcd_Font:
  40 0000 00       		.byte	0
  41 0001 00       		.byte	0
  42 0002 00       		.byte	0
  43 0003 00       		.byte	0
  44 0004 00       		.byte	0
  45 0005 00       		.byte	0
  46 0006 00       		.byte	0
  47 0007 5F       		.byte	95
  48 0008 00       		.byte	0
  49 0009 00       		.byte	0
  50 000a 00       		.byte	0
  51 000b 07       		.byte	7
  52 000c 00       		.byte	0
  53 000d 07       		.byte	7
  54 000e 00       		.byte	0
  55 000f 14       		.byte	20
  56 0010 7F       		.byte	127
  57 0011 14       		.byte	20
  58 0012 7F       		.byte	127
  59 0013 14       		.byte	20
  60 0014 24       		.byte	36
  61 0015 2A       		.byte	42
  62 0016 7F       		.byte	127
  63 0017 2A       		.byte	42
  64 0018 12       		.byte	18
  65 0019 23       		.byte	35
  66 001a 13       		.byte	19
  67 001b 08       		.byte	8
  68 001c 64       		.byte	100
  69 001d 62       		.byte	98
  70 001e 36       		.byte	54
  71 001f 49       		.byte	73
  72 0020 55       		.byte	85
  73 0021 22       		.byte	34
  74 0022 50       		.byte	80
  75 0023 00       		.byte	0
  76 0024 05       		.byte	5
  77 0025 03       		.byte	3
  78 0026 00       		.byte	0
  79 0027 00       		.byte	0
  80 0028 00       		.byte	0
  81 0029 1C       		.byte	28
  82 002a 22       		.byte	34
  83 002b 41       		.byte	65
  84 002c 00       		.byte	0
  85 002d 00       		.byte	0
  86 002e 41       		.byte	65
  87 002f 22       		.byte	34
  88 0030 1C       		.byte	28
  89 0031 00       		.byte	0
  90 0032 08       		.byte	8
  91 0033 2A       		.byte	42
  92 0034 1C       		.byte	28
  93 0035 2A       		.byte	42
  94 0036 08       		.byte	8
  95 0037 08       		.byte	8
  96 0038 08       		.byte	8
  97 0039 3E       		.byte	62
  98 003a 08       		.byte	8
  99 003b 08       		.byte	8
 100 003c 00       		.byte	0
 101 003d 50       		.byte	80
 102 003e 30       		.byte	48
 103 003f 00       		.byte	0
 104 0040 00       		.byte	0
 105 0041 08       		.byte	8
 106 0042 08       		.byte	8
 107 0043 08       		.byte	8
 108 0044 08       		.byte	8
 109 0045 08       		.byte	8
 110 0046 00       		.byte	0
 111 0047 30       		.byte	48
 112 0048 30       		.byte	48
 113 0049 00       		.byte	0
 114 004a 00       		.byte	0
 115 004b 20       		.byte	32
 116 004c 10       		.byte	16
 117 004d 08       		.byte	8
 118 004e 04       		.byte	4
 119 004f 02       		.byte	2
 120 0050 3E       		.byte	62
 121 0051 51       		.byte	81
 122 0052 49       		.byte	73
 123 0053 45       		.byte	69
 124 0054 3E       		.byte	62
 125 0055 00       		.byte	0
 126 0056 42       		.byte	66
 127 0057 7F       		.byte	127
 128 0058 40       		.byte	64
 129 0059 00       		.byte	0
 130 005a 42       		.byte	66
 131 005b 61       		.byte	97
 132 005c 51       		.byte	81
 133 005d 49       		.byte	73
 134 005e 46       		.byte	70
 135 005f 21       		.byte	33
 136 0060 41       		.byte	65
 137 0061 45       		.byte	69
 138 0062 4B       		.byte	75
 139 0063 31       		.byte	49
 140 0064 18       		.byte	24
 141 0065 14       		.byte	20
 142 0066 12       		.byte	18
 143 0067 7F       		.byte	127
 144 0068 10       		.byte	16
 145 0069 27       		.byte	39
 146 006a 45       		.byte	69
 147 006b 45       		.byte	69
 148 006c 45       		.byte	69
 149 006d 39       		.byte	57
 150 006e 3C       		.byte	60
 151 006f 4A       		.byte	74
 152 0070 49       		.byte	73
 153 0071 49       		.byte	73
 154 0072 30       		.byte	48
 155 0073 01       		.byte	1
 156 0074 71       		.byte	113
 157 0075 09       		.byte	9
 158 0076 05       		.byte	5
 159 0077 03       		.byte	3
 160 0078 36       		.byte	54
 161 0079 49       		.byte	73
 162 007a 49       		.byte	73
 163 007b 49       		.byte	73
 164 007c 36       		.byte	54
 165 007d 06       		.byte	6
 166 007e 49       		.byte	73
 167 007f 49       		.byte	73
 168 0080 29       		.byte	41
 169 0081 1E       		.byte	30
 170 0082 00       		.byte	0
 171 0083 36       		.byte	54
 172 0084 36       		.byte	54
 173 0085 00       		.byte	0
 174 0086 00       		.byte	0
 175 0087 00       		.byte	0
 176 0088 56       		.byte	86
 177 0089 36       		.byte	54
 178 008a 00       		.byte	0
 179 008b 00       		.byte	0
 180 008c 00       		.byte	0
 181 008d 08       		.byte	8
 182 008e 14       		.byte	20
 183 008f 22       		.byte	34
 184 0090 41       		.byte	65
 185 0091 14       		.byte	20
 186 0092 14       		.byte	20
 187 0093 14       		.byte	20
 188 0094 14       		.byte	20
 189 0095 14       		.byte	20
 190 0096 41       		.byte	65
 191 0097 22       		.byte	34
 192 0098 14       		.byte	20
 193 0099 08       		.byte	8
 194 009a 00       		.byte	0
 195 009b 02       		.byte	2
 196 009c 01       		.byte	1
 197 009d 51       		.byte	81
 198 009e 09       		.byte	9
 199 009f 06       		.byte	6
 200 00a0 32       		.byte	50
 201 00a1 49       		.byte	73
 202 00a2 79       		.byte	121
 203 00a3 41       		.byte	65
 204 00a4 3E       		.byte	62
 205 00a5 7E       		.byte	126
 206 00a6 11       		.byte	17
 207 00a7 11       		.byte	17
 208 00a8 11       		.byte	17
 209 00a9 7E       		.byte	126
 210 00aa 7F       		.byte	127
 211 00ab 49       		.byte	73
 212 00ac 49       		.byte	73
 213 00ad 49       		.byte	73
 214 00ae 36       		.byte	54
 215 00af 3E       		.byte	62
 216 00b0 41       		.byte	65
 217 00b1 41       		.byte	65
 218 00b2 41       		.byte	65
 219 00b3 22       		.byte	34
 220 00b4 7F       		.byte	127
 221 00b5 41       		.byte	65
 222 00b6 41       		.byte	65
 223 00b7 22       		.byte	34
 224 00b8 1C       		.byte	28
 225 00b9 7F       		.byte	127
 226 00ba 49       		.byte	73
 227 00bb 49       		.byte	73
 228 00bc 49       		.byte	73
 229 00bd 41       		.byte	65
 230 00be 7F       		.byte	127
 231 00bf 09       		.byte	9
 232 00c0 09       		.byte	9
 233 00c1 01       		.byte	1
 234 00c2 01       		.byte	1
 235 00c3 3E       		.byte	62
 236 00c4 41       		.byte	65
 237 00c5 41       		.byte	65
 238 00c6 51       		.byte	81
 239 00c7 32       		.byte	50
 240 00c8 7F       		.byte	127
 241 00c9 08       		.byte	8
 242 00ca 08       		.byte	8
 243 00cb 08       		.byte	8
 244 00cc 7F       		.byte	127
 245 00cd 00       		.byte	0
 246 00ce 41       		.byte	65
 247 00cf 7F       		.byte	127
 248 00d0 41       		.byte	65
 249 00d1 00       		.byte	0
 250 00d2 20       		.byte	32
 251 00d3 40       		.byte	64
 252 00d4 41       		.byte	65
 253 00d5 3F       		.byte	63
 254 00d6 01       		.byte	1
 255 00d7 7F       		.byte	127
 256 00d8 08       		.byte	8
 257 00d9 14       		.byte	20
 258 00da 22       		.byte	34
 259 00db 41       		.byte	65
 260 00dc 7F       		.byte	127
 261 00dd 40       		.byte	64
 262 00de 40       		.byte	64
 263 00df 40       		.byte	64
 264 00e0 40       		.byte	64
 265 00e1 7F       		.byte	127
 266 00e2 02       		.byte	2
 267 00e3 04       		.byte	4
 268 00e4 02       		.byte	2
 269 00e5 7F       		.byte	127
 270 00e6 7F       		.byte	127
 271 00e7 04       		.byte	4
 272 00e8 08       		.byte	8
 273 00e9 10       		.byte	16
 274 00ea 7F       		.byte	127
 275 00eb 3E       		.byte	62
 276 00ec 41       		.byte	65
 277 00ed 41       		.byte	65
 278 00ee 41       		.byte	65
 279 00ef 3E       		.byte	62
 280 00f0 7F       		.byte	127
 281 00f1 09       		.byte	9
 282 00f2 09       		.byte	9
 283 00f3 09       		.byte	9
 284 00f4 06       		.byte	6
 285 00f5 3E       		.byte	62
 286 00f6 41       		.byte	65
 287 00f7 51       		.byte	81
 288 00f8 21       		.byte	33
 289 00f9 5E       		.byte	94
 290 00fa 7F       		.byte	127
 291 00fb 09       		.byte	9
 292 00fc 19       		.byte	25
 293 00fd 29       		.byte	41
 294 00fe 46       		.byte	70
 295 00ff 46       		.byte	70
 296 0100 49       		.byte	73
 297 0101 49       		.byte	73
 298 0102 49       		.byte	73
 299 0103 31       		.byte	49
 300 0104 01       		.byte	1
 301 0105 01       		.byte	1
 302 0106 7F       		.byte	127
 303 0107 01       		.byte	1
 304 0108 01       		.byte	1
 305 0109 3F       		.byte	63
 306 010a 40       		.byte	64
 307 010b 40       		.byte	64
 308 010c 40       		.byte	64
 309 010d 3F       		.byte	63
 310 010e 1F       		.byte	31
 311 010f 20       		.byte	32
 312 0110 40       		.byte	64
 313 0111 20       		.byte	32
 314 0112 1F       		.byte	31
 315 0113 7F       		.byte	127
 316 0114 20       		.byte	32
 317 0115 18       		.byte	24
 318 0116 20       		.byte	32
 319 0117 7F       		.byte	127
 320 0118 63       		.byte	99
 321 0119 14       		.byte	20
 322 011a 08       		.byte	8
 323 011b 14       		.byte	20
 324 011c 63       		.byte	99
 325 011d 03       		.byte	3
 326 011e 04       		.byte	4
 327 011f 78       		.byte	120
 328 0120 04       		.byte	4
 329 0121 03       		.byte	3
 330 0122 61       		.byte	97
 331 0123 51       		.byte	81
 332 0124 49       		.byte	73
 333 0125 45       		.byte	69
 334 0126 43       		.byte	67
 335 0127 00       		.byte	0
 336 0128 00       		.byte	0
 337 0129 7F       		.byte	127
 338 012a 41       		.byte	65
 339 012b 41       		.byte	65
 340 012c 02       		.byte	2
 341 012d 04       		.byte	4
 342 012e 08       		.byte	8
 343 012f 10       		.byte	16
 344 0130 20       		.byte	32
 345 0131 41       		.byte	65
 346 0132 41       		.byte	65
 347 0133 7F       		.byte	127
 348 0134 00       		.byte	0
 349 0135 00       		.byte	0
 350 0136 04       		.byte	4
 351 0137 02       		.byte	2
 352 0138 01       		.byte	1
 353 0139 02       		.byte	2
 354 013a 04       		.byte	4
 355 013b 40       		.byte	64
 356 013c 40       		.byte	64
 357 013d 40       		.byte	64
 358 013e 40       		.byte	64
 359 013f 40       		.byte	64
 360 0140 00       		.byte	0
 361 0141 01       		.byte	1
 362 0142 02       		.byte	2
 363 0143 04       		.byte	4
 364 0144 00       		.byte	0
 365 0145 20       		.byte	32
 366 0146 54       		.byte	84
 367 0147 54       		.byte	84
 368 0148 54       		.byte	84
 369 0149 78       		.byte	120
 370 014a 7F       		.byte	127
 371 014b 48       		.byte	72
 372 014c 44       		.byte	68
 373 014d 44       		.byte	68
 374 014e 38       		.byte	56
 375 014f 38       		.byte	56
 376 0150 44       		.byte	68
 377 0151 44       		.byte	68
 378 0152 44       		.byte	68
 379 0153 20       		.byte	32
 380 0154 38       		.byte	56
 381 0155 44       		.byte	68
 382 0156 44       		.byte	68
 383 0157 48       		.byte	72
 384 0158 7F       		.byte	127
 385 0159 38       		.byte	56
 386 015a 54       		.byte	84
 387 015b 54       		.byte	84
 388 015c 54       		.byte	84
 389 015d 18       		.byte	24
 390 015e 08       		.byte	8
 391 015f 7E       		.byte	126
 392 0160 09       		.byte	9
 393 0161 01       		.byte	1
 394 0162 02       		.byte	2
 395 0163 08       		.byte	8
 396 0164 14       		.byte	20
 397 0165 54       		.byte	84
 398 0166 54       		.byte	84
 399 0167 3C       		.byte	60
 400 0168 7F       		.byte	127
 401 0169 08       		.byte	8
 402 016a 04       		.byte	4
 403 016b 04       		.byte	4
 404 016c 78       		.byte	120
 405 016d 00       		.byte	0
 406 016e 44       		.byte	68
 407 016f 7D       		.byte	125
 408 0170 40       		.byte	64
 409 0171 00       		.byte	0
 410 0172 20       		.byte	32
 411 0173 40       		.byte	64
 412 0174 44       		.byte	68
 413 0175 3D       		.byte	61
 414 0176 00       		.byte	0
 415 0177 00       		.byte	0
 416 0178 7F       		.byte	127
 417 0179 10       		.byte	16
 418 017a 28       		.byte	40
 419 017b 44       		.byte	68
 420 017c 00       		.byte	0
 421 017d 41       		.byte	65
 422 017e 7F       		.byte	127
 423 017f 40       		.byte	64
 424 0180 00       		.byte	0
 425 0181 7C       		.byte	124
 426 0182 04       		.byte	4
 427 0183 18       		.byte	24
 428 0184 04       		.byte	4
 429 0185 78       		.byte	120
 430 0186 7C       		.byte	124
 431 0187 08       		.byte	8
 432 0188 04       		.byte	4
 433 0189 04       		.byte	4
 434 018a 78       		.byte	120
 435 018b 38       		.byte	56
 436 018c 44       		.byte	68
 437 018d 44       		.byte	68
 438 018e 44       		.byte	68
 439 018f 38       		.byte	56
 440 0190 7C       		.byte	124
 441 0191 14       		.byte	20
 442 0192 14       		.byte	20
 443 0193 14       		.byte	20
 444 0194 08       		.byte	8
 445 0195 08       		.byte	8
 446 0196 14       		.byte	20
 447 0197 14       		.byte	20
 448 0198 18       		.byte	24
 449 0199 7C       		.byte	124
 450 019a 7C       		.byte	124
 451 019b 08       		.byte	8
 452 019c 04       		.byte	4
 453 019d 04       		.byte	4
 454 019e 08       		.byte	8
 455 019f 48       		.byte	72
 456 01a0 54       		.byte	84
 457 01a1 54       		.byte	84
 458 01a2 54       		.byte	84
 459 01a3 20       		.byte	32
 460 01a4 04       		.byte	4
 461 01a5 3F       		.byte	63
 462 01a6 44       		.byte	68
 463 01a7 40       		.byte	64
 464 01a8 20       		.byte	32
 465 01a9 3C       		.byte	60
 466 01aa 40       		.byte	64
 467 01ab 40       		.byte	64
 468 01ac 20       		.byte	32
 469 01ad 7C       		.byte	124
 470 01ae 1C       		.byte	28
 471 01af 20       		.byte	32
 472 01b0 40       		.byte	64
 473 01b1 20       		.byte	32
 474 01b2 1C       		.byte	28
 475 01b3 3C       		.byte	60
 476 01b4 40       		.byte	64
 477 01b5 30       		.byte	48
 478 01b6 40       		.byte	64
 479 01b7 3C       		.byte	60
 480 01b8 44       		.byte	68
 481 01b9 28       		.byte	40
 482 01ba 10       		.byte	16
 483 01bb 28       		.byte	40
 484 01bc 44       		.byte	68
 485 01bd 0C       		.byte	12
 486 01be 50       		.byte	80
 487 01bf 50       		.byte	80
 488 01c0 50       		.byte	80
 489 01c1 3C       		.byte	60
 490 01c2 44       		.byte	68
 491 01c3 64       		.byte	100
 492 01c4 54       		.byte	84
 493 01c5 4C       		.byte	76
 494 01c6 44       		.byte	68
 495 01c7 00       		.byte	0
 496 01c8 08       		.byte	8
 497 01c9 36       		.byte	54
 498 01ca 41       		.byte	65
 499 01cb 00       		.byte	0
 500 01cc 00       		.byte	0
 501 01cd 00       		.byte	0
 502 01ce 7F       		.byte	127
 503 01cf 00       		.byte	0
 504 01d0 00       		.byte	0
 505 01d1 00       		.byte	0
 506 01d2 41       		.byte	65
 507 01d3 36       		.byte	54
 508 01d4 08       		.byte	8
 509 01d5 00       		.byte	0
 510 01d6 02       		.byte	2
 511 01d7 01       		.byte	1
 512 01d8 02       		.byte	2
 513 01d9 04       		.byte	4
 514 01da 02       		.byte	2
 515 01db 08       		.byte	8
 516 01dc 1C       		.byte	28
 517 01dd 2A       		.byte	42
 518 01de 08       		.byte	8
 519 01df 08       		.byte	8
 520 01e0 7E       		.byte	126
 521 01e1 11       		.byte	17
 522 01e2 11       		.byte	17
 523 01e3 11       		.byte	17
 524 01e4 7E       		.byte	126
 525 01e5 7F       		.byte	127
 526 01e6 49       		.byte	73
 527 01e7 49       		.byte	73
 528 01e8 49       		.byte	73
 529 01e9 33       		.byte	51
 530 01ea 7F       		.byte	127
 531 01eb 49       		.byte	73
 532 01ec 49       		.byte	73
 533 01ed 49       		.byte	73
 534 01ee 36       		.byte	54
 535 01ef 7F       		.byte	127
 536 01f0 01       		.byte	1
 537 01f1 01       		.byte	1
 538 01f2 01       		.byte	1
 539 01f3 03       		.byte	3
 540 01f4 E0       		.byte	-32
 541 01f5 51       		.byte	81
 542 01f6 4F       		.byte	79
 543 01f7 41       		.byte	65
 544 01f8 FF       		.byte	-1
 545 01f9 7F       		.byte	127
 546 01fa 49       		.byte	73
 547 01fb 49       		.byte	73
 548 01fc 49       		.byte	73
 549 01fd 49       		.byte	73
 550 01fe 77       		.byte	119
 551 01ff 08       		.byte	8
 552 0200 7F       		.byte	127
 553 0201 08       		.byte	8
 554 0202 77       		.byte	119
 555 0203 49       		.byte	73
 556 0204 49       		.byte	73
 557 0205 49       		.byte	73
 558 0206 49       		.byte	73
 559 0207 36       		.byte	54
 560 0208 7F       		.byte	127
 561 0209 10       		.byte	16
 562 020a 08       		.byte	8
 563 020b 04       		.byte	4
 564 020c 7F       		.byte	127
 565 020d 7C       		.byte	124
 566 020e 21       		.byte	33
 567 020f 12       		.byte	18
 568 0210 09       		.byte	9
 569 0211 7C       		.byte	124
 570 0212 7F       		.byte	127
 571 0213 08       		.byte	8
 572 0214 14       		.byte	20
 573 0215 22       		.byte	34
 574 0216 41       		.byte	65
 575 0217 20       		.byte	32
 576 0218 41       		.byte	65
 577 0219 3F       		.byte	63
 578 021a 01       		.byte	1
 579 021b 7F       		.byte	127
 580 021c 7F       		.byte	127
 581 021d 02       		.byte	2
 582 021e 0C       		.byte	12
 583 021f 02       		.byte	2
 584 0220 7F       		.byte	127
 585 0221 7F       		.byte	127
 586 0222 08       		.byte	8
 587 0223 08       		.byte	8
 588 0224 08       		.byte	8
 589 0225 7F       		.byte	127
 590 0226 3E       		.byte	62
 591 0227 41       		.byte	65
 592 0228 41       		.byte	65
 593 0229 41       		.byte	65
 594 022a 3E       		.byte	62
 595 022b 7F       		.byte	127
 596 022c 01       		.byte	1
 597 022d 01       		.byte	1
 598 022e 01       		.byte	1
 599 022f 7F       		.byte	127
 600 0230 7F       		.byte	127
 601 0231 09       		.byte	9
 602 0232 09       		.byte	9
 603 0233 09       		.byte	9
 604 0234 06       		.byte	6
 605 0235 3E       		.byte	62
 606 0236 41       		.byte	65
 607 0237 41       		.byte	65
 608 0238 41       		.byte	65
 609 0239 22       		.byte	34
 610 023a 01       		.byte	1
 611 023b 01       		.byte	1
 612 023c 7F       		.byte	127
 613 023d 01       		.byte	1
 614 023e 01       		.byte	1
 615 023f 27       		.byte	39
 616 0240 48       		.byte	72
 617 0241 48       		.byte	72
 618 0242 48       		.byte	72
 619 0243 3F       		.byte	63
 620 0244 1C       		.byte	28
 621 0245 22       		.byte	34
 622 0246 7F       		.byte	127
 623 0247 22       		.byte	34
 624 0248 1C       		.byte	28
 625 0249 63       		.byte	99
 626 024a 14       		.byte	20
 627 024b 08       		.byte	8
 628 024c 14       		.byte	20
 629 024d 63       		.byte	99
 630 024e 7F       		.byte	127
 631 024f 40       		.byte	64
 632 0250 40       		.byte	64
 633 0251 40       		.byte	64
 634 0252 FF       		.byte	-1
 635 0253 07       		.byte	7
 636 0254 08       		.byte	8
 637 0255 08       		.byte	8
 638 0256 08       		.byte	8
 639 0257 7F       		.byte	127
 640 0258 7F       		.byte	127
 641 0259 40       		.byte	64
 642 025a 7F       		.byte	127
 643 025b 40       		.byte	64
 644 025c 7F       		.byte	127
 645 025d 7F       		.byte	127
 646 025e 40       		.byte	64
 647 025f 7F       		.byte	127
 648 0260 40       		.byte	64
 649 0261 FF       		.byte	-1
 650 0262 01       		.byte	1
 651 0263 7F       		.byte	127
 652 0264 48       		.byte	72
 653 0265 48       		.byte	72
 654 0266 30       		.byte	48
 655 0267 7F       		.byte	127
 656 0268 48       		.byte	72
 657 0269 30       		.byte	48
 658 026a 00       		.byte	0
 659 026b 7F       		.byte	127
 660 026c 7F       		.byte	127
 661 026d 48       		.byte	72
 662 026e 48       		.byte	72
 663 026f 30       		.byte	48
 664 0270 00       		.byte	0
 665 0271 22       		.byte	34
 666 0272 41       		.byte	65
 667 0273 49       		.byte	73
 668 0274 49       		.byte	73
 669 0275 3E       		.byte	62
 670 0276 7F       		.byte	127
 671 0277 08       		.byte	8
 672 0278 3E       		.byte	62
 673 0279 41       		.byte	65
 674 027a 3E       		.byte	62
 675 027b 46       		.byte	70
 676 027c 29       		.byte	41
 677 027d 19       		.byte	25
 678 027e 09       		.byte	9
 679 027f 7F       		.byte	127
 680 0280 20       		.byte	32
 681 0281 54       		.byte	84
 682 0282 54       		.byte	84
 683 0283 54       		.byte	84
 684 0284 78       		.byte	120
 685 0285 3C       		.byte	60
 686 0286 4A       		.byte	74
 687 0287 4A       		.byte	74
 688 0288 49       		.byte	73
 689 0289 31       		.byte	49
 690 028a 7C       		.byte	124
 691 028b 54       		.byte	84
 692 028c 54       		.byte	84
 693 028d 28       		.byte	40
 694 028e 00       		.byte	0
 695 028f 7C       		.byte	124
 696 0290 04       		.byte	4
 697 0291 04       		.byte	4
 698 0292 04       		.byte	4
 699 0293 0C       		.byte	12
 700 0294 E0       		.byte	-32
 701 0295 54       		.byte	84
 702 0296 4C       		.byte	76
 703 0297 44       		.byte	68
 704 0298 FC       		.byte	-4
 705 0299 38       		.byte	56
 706 029a 54       		.byte	84
 707 029b 54       		.byte	84
 708 029c 54       		.byte	84
 709 029d 08       		.byte	8
 710 029e 6C       		.byte	108
 711 029f 10       		.byte	16
 712 02a0 7C       		.byte	124
 713 02a1 10       		.byte	16
 714 02a2 6C       		.byte	108
 715 02a3 44       		.byte	68
 716 02a4 44       		.byte	68
 717 02a5 54       		.byte	84
 718 02a6 54       		.byte	84
 719 02a7 28       		.byte	40
 720 02a8 7C       		.byte	124
 721 02a9 20       		.byte	32
 722 02aa 10       		.byte	16
 723 02ab 08       		.byte	8
 724 02ac 7C       		.byte	124
 725 02ad 78       		.byte	120
 726 02ae 42       		.byte	66
 727 02af 24       		.byte	36
 728 02b0 12       		.byte	18
 729 02b1 78       		.byte	120
 730 02b2 7C       		.byte	124
 731 02b3 10       		.byte	16
 732 02b4 28       		.byte	40
 733 02b5 44       		.byte	68
 734 02b6 00       		.byte	0
 735 02b7 20       		.byte	32
 736 02b8 44       		.byte	68
 737 02b9 3C       		.byte	60
 738 02ba 04       		.byte	4
 739 02bb 7C       		.byte	124
 740 02bc 7C       		.byte	124
 741 02bd 08       		.byte	8
 742 02be 10       		.byte	16
 743 02bf 08       		.byte	8
 744 02c0 7C       		.byte	124
 745 02c1 7C       		.byte	124
 746 02c2 10       		.byte	16
 747 02c3 10       		.byte	16
 748 02c4 10       		.byte	16
 749 02c5 7C       		.byte	124
 750 02c6 38       		.byte	56
 751 02c7 44       		.byte	68
 752 02c8 44       		.byte	68
 753 02c9 44       		.byte	68
 754 02ca 38       		.byte	56
 755 02cb 7C       		.byte	124
 756 02cc 04       		.byte	4
 757 02cd 04       		.byte	4
 758 02ce 04       		.byte	4
 759 02cf 7C       		.byte	124
 760 02d0 7C       		.byte	124
 761 02d1 14       		.byte	20
 762 02d2 14       		.byte	20
 763 02d3 14       		.byte	20
 764 02d4 08       		.byte	8
 765 02d5 38       		.byte	56
 766 02d6 44       		.byte	68
 767 02d7 44       		.byte	68
 768 02d8 44       		.byte	68
 769 02d9 44       		.byte	68
 770 02da 04       		.byte	4
 771 02db 04       		.byte	4
 772 02dc 7C       		.byte	124
 773 02dd 04       		.byte	4
 774 02de 04       		.byte	4
 775 02df 0C       		.byte	12
 776 02e0 50       		.byte	80
 777 02e1 50       		.byte	80
 778 02e2 50       		.byte	80
 779 02e3 3C       		.byte	60
 780 02e4 18       		.byte	24
 781 02e5 24       		.byte	36
 782 02e6 7E       		.byte	126
 783 02e7 24       		.byte	36
 784 02e8 18       		.byte	24
 785 02e9 44       		.byte	68
 786 02ea 28       		.byte	40
 787 02eb 10       		.byte	16
 788 02ec 28       		.byte	40
 789 02ed 44       		.byte	68
 790 02ee 7C       		.byte	124
 791 02ef 40       		.byte	64
 792 02f0 40       		.byte	64
 793 02f1 40       		.byte	64
 794 02f2 FC       		.byte	-4
 795 02f3 0C       		.byte	12
 796 02f4 10       		.byte	16
 797 02f5 10       		.byte	16
 798 02f6 10       		.byte	16
 799 02f7 7C       		.byte	124
 800 02f8 7C       		.byte	124
 801 02f9 40       		.byte	64
 802 02fa 7C       		.byte	124
 803 02fb 40       		.byte	64
 804 02fc 7C       		.byte	124
 805 02fd 7C       		.byte	124
 806 02fe 40       		.byte	64
 807 02ff 7C       		.byte	124
 808 0300 40       		.byte	64
 809 0301 FC       		.byte	-4
 810 0302 04       		.byte	4
 811 0303 7C       		.byte	124
 812 0304 50       		.byte	80
 813 0305 50       		.byte	80
 814 0306 20       		.byte	32
 815 0307 7C       		.byte	124
 816 0308 50       		.byte	80
 817 0309 20       		.byte	32
 818 030a 00       		.byte	0
 819 030b 7C       		.byte	124
 820 030c 7C       		.byte	124
 821 030d 50       		.byte	80
 822 030e 50       		.byte	80
 823 030f 20       		.byte	32
 824 0310 00       		.byte	0
 825 0311 28       		.byte	40
 826 0312 44       		.byte	68
 827 0313 54       		.byte	84
 828 0314 54       		.byte	84
 829 0315 38       		.byte	56
 830 0316 7C       		.byte	124
 831 0317 10       		.byte	16
 832 0318 38       		.byte	56
 833 0319 44       		.byte	68
 834 031a 38       		.byte	56
 835 031b 08       		.byte	8
 836 031c 54       		.byte	84
 837 031d 34       		.byte	52
 838 031e 14       		.byte	20
 839 031f 7C       		.byte	124
 840              		.section	.text.Delay,"ax",%progbits
 841              		.align	2
 842              		.global	Delay
 843              		.thumb
 844              		.thumb_func
 846              	Delay:
 847              	.LFB29:
 848              		.file 1 "../libs/lcd_1100/nokia1100_lcd_lib.c"
   1:../libs/lcd_1100/nokia1100_lcd_lib.c **** //***************************************************************************
   2:../libs/lcd_1100/nokia1100_lcd_lib.c **** //  File........: nokia1100_lcd_lib.c
   3:../libs/lcd_1100/nokia1100_lcd_lib.c **** //  Author(s)...: Chiper
   4:../libs/lcd_1100/nokia1100_lcd_lib.c **** //  URL(s)......: http://digitalchip.ru/
   5:../libs/lcd_1100/nokia1100_lcd_lib.c **** //  Device(s)...: ATMega...
   6:../libs/lcd_1100/nokia1100_lcd_lib.c **** //  Compiler....: AVR-GCC
   7:../libs/lcd_1100/nokia1100_lcd_lib.c **** //  Description.: Драйвер LCD-контроллера от Nokia1100 с графическими функциями
   8:../libs/lcd_1100/nokia1100_lcd_lib.c **** //  Data........: 28.03.12
   9:../libs/lcd_1100/nokia1100_lcd_lib.c **** //  Version.....: 2.1
  10:../libs/lcd_1100/nokia1100_lcd_lib.c **** //***************************************************************************
  11:../libs/lcd_1100/nokia1100_lcd_lib.c **** //  Notice: Все управляющие контакты LCD-контроллера должны быть подключены к
  12:../libs/lcd_1100/nokia1100_lcd_lib.c **** //  одному и тому же порту на микроконтроллере
  13:../libs/lcd_1100/nokia1100_lcd_lib.c **** //***************************************************************************
  14:../libs/lcd_1100/nokia1100_lcd_lib.c **** 
  15:../libs/lcd_1100/nokia1100_lcd_lib.c **** #include "nokia1100_lcd_lib.h"
  16:../libs/lcd_1100/nokia1100_lcd_lib.c **** #include "nokia1100_lcd_font.h"	// Подключаем шрифт (будет размещен в программной памяти)
  17:../libs/lcd_1100/nokia1100_lcd_lib.c **** #include "stm32f10x_gpio.h"
  18:../libs/lcd_1100/nokia1100_lcd_lib.c **** #include "stm32f10x_rcc.h"
  19:../libs/lcd_1100/nokia1100_lcd_lib.c **** #include "stdlib.h"
  20:../libs/lcd_1100/nokia1100_lcd_lib.c **** //******************************************************************************
  21:../libs/lcd_1100/nokia1100_lcd_lib.c **** // Макросы, определения, служебные переменные
  22:../libs/lcd_1100/nokia1100_lcd_lib.c **** 
  23:../libs/lcd_1100/nokia1100_lcd_lib.c **** // Макросы для работы с битами
  24:../libs/lcd_1100/nokia1100_lcd_lib.c **** #define ClearBit(reg, bit)       reg &= (~bit)
  25:../libs/lcd_1100/nokia1100_lcd_lib.c **** #define SetBit(reg, bit)         reg |= (bit)
  26:../libs/lcd_1100/nokia1100_lcd_lib.c **** #define InvBit(reg, bit)         reg ^= bit
  27:../libs/lcd_1100/nokia1100_lcd_lib.c **** 
  28:../libs/lcd_1100/nokia1100_lcd_lib.c **** //******************************************************************************
  29:../libs/lcd_1100/nokia1100_lcd_lib.c **** void Delay(volatile uint32_t nCount) {
 849              		.loc 1 29 0
 850              		.cfi_startproc
 851              		@ args = 0, pretend = 0, frame = 8
 852              		@ frame_needed = 1, uses_anonymous_args = 0
 853              		@ link register save eliminated.
 854 0000 80B4     		push	{r7}
 855              	.LCFI0:
 856              		.cfi_def_cfa_offset 4
 857              		.cfi_offset 7, -4
 858 0002 83B0     		sub	sp, sp, #12
 859              	.LCFI1:
 860              		.cfi_def_cfa_offset 16
 861 0004 00AF     		add	r7, sp, #0
 862              	.LCFI2:
 863              		.cfi_def_cfa_register 7
 864 0006 7860     		str	r0, [r7, #4]
  30:../libs/lcd_1100/nokia1100_lcd_lib.c **** 	for (; nCount != 0; nCount--)
 865              		.loc 1 30 0
 866 0008 03E0     		b	.L2
 867              	.L3:
 868              		.loc 1 30 0 is_stmt 0 discriminator 2
 869 000a 7B68     		ldr	r3, [r7, #4]
 870 000c 03F1FF33 		add	r3, r3, #-1
 871 0010 7B60     		str	r3, [r7, #4]
 872              	.L2:
 873              		.loc 1 30 0 discriminator 1
 874 0012 7B68     		ldr	r3, [r7, #4]
 875 0014 002B     		cmp	r3, #0
 876 0016 F8D1     		bne	.L3
  31:../libs/lcd_1100/nokia1100_lcd_lib.c **** 		;
  32:../libs/lcd_1100/nokia1100_lcd_lib.c **** }
 877              		.loc 1 32 0 is_stmt 1
 878 0018 07F10C07 		add	r7, r7, #12
 879 001c BD46     		mov	sp, r7
 880 001e 80BC     		pop	{r7}
 881 0020 7047     		bx	lr
 882              		.cfi_endproc
 883              	.LFE29:
 885 0022 00BF     		.section	.text.nlcd_Init,"ax",%progbits
 886              		.align	2
 887              		.global	nlcd_Init
 888              		.thumb
 889              		.thumb_func
 891              	nlcd_Init:
 892              	.LFB30:
  33:../libs/lcd_1100/nokia1100_lcd_lib.c **** // Инициализация контроллера
  34:../libs/lcd_1100/nokia1100_lcd_lib.c **** void nlcd_Init(void) {
 893              		.loc 1 34 0
 894              		.cfi_startproc
 895              		@ args = 0, pretend = 0, frame = 8
 896              		@ frame_needed = 1, uses_anonymous_args = 0
 897 0000 80B5     		push	{r7, lr}
 898              	.LCFI3:
 899              		.cfi_def_cfa_offset 8
 900              		.cfi_offset 7, -8
 901              		.cfi_offset 14, -4
 902 0002 82B0     		sub	sp, sp, #8
 903              	.LCFI4:
 904              		.cfi_def_cfa_offset 16
 905 0004 00AF     		add	r7, sp, #0
 906              	.LCFI5:
 907              		.cfi_def_cfa_register 7
  35:../libs/lcd_1100/nokia1100_lcd_lib.c **** 	// Инициализируем порт на вывод для работы с LCD-контроллером
  36:../libs/lcd_1100/nokia1100_lcd_lib.c **** 	GPIO_InitTypeDef GPIO_InitStructure;
  37:../libs/lcd_1100/nokia1100_lcd_lib.c **** 	RCC_APB2PeriphClockCmd(RCC_APB2Periph_PORT, ENABLE);
 908              		.loc 1 37 0
 909 0006 4FF00800 		mov	r0, #8
 910 000a 4FF00101 		mov	r1, #1
 911 000e FFF7FEFF 		bl	RCC_APB2PeriphClockCmd
  38:../libs/lcd_1100/nokia1100_lcd_lib.c **** 	GPIO_InitStructure.GPIO_Pin = SCLK_LCD_PIN | SDA_LCD_PIN | CS_LCD_PIN
 912              		.loc 1 38 0
 913 0012 4FF0F003 		mov	r3, #240
 914 0016 BB80     		strh	r3, [r7, #4]	@ movhi
  39:../libs/lcd_1100/nokia1100_lcd_lib.c **** 			| RST_LCD_PIN;
  40:../libs/lcd_1100/nokia1100_lcd_lib.c **** 	GPIO_InitStructure.GPIO_Mode = GPIO_Mode_Out_PP;
 915              		.loc 1 40 0
 916 0018 4FF01003 		mov	r3, #16
 917 001c FB71     		strb	r3, [r7, #7]
  41:../libs/lcd_1100/nokia1100_lcd_lib.c **** 	GPIO_InitStructure.GPIO_Speed = GPIO_Speed_50MHz;
 918              		.loc 1 41 0
 919 001e 4FF00303 		mov	r3, #3
 920 0022 BB71     		strb	r3, [r7, #6]
  42:../libs/lcd_1100/nokia1100_lcd_lib.c **** 	GPIO_Init(GPIO_LCD, &GPIO_InitStructure);
 921              		.loc 1 42 0
 922 0024 07F10403 		add	r3, r7, #4
 923 0028 3F48     		ldr	r0, .L5
 924 002a 1946     		mov	r1, r3
 925 002c FFF7FEFF 		bl	GPIO_Init
  43:../libs/lcd_1100/nokia1100_lcd_lib.c **** 
  44:../libs/lcd_1100/nokia1100_lcd_lib.c **** 	CS_LCD_RESET;
 926              		.loc 1 44 0
 927 0030 3D4B     		ldr	r3, .L5
 928 0032 3D4A     		ldr	r2, .L5
 929 0034 D268     		ldr	r2, [r2, #12]
 930 0036 22F02002 		bic	r2, r2, #32
 931 003a DA60     		str	r2, [r3, #12]
  45:../libs/lcd_1100/nokia1100_lcd_lib.c **** 	RST_LCD_RESET;
 932              		.loc 1 45 0
 933 003c 3A4B     		ldr	r3, .L5
 934 003e 3A4A     		ldr	r2, .L5
 935 0040 D268     		ldr	r2, [r2, #12]
 936 0042 22F01002 		bic	r2, r2, #16
 937 0046 DA60     		str	r2, [r3, #12]
  46:../libs/lcd_1100/nokia1100_lcd_lib.c **** 
  47:../libs/lcd_1100/nokia1100_lcd_lib.c **** 	Delay(0x1f); // выжидем не менее 5мс для установки генератора(менее 5 мс может неработать)
 938              		.loc 1 47 0
 939 0048 4FF01F00 		mov	r0, #31
 940 004c FFF7FEFF 		bl	Delay
  48:../libs/lcd_1100/nokia1100_lcd_lib.c **** 
  49:../libs/lcd_1100/nokia1100_lcd_lib.c **** 	RST_LCD_SET;
 941              		.loc 1 49 0
 942 0050 354B     		ldr	r3, .L5
 943 0052 354A     		ldr	r2, .L5
 944 0054 D268     		ldr	r2, [r2, #12]
 945 0056 42F01002 		orr	r2, r2, #16
 946 005a DA60     		str	r2, [r3, #12]
  50:../libs/lcd_1100/nokia1100_lcd_lib.c **** 
  51:../libs/lcd_1100/nokia1100_lcd_lib.c **** 	nlcd_SendByte(CMD_LCD_MODE, 0xE2); // *** SOFTWARE RESET
 947              		.loc 1 51 0
 948 005c 4FF00000 		mov	r0, #0
 949 0060 4FF0E201 		mov	r1, #226
 950 0064 FFF7FEFF 		bl	nlcd_SendByte
  52:../libs/lcd_1100/nokia1100_lcd_lib.c **** 
  53:../libs/lcd_1100/nokia1100_lcd_lib.c **** 	nlcd_SendByte(CMD_LCD_MODE, 0x3A); // *** Use internal oscillator
 951              		.loc 1 53 0
 952 0068 4FF00000 		mov	r0, #0
 953 006c 4FF03A01 		mov	r1, #58
 954 0070 FFF7FEFF 		bl	nlcd_SendByte
  54:../libs/lcd_1100/nokia1100_lcd_lib.c **** 	nlcd_SendByte(CMD_LCD_MODE, 0xEF); // *** FRAME FREQUENCY:
 955              		.loc 1 54 0
 956 0074 4FF00000 		mov	r0, #0
 957 0078 4FF0EF01 		mov	r1, #239
 958 007c FFF7FEFF 		bl	nlcd_SendByte
  55:../libs/lcd_1100/nokia1100_lcd_lib.c **** 	nlcd_SendByte(CMD_LCD_MODE, 0x04); // *** 80Hz
 959              		.loc 1 55 0
 960 0080 4FF00000 		mov	r0, #0
 961 0084 4FF00401 		mov	r1, #4
 962 0088 FFF7FEFF 		bl	nlcd_SendByte
  56:../libs/lcd_1100/nokia1100_lcd_lib.c **** 	nlcd_SendByte(CMD_LCD_MODE, 0xD0); // *** 1:65 divider
 963              		.loc 1 56 0
 964 008c 4FF00000 		mov	r0, #0
 965 0090 4FF0D001 		mov	r1, #208
 966 0094 FFF7FEFF 		bl	nlcd_SendByte
  57:../libs/lcd_1100/nokia1100_lcd_lib.c **** 
  58:../libs/lcd_1100/nokia1100_lcd_lib.c **** 	nlcd_SendByte(CMD_LCD_MODE, 0x20); // Запись в регистр Vop
 967              		.loc 1 58 0
 968 0098 4FF00000 		mov	r0, #0
 969 009c 4FF02001 		mov	r1, #32
 970 00a0 FFF7FEFF 		bl	nlcd_SendByte
  59:../libs/lcd_1100/nokia1100_lcd_lib.c **** 	nlcd_SendByte(CMD_LCD_MODE, 0x90);
 971              		.loc 1 59 0
 972 00a4 4FF00000 		mov	r0, #0
 973 00a8 4FF09001 		mov	r1, #144
 974 00ac FFF7FEFF 		bl	nlcd_SendByte
  60:../libs/lcd_1100/nokia1100_lcd_lib.c **** 
  61:../libs/lcd_1100/nokia1100_lcd_lib.c **** 	nlcd_SendByte(CMD_LCD_MODE, 0xA4); // all on/normal display
 975              		.loc 1 61 0
 976 00b0 4FF00000 		mov	r0, #0
 977 00b4 4FF0A401 		mov	r1, #164
 978 00b8 FFF7FEFF 		bl	nlcd_SendByte
  62:../libs/lcd_1100/nokia1100_lcd_lib.c **** 
  63:../libs/lcd_1100/nokia1100_lcd_lib.c **** 	nlcd_SendByte(CMD_LCD_MODE, 0x2F); // Power control set(charge pump on/off)
 979              		.loc 1 63 0
 980 00bc 4FF00000 		mov	r0, #0
 981 00c0 4FF02F01 		mov	r1, #47
 982 00c4 FFF7FEFF 		bl	nlcd_SendByte
  64:../libs/lcd_1100/nokia1100_lcd_lib.c **** 									   // Определяет контрастность
  65:../libs/lcd_1100/nokia1100_lcd_lib.c **** 
  66:../libs/lcd_1100/nokia1100_lcd_lib.c **** 	nlcd_SendByte(CMD_LCD_MODE, 0x40); // set start row address = 0
 983              		.loc 1 66 0
 984 00c8 4FF00000 		mov	r0, #0
 985 00cc 4FF04001 		mov	r1, #64
 986 00d0 FFF7FEFF 		bl	nlcd_SendByte
  67:../libs/lcd_1100/nokia1100_lcd_lib.c **** 	nlcd_SendByte(CMD_LCD_MODE, 0xB0); // установить Y-адрес = 0
 987              		.loc 1 67 0
 988 00d4 4FF00000 		mov	r0, #0
 989 00d8 4FF0B001 		mov	r1, #176
 990 00dc FFF7FEFF 		bl	nlcd_SendByte
  68:../libs/lcd_1100/nokia1100_lcd_lib.c **** 	nlcd_SendByte(CMD_LCD_MODE, 0x10); // установить X-адрес, старшие 3 бита
 991              		.loc 1 68 0
 992 00e0 4FF00000 		mov	r0, #0
 993 00e4 4FF01001 		mov	r1, #16
 994 00e8 FFF7FEFF 		bl	nlcd_SendByte
  69:../libs/lcd_1100/nokia1100_lcd_lib.c **** 	nlcd_SendByte(CMD_LCD_MODE, 0x0); // установить X-адрес, младшие 4 бита
 995              		.loc 1 69 0
 996 00ec 4FF00000 		mov	r0, #0
 997 00f0 4FF00001 		mov	r1, #0
 998 00f4 FFF7FEFF 		bl	nlcd_SendByte
  70:../libs/lcd_1100/nokia1100_lcd_lib.c **** 
  71:../libs/lcd_1100/nokia1100_lcd_lib.c **** 	//nlcd_SendByte(CMD_LCD_MODE,0xC8); // mirror Y axis (about X axis)
  72:../libs/lcd_1100/nokia1100_lcd_lib.c **** 	//nlcd_SendByte(CMD_LCD_MODE,0xA1); // Инвертировать экран по горизонтали
  73:../libs/lcd_1100/nokia1100_lcd_lib.c **** 
  74:../libs/lcd_1100/nokia1100_lcd_lib.c **** 	nlcd_SendByte(CMD_LCD_MODE, 0xAC); // set initial row (R0) of the display
 999              		.loc 1 74 0
 1000 00f8 4FF00000 		mov	r0, #0
 1001 00fc 4FF0AC01 		mov	r1, #172
 1002 0100 FFF7FEFF 		bl	nlcd_SendByte
  75:../libs/lcd_1100/nokia1100_lcd_lib.c **** 	nlcd_SendByte(CMD_LCD_MODE, 0x07);
 1003              		.loc 1 75 0
 1004 0104 4FF00000 		mov	r0, #0
 1005 0108 4FF00701 		mov	r1, #7
 1006 010c FFF7FEFF 		bl	nlcd_SendByte
  76:../libs/lcd_1100/nokia1100_lcd_lib.c **** 
  77:../libs/lcd_1100/nokia1100_lcd_lib.c **** 	//nlcd_SendByte(CMD_LCD_MODE,0xF9); //
  78:../libs/lcd_1100/nokia1100_lcd_lib.c **** 
  79:../libs/lcd_1100/nokia1100_lcd_lib.c **** 	nlcd_SendByte(CMD_LCD_MODE, 0xAF); // экран вкл/выкл
 1007              		.loc 1 79 0
 1008 0110 4FF00000 		mov	r0, #0
 1009 0114 4FF0AF01 		mov	r1, #175
 1010 0118 FFF7FEFF 		bl	nlcd_SendByte
  80:../libs/lcd_1100/nokia1100_lcd_lib.c **** 
  81:../libs/lcd_1100/nokia1100_lcd_lib.c **** 	nlcd_Clear(); // clear LCD
 1011              		.loc 1 81 0
 1012 011c FFF7FEFF 		bl	nlcd_Clear
  82:../libs/lcd_1100/nokia1100_lcd_lib.c **** }
 1013              		.loc 1 82 0
 1014 0120 07F10807 		add	r7, r7, #8
 1015 0124 BD46     		mov	sp, r7
 1016 0126 80BD     		pop	{r7, pc}
 1017              	.L6:
 1018              		.align	2
 1019              	.L5:
 1020 0128 000C0140 		.word	1073810432
 1021              		.cfi_endproc
 1022              	.LFE30:
 1024              		.section	.text.nlcd_Clear,"ax",%progbits
 1025              		.align	2
 1026              		.global	nlcd_Clear
 1027              		.thumb
 1028              		.thumb_func
 1030              	nlcd_Clear:
 1031              	.LFB31:
  83:../libs/lcd_1100/nokia1100_lcd_lib.c **** 
  84:../libs/lcd_1100/nokia1100_lcd_lib.c **** //******************************************************************************
  85:../libs/lcd_1100/nokia1100_lcd_lib.c **** // Очистка экрана
  86:../libs/lcd_1100/nokia1100_lcd_lib.c **** void nlcd_Clear(void) {
 1032              		.loc 1 86 0
 1033              		.cfi_startproc
 1034              		@ args = 0, pretend = 0, frame = 8
 1035              		@ frame_needed = 1, uses_anonymous_args = 0
 1036 0000 80B5     		push	{r7, lr}
 1037              	.LCFI6:
 1038              		.cfi_def_cfa_offset 8
 1039              		.cfi_offset 7, -8
 1040              		.cfi_offset 14, -4
 1041 0002 82B0     		sub	sp, sp, #8
 1042              	.LCFI7:
 1043              		.cfi_def_cfa_offset 16
 1044 0004 00AF     		add	r7, sp, #0
 1045              	.LCFI8:
 1046              		.cfi_def_cfa_register 7
  87:../libs/lcd_1100/nokia1100_lcd_lib.c **** 	nlcd_SendByte(CMD_LCD_MODE, 0x40); // Y = 0
 1047              		.loc 1 87 0
 1048 0006 4FF00000 		mov	r0, #0
 1049 000a 4FF04001 		mov	r1, #64
 1050 000e FFF7FEFF 		bl	nlcd_SendByte
  88:../libs/lcd_1100/nokia1100_lcd_lib.c **** 	nlcd_SendByte(CMD_LCD_MODE, 0xB0);
 1051              		.loc 1 88 0
 1052 0012 4FF00000 		mov	r0, #0
 1053 0016 4FF0B001 		mov	r1, #176
 1054 001a FFF7FEFF 		bl	nlcd_SendByte
  89:../libs/lcd_1100/nokia1100_lcd_lib.c **** 	nlcd_SendByte(CMD_LCD_MODE, 0x10); // X = 0
 1055              		.loc 1 89 0
 1056 001e 4FF00000 		mov	r0, #0
 1057 0022 4FF01001 		mov	r1, #16
 1058 0026 FFF7FEFF 		bl	nlcd_SendByte
  90:../libs/lcd_1100/nokia1100_lcd_lib.c **** 	nlcd_SendByte(CMD_LCD_MODE, 0x00);
 1059              		.loc 1 90 0
 1060 002a 4FF00000 		mov	r0, #0
 1061 002e 4FF00001 		mov	r1, #0
 1062 0032 FFF7FEFF 		bl	nlcd_SendByte
  91:../libs/lcd_1100/nokia1100_lcd_lib.c **** 
  92:../libs/lcd_1100/nokia1100_lcd_lib.c **** 	nlcd_xcurr = 0;
 1063              		.loc 1 92 0
 1064 0036 0F4B     		ldr	r3, .L10
 1065 0038 4FF00002 		mov	r2, #0
 1066 003c 1A70     		strb	r2, [r3, #0]
  93:../libs/lcd_1100/nokia1100_lcd_lib.c **** 	nlcd_ycurr = 0; // Устанавливаем в 0 текущие координаты в видеобуфере
 1067              		.loc 1 93 0
 1068 003e 0E4B     		ldr	r3, .L10+4
 1069 0040 4FF00002 		mov	r2, #0
 1070 0044 1A70     		strb	r2, [r3, #0]
  94:../libs/lcd_1100/nokia1100_lcd_lib.c **** 
  95:../libs/lcd_1100/nokia1100_lcd_lib.c **** 	//nlcd_SendByte(CMD_LCD_MODE,0xAE); // disable display;
  96:../libs/lcd_1100/nokia1100_lcd_lib.c **** 
  97:../libs/lcd_1100/nokia1100_lcd_lib.c **** 	uint16_t i = 0;
 1071              		.loc 1 97 0
 1072 0046 4FF00003 		mov	r3, #0
 1073 004a FB80     		strh	r3, [r7, #6]	@ movhi
  98:../libs/lcd_1100/nokia1100_lcd_lib.c **** 	for (; i < 864; i++)
 1074              		.loc 1 98 0
 1075 004c 09E0     		b	.L8
 1076              	.L9:
  99:../libs/lcd_1100/nokia1100_lcd_lib.c **** 		nlcd_SendByte(DATA_LCD_MODE, 0x00);
 1077              		.loc 1 99 0 discriminator 2
 1078 004e 4FF00100 		mov	r0, #1
 1079 0052 4FF00001 		mov	r1, #0
 1080 0056 FFF7FEFF 		bl	nlcd_SendByte
  98:../libs/lcd_1100/nokia1100_lcd_lib.c **** 	for (; i < 864; i++)
 1081              		.loc 1 98 0 discriminator 2
 1082 005a FB88     		ldrh	r3, [r7, #6]	@ movhi
 1083 005c 03F10103 		add	r3, r3, #1
 1084 0060 FB80     		strh	r3, [r7, #6]	@ movhi
 1085              	.L8:
  98:../libs/lcd_1100/nokia1100_lcd_lib.c **** 	for (; i < 864; i++)
 1086              		.loc 1 98 0 is_stmt 0 discriminator 1
 1087 0062 FA88     		ldrh	r2, [r7, #6]
 1088 0064 40F25F33 		movw	r3, #863
 1089 0068 9A42     		cmp	r2, r3
 1090 006a F0D9     		bls	.L9
 100:../libs/lcd_1100/nokia1100_lcd_lib.c **** 
 101:../libs/lcd_1100/nokia1100_lcd_lib.c **** 	//nlcd_SendByte(CMD_LCD_MODE,0x07);
 102:../libs/lcd_1100/nokia1100_lcd_lib.c **** 	//nlcd_SendByte(CMD_LCD_MODE,0xAF); // enable display;
 103:../libs/lcd_1100/nokia1100_lcd_lib.c **** }
 1091              		.loc 1 103 0 is_stmt 1
 1092 006c 07F10807 		add	r7, r7, #8
 1093 0070 BD46     		mov	sp, r7
 1094 0072 80BD     		pop	{r7, pc}
 1095              	.L11:
 1096              		.align	2
 1097              	.L10:
 1098 0074 00000000 		.word	nlcd_xcurr
 1099 0078 00000000 		.word	nlcd_ycurr
 1100              		.cfi_endproc
 1101              	.LFE31:
 1103              		.section	.text.nlcd_SendByte,"ax",%progbits
 1104              		.align	2
 1105              		.global	nlcd_SendByte
 1106              		.thumb
 1107              		.thumb_func
 1109              	nlcd_SendByte:
 1110              	.LFB32:
 104:../libs/lcd_1100/nokia1100_lcd_lib.c **** 
 105:../libs/lcd_1100/nokia1100_lcd_lib.c **** //******************************************************************************
 106:../libs/lcd_1100/nokia1100_lcd_lib.c **** // Передача байта (команды или данных) на LCD-контроллер
 107:../libs/lcd_1100/nokia1100_lcd_lib.c **** //  mode: CMD_LCD_MODE - передаем команду
 108:../libs/lcd_1100/nokia1100_lcd_lib.c **** //		  DATA_LCD_MODE - передаем данные
 109:../libs/lcd_1100/nokia1100_lcd_lib.c **** //  c: значение передаваемого байта
 110:../libs/lcd_1100/nokia1100_lcd_lib.c **** void nlcd_SendByte(char mode, uint8_t c) {
 1111              		.loc 1 110 0
 1112              		.cfi_startproc
 1113              		@ args = 0, pretend = 0, frame = 16
 1114              		@ frame_needed = 1, uses_anonymous_args = 0
 1115              		@ link register save eliminated.
 1116 0000 80B4     		push	{r7}
 1117              	.LCFI9:
 1118              		.cfi_def_cfa_offset 4
 1119              		.cfi_offset 7, -4
 1120 0002 85B0     		sub	sp, sp, #20
 1121              	.LCFI10:
 1122              		.cfi_def_cfa_offset 24
 1123 0004 00AF     		add	r7, sp, #0
 1124              	.LCFI11:
 1125              		.cfi_def_cfa_register 7
 1126 0006 0246     		mov	r2, r0
 1127 0008 0B46     		mov	r3, r1
 1128 000a FA71     		strb	r2, [r7, #7]
 1129 000c BB71     		strb	r3, [r7, #6]
 111:../libs/lcd_1100/nokia1100_lcd_lib.c **** 	CS_LCD_RESET;
 1130              		.loc 1 111 0
 1131 000e 434B     		ldr	r3, .L21
 1132 0010 424A     		ldr	r2, .L21
 1133 0012 D268     		ldr	r2, [r2, #12]
 1134 0014 22F02002 		bic	r2, r2, #32
 1135 0018 DA60     		str	r2, [r3, #12]
 112:../libs/lcd_1100/nokia1100_lcd_lib.c **** 	SCLK_LCD_RESET;
 1136              		.loc 1 112 0
 1137 001a 404B     		ldr	r3, .L21
 1138 001c 3F4A     		ldr	r2, .L21
 1139 001e D268     		ldr	r2, [r2, #12]
 1140 0020 22F08002 		bic	r2, r2, #128
 1141 0024 DA60     		str	r2, [r3, #12]
 113:../libs/lcd_1100/nokia1100_lcd_lib.c **** 
 114:../libs/lcd_1100/nokia1100_lcd_lib.c **** 	if (mode) // DATA_LCD_MODE
 1142              		.loc 1 114 0
 1143 0026 FB79     		ldrb	r3, [r7, #7]	@ zero_extendqisi2
 1144 0028 002B     		cmp	r3, #0
 1145 002a 33D0     		beq	.L13
 115:../libs/lcd_1100/nokia1100_lcd_lib.c **** 	{
 116:../libs/lcd_1100/nokia1100_lcd_lib.c **** 		nlcd_memory[nlcd_xcurr][nlcd_ycurr] = c; // Записываем банные в видеобуфер
 1146              		.loc 1 116 0
 1147 002c 3C4B     		ldr	r3, .L21+4
 1148 002e 1B78     		ldrb	r3, [r3, #0]	@ zero_extendqisi2
 1149 0030 1A46     		mov	r2, r3
 1150 0032 3C4B     		ldr	r3, .L21+8
 1151 0034 1B78     		ldrb	r3, [r3, #0]	@ zero_extendqisi2
 1152 0036 1846     		mov	r0, r3
 1153 0038 3B49     		ldr	r1, .L21+12
 1154 003a 1346     		mov	r3, r2
 1155 003c 4FEAC303 		lsl	r3, r3, #3
 1156 0040 9B18     		adds	r3, r3, r2
 1157 0042 1B18     		adds	r3, r3, r0
 1158 0044 CB18     		adds	r3, r1, r3
 1159 0046 BA79     		ldrb	r2, [r7, #6]
 1160 0048 1A70     		strb	r2, [r3, #0]
 117:../libs/lcd_1100/nokia1100_lcd_lib.c **** 
 118:../libs/lcd_1100/nokia1100_lcd_lib.c **** 		nlcd_xcurr++; // Обновляем координаты в видеобуфере
 1161              		.loc 1 118 0
 1162 004a 354B     		ldr	r3, .L21+4
 1163 004c 1B78     		ldrb	r3, [r3, #0]	@ zero_extendqisi2
 1164 004e 03F10103 		add	r3, r3, #1
 1165 0052 DAB2     		uxtb	r2, r3
 1166 0054 324B     		ldr	r3, .L21+4
 1167 0056 1A70     		strb	r2, [r3, #0]
 119:../libs/lcd_1100/nokia1100_lcd_lib.c **** 
 120:../libs/lcd_1100/nokia1100_lcd_lib.c **** 		if (nlcd_xcurr > 95) {
 1168              		.loc 1 120 0
 1169 0058 314B     		ldr	r3, .L21+4
 1170 005a 1B78     		ldrb	r3, [r3, #0]	@ zero_extendqisi2
 1171 005c 5F2B     		cmp	r3, #95
 1172 005e 0AD9     		bls	.L14
 121:../libs/lcd_1100/nokia1100_lcd_lib.c **** 			nlcd_xcurr = 0;
 1173              		.loc 1 121 0
 1174 0060 2F4B     		ldr	r3, .L21+4
 1175 0062 4FF00002 		mov	r2, #0
 1176 0066 1A70     		strb	r2, [r3, #0]
 122:../libs/lcd_1100/nokia1100_lcd_lib.c **** 			nlcd_ycurr++;
 1177              		.loc 1 122 0
 1178 0068 2E4B     		ldr	r3, .L21+8
 1179 006a 1B78     		ldrb	r3, [r3, #0]	@ zero_extendqisi2
 1180 006c 03F10103 		add	r3, r3, #1
 1181 0070 DAB2     		uxtb	r2, r3
 1182 0072 2C4B     		ldr	r3, .L21+8
 1183 0074 1A70     		strb	r2, [r3, #0]
 1184              	.L14:
 123:../libs/lcd_1100/nokia1100_lcd_lib.c **** 		}
 124:../libs/lcd_1100/nokia1100_lcd_lib.c **** 
 125:../libs/lcd_1100/nokia1100_lcd_lib.c **** 		if (nlcd_ycurr > 8)
 1185              		.loc 1 125 0
 1186 0076 2B4B     		ldr	r3, .L21+8
 1187 0078 1B78     		ldrb	r3, [r3, #0]	@ zero_extendqisi2
 1188 007a 082B     		cmp	r3, #8
 1189 007c 03D9     		bls	.L15
 126:../libs/lcd_1100/nokia1100_lcd_lib.c **** 			nlcd_ycurr = 0;
 1190              		.loc 1 126 0
 1191 007e 294B     		ldr	r3, .L21+8
 1192 0080 4FF00002 		mov	r2, #0
 1193 0084 1A70     		strb	r2, [r3, #0]
 1194              	.L15:
 127:../libs/lcd_1100/nokia1100_lcd_lib.c **** 
 128:../libs/lcd_1100/nokia1100_lcd_lib.c **** 		SDA_LCD_SET; // Передача байта в LCD-контроллер
 1195              		.loc 1 128 0
 1196 0086 254B     		ldr	r3, .L21
 1197 0088 244A     		ldr	r2, .L21
 1198 008a D268     		ldr	r2, [r2, #12]
 1199 008c 42F04002 		orr	r2, r2, #64
 1200 0090 DA60     		str	r2, [r3, #12]
 1201 0092 05E0     		b	.L16
 1202              	.L13:
 129:../libs/lcd_1100/nokia1100_lcd_lib.c **** 	} else
 130:../libs/lcd_1100/nokia1100_lcd_lib.c **** 		SDA_LCD_RESET; // CMD_LCD_MODE
 1203              		.loc 1 130 0
 1204 0094 214B     		ldr	r3, .L21
 1205 0096 214A     		ldr	r2, .L21
 1206 0098 D268     		ldr	r2, [r2, #12]
 1207 009a 22F04002 		bic	r2, r2, #64
 1208 009e DA60     		str	r2, [r3, #12]
 1209              	.L16:
 131:../libs/lcd_1100/nokia1100_lcd_lib.c **** 
 132:../libs/lcd_1100/nokia1100_lcd_lib.c **** 	SCLK_LCD_SET;
 1210              		.loc 1 132 0
 1211 00a0 1E4B     		ldr	r3, .L21
 1212 00a2 1E4A     		ldr	r2, .L21
 1213 00a4 D268     		ldr	r2, [r2, #12]
 1214 00a6 42F08002 		orr	r2, r2, #128
 1215 00aa DA60     		str	r2, [r3, #12]
 1216              	.LBB2:
 133:../libs/lcd_1100/nokia1100_lcd_lib.c **** 
 134:../libs/lcd_1100/nokia1100_lcd_lib.c **** 	for (uint8_t i = 0; i < 8; i++) {
 1217              		.loc 1 134 0
 1218 00ac 4FF00003 		mov	r3, #0
 1219 00b0 FB73     		strb	r3, [r7, #15]
 1220 00b2 24E0     		b	.L17
 1221              	.L20:
 135:../libs/lcd_1100/nokia1100_lcd_lib.c **** 		SCLK_LCD_RESET;
 1222              		.loc 1 135 0
 1223 00b4 194B     		ldr	r3, .L21
 1224 00b6 194A     		ldr	r2, .L21
 1225 00b8 D268     		ldr	r2, [r2, #12]
 1226 00ba 22F08002 		bic	r2, r2, #128
 1227 00be DA60     		str	r2, [r3, #12]
 136:../libs/lcd_1100/nokia1100_lcd_lib.c **** 
 137:../libs/lcd_1100/nokia1100_lcd_lib.c **** 		if (c & 0x80)
 1228              		.loc 1 137 0
 1229 00c0 BB79     		ldrb	r3, [r7, #6]	@ zero_extendqisi2
 1230 00c2 5BB2     		sxtb	r3, r3
 1231 00c4 002B     		cmp	r3, #0
 1232 00c6 06DA     		bge	.L18
 138:../libs/lcd_1100/nokia1100_lcd_lib.c **** 			SDA_LCD_SET;
 1233              		.loc 1 138 0
 1234 00c8 144B     		ldr	r3, .L21
 1235 00ca 144A     		ldr	r2, .L21
 1236 00cc D268     		ldr	r2, [r2, #12]
 1237 00ce 42F04002 		orr	r2, r2, #64
 1238 00d2 DA60     		str	r2, [r3, #12]
 1239 00d4 05E0     		b	.L19
 1240              	.L18:
 139:../libs/lcd_1100/nokia1100_lcd_lib.c **** 		else
 140:../libs/lcd_1100/nokia1100_lcd_lib.c **** 			SDA_LCD_RESET;
 1241              		.loc 1 140 0
 1242 00d6 114B     		ldr	r3, .L21
 1243 00d8 104A     		ldr	r2, .L21
 1244 00da D268     		ldr	r2, [r2, #12]
 1245 00dc 22F04002 		bic	r2, r2, #64
 1246 00e0 DA60     		str	r2, [r3, #12]
 1247              	.L19:
 141:../libs/lcd_1100/nokia1100_lcd_lib.c **** 
 142:../libs/lcd_1100/nokia1100_lcd_lib.c **** 		SCLK_LCD_SET;
 1248              		.loc 1 142 0
 1249 00e2 0E4B     		ldr	r3, .L21
 1250 00e4 0D4A     		ldr	r2, .L21
 1251 00e6 D268     		ldr	r2, [r2, #12]
 1252 00e8 42F08002 		orr	r2, r2, #128
 1253 00ec DA60     		str	r2, [r3, #12]
 143:../libs/lcd_1100/nokia1100_lcd_lib.c **** 		c <<= 1;
 1254              		.loc 1 143 0
 1255 00ee BB79     		ldrb	r3, [r7, #6]
 1256 00f0 4FEA4303 		lsl	r3, r3, #1
 1257 00f4 BB71     		strb	r3, [r7, #6]
 134:../libs/lcd_1100/nokia1100_lcd_lib.c **** 	for (uint8_t i = 0; i < 8; i++) {
 1258              		.loc 1 134 0
 1259 00f6 FB7B     		ldrb	r3, [r7, #15]
 1260 00f8 03F10103 		add	r3, r3, #1
 1261 00fc FB73     		strb	r3, [r7, #15]
 1262              	.L17:
 134:../libs/lcd_1100/nokia1100_lcd_lib.c **** 	for (uint8_t i = 0; i < 8; i++) {
 1263              		.loc 1 134 0 is_stmt 0 discriminator 1
 1264 00fe FB7B     		ldrb	r3, [r7, #15]	@ zero_extendqisi2
 1265 0100 072B     		cmp	r3, #7
 1266 0102 D7D9     		bls	.L20
 1267              	.LBE2:
 144:../libs/lcd_1100/nokia1100_lcd_lib.c **** 
 145:../libs/lcd_1100/nokia1100_lcd_lib.c **** //		Delay(0xff);
 146:../libs/lcd_1100/nokia1100_lcd_lib.c **** 		//_delay_us(NLCD_MIN_DELAY); // *****!!!!! 34 - Минимальная задержка, при которой работает мой LC
 147:../libs/lcd_1100/nokia1100_lcd_lib.c **** 	}
 148:../libs/lcd_1100/nokia1100_lcd_lib.c **** 
 149:../libs/lcd_1100/nokia1100_lcd_lib.c **** 	CS_LCD_SET;
 1268              		.loc 1 149 0 is_stmt 1
 1269 0104 054B     		ldr	r3, .L21
 1270 0106 054A     		ldr	r2, .L21
 1271 0108 D268     		ldr	r2, [r2, #12]
 1272 010a 42F02002 		orr	r2, r2, #32
 1273 010e DA60     		str	r2, [r3, #12]
 150:../libs/lcd_1100/nokia1100_lcd_lib.c **** }
 1274              		.loc 1 150 0
 1275 0110 07F11407 		add	r7, r7, #20
 1276 0114 BD46     		mov	sp, r7
 1277 0116 80BC     		pop	{r7}
 1278 0118 7047     		bx	lr
 1279              	.L22:
 1280 011a 00BF     		.align	2
 1281              	.L21:
 1282 011c 000C0140 		.word	1073810432
 1283 0120 00000000 		.word	nlcd_xcurr
 1284 0124 00000000 		.word	nlcd_ycurr
 1285 0128 00000000 		.word	nlcd_memory
 1286              		.cfi_endproc
 1287              	.LFE32:
 1289              		.section	.text.nlcd_Putc,"ax",%progbits
 1290              		.align	2
 1291              		.global	nlcd_Putc
 1292              		.thumb
 1293              		.thumb_func
 1295              	nlcd_Putc:
 1296              	.LFB33:
 151:../libs/lcd_1100/nokia1100_lcd_lib.c **** 
 152:../libs/lcd_1100/nokia1100_lcd_lib.c **** //******************************************************************************
 153:../libs/lcd_1100/nokia1100_lcd_lib.c **** // Вывод символа на LCD-экран NOKIA 1100 в текущее место
 154:../libs/lcd_1100/nokia1100_lcd_lib.c **** //  c: код символа
 155:../libs/lcd_1100/nokia1100_lcd_lib.c **** void nlcd_Putc(uint8_t c) {
 1297              		.loc 1 155 0
 1298              		.cfi_startproc
 1299              		@ args = 0, pretend = 0, frame = 16
 1300              		@ frame_needed = 1, uses_anonymous_args = 0
 1301 0000 80B5     		push	{r7, lr}
 1302              	.LCFI12:
 1303              		.cfi_def_cfa_offset 8
 1304              		.cfi_offset 7, -8
 1305              		.cfi_offset 14, -4
 1306 0002 84B0     		sub	sp, sp, #16
 1307              	.LCFI13:
 1308              		.cfi_def_cfa_offset 24
 1309 0004 00AF     		add	r7, sp, #0
 1310              	.LCFI14:
 1311              		.cfi_def_cfa_register 7
 1312 0006 0346     		mov	r3, r0
 1313 0008 FB71     		strb	r3, [r7, #7]
 156:../libs/lcd_1100/nokia1100_lcd_lib.c **** 	if (c > 127)
 1314              		.loc 1 156 0
 1315 000a FB79     		ldrb	r3, [r7, #7]	@ zero_extendqisi2
 1316 000c 5BB2     		sxtb	r3, r3
 1317 000e 002B     		cmp	r3, #0
 1318 0010 03DA     		bge	.L24
 157:../libs/lcd_1100/nokia1100_lcd_lib.c **** 		c = c - 64; // Переносим символы кирилицы в кодировке CP1251 в начало второй
 1319              		.loc 1 157 0
 1320 0012 FB79     		ldrb	r3, [r7, #7]
 1321 0014 A3F14003 		sub	r3, r3, #64
 1322 0018 FB71     		strb	r3, [r7, #7]
 1323              	.L24:
 1324              	.LBB3:
 158:../libs/lcd_1100/nokia1100_lcd_lib.c **** 					// половины таблицы ASCII (начиная с кода 0x80)
 159:../libs/lcd_1100/nokia1100_lcd_lib.c **** 	for (uint8_t i = 0; i < 5; i++)
 1325              		.loc 1 159 0
 1326 001a 4FF00003 		mov	r3, #0
 1327 001e FB73     		strb	r3, [r7, #15]
 1328 0020 14E0     		b	.L25
 1329              	.L26:
 160:../libs/lcd_1100/nokia1100_lcd_lib.c **** 		nlcd_SendByte(DATA_LCD_MODE, nlcd_Font[c - 32][i]);
 1330              		.loc 1 160 0 discriminator 2
 1331 0022 FB79     		ldrb	r3, [r7, #7]	@ zero_extendqisi2
 1332 0024 A3F12002 		sub	r2, r3, #32
 1333 0028 F87B     		ldrb	r0, [r7, #15]	@ zero_extendqisi2
 1334 002a 0F49     		ldr	r1, .L27
 1335 002c 1346     		mov	r3, r2
 1336 002e 4FEA8303 		lsl	r3, r3, #2
 1337 0032 9B18     		adds	r3, r3, r2
 1338 0034 1B18     		adds	r3, r3, r0
 1339 0036 CB18     		adds	r3, r1, r3
 1340 0038 1B78     		ldrb	r3, [r3, #0]	@ zero_extendqisi2
 1341 003a 4FF00100 		mov	r0, #1
 1342 003e 1946     		mov	r1, r3
 1343 0040 FFF7FEFF 		bl	nlcd_SendByte
 159:../libs/lcd_1100/nokia1100_lcd_lib.c **** 	for (uint8_t i = 0; i < 5; i++)
 1344              		.loc 1 159 0 discriminator 2
 1345 0044 FB7B     		ldrb	r3, [r7, #15]
 1346 0046 03F10103 		add	r3, r3, #1
 1347 004a FB73     		strb	r3, [r7, #15]
 1348              	.L25:
 159:../libs/lcd_1100/nokia1100_lcd_lib.c **** 	for (uint8_t i = 0; i < 5; i++)
 1349              		.loc 1 159 0 is_stmt 0 discriminator 1
 1350 004c FB7B     		ldrb	r3, [r7, #15]	@ zero_extendqisi2
 1351 004e 042B     		cmp	r3, #4
 1352 0050 E7D9     		bls	.L26
 1353              	.LBE3:
 161:../libs/lcd_1100/nokia1100_lcd_lib.c **** 
 162:../libs/lcd_1100/nokia1100_lcd_lib.c **** 	nlcd_SendByte(DATA_LCD_MODE, 0x00); // Зазор между символами по горизонтали в 1 пиксель
 1354              		.loc 1 162 0 is_stmt 1
 1355 0052 4FF00100 		mov	r0, #1
 1356 0056 4FF00001 		mov	r1, #0
 1357 005a FFF7FEFF 		bl	nlcd_SendByte
 163:../libs/lcd_1100/nokia1100_lcd_lib.c **** }
 1358              		.loc 1 163 0
 1359 005e 07F11007 		add	r7, r7, #16
 1360 0062 BD46     		mov	sp, r7
 1361 0064 80BD     		pop	{r7, pc}
 1362              	.L28:
 1363 0066 00BF     		.align	2
 1364              	.L27:
 1365 0068 00000000 		.word	nlcd_Font
 1366              		.cfi_endproc
 1367              	.LFE33:
 1369              		.section	.text.nlcd_PutcWide,"ax",%progbits
 1370              		.align	2
 1371              		.global	nlcd_PutcWide
 1372              		.thumb
 1373              		.thumb_func
 1375              	nlcd_PutcWide:
 1376              	.LFB34:
 164:../libs/lcd_1100/nokia1100_lcd_lib.c **** 
 165:../libs/lcd_1100/nokia1100_lcd_lib.c **** //******************************************************************************
 166:../libs/lcd_1100/nokia1100_lcd_lib.c **** // Вывод широкого символа на LCD-экран NOKIA 1100 в текущее место
 167:../libs/lcd_1100/nokia1100_lcd_lib.c **** //  c: код символа
 168:../libs/lcd_1100/nokia1100_lcd_lib.c **** void nlcd_PutcWide(uint8_t c) {
 1377              		.loc 1 168 0
 1378              		.cfi_startproc
 1379              		@ args = 0, pretend = 0, frame = 16
 1380              		@ frame_needed = 1, uses_anonymous_args = 0
 1381 0000 80B5     		push	{r7, lr}
 1382              	.LCFI15:
 1383              		.cfi_def_cfa_offset 8
 1384              		.cfi_offset 7, -8
 1385              		.cfi_offset 14, -4
 1386 0002 84B0     		sub	sp, sp, #16
 1387              	.LCFI16:
 1388              		.cfi_def_cfa_offset 24
 1389 0004 00AF     		add	r7, sp, #0
 1390              	.LCFI17:
 1391              		.cfi_def_cfa_register 7
 1392 0006 0346     		mov	r3, r0
 1393 0008 FB71     		strb	r3, [r7, #7]
 169:../libs/lcd_1100/nokia1100_lcd_lib.c **** 	if (c > 127)
 1394              		.loc 1 169 0
 1395 000a FB79     		ldrb	r3, [r7, #7]	@ zero_extendqisi2
 1396 000c 5BB2     		sxtb	r3, r3
 1397 000e 002B     		cmp	r3, #0
 1398 0010 03DA     		bge	.L30
 170:../libs/lcd_1100/nokia1100_lcd_lib.c **** 		c = c - 64; // Переносим символы кирилицы в кодировке CP1251 в начало второй
 1399              		.loc 1 170 0
 1400 0012 FB79     		ldrb	r3, [r7, #7]
 1401 0014 A3F14003 		sub	r3, r3, #64
 1402 0018 FB71     		strb	r3, [r7, #7]
 1403              	.L30:
 1404              	.LBB4:
 171:../libs/lcd_1100/nokia1100_lcd_lib.c **** 					// половины таблицы ASCII (начиная с кода 0x80)
 172:../libs/lcd_1100/nokia1100_lcd_lib.c **** 
 173:../libs/lcd_1100/nokia1100_lcd_lib.c **** 	for (uint8_t i = 0; i < 5; i++) {
 1405              		.loc 1 173 0
 1406 001a 4FF00003 		mov	r3, #0
 1407 001e FB73     		strb	r3, [r7, #15]
 1408 0020 1CE0     		b	.L31
 1409              	.L32:
 1410              	.LBB5:
 174:../libs/lcd_1100/nokia1100_lcd_lib.c **** 		uint8_t glyph = nlcd_Font[c - 32][i];
 1411              		.loc 1 174 0 discriminator 2
 1412 0022 FB79     		ldrb	r3, [r7, #7]	@ zero_extendqisi2
 1413 0024 A3F12002 		sub	r2, r3, #32
 1414 0028 F87B     		ldrb	r0, [r7, #15]	@ zero_extendqisi2
 1415 002a 1349     		ldr	r1, .L33
 1416 002c 1346     		mov	r3, r2
 1417 002e 4FEA8303 		lsl	r3, r3, #2
 1418 0032 9B18     		adds	r3, r3, r2
 1419 0034 1B18     		adds	r3, r3, r0
 1420 0036 CB18     		adds	r3, r1, r3
 1421 0038 1B78     		ldrb	r3, [r3, #0]
 1422 003a BB73     		strb	r3, [r7, #14]
 175:../libs/lcd_1100/nokia1100_lcd_lib.c **** 		nlcd_SendByte(DATA_LCD_MODE, glyph);
 1423              		.loc 1 175 0 discriminator 2
 1424 003c BB7B     		ldrb	r3, [r7, #14]	@ zero_extendqisi2
 1425 003e 4FF00100 		mov	r0, #1
 1426 0042 1946     		mov	r1, r3
 1427 0044 FFF7FEFF 		bl	nlcd_SendByte
 176:../libs/lcd_1100/nokia1100_lcd_lib.c **** 		nlcd_SendByte(DATA_LCD_MODE, glyph);
 1428              		.loc 1 176 0 discriminator 2
 1429 0048 BB7B     		ldrb	r3, [r7, #14]	@ zero_extendqisi2
 1430 004a 4FF00100 		mov	r0, #1
 1431 004e 1946     		mov	r1, r3
 1432 0050 FFF7FEFF 		bl	nlcd_SendByte
 1433              	.LBE5:
 173:../libs/lcd_1100/nokia1100_lcd_lib.c **** 	for (uint8_t i = 0; i < 5; i++) {
 1434              		.loc 1 173 0 discriminator 2
 1435 0054 FB7B     		ldrb	r3, [r7, #15]
 1436 0056 03F10103 		add	r3, r3, #1
 1437 005a FB73     		strb	r3, [r7, #15]
 1438              	.L31:
 173:../libs/lcd_1100/nokia1100_lcd_lib.c **** 	for (uint8_t i = 0; i < 5; i++) {
 1439              		.loc 1 173 0 is_stmt 0 discriminator 1
 1440 005c FB7B     		ldrb	r3, [r7, #15]	@ zero_extendqisi2
 1441 005e 042B     		cmp	r3, #4
 1442 0060 DFD9     		bls	.L32
 1443              	.LBE4:
 177:../libs/lcd_1100/nokia1100_lcd_lib.c **** 	}
 178:../libs/lcd_1100/nokia1100_lcd_lib.c **** 
 179:../libs/lcd_1100/nokia1100_lcd_lib.c **** 	nlcd_SendByte(DATA_LCD_MODE, 0x00); // Зазор между символами по горизонтали в 1 пиксель
 1444              		.loc 1 179 0 is_stmt 1
 1445 0062 4FF00100 		mov	r0, #1
 1446 0066 4FF00001 		mov	r1, #0
 1447 006a FFF7FEFF 		bl	nlcd_SendByte
 180:../libs/lcd_1100/nokia1100_lcd_lib.c **** //	nlcd_SendByte(DATA_LCD_MODE,0x00); // Можно сделать две линии
 181:../libs/lcd_1100/nokia1100_lcd_lib.c **** }
 1448              		.loc 1 181 0
 1449 006e 07F11007 		add	r7, r7, #16
 1450 0072 BD46     		mov	sp, r7
 1451 0074 80BD     		pop	{r7, pc}
 1452              	.L34:
 1453 0076 00BF     		.align	2
 1454              	.L33:
 1455 0078 00000000 		.word	nlcd_Font
 1456              		.cfi_endproc
 1457              	.LFE34:
 1459              		.section	.text.nlcd_Print,"ax",%progbits
 1460              		.align	2
 1461              		.global	nlcd_Print
 1462              		.thumb
 1463              		.thumb_func
 1465              	nlcd_Print:
 1466              	.LFB35:
 182:../libs/lcd_1100/nokia1100_lcd_lib.c **** 
 183:../libs/lcd_1100/nokia1100_lcd_lib.c **** //******************************************************************************
 184:../libs/lcd_1100/nokia1100_lcd_lib.c **** // Вывод строки символов на LCD-экран NOKIA 1100 в текущее место. Если строка выходит
 185:../libs/lcd_1100/nokia1100_lcd_lib.c **** // за экран в текущей строке, то остаток переносится на следующую строку.
 186:../libs/lcd_1100/nokia1100_lcd_lib.c **** //  message: указатель на строку символов. 0x00 - признак конца строки.
 187:../libs/lcd_1100/nokia1100_lcd_lib.c **** void nlcd_Print(char * message) {
 1467              		.loc 1 187 0
 1468              		.cfi_startproc
 1469              		@ args = 0, pretend = 0, frame = 8
 1470              		@ frame_needed = 1, uses_anonymous_args = 0
 1471 0000 80B5     		push	{r7, lr}
 1472              	.LCFI18:
 1473              		.cfi_def_cfa_offset 8
 1474              		.cfi_offset 7, -8
 1475              		.cfi_offset 14, -4
 1476 0002 82B0     		sub	sp, sp, #8
 1477              	.LCFI19:
 1478              		.cfi_def_cfa_offset 16
 1479 0004 00AF     		add	r7, sp, #0
 1480              	.LCFI20:
 1481              		.cfi_def_cfa_register 7
 1482 0006 7860     		str	r0, [r7, #4]
 188:../libs/lcd_1100/nokia1100_lcd_lib.c **** 	while (*message)
 1483              		.loc 1 188 0
 1484 0008 08E0     		b	.L36
 1485              	.L37:
 189:../libs/lcd_1100/nokia1100_lcd_lib.c **** 		nlcd_Putc(*message++); // Конец строки обозначен нулем
 1486              		.loc 1 189 0
 1487 000a 7B68     		ldr	r3, [r7, #4]
 1488 000c 1B78     		ldrb	r3, [r3, #0]	@ zero_extendqisi2
 1489 000e 7A68     		ldr	r2, [r7, #4]
 1490 0010 02F10102 		add	r2, r2, #1
 1491 0014 7A60     		str	r2, [r7, #4]
 1492 0016 1846     		mov	r0, r3
 1493 0018 FFF7FEFF 		bl	nlcd_Putc
 1494              	.L36:
 188:../libs/lcd_1100/nokia1100_lcd_lib.c **** 	while (*message)
 1495              		.loc 1 188 0 discriminator 1
 1496 001c 7B68     		ldr	r3, [r7, #4]
 1497 001e 1B78     		ldrb	r3, [r3, #0]	@ zero_extendqisi2
 1498 0020 002B     		cmp	r3, #0
 1499 0022 F2D1     		bne	.L37
 190:../libs/lcd_1100/nokia1100_lcd_lib.c **** }
 1500              		.loc 1 190 0
 1501 0024 07F10807 		add	r7, r7, #8
 1502 0028 BD46     		mov	sp, r7
 1503 002a 80BD     		pop	{r7, pc}
 1504              		.cfi_endproc
 1505              	.LFE35:
 1507              		.section	.text.nlcd_PrintF,"ax",%progbits
 1508              		.align	2
 1509              		.global	nlcd_PrintF
 1510              		.thumb
 1511              		.thumb_func
 1513              	nlcd_PrintF:
 1514              	.LFB36:
 191:../libs/lcd_1100/nokia1100_lcd_lib.c **** 
 192:../libs/lcd_1100/nokia1100_lcd_lib.c **** //******************************************************************************
 193:../libs/lcd_1100/nokia1100_lcd_lib.c **** // Вывод строки символов на LCD-экран NOKIA 1100 в текущее место из программной памяти.
 194:../libs/lcd_1100/nokia1100_lcd_lib.c **** // Если строка выходит за экран в текущей строке, то остаток переносится на следующую строку.
 195:../libs/lcd_1100/nokia1100_lcd_lib.c **** //  message: указатель на строку символов в программной памяти. 0x00 - признак конца строки.
 196:../libs/lcd_1100/nokia1100_lcd_lib.c **** void nlcd_PrintF(uint8_t * message) {
 1515              		.loc 1 196 0
 1516              		.cfi_startproc
 1517              		@ args = 0, pretend = 0, frame = 16
 1518              		@ frame_needed = 1, uses_anonymous_args = 0
 1519 0000 80B5     		push	{r7, lr}
 1520              	.LCFI21:
 1521              		.cfi_def_cfa_offset 8
 1522              		.cfi_offset 7, -8
 1523              		.cfi_offset 14, -4
 1524 0002 84B0     		sub	sp, sp, #16
 1525              	.LCFI22:
 1526              		.cfi_def_cfa_offset 24
 1527 0004 00AF     		add	r7, sp, #0
 1528              	.LCFI23:
 1529              		.cfi_def_cfa_register 7
 1530 0006 7860     		str	r0, [r7, #4]
 197:../libs/lcd_1100/nokia1100_lcd_lib.c **** 	uint8_t data;
 198:../libs/lcd_1100/nokia1100_lcd_lib.c **** 	while (data = *message, data) {
 1531              		.loc 1 198 0
 1532 0008 07E0     		b	.L39
 1533              	.L40:
 199:../libs/lcd_1100/nokia1100_lcd_lib.c **** 		nlcd_Putc(data);
 1534              		.loc 1 199 0
 1535 000a FB7B     		ldrb	r3, [r7, #15]	@ zero_extendqisi2
 1536 000c 1846     		mov	r0, r3
 1537 000e FFF7FEFF 		bl	nlcd_Putc
 200:../libs/lcd_1100/nokia1100_lcd_lib.c **** 		message++;
 1538              		.loc 1 200 0
 1539 0012 7B68     		ldr	r3, [r7, #4]
 1540 0014 03F10103 		add	r3, r3, #1
 1541 0018 7B60     		str	r3, [r7, #4]
 1542              	.L39:
 198:../libs/lcd_1100/nokia1100_lcd_lib.c **** 	while (data = *message, data) {
 1543              		.loc 1 198 0 discriminator 1
 1544 001a 7B68     		ldr	r3, [r7, #4]
 1545 001c 1B78     		ldrb	r3, [r3, #0]
 1546 001e FB73     		strb	r3, [r7, #15]
 1547 0020 FB7B     		ldrb	r3, [r7, #15]	@ zero_extendqisi2
 1548 0022 002B     		cmp	r3, #0
 1549 0024 F1D1     		bne	.L40
 201:../libs/lcd_1100/nokia1100_lcd_lib.c **** 	}
 202:../libs/lcd_1100/nokia1100_lcd_lib.c **** }
 1550              		.loc 1 202 0
 1551 0026 07F11007 		add	r7, r7, #16
 1552 002a BD46     		mov	sp, r7
 1553 002c 80BD     		pop	{r7, pc}
 1554              		.cfi_endproc
 1555              	.LFE36:
 1557 002e 00BF     		.section	.text.nlcd_PrintWide,"ax",%progbits
 1558              		.align	2
 1559              		.global	nlcd_PrintWide
 1560              		.thumb
 1561              		.thumb_func
 1563              	nlcd_PrintWide:
 1564              	.LFB37:
 203:../libs/lcd_1100/nokia1100_lcd_lib.c **** 
 204:../libs/lcd_1100/nokia1100_lcd_lib.c **** //******************************************************************************
 205:../libs/lcd_1100/nokia1100_lcd_lib.c **** // Вывод строки символов двойной ширины на LCD-экран NOKIA 1100 в текущее место
 206:../libs/lcd_1100/nokia1100_lcd_lib.c **** // из оперативной памяти. Если строка выходит за экран в текущей строке, то остаток
 207:../libs/lcd_1100/nokia1100_lcd_lib.c **** // переносится на следующую строку.
 208:../libs/lcd_1100/nokia1100_lcd_lib.c **** //  message: указатель на строку символов в программной памяти. 0x00 - признак конца строки.
 209:../libs/lcd_1100/nokia1100_lcd_lib.c **** void nlcd_PrintWide(uint8_t * message) {
 1565              		.loc 1 209 0
 1566              		.cfi_startproc
 1567              		@ args = 0, pretend = 0, frame = 8
 1568              		@ frame_needed = 1, uses_anonymous_args = 0
 1569 0000 80B5     		push	{r7, lr}
 1570              	.LCFI24:
 1571              		.cfi_def_cfa_offset 8
 1572              		.cfi_offset 7, -8
 1573              		.cfi_offset 14, -4
 1574 0002 82B0     		sub	sp, sp, #8
 1575              	.LCFI25:
 1576              		.cfi_def_cfa_offset 16
 1577 0004 00AF     		add	r7, sp, #0
 1578              	.LCFI26:
 1579              		.cfi_def_cfa_register 7
 1580 0006 7860     		str	r0, [r7, #4]
 210:../libs/lcd_1100/nokia1100_lcd_lib.c **** 	while (*message)
 1581              		.loc 1 210 0
 1582 0008 08E0     		b	.L42
 1583              	.L43:
 211:../libs/lcd_1100/nokia1100_lcd_lib.c **** 		nlcd_PutcWide(*message++); // Конец строки обозначен нулем
 1584              		.loc 1 211 0
 1585 000a 7B68     		ldr	r3, [r7, #4]
 1586 000c 1B78     		ldrb	r3, [r3, #0]	@ zero_extendqisi2
 1587 000e 7A68     		ldr	r2, [r7, #4]
 1588 0010 02F10102 		add	r2, r2, #1
 1589 0014 7A60     		str	r2, [r7, #4]
 1590 0016 1846     		mov	r0, r3
 1591 0018 FFF7FEFF 		bl	nlcd_PutcWide
 1592              	.L42:
 210:../libs/lcd_1100/nokia1100_lcd_lib.c **** 	while (*message)
 1593              		.loc 1 210 0 discriminator 1
 1594 001c 7B68     		ldr	r3, [r7, #4]
 1595 001e 1B78     		ldrb	r3, [r3, #0]	@ zero_extendqisi2
 1596 0020 002B     		cmp	r3, #0
 1597 0022 F2D1     		bne	.L43
 212:../libs/lcd_1100/nokia1100_lcd_lib.c **** }
 1598              		.loc 1 212 0
 1599 0024 07F10807 		add	r7, r7, #8
 1600 0028 BD46     		mov	sp, r7
 1601 002a 80BD     		pop	{r7, pc}
 1602              		.cfi_endproc
 1603              	.LFE37:
 1605              		.section	.text.nlcd_GotoXY,"ax",%progbits
 1606              		.align	2
 1607              		.global	nlcd_GotoXY
 1608              		.thumb
 1609              		.thumb_func
 1611              	nlcd_GotoXY:
 1612              	.LFB38:
 213:../libs/lcd_1100/nokia1100_lcd_lib.c **** 
 214:../libs/lcd_1100/nokia1100_lcd_lib.c **** //******************************************************************************
 215:../libs/lcd_1100/nokia1100_lcd_lib.c **** // Устанавливает курсор в необходимое положение. Отсчет начинается в верхнем 
 216:../libs/lcd_1100/nokia1100_lcd_lib.c **** // левом углу. По горизонтали 16 знакомест, по вертикали - 8
 217:../libs/lcd_1100/nokia1100_lcd_lib.c **** //  x: 0..15
 218:../libs/lcd_1100/nokia1100_lcd_lib.c **** //  y: 0..7    
 219:../libs/lcd_1100/nokia1100_lcd_lib.c **** void nlcd_GotoXY(char x, char y) {
 1613              		.loc 1 219 0
 1614              		.cfi_startproc
 1615              		@ args = 0, pretend = 0, frame = 8
 1616              		@ frame_needed = 1, uses_anonymous_args = 0
 1617 0000 80B5     		push	{r7, lr}
 1618              	.LCFI27:
 1619              		.cfi_def_cfa_offset 8
 1620              		.cfi_offset 7, -8
 1621              		.cfi_offset 14, -4
 1622 0002 82B0     		sub	sp, sp, #8
 1623              	.LCFI28:
 1624              		.cfi_def_cfa_offset 16
 1625 0004 00AF     		add	r7, sp, #0
 1626              	.LCFI29:
 1627              		.cfi_def_cfa_register 7
 1628 0006 0246     		mov	r2, r0
 1629 0008 0B46     		mov	r3, r1
 1630 000a FA71     		strb	r2, [r7, #7]
 1631 000c BB71     		strb	r3, [r7, #6]
 220:../libs/lcd_1100/nokia1100_lcd_lib.c **** 	x = x * 6; // Переходим от координаты в знакоместах к координатам в пикселях
 1632              		.loc 1 220 0
 1633 000e FB79     		ldrb	r3, [r7, #7]
 1634 0010 1A46     		mov	r2, r3
 1635 0012 4FEA4202 		lsl	r2, r2, #1
 1636 0016 D318     		adds	r3, r2, r3
 1637 0018 4FEA4303 		lsl	r3, r3, #1
 1638 001c FB71     		strb	r3, [r7, #7]
 221:../libs/lcd_1100/nokia1100_lcd_lib.c **** 
 222:../libs/lcd_1100/nokia1100_lcd_lib.c **** 	nlcd_xcurr = x;
 1639              		.loc 1 222 0
 1640 001e 184B     		ldr	r3, .L45
 1641 0020 FA79     		ldrb	r2, [r7, #7]
 1642 0022 1A70     		strb	r2, [r3, #0]
 223:../libs/lcd_1100/nokia1100_lcd_lib.c **** 	nlcd_ycurr = y;
 1643              		.loc 1 223 0
 1644 0024 174B     		ldr	r3, .L45+4
 1645 0026 BA79     		ldrb	r2, [r7, #6]
 1646 0028 1A70     		strb	r2, [r3, #0]
 224:../libs/lcd_1100/nokia1100_lcd_lib.c **** 
 225:../libs/lcd_1100/nokia1100_lcd_lib.c **** 	nlcd_SendByte(CMD_LCD_MODE, (0xB0 | (y & 0x0F))); // установка адреса по Y: 0100 yyyy
 1647              		.loc 1 225 0
 1648 002a BB79     		ldrb	r3, [r7, #6]	@ zero_extendqisi2
 1649 002c 03F00F03 		and	r3, r3, #15
 1650 0030 DBB2     		uxtb	r3, r3
 1651 0032 63F04F03 		orn	r3, r3, #79
 1652 0036 DBB2     		uxtb	r3, r3
 1653 0038 DBB2     		uxtb	r3, r3
 1654 003a 4FF00000 		mov	r0, #0
 1655 003e 1946     		mov	r1, r3
 1656 0040 FFF7FEFF 		bl	nlcd_SendByte
 226:../libs/lcd_1100/nokia1100_lcd_lib.c **** 	nlcd_SendByte(CMD_LCD_MODE, (0x00 | (x & 0x0F))); // установка адреса по X: 0000 xxxx - биты (x3 x
 1657              		.loc 1 226 0
 1658 0044 FB79     		ldrb	r3, [r7, #7]
 1659 0046 03F00F03 		and	r3, r3, #15
 1660 004a DBB2     		uxtb	r3, r3
 1661 004c 4FF00000 		mov	r0, #0
 1662 0050 1946     		mov	r1, r3
 1663 0052 FFF7FEFF 		bl	nlcd_SendByte
 227:../libs/lcd_1100/nokia1100_lcd_lib.c **** 	nlcd_SendByte(CMD_LCD_MODE, (0x10 | ((x >> 4) & 0x07))); // установка адреса по X: 0010 0xxx - бит
 1664              		.loc 1 227 0
 1665 0056 FB79     		ldrb	r3, [r7, #7]	@ zero_extendqisi2
 1666 0058 4FEA1313 		lsr	r3, r3, #4
 1667 005c DBB2     		uxtb	r3, r3
 1668 005e DBB2     		uxtb	r3, r3
 1669 0060 03F00703 		and	r3, r3, #7
 1670 0064 DBB2     		uxtb	r3, r3
 1671 0066 43F01003 		orr	r3, r3, #16
 1672 006a DBB2     		uxtb	r3, r3
 1673 006c DBB2     		uxtb	r3, r3
 1674 006e 4FF00000 		mov	r0, #0
 1675 0072 1946     		mov	r1, r3
 1676 0074 FFF7FEFF 		bl	nlcd_SendByte
 228:../libs/lcd_1100/nokia1100_lcd_lib.c **** 
 229:../libs/lcd_1100/nokia1100_lcd_lib.c **** }
 1677              		.loc 1 229 0
 1678 0078 07F10807 		add	r7, r7, #8
 1679 007c BD46     		mov	sp, r7
 1680 007e 80BD     		pop	{r7, pc}
 1681              	.L46:
 1682              		.align	2
 1683              	.L45:
 1684 0080 00000000 		.word	nlcd_xcurr
 1685 0084 00000000 		.word	nlcd_ycurr
 1686              		.cfi_endproc
 1687              	.LFE38:
 1689              		.section	.text.nlcd_Inverse,"ax",%progbits
 1690              		.align	2
 1691              		.global	nlcd_Inverse
 1692              		.thumb
 1693              		.thumb_func
 1695              	nlcd_Inverse:
 1696              	.LFB39:
 230:../libs/lcd_1100/nokia1100_lcd_lib.c **** 
 231:../libs/lcd_1100/nokia1100_lcd_lib.c **** //******************************************************************************
 232:../libs/lcd_1100/nokia1100_lcd_lib.c **** // Устанавливаер режим инверсии всего экрана. Данные на экране не изменяются, только инвертируются
 233:../libs/lcd_1100/nokia1100_lcd_lib.c **** //  mode: INV_MODE_ON или INV_MODE_OFF
 234:../libs/lcd_1100/nokia1100_lcd_lib.c **** void nlcd_Inverse(uint8_t mode) {
 1697              		.loc 1 234 0
 1698              		.cfi_startproc
 1699              		@ args = 0, pretend = 0, frame = 8
 1700              		@ frame_needed = 1, uses_anonymous_args = 0
 1701 0000 80B5     		push	{r7, lr}
 1702              	.LCFI30:
 1703              		.cfi_def_cfa_offset 8
 1704              		.cfi_offset 7, -8
 1705              		.cfi_offset 14, -4
 1706 0002 82B0     		sub	sp, sp, #8
 1707              	.LCFI31:
 1708              		.cfi_def_cfa_offset 16
 1709 0004 00AF     		add	r7, sp, #0
 1710              	.LCFI32:
 1711              		.cfi_def_cfa_register 7
 1712 0006 0346     		mov	r3, r0
 1713 0008 FB71     		strb	r3, [r7, #7]
 235:../libs/lcd_1100/nokia1100_lcd_lib.c **** 	if (mode)
 1714              		.loc 1 235 0
 1715 000a FB79     		ldrb	r3, [r7, #7]	@ zero_extendqisi2
 1716 000c 002B     		cmp	r3, #0
 1717 000e 06D0     		beq	.L48
 236:../libs/lcd_1100/nokia1100_lcd_lib.c **** 		nlcd_SendByte(CMD_LCD_MODE, 0xA6);
 1718              		.loc 1 236 0
 1719 0010 4FF00000 		mov	r0, #0
 1720 0014 4FF0A601 		mov	r1, #166
 1721 0018 FFF7FEFF 		bl	nlcd_SendByte
 1722 001c 05E0     		b	.L47
 1723              	.L48:
 237:../libs/lcd_1100/nokia1100_lcd_lib.c **** 	else
 238:../libs/lcd_1100/nokia1100_lcd_lib.c **** 		nlcd_SendByte(CMD_LCD_MODE, 0xA7);
 1724              		.loc 1 238 0
 1725 001e 4FF00000 		mov	r0, #0
 1726 0022 4FF0A701 		mov	r1, #167
 1727 0026 FFF7FEFF 		bl	nlcd_SendByte
 1728              	.L47:
 239:../libs/lcd_1100/nokia1100_lcd_lib.c **** }
 1729              		.loc 1 239 0
 1730 002a 07F10807 		add	r7, r7, #8
 1731 002e BD46     		mov	sp, r7
 1732 0030 80BD     		pop	{r7, pc}
 1733              		.cfi_endproc
 1734              	.LFE39:
 1736 0032 00BF     		.section	.text.nlcd_GotoXY_pix,"ax",%progbits
 1737              		.align	2
 1738              		.global	nlcd_GotoXY_pix
 1739              		.thumb
 1740              		.thumb_func
 1742              	nlcd_GotoXY_pix:
 1743              	.LFB40:
 240:../libs/lcd_1100/nokia1100_lcd_lib.c **** 
 241:../libs/lcd_1100/nokia1100_lcd_lib.c **** //******************************************************************************
 242:../libs/lcd_1100/nokia1100_lcd_lib.c **** // Устанавливает курсор в пикселях. Отсчет начинается в верхнем 
 243:../libs/lcd_1100/nokia1100_lcd_lib.c **** // левом углу. По горизонтали 96 пикселей, по вертикали - 65
 244:../libs/lcd_1100/nokia1100_lcd_lib.c **** //  x: 0..95
 245:../libs/lcd_1100/nokia1100_lcd_lib.c **** //  y: 0..64
 246:../libs/lcd_1100/nokia1100_lcd_lib.c **** void nlcd_GotoXY_pix(char x, char y) {
 1744              		.loc 1 246 0
 1745              		.cfi_startproc
 1746              		@ args = 0, pretend = 0, frame = 8
 1747              		@ frame_needed = 1, uses_anonymous_args = 0
 1748 0000 80B5     		push	{r7, lr}
 1749              	.LCFI33:
 1750              		.cfi_def_cfa_offset 8
 1751              		.cfi_offset 7, -8
 1752              		.cfi_offset 14, -4
 1753 0002 82B0     		sub	sp, sp, #8
 1754              	.LCFI34:
 1755              		.cfi_def_cfa_offset 16
 1756 0004 00AF     		add	r7, sp, #0
 1757              	.LCFI35:
 1758              		.cfi_def_cfa_register 7
 1759 0006 0246     		mov	r2, r0
 1760 0008 0B46     		mov	r3, r1
 1761 000a FA71     		strb	r2, [r7, #7]
 1762 000c BB71     		strb	r3, [r7, #6]
 247:../libs/lcd_1100/nokia1100_lcd_lib.c **** 	nlcd_xcurr = x;
 1763              		.loc 1 247 0
 1764 000e 1B4B     		ldr	r3, .L51
 1765 0010 FA79     		ldrb	r2, [r7, #7]
 1766 0012 1A70     		strb	r2, [r3, #0]
 248:../libs/lcd_1100/nokia1100_lcd_lib.c **** 	nlcd_ycurr = y / 8;
 1767              		.loc 1 248 0
 1768 0014 BB79     		ldrb	r3, [r7, #6]	@ zero_extendqisi2
 1769 0016 4FEAD303 		lsr	r3, r3, #3
 1770 001a DAB2     		uxtb	r2, r3
 1771 001c 184B     		ldr	r3, .L51+4
 1772 001e 1A70     		strb	r2, [r3, #0]
 249:../libs/lcd_1100/nokia1100_lcd_lib.c **** 
 250:../libs/lcd_1100/nokia1100_lcd_lib.c **** 	nlcd_SendByte(CMD_LCD_MODE, (0xB0 | (nlcd_ycurr & 0x0F))); // установка адреса по Y: 0100 yyyy
 1773              		.loc 1 250 0
 1774 0020 174B     		ldr	r3, .L51+4
 1775 0022 1B78     		ldrb	r3, [r3, #0]	@ zero_extendqisi2
 1776 0024 DBB2     		uxtb	r3, r3
 1777 0026 03F00F03 		and	r3, r3, #15
 1778 002a DBB2     		uxtb	r3, r3
 1779 002c 63F04F03 		orn	r3, r3, #79
 1780 0030 DBB2     		uxtb	r3, r3
 1781 0032 DBB2     		uxtb	r3, r3
 1782 0034 4FF00000 		mov	r0, #0
 1783 0038 1946     		mov	r1, r3
 1784 003a FFF7FEFF 		bl	nlcd_SendByte
 251:../libs/lcd_1100/nokia1100_lcd_lib.c **** 	nlcd_SendByte(CMD_LCD_MODE, (0x00 | (x & 0x0F))); // установка адреса по X: 0000 xxxx - биты (x3 x
 1785              		.loc 1 251 0
 1786 003e FB79     		ldrb	r3, [r7, #7]
 1787 0040 03F00F03 		and	r3, r3, #15
 1788 0044 DBB2     		uxtb	r3, r3
 1789 0046 4FF00000 		mov	r0, #0
 1790 004a 1946     		mov	r1, r3
 1791 004c FFF7FEFF 		bl	nlcd_SendByte
 252:../libs/lcd_1100/nokia1100_lcd_lib.c **** 	nlcd_SendByte(CMD_LCD_MODE, (0x10 | ((x >> 4) & 0x07))); // установка адреса по X: 0010 0xxx - бит
 1792              		.loc 1 252 0
 1793 0050 FB79     		ldrb	r3, [r7, #7]	@ zero_extendqisi2
 1794 0052 4FEA1313 		lsr	r3, r3, #4
 1795 0056 DBB2     		uxtb	r3, r3
 1796 0058 DBB2     		uxtb	r3, r3
 1797 005a 03F00703 		and	r3, r3, #7
 1798 005e DBB2     		uxtb	r3, r3
 1799 0060 43F01003 		orr	r3, r3, #16
 1800 0064 DBB2     		uxtb	r3, r3
 1801 0066 DBB2     		uxtb	r3, r3
 1802 0068 4FF00000 		mov	r0, #0
 1803 006c 1946     		mov	r1, r3
 1804 006e FFF7FEFF 		bl	nlcd_SendByte
 253:../libs/lcd_1100/nokia1100_lcd_lib.c **** }
 1805              		.loc 1 253 0
 1806 0072 07F10807 		add	r7, r7, #8
 1807 0076 BD46     		mov	sp, r7
 1808 0078 80BD     		pop	{r7, pc}
 1809              	.L52:
 1810 007a 00BF     		.align	2
 1811              	.L51:
 1812 007c 00000000 		.word	nlcd_xcurr
 1813 0080 00000000 		.word	nlcd_ycurr
 1814              		.cfi_endproc
 1815              	.LFE40:
 1817              		.section	.text.nlcd_Pixel,"ax",%progbits
 1818              		.align	2
 1819              		.global	nlcd_Pixel
 1820              		.thumb
 1821              		.thumb_func
 1823              	nlcd_Pixel:
 1824              	.LFB41:
 254:../libs/lcd_1100/nokia1100_lcd_lib.c **** 
 255:../libs/lcd_1100/nokia1100_lcd_lib.c **** //******************************************************************************
 256:../libs/lcd_1100/nokia1100_lcd_lib.c **** // Вывод точки на LCD-экран NOKIA 1100
 257:../libs/lcd_1100/nokia1100_lcd_lib.c **** //  x: 0..95  координата по горизонтали (отсчет от верхнего левого угла)
 258:../libs/lcd_1100/nokia1100_lcd_lib.c **** //	y: 0..64  координата по вертикали
 259:../libs/lcd_1100/nokia1100_lcd_lib.c **** //	pixel_mode: PIXEL_ON  - для включения пикскела
 260:../libs/lcd_1100/nokia1100_lcd_lib.c **** //				PIXEL_OFF - для выключения пиксела
 261:../libs/lcd_1100/nokia1100_lcd_lib.c **** //				PIXEL_INV - для инверсии пиксела
 262:../libs/lcd_1100/nokia1100_lcd_lib.c **** void nlcd_Pixel(uint8_t x, uint8_t y, uint8_t pixel_mode) {
 1825              		.loc 1 262 0
 1826              		.cfi_startproc
 1827              		@ args = 0, pretend = 0, frame = 16
 1828              		@ frame_needed = 1, uses_anonymous_args = 0
 1829 0000 80B5     		push	{r7, lr}
 1830              	.LCFI36:
 1831              		.cfi_def_cfa_offset 8
 1832              		.cfi_offset 7, -8
 1833              		.cfi_offset 14, -4
 1834 0002 84B0     		sub	sp, sp, #16
 1835              	.LCFI37:
 1836              		.cfi_def_cfa_offset 24
 1837 0004 00AF     		add	r7, sp, #0
 1838              	.LCFI38:
 1839              		.cfi_def_cfa_register 7
 1840 0006 1346     		mov	r3, r2
 1841 0008 0246     		mov	r2, r0
 1842 000a FA71     		strb	r2, [r7, #7]
 1843 000c 0A46     		mov	r2, r1
 1844 000e BA71     		strb	r2, [r7, #6]
 1845 0010 7B71     		strb	r3, [r7, #5]
 263:../libs/lcd_1100/nokia1100_lcd_lib.c **** 	uint8_t temp;
 264:../libs/lcd_1100/nokia1100_lcd_lib.c **** 
 265:../libs/lcd_1100/nokia1100_lcd_lib.c **** 	nlcd_GotoXY_pix(x, y);
 1846              		.loc 1 265 0
 1847 0012 FA79     		ldrb	r2, [r7, #7]	@ zero_extendqisi2
 1848 0014 BB79     		ldrb	r3, [r7, #6]	@ zero_extendqisi2
 1849 0016 1046     		mov	r0, r2
 1850 0018 1946     		mov	r1, r3
 1851 001a FFF7FEFF 		bl	nlcd_GotoXY_pix
 266:../libs/lcd_1100/nokia1100_lcd_lib.c **** 	temp = nlcd_memory[nlcd_xcurr][nlcd_ycurr];
 1852              		.loc 1 266 0
 1853 001e 294B     		ldr	r3, .L59
 1854 0020 1B78     		ldrb	r3, [r3, #0]	@ zero_extendqisi2
 1855 0022 1A46     		mov	r2, r3
 1856 0024 284B     		ldr	r3, .L59+4
 1857 0026 1B78     		ldrb	r3, [r3, #0]	@ zero_extendqisi2
 1858 0028 1846     		mov	r0, r3
 1859 002a 2849     		ldr	r1, .L59+8
 1860 002c 1346     		mov	r3, r2
 1861 002e 4FEAC303 		lsl	r3, r3, #3
 1862 0032 9B18     		adds	r3, r3, r2
 1863 0034 1B18     		adds	r3, r3, r0
 1864 0036 CB18     		adds	r3, r1, r3
 1865 0038 1B78     		ldrb	r3, [r3, #0]
 1866 003a FB73     		strb	r3, [r7, #15]
 267:../libs/lcd_1100/nokia1100_lcd_lib.c **** 
 268:../libs/lcd_1100/nokia1100_lcd_lib.c **** 	switch (pixel_mode) {
 1867              		.loc 1 268 0
 1868 003c 7B79     		ldrb	r3, [r7, #5]	@ zero_extendqisi2
 1869 003e 012B     		cmp	r3, #1
 1870 0040 0BD0     		beq	.L56
 1871 0042 022B     		cmp	r3, #2
 1872 0044 1CD0     		beq	.L57
 1873 0046 002B     		cmp	r3, #0
 1874 0048 22D1     		bne	.L54
 1875              	.L55:
 269:../libs/lcd_1100/nokia1100_lcd_lib.c **** 	case PIXEL_ON:
 270:../libs/lcd_1100/nokia1100_lcd_lib.c **** 		SetBit(temp, y%8);
 1876              		.loc 1 270 0
 1877 004a BB79     		ldrb	r3, [r7, #6]
 1878 004c 03F00703 		and	r3, r3, #7
 1879 0050 DAB2     		uxtb	r2, r3
 1880 0052 FB7B     		ldrb	r3, [r7, #15]
 1881 0054 1343     		orrs	r3, r3, r2
 1882 0056 FB73     		strb	r3, [r7, #15]
 271:../libs/lcd_1100/nokia1100_lcd_lib.c **** 		// Включаем пиксел
 272:../libs/lcd_1100/nokia1100_lcd_lib.c **** 		break;
 1883              		.loc 1 272 0
 1884 0058 1AE0     		b	.L54
 1885              	.L56:
 273:../libs/lcd_1100/nokia1100_lcd_lib.c **** 	case PIXEL_OFF:
 274:../libs/lcd_1100/nokia1100_lcd_lib.c **** 		ClearBit(temp, y%8);
 1886              		.loc 1 274 0
 1887 005a BB79     		ldrb	r3, [r7, #6]	@ zero_extendqisi2
 1888 005c 6FEA0302 		mvn	r2, r3
 1889 0060 1B4B     		ldr	r3, .L59+12
 1890 0062 1340     		ands	r3, r3, r2
 1891 0064 002B     		cmp	r3, #0
 1892 0066 05DA     		bge	.L58
 1893 0068 03F1FF33 		add	r3, r3, #-1
 1894 006c 63F00703 		orn	r3, r3, #7
 1895 0070 03F10103 		add	r3, r3, #1
 1896              	.L58:
 1897 0074 DAB2     		uxtb	r2, r3
 1898 0076 FB7B     		ldrb	r3, [r7, #15]	@ zero_extendqisi2
 1899 0078 1340     		ands	r3, r3, r2
 1900 007a DBB2     		uxtb	r3, r3
 1901 007c FB73     		strb	r3, [r7, #15]
 275:../libs/lcd_1100/nokia1100_lcd_lib.c **** 		// Выключаем пиксел
 276:../libs/lcd_1100/nokia1100_lcd_lib.c **** 		break;
 1902              		.loc 1 276 0
 1903 007e 07E0     		b	.L54
 1904              	.L57:
 277:../libs/lcd_1100/nokia1100_lcd_lib.c **** 	case PIXEL_INV:
 278:../libs/lcd_1100/nokia1100_lcd_lib.c **** 		InvBit(temp, y%8);
 1905              		.loc 1 278 0
 1906 0080 BB79     		ldrb	r3, [r7, #6]
 1907 0082 03F00703 		and	r3, r3, #7
 1908 0086 DAB2     		uxtb	r2, r3
 1909 0088 FB7B     		ldrb	r3, [r7, #15]
 1910 008a 5340     		eors	r3, r3, r2
 1911 008c FB73     		strb	r3, [r7, #15]
 279:../libs/lcd_1100/nokia1100_lcd_lib.c **** 		// Инвертируем пиксел
 280:../libs/lcd_1100/nokia1100_lcd_lib.c **** 		break;
 1912              		.loc 1 280 0
 1913 008e 00BF     		nop
 1914              	.L54:
 281:../libs/lcd_1100/nokia1100_lcd_lib.c **** 	}
 282:../libs/lcd_1100/nokia1100_lcd_lib.c **** 
 283:../libs/lcd_1100/nokia1100_lcd_lib.c **** 	nlcd_memory[nlcd_xcurr][nlcd_ycurr] = temp; // Передаем байт в видеобуфер
 1915              		.loc 1 283 0
 1916 0090 0C4B     		ldr	r3, .L59
 1917 0092 1B78     		ldrb	r3, [r3, #0]	@ zero_extendqisi2
 1918 0094 1A46     		mov	r2, r3
 1919 0096 0C4B     		ldr	r3, .L59+4
 1920 0098 1B78     		ldrb	r3, [r3, #0]	@ zero_extendqisi2
 1921 009a 1846     		mov	r0, r3
 1922 009c 0B49     		ldr	r1, .L59+8
 1923 009e 1346     		mov	r3, r2
 1924 00a0 4FEAC303 		lsl	r3, r3, #3
 1925 00a4 9B18     		adds	r3, r3, r2
 1926 00a6 1B18     		adds	r3, r3, r0
 1927 00a8 CB18     		adds	r3, r1, r3
 1928 00aa FA7B     		ldrb	r2, [r7, #15]
 1929 00ac 1A70     		strb	r2, [r3, #0]
 284:../libs/lcd_1100/nokia1100_lcd_lib.c **** 	nlcd_SendByte(DATA_LCD_MODE, temp); // Передаем байт в контроллер
 1930              		.loc 1 284 0
 1931 00ae FB7B     		ldrb	r3, [r7, #15]	@ zero_extendqisi2
 1932 00b0 4FF00100 		mov	r0, #1
 1933 00b4 1946     		mov	r1, r3
 1934 00b6 FFF7FEFF 		bl	nlcd_SendByte
 285:../libs/lcd_1100/nokia1100_lcd_lib.c **** }
 1935              		.loc 1 285 0
 1936 00ba 07F11007 		add	r7, r7, #16
 1937 00be BD46     		mov	sp, r7
 1938 00c0 80BD     		pop	{r7, pc}
 1939              	.L60:
 1940 00c2 00BF     		.align	2
 1941              	.L59:
 1942 00c4 00000000 		.word	nlcd_xcurr
 1943 00c8 00000000 		.word	nlcd_ycurr
 1944 00cc 00000000 		.word	nlcd_memory
 1945 00d0 07000080 		.word	-2147483641
 1946              		.cfi_endproc
 1947              	.LFE41:
 1949              		.section	.text.nlcd_Line,"ax",%progbits
 1950              		.align	2
 1951              		.global	nlcd_Line
 1952              		.thumb
 1953              		.thumb_func
 1955              	nlcd_Line:
 1956              	.LFB42:
 286:../libs/lcd_1100/nokia1100_lcd_lib.c **** 
 287:../libs/lcd_1100/nokia1100_lcd_lib.c **** //******************************************************************************
 288:../libs/lcd_1100/nokia1100_lcd_lib.c **** // Вывод линии на LCD-экран NOKIA 1100
 289:../libs/lcd_1100/nokia1100_lcd_lib.c **** //  x1, x2: 0..95  координата по горизонтали (отсчет от верхнего левого угла)
 290:../libs/lcd_1100/nokia1100_lcd_lib.c **** //	y1, y2: 0..64  координата по вертикали
 291:../libs/lcd_1100/nokia1100_lcd_lib.c **** //	pixel_mode: PIXEL_ON  - для включения пикскела
 292:../libs/lcd_1100/nokia1100_lcd_lib.c **** //				PIXEL_OFF - для выключения пиксела
 293:../libs/lcd_1100/nokia1100_lcd_lib.c **** //				PIXEL_INV - для инверсии пиксела
 294:../libs/lcd_1100/nokia1100_lcd_lib.c **** void nlcd_Line(uint8_t x1, uint8_t y1, uint8_t x2,
 295:../libs/lcd_1100/nokia1100_lcd_lib.c **** 		uint8_t y2, uint8_t pixel_mode) {
 1957              		.loc 1 295 0
 1958              		.cfi_startproc
 1959              		@ args = 4, pretend = 0, frame = 32
 1960              		@ frame_needed = 1, uses_anonymous_args = 0
 1961 0000 80B5     		push	{r7, lr}
 1962              	.LCFI39:
 1963              		.cfi_def_cfa_offset 8
 1964              		.cfi_offset 7, -8
 1965              		.cfi_offset 14, -4
 1966 0002 88B0     		sub	sp, sp, #32
 1967              	.LCFI40:
 1968              		.cfi_def_cfa_offset 40
 1969 0004 00AF     		add	r7, sp, #0
 1970              	.LCFI41:
 1971              		.cfi_def_cfa_register 7
 1972 0006 F871     		strb	r0, [r7, #7]
 1973 0008 B971     		strb	r1, [r7, #6]
 1974 000a 7A71     		strb	r2, [r7, #5]
 1975 000c 3B71     		strb	r3, [r7, #4]
 296:../libs/lcd_1100/nokia1100_lcd_lib.c **** 	int dy, dx;
 297:../libs/lcd_1100/nokia1100_lcd_lib.c **** 	signed char addx = 1, addy = 1;
 1976              		.loc 1 297 0
 1977 000e 4FF00103 		mov	r3, #1
 1978 0012 FB77     		strb	r3, [r7, #31]
 1979 0014 4FF00103 		mov	r3, #1
 1980 0018 BB77     		strb	r3, [r7, #30]
 298:../libs/lcd_1100/nokia1100_lcd_lib.c **** 	signed int P, diff;
 299:../libs/lcd_1100/nokia1100_lcd_lib.c **** 
 300:../libs/lcd_1100/nokia1100_lcd_lib.c **** 	uint8_t i = 0;
 1981              		.loc 1 300 0
 1982 001a 4FF00003 		mov	r3, #0
 1983 001e FB75     		strb	r3, [r7, #23]
 301:../libs/lcd_1100/nokia1100_lcd_lib.c **** 
 302:../libs/lcd_1100/nokia1100_lcd_lib.c **** 	dx = abs(x2 - x1);
 1984              		.loc 1 302 0
 1985 0020 7A79     		ldrb	r2, [r7, #5]	@ zero_extendqisi2
 1986 0022 FB79     		ldrb	r3, [r7, #7]	@ zero_extendqisi2
 1987 0024 D31A     		subs	r3, r2, r3
 1988 0026 002B     		cmp	r3, #0
 1989 0028 B8BF     		it	lt
 1990 002a 5B42     		rsblt	r3, r3, #0
 1991 002c 3B61     		str	r3, [r7, #16]
 303:../libs/lcd_1100/nokia1100_lcd_lib.c **** 	dy = abs(y2 - y1);
 1992              		.loc 1 303 0
 1993 002e 3A79     		ldrb	r2, [r7, #4]	@ zero_extendqisi2
 1994 0030 BB79     		ldrb	r3, [r7, #6]	@ zero_extendqisi2
 1995 0032 D31A     		subs	r3, r2, r3
 1996 0034 002B     		cmp	r3, #0
 1997 0036 B8BF     		it	lt
 1998 0038 5B42     		rsblt	r3, r3, #0
 1999 003a FB60     		str	r3, [r7, #12]
 304:../libs/lcd_1100/nokia1100_lcd_lib.c **** 
 305:../libs/lcd_1100/nokia1100_lcd_lib.c **** 	if (x1 > x2)
 2000              		.loc 1 305 0
 2001 003c FA79     		ldrb	r2, [r7, #7]	@ zero_extendqisi2
 2002 003e 7B79     		ldrb	r3, [r7, #5]	@ zero_extendqisi2
 2003 0040 9A42     		cmp	r2, r3
 2004 0042 02D9     		bls	.L62
 306:../libs/lcd_1100/nokia1100_lcd_lib.c **** 		addx = -1;
 2005              		.loc 1 306 0
 2006 0044 4FF0FF03 		mov	r3, #255
 2007 0048 FB77     		strb	r3, [r7, #31]
 2008              	.L62:
 307:../libs/lcd_1100/nokia1100_lcd_lib.c **** 	if (y1 > y2)
 2009              		.loc 1 307 0
 2010 004a BA79     		ldrb	r2, [r7, #6]	@ zero_extendqisi2
 2011 004c 3B79     		ldrb	r3, [r7, #4]	@ zero_extendqisi2
 2012 004e 9A42     		cmp	r2, r3
 2013 0050 02D9     		bls	.L63
 308:../libs/lcd_1100/nokia1100_lcd_lib.c **** 		addy = -1;
 2014              		.loc 1 308 0
 2015 0052 4FF0FF03 		mov	r3, #255
 2016 0056 BB77     		strb	r3, [r7, #30]
 2017              	.L63:
 309:../libs/lcd_1100/nokia1100_lcd_lib.c **** 
 310:../libs/lcd_1100/nokia1100_lcd_lib.c **** 	if (dx >= dy) {
 2018              		.loc 1 310 0
 2019 0058 3A69     		ldr	r2, [r7, #16]
 2020 005a FB68     		ldr	r3, [r7, #12]
 2021 005c 9A42     		cmp	r2, r3
 2022 005e 36DB     		blt	.L64
 311:../libs/lcd_1100/nokia1100_lcd_lib.c **** 		dy *= 2;
 2023              		.loc 1 311 0
 2024 0060 FB68     		ldr	r3, [r7, #12]
 2025 0062 4FEA4303 		lsl	r3, r3, #1
 2026 0066 FB60     		str	r3, [r7, #12]
 312:../libs/lcd_1100/nokia1100_lcd_lib.c **** 		P = dy - dx;
 2027              		.loc 1 312 0
 2028 0068 FA68     		ldr	r2, [r7, #12]
 2029 006a 3B69     		ldr	r3, [r7, #16]
 2030 006c D31A     		subs	r3, r2, r3
 2031 006e BB61     		str	r3, [r7, #24]
 313:../libs/lcd_1100/nokia1100_lcd_lib.c **** 
 314:../libs/lcd_1100/nokia1100_lcd_lib.c **** 		diff = P - dx;
 2032              		.loc 1 314 0
 2033 0070 BA69     		ldr	r2, [r7, #24]
 2034 0072 3B69     		ldr	r3, [r7, #16]
 2035 0074 D31A     		subs	r3, r2, r3
 2036 0076 BB60     		str	r3, [r7, #8]
 315:../libs/lcd_1100/nokia1100_lcd_lib.c **** 
 316:../libs/lcd_1100/nokia1100_lcd_lib.c **** 		for (; i <= dx; ++i) {
 2037              		.loc 1 316 0
 2038 0078 24E0     		b	.L65
 2039              	.L68:
 317:../libs/lcd_1100/nokia1100_lcd_lib.c **** 			nlcd_Pixel(x1, y1, pixel_mode);
 2040              		.loc 1 317 0
 2041 007a F979     		ldrb	r1, [r7, #7]	@ zero_extendqisi2
 2042 007c BA79     		ldrb	r2, [r7, #6]	@ zero_extendqisi2
 2043 007e 97F82830 		ldrb	r3, [r7, #40]	@ zero_extendqisi2
 2044 0082 0846     		mov	r0, r1
 2045 0084 1146     		mov	r1, r2
 2046 0086 1A46     		mov	r2, r3
 2047 0088 FFF7FEFF 		bl	nlcd_Pixel
 318:../libs/lcd_1100/nokia1100_lcd_lib.c **** 
 319:../libs/lcd_1100/nokia1100_lcd_lib.c **** 			if (P < 0) {
 2048              		.loc 1 319 0
 2049 008c BB69     		ldr	r3, [r7, #24]
 2050 008e 002B     		cmp	r3, #0
 2051 0090 08DA     		bge	.L66
 320:../libs/lcd_1100/nokia1100_lcd_lib.c **** 				P += dy;
 2052              		.loc 1 320 0
 2053 0092 BA69     		ldr	r2, [r7, #24]
 2054 0094 FB68     		ldr	r3, [r7, #12]
 2055 0096 D318     		adds	r3, r2, r3
 2056 0098 BB61     		str	r3, [r7, #24]
 321:../libs/lcd_1100/nokia1100_lcd_lib.c **** 				x1 += addx;
 2057              		.loc 1 321 0
 2058 009a FA7F     		ldrb	r2, [r7, #31]	@ zero_extendqisi2
 2059 009c FB79     		ldrb	r3, [r7, #7]
 2060 009e D318     		adds	r3, r2, r3
 2061 00a0 FB71     		strb	r3, [r7, #7]
 2062 00a2 0BE0     		b	.L67
 2063              	.L66:
 322:../libs/lcd_1100/nokia1100_lcd_lib.c **** 			} else {
 323:../libs/lcd_1100/nokia1100_lcd_lib.c **** 				P += diff;
 2064              		.loc 1 323 0
 2065 00a4 BA69     		ldr	r2, [r7, #24]
 2066 00a6 BB68     		ldr	r3, [r7, #8]
 2067 00a8 D318     		adds	r3, r2, r3
 2068 00aa BB61     		str	r3, [r7, #24]
 324:../libs/lcd_1100/nokia1100_lcd_lib.c **** 				x1 += addx;
 2069              		.loc 1 324 0
 2070 00ac FA7F     		ldrb	r2, [r7, #31]	@ zero_extendqisi2
 2071 00ae FB79     		ldrb	r3, [r7, #7]
 2072 00b0 D318     		adds	r3, r2, r3
 2073 00b2 FB71     		strb	r3, [r7, #7]
 325:../libs/lcd_1100/nokia1100_lcd_lib.c **** 				y1 += addy;
 2074              		.loc 1 325 0
 2075 00b4 BA7F     		ldrb	r2, [r7, #30]	@ zero_extendqisi2
 2076 00b6 BB79     		ldrb	r3, [r7, #6]
 2077 00b8 D318     		adds	r3, r2, r3
 2078 00ba BB71     		strb	r3, [r7, #6]
 2079              	.L67:
 316:../libs/lcd_1100/nokia1100_lcd_lib.c **** 		for (; i <= dx; ++i) {
 2080              		.loc 1 316 0
 2081 00bc FB7D     		ldrb	r3, [r7, #23]
 2082 00be 03F10103 		add	r3, r3, #1
 2083 00c2 FB75     		strb	r3, [r7, #23]
 2084              	.L65:
 316:../libs/lcd_1100/nokia1100_lcd_lib.c **** 		for (; i <= dx; ++i) {
 2085              		.loc 1 316 0 is_stmt 0 discriminator 1
 2086 00c4 FA7D     		ldrb	r2, [r7, #23]	@ zero_extendqisi2
 2087 00c6 3B69     		ldr	r3, [r7, #16]
 2088 00c8 9A42     		cmp	r2, r3
 2089 00ca D6DD     		ble	.L68
 316:../libs/lcd_1100/nokia1100_lcd_lib.c **** 		for (; i <= dx; ++i) {
 2090              		.loc 1 316 0
 2091 00cc 35E0     		b	.L61
 2092              	.L64:
 326:../libs/lcd_1100/nokia1100_lcd_lib.c **** 			}
 327:../libs/lcd_1100/nokia1100_lcd_lib.c **** 		}
 328:../libs/lcd_1100/nokia1100_lcd_lib.c **** 	} else {
 329:../libs/lcd_1100/nokia1100_lcd_lib.c **** 		dx *= 2;
 2093              		.loc 1 329 0 is_stmt 1
 2094 00ce 3B69     		ldr	r3, [r7, #16]
 2095 00d0 4FEA4303 		lsl	r3, r3, #1
 2096 00d4 3B61     		str	r3, [r7, #16]
 330:../libs/lcd_1100/nokia1100_lcd_lib.c **** 		P = dx - dy;
 2097              		.loc 1 330 0
 2098 00d6 3A69     		ldr	r2, [r7, #16]
 2099 00d8 FB68     		ldr	r3, [r7, #12]
 2100 00da D31A     		subs	r3, r2, r3
 2101 00dc BB61     		str	r3, [r7, #24]
 331:../libs/lcd_1100/nokia1100_lcd_lib.c **** 		diff = P - dy;
 2102              		.loc 1 331 0
 2103 00de BA69     		ldr	r2, [r7, #24]
 2104 00e0 FB68     		ldr	r3, [r7, #12]
 2105 00e2 D31A     		subs	r3, r2, r3
 2106 00e4 BB60     		str	r3, [r7, #8]
 332:../libs/lcd_1100/nokia1100_lcd_lib.c **** 
 333:../libs/lcd_1100/nokia1100_lcd_lib.c **** 		for (; i <= dy; ++i) {
 2107              		.loc 1 333 0
 2108 00e6 24E0     		b	.L70
 2109              	.L73:
 334:../libs/lcd_1100/nokia1100_lcd_lib.c **** 			nlcd_Pixel(x1, y1, pixel_mode);
 2110              		.loc 1 334 0
 2111 00e8 F979     		ldrb	r1, [r7, #7]	@ zero_extendqisi2
 2112 00ea BA79     		ldrb	r2, [r7, #6]	@ zero_extendqisi2
 2113 00ec 97F82830 		ldrb	r3, [r7, #40]	@ zero_extendqisi2
 2114 00f0 0846     		mov	r0, r1
 2115 00f2 1146     		mov	r1, r2
 2116 00f4 1A46     		mov	r2, r3
 2117 00f6 FFF7FEFF 		bl	nlcd_Pixel
 335:../libs/lcd_1100/nokia1100_lcd_lib.c **** 
 336:../libs/lcd_1100/nokia1100_lcd_lib.c **** 			if (P < 0) {
 2118              		.loc 1 336 0
 2119 00fa BB69     		ldr	r3, [r7, #24]
 2120 00fc 002B     		cmp	r3, #0
 2121 00fe 08DA     		bge	.L71
 337:../libs/lcd_1100/nokia1100_lcd_lib.c **** 				P += dx;
 2122              		.loc 1 337 0
 2123 0100 BA69     		ldr	r2, [r7, #24]
 2124 0102 3B69     		ldr	r3, [r7, #16]
 2125 0104 D318     		adds	r3, r2, r3
 2126 0106 BB61     		str	r3, [r7, #24]
 338:../libs/lcd_1100/nokia1100_lcd_lib.c **** 				y1 += addy;
 2127              		.loc 1 338 0
 2128 0108 BA7F     		ldrb	r2, [r7, #30]	@ zero_extendqisi2
 2129 010a BB79     		ldrb	r3, [r7, #6]
 2130 010c D318     		adds	r3, r2, r3
 2131 010e BB71     		strb	r3, [r7, #6]
 2132 0110 0BE0     		b	.L72
 2133              	.L71:
 339:../libs/lcd_1100/nokia1100_lcd_lib.c **** 			} else {
 340:../libs/lcd_1100/nokia1100_lcd_lib.c **** 				P += diff;
 2134              		.loc 1 340 0
 2135 0112 BA69     		ldr	r2, [r7, #24]
 2136 0114 BB68     		ldr	r3, [r7, #8]
 2137 0116 D318     		adds	r3, r2, r3
 2138 0118 BB61     		str	r3, [r7, #24]
 341:../libs/lcd_1100/nokia1100_lcd_lib.c **** 				x1 += addx;
 2139              		.loc 1 341 0
 2140 011a FA7F     		ldrb	r2, [r7, #31]	@ zero_extendqisi2
 2141 011c FB79     		ldrb	r3, [r7, #7]
 2142 011e D318     		adds	r3, r2, r3
 2143 0120 FB71     		strb	r3, [r7, #7]
 342:../libs/lcd_1100/nokia1100_lcd_lib.c **** 				y1 += addy;
 2144              		.loc 1 342 0
 2145 0122 BA7F     		ldrb	r2, [r7, #30]	@ zero_extendqisi2
 2146 0124 BB79     		ldrb	r3, [r7, #6]
 2147 0126 D318     		adds	r3, r2, r3
 2148 0128 BB71     		strb	r3, [r7, #6]
 2149              	.L72:
 333:../libs/lcd_1100/nokia1100_lcd_lib.c **** 		for (; i <= dy; ++i) {
 2150              		.loc 1 333 0
 2151 012a FB7D     		ldrb	r3, [r7, #23]
 2152 012c 03F10103 		add	r3, r3, #1
 2153 0130 FB75     		strb	r3, [r7, #23]
 2154              	.L70:
 333:../libs/lcd_1100/nokia1100_lcd_lib.c **** 		for (; i <= dy; ++i) {
 2155              		.loc 1 333 0 is_stmt 0 discriminator 1
 2156 0132 FA7D     		ldrb	r2, [r7, #23]	@ zero_extendqisi2
 2157 0134 FB68     		ldr	r3, [r7, #12]
 2158 0136 9A42     		cmp	r2, r3
 2159 0138 D6DD     		ble	.L73
 2160              	.L61:
 343:../libs/lcd_1100/nokia1100_lcd_lib.c **** 			}
 344:../libs/lcd_1100/nokia1100_lcd_lib.c **** 		}
 345:../libs/lcd_1100/nokia1100_lcd_lib.c **** 	}
 346:../libs/lcd_1100/nokia1100_lcd_lib.c **** }
 2161              		.loc 1 346 0 is_stmt 1
 2162 013a 07F12007 		add	r7, r7, #32
 2163 013e BD46     		mov	sp, r7
 2164 0140 80BD     		pop	{r7, pc}
 2165              		.cfi_endproc
 2166              	.LFE42:
 2168 0142 00BF     		.section	.text.nlcd_Circle,"ax",%progbits
 2169              		.align	2
 2170              		.global	nlcd_Circle
 2171              		.thumb
 2172              		.thumb_func
 2174              	nlcd_Circle:
 2175              	.LFB43:
 347:../libs/lcd_1100/nokia1100_lcd_lib.c **** 
 348:../libs/lcd_1100/nokia1100_lcd_lib.c **** //******************************************************************************
 349:../libs/lcd_1100/nokia1100_lcd_lib.c **** // Вывод окружности на LCD-экран NOKIA 1100
 350:../libs/lcd_1100/nokia1100_lcd_lib.c **** //  x: 0..95  координаты центра окружности (отсчет от верхнего левого угла)
 351:../libs/lcd_1100/nokia1100_lcd_lib.c **** //	y: 0..64  координата по вертикали
 352:../libs/lcd_1100/nokia1100_lcd_lib.c **** //  radius:   радиус окружности
 353:../libs/lcd_1100/nokia1100_lcd_lib.c **** //  fill:		FILL_OFF  - без заливки окружности
 354:../libs/lcd_1100/nokia1100_lcd_lib.c **** //				FILL_ON	  - с заливкой
 355:../libs/lcd_1100/nokia1100_lcd_lib.c **** //	pixel_mode: PIXEL_ON  - для включения пикскела
 356:../libs/lcd_1100/nokia1100_lcd_lib.c **** //				PIXEL_OFF - для выключения пиксела
 357:../libs/lcd_1100/nokia1100_lcd_lib.c **** //				PIXEL_INV - для инверсии пиксела
 358:../libs/lcd_1100/nokia1100_lcd_lib.c **** 
 359:../libs/lcd_1100/nokia1100_lcd_lib.c **** void nlcd_Circle(uint8_t x, uint8_t y, uint8_t radius,
 360:../libs/lcd_1100/nokia1100_lcd_lib.c **** 		uint8_t fill, uint8_t pixel_mode) {
 2176              		.loc 1 360 0
 2177              		.cfi_startproc
 2178              		@ args = 4, pretend = 0, frame = 16
 2179              		@ frame_needed = 1, uses_anonymous_args = 0
 2180 0000 90B5     		push	{r4, r7, lr}
 2181              	.LCFI42:
 2182              		.cfi_def_cfa_offset 12
 2183              		.cfi_offset 4, -12
 2184              		.cfi_offset 7, -8
 2185              		.cfi_offset 14, -4
 2186 0002 87B0     		sub	sp, sp, #28
 2187              	.LCFI43:
 2188              		.cfi_def_cfa_offset 40
 2189 0004 02AF     		add	r7, sp, #8
 2190              	.LCFI44:
 2191              		.cfi_def_cfa 7, 32
 2192 0006 F871     		strb	r0, [r7, #7]
 2193 0008 B971     		strb	r1, [r7, #6]
 2194 000a 7A71     		strb	r2, [r7, #5]
 2195 000c 3B71     		strb	r3, [r7, #4]
 361:../libs/lcd_1100/nokia1100_lcd_lib.c **** 	signed char a, b, P;
 362:../libs/lcd_1100/nokia1100_lcd_lib.c **** 
 363:../libs/lcd_1100/nokia1100_lcd_lib.c **** 	a = 0;
 2196              		.loc 1 363 0
 2197 000e 4FF00003 		mov	r3, #0
 2198 0012 FB73     		strb	r3, [r7, #15]
 364:../libs/lcd_1100/nokia1100_lcd_lib.c **** 	b = radius;
 2199              		.loc 1 364 0
 2200 0014 7B79     		ldrb	r3, [r7, #5]
 2201 0016 BB73     		strb	r3, [r7, #14]
 365:../libs/lcd_1100/nokia1100_lcd_lib.c **** 	P = 1 - radius;
 2202              		.loc 1 365 0
 2203 0018 7B79     		ldrb	r3, [r7, #5]
 2204 001a C3F10103 		rsb	r3, r3, #1
 2205 001e DBB2     		uxtb	r3, r3
 2206 0020 7B73     		strb	r3, [r7, #13]
 2207              	.L79:
 366:../libs/lcd_1100/nokia1100_lcd_lib.c **** 
 367:../libs/lcd_1100/nokia1100_lcd_lib.c **** 	do {
 368:../libs/lcd_1100/nokia1100_lcd_lib.c **** 		if (fill) {
 2208              		.loc 1 368 0
 2209 0022 3B79     		ldrb	r3, [r7, #4]	@ zero_extendqisi2
 2210 0024 002B     		cmp	r3, #0
 2211 0026 54D0     		beq	.L75
 369:../libs/lcd_1100/nokia1100_lcd_lib.c **** 			nlcd_Line(x - a, y + b, x + a, y + b, pixel_mode);
 2212              		.loc 1 369 0
 2213 0028 FB7B     		ldrb	r3, [r7, #15]	@ zero_extendqisi2
 2214 002a FA79     		ldrb	r2, [r7, #7]
 2215 002c D31A     		subs	r3, r2, r3
 2216 002e D8B2     		uxtb	r0, r3
 2217 0030 BA7B     		ldrb	r2, [r7, #14]	@ zero_extendqisi2
 2218 0032 BB79     		ldrb	r3, [r7, #6]
 2219 0034 D318     		adds	r3, r2, r3
 2220 0036 D9B2     		uxtb	r1, r3
 2221 0038 FA7B     		ldrb	r2, [r7, #15]	@ zero_extendqisi2
 2222 003a FB79     		ldrb	r3, [r7, #7]
 2223 003c D318     		adds	r3, r2, r3
 2224 003e DAB2     		uxtb	r2, r3
 2225 0040 BC7B     		ldrb	r4, [r7, #14]	@ zero_extendqisi2
 2226 0042 BB79     		ldrb	r3, [r7, #6]
 2227 0044 E318     		adds	r3, r4, r3
 2228 0046 DBB2     		uxtb	r3, r3
 2229 0048 97F82040 		ldrb	r4, [r7, #32]	@ zero_extendqisi2
 2230 004c 0094     		str	r4, [sp, #0]
 2231 004e FFF7FEFF 		bl	nlcd_Line
 370:../libs/lcd_1100/nokia1100_lcd_lib.c **** 			nlcd_Line(x - a, y - b, x + a, y - b, pixel_mode);
 2232              		.loc 1 370 0
 2233 0052 FB7B     		ldrb	r3, [r7, #15]	@ zero_extendqisi2
 2234 0054 FA79     		ldrb	r2, [r7, #7]
 2235 0056 D31A     		subs	r3, r2, r3
 2236 0058 D8B2     		uxtb	r0, r3
 2237 005a BB7B     		ldrb	r3, [r7, #14]	@ zero_extendqisi2
 2238 005c BA79     		ldrb	r2, [r7, #6]
 2239 005e D31A     		subs	r3, r2, r3
 2240 0060 D9B2     		uxtb	r1, r3
 2241 0062 FA7B     		ldrb	r2, [r7, #15]	@ zero_extendqisi2
 2242 0064 FB79     		ldrb	r3, [r7, #7]
 2243 0066 D318     		adds	r3, r2, r3
 2244 0068 DAB2     		uxtb	r2, r3
 2245 006a BB7B     		ldrb	r3, [r7, #14]	@ zero_extendqisi2
 2246 006c BC79     		ldrb	r4, [r7, #6]
 2247 006e E31A     		subs	r3, r4, r3
 2248 0070 DBB2     		uxtb	r3, r3
 2249 0072 97F82040 		ldrb	r4, [r7, #32]	@ zero_extendqisi2
 2250 0076 0094     		str	r4, [sp, #0]
 2251 0078 FFF7FEFF 		bl	nlcd_Line
 371:../libs/lcd_1100/nokia1100_lcd_lib.c **** 			nlcd_Line(x - b, y + a, x + b, y + a, pixel_mode);
 2252              		.loc 1 371 0
 2253 007c BB7B     		ldrb	r3, [r7, #14]	@ zero_extendqisi2
 2254 007e FA79     		ldrb	r2, [r7, #7]
 2255 0080 D31A     		subs	r3, r2, r3
 2256 0082 D8B2     		uxtb	r0, r3
 2257 0084 FA7B     		ldrb	r2, [r7, #15]	@ zero_extendqisi2
 2258 0086 BB79     		ldrb	r3, [r7, #6]
 2259 0088 D318     		adds	r3, r2, r3
 2260 008a D9B2     		uxtb	r1, r3
 2261 008c BA7B     		ldrb	r2, [r7, #14]	@ zero_extendqisi2
 2262 008e FB79     		ldrb	r3, [r7, #7]
 2263 0090 D318     		adds	r3, r2, r3
 2264 0092 DAB2     		uxtb	r2, r3
 2265 0094 FC7B     		ldrb	r4, [r7, #15]	@ zero_extendqisi2
 2266 0096 BB79     		ldrb	r3, [r7, #6]
 2267 0098 E318     		adds	r3, r4, r3
 2268 009a DBB2     		uxtb	r3, r3
 2269 009c 97F82040 		ldrb	r4, [r7, #32]	@ zero_extendqisi2
 2270 00a0 0094     		str	r4, [sp, #0]
 2271 00a2 FFF7FEFF 		bl	nlcd_Line
 372:../libs/lcd_1100/nokia1100_lcd_lib.c **** 			nlcd_Line(x - b, y - a, x + b, y - a, pixel_mode);
 2272              		.loc 1 372 0
 2273 00a6 BB7B     		ldrb	r3, [r7, #14]	@ zero_extendqisi2
 2274 00a8 FA79     		ldrb	r2, [r7, #7]
 2275 00aa D31A     		subs	r3, r2, r3
 2276 00ac D8B2     		uxtb	r0, r3
 2277 00ae FB7B     		ldrb	r3, [r7, #15]	@ zero_extendqisi2
 2278 00b0 BA79     		ldrb	r2, [r7, #6]
 2279 00b2 D31A     		subs	r3, r2, r3
 2280 00b4 D9B2     		uxtb	r1, r3
 2281 00b6 BA7B     		ldrb	r2, [r7, #14]	@ zero_extendqisi2
 2282 00b8 FB79     		ldrb	r3, [r7, #7]
 2283 00ba D318     		adds	r3, r2, r3
 2284 00bc DAB2     		uxtb	r2, r3
 2285 00be FB7B     		ldrb	r3, [r7, #15]	@ zero_extendqisi2
 2286 00c0 BC79     		ldrb	r4, [r7, #6]
 2287 00c2 E31A     		subs	r3, r4, r3
 2288 00c4 DBB2     		uxtb	r3, r3
 2289 00c6 97F82040 		ldrb	r4, [r7, #32]	@ zero_extendqisi2
 2290 00ca 0094     		str	r4, [sp, #0]
 2291 00cc FFF7FEFF 		bl	nlcd_Line
 2292 00d0 77E0     		b	.L76
 2293              	.L75:
 373:../libs/lcd_1100/nokia1100_lcd_lib.c **** 		} else {
 374:../libs/lcd_1100/nokia1100_lcd_lib.c **** 			nlcd_Pixel(a + x, b + y, pixel_mode);
 2294              		.loc 1 374 0
 2295 00d2 FA7B     		ldrb	r2, [r7, #15]	@ zero_extendqisi2
 2296 00d4 FB79     		ldrb	r3, [r7, #7]
 2297 00d6 D318     		adds	r3, r2, r3
 2298 00d8 D9B2     		uxtb	r1, r3
 2299 00da BA7B     		ldrb	r2, [r7, #14]	@ zero_extendqisi2
 2300 00dc BB79     		ldrb	r3, [r7, #6]
 2301 00de D318     		adds	r3, r2, r3
 2302 00e0 DAB2     		uxtb	r2, r3
 2303 00e2 97F82030 		ldrb	r3, [r7, #32]	@ zero_extendqisi2
 2304 00e6 0846     		mov	r0, r1
 2305 00e8 1146     		mov	r1, r2
 2306 00ea 1A46     		mov	r2, r3
 2307 00ec FFF7FEFF 		bl	nlcd_Pixel
 375:../libs/lcd_1100/nokia1100_lcd_lib.c **** 			nlcd_Pixel(b + x, a + y, pixel_mode);
 2308              		.loc 1 375 0
 2309 00f0 BA7B     		ldrb	r2, [r7, #14]	@ zero_extendqisi2
 2310 00f2 FB79     		ldrb	r3, [r7, #7]
 2311 00f4 D318     		adds	r3, r2, r3
 2312 00f6 D9B2     		uxtb	r1, r3
 2313 00f8 FA7B     		ldrb	r2, [r7, #15]	@ zero_extendqisi2
 2314 00fa BB79     		ldrb	r3, [r7, #6]
 2315 00fc D318     		adds	r3, r2, r3
 2316 00fe DAB2     		uxtb	r2, r3
 2317 0100 97F82030 		ldrb	r3, [r7, #32]	@ zero_extendqisi2
 2318 0104 0846     		mov	r0, r1
 2319 0106 1146     		mov	r1, r2
 2320 0108 1A46     		mov	r2, r3
 2321 010a FFF7FEFF 		bl	nlcd_Pixel
 376:../libs/lcd_1100/nokia1100_lcd_lib.c **** 			nlcd_Pixel(x - a, b + y, pixel_mode);
 2322              		.loc 1 376 0
 2323 010e FB7B     		ldrb	r3, [r7, #15]	@ zero_extendqisi2
 2324 0110 FA79     		ldrb	r2, [r7, #7]
 2325 0112 D31A     		subs	r3, r2, r3
 2326 0114 D9B2     		uxtb	r1, r3
 2327 0116 BA7B     		ldrb	r2, [r7, #14]	@ zero_extendqisi2
 2328 0118 BB79     		ldrb	r3, [r7, #6]
 2329 011a D318     		adds	r3, r2, r3
 2330 011c DAB2     		uxtb	r2, r3
 2331 011e 97F82030 		ldrb	r3, [r7, #32]	@ zero_extendqisi2
 2332 0122 0846     		mov	r0, r1
 2333 0124 1146     		mov	r1, r2
 2334 0126 1A46     		mov	r2, r3
 2335 0128 FFF7FEFF 		bl	nlcd_Pixel
 377:../libs/lcd_1100/nokia1100_lcd_lib.c **** 			nlcd_Pixel(x - b, a + y, pixel_mode);
 2336              		.loc 1 377 0
 2337 012c BB7B     		ldrb	r3, [r7, #14]	@ zero_extendqisi2
 2338 012e FA79     		ldrb	r2, [r7, #7]
 2339 0130 D31A     		subs	r3, r2, r3
 2340 0132 D9B2     		uxtb	r1, r3
 2341 0134 FA7B     		ldrb	r2, [r7, #15]	@ zero_extendqisi2
 2342 0136 BB79     		ldrb	r3, [r7, #6]
 2343 0138 D318     		adds	r3, r2, r3
 2344 013a DAB2     		uxtb	r2, r3
 2345 013c 97F82030 		ldrb	r3, [r7, #32]	@ zero_extendqisi2
 2346 0140 0846     		mov	r0, r1
 2347 0142 1146     		mov	r1, r2
 2348 0144 1A46     		mov	r2, r3
 2349 0146 FFF7FEFF 		bl	nlcd_Pixel
 378:../libs/lcd_1100/nokia1100_lcd_lib.c **** 			nlcd_Pixel(b + x, y - a, pixel_mode);
 2350              		.loc 1 378 0
 2351 014a BA7B     		ldrb	r2, [r7, #14]	@ zero_extendqisi2
 2352 014c FB79     		ldrb	r3, [r7, #7]
 2353 014e D318     		adds	r3, r2, r3
 2354 0150 D9B2     		uxtb	r1, r3
 2355 0152 FB7B     		ldrb	r3, [r7, #15]	@ zero_extendqisi2
 2356 0154 BA79     		ldrb	r2, [r7, #6]
 2357 0156 D31A     		subs	r3, r2, r3
 2358 0158 DAB2     		uxtb	r2, r3
 2359 015a 97F82030 		ldrb	r3, [r7, #32]	@ zero_extendqisi2
 2360 015e 0846     		mov	r0, r1
 2361 0160 1146     		mov	r1, r2
 2362 0162 1A46     		mov	r2, r3
 2363 0164 FFF7FEFF 		bl	nlcd_Pixel
 379:../libs/lcd_1100/nokia1100_lcd_lib.c **** 			nlcd_Pixel(a + x, y - b, pixel_mode);
 2364              		.loc 1 379 0
 2365 0168 FA7B     		ldrb	r2, [r7, #15]	@ zero_extendqisi2
 2366 016a FB79     		ldrb	r3, [r7, #7]
 2367 016c D318     		adds	r3, r2, r3
 2368 016e D9B2     		uxtb	r1, r3
 2369 0170 BB7B     		ldrb	r3, [r7, #14]	@ zero_extendqisi2
 2370 0172 BA79     		ldrb	r2, [r7, #6]
 2371 0174 D31A     		subs	r3, r2, r3
 2372 0176 DAB2     		uxtb	r2, r3
 2373 0178 97F82030 		ldrb	r3, [r7, #32]	@ zero_extendqisi2
 2374 017c 0846     		mov	r0, r1
 2375 017e 1146     		mov	r1, r2
 2376 0180 1A46     		mov	r2, r3
 2377 0182 FFF7FEFF 		bl	nlcd_Pixel
 380:../libs/lcd_1100/nokia1100_lcd_lib.c **** 			nlcd_Pixel(x - a, y - b, pixel_mode);
 2378              		.loc 1 380 0
 2379 0186 FB7B     		ldrb	r3, [r7, #15]	@ zero_extendqisi2
 2380 0188 FA79     		ldrb	r2, [r7, #7]
 2381 018a D31A     		subs	r3, r2, r3
 2382 018c D9B2     		uxtb	r1, r3
 2383 018e BB7B     		ldrb	r3, [r7, #14]	@ zero_extendqisi2
 2384 0190 BA79     		ldrb	r2, [r7, #6]
 2385 0192 D31A     		subs	r3, r2, r3
 2386 0194 DAB2     		uxtb	r2, r3
 2387 0196 97F82030 		ldrb	r3, [r7, #32]	@ zero_extendqisi2
 2388 019a 0846     		mov	r0, r1
 2389 019c 1146     		mov	r1, r2
 2390 019e 1A46     		mov	r2, r3
 2391 01a0 FFF7FEFF 		bl	nlcd_Pixel
 381:../libs/lcd_1100/nokia1100_lcd_lib.c **** 			nlcd_Pixel(x - b, y - a, pixel_mode);
 2392              		.loc 1 381 0
 2393 01a4 BB7B     		ldrb	r3, [r7, #14]	@ zero_extendqisi2
 2394 01a6 FA79     		ldrb	r2, [r7, #7]
 2395 01a8 D31A     		subs	r3, r2, r3
 2396 01aa D9B2     		uxtb	r1, r3
 2397 01ac FB7B     		ldrb	r3, [r7, #15]	@ zero_extendqisi2
 2398 01ae BA79     		ldrb	r2, [r7, #6]
 2399 01b0 D31A     		subs	r3, r2, r3
 2400 01b2 DAB2     		uxtb	r2, r3
 2401 01b4 97F82030 		ldrb	r3, [r7, #32]	@ zero_extendqisi2
 2402 01b8 0846     		mov	r0, r1
 2403 01ba 1146     		mov	r1, r2
 2404 01bc 1A46     		mov	r2, r3
 2405 01be FFF7FEFF 		bl	nlcd_Pixel
 2406              	.L76:
 382:../libs/lcd_1100/nokia1100_lcd_lib.c **** 		}
 383:../libs/lcd_1100/nokia1100_lcd_lib.c **** 
 384:../libs/lcd_1100/nokia1100_lcd_lib.c **** 		if (P < 0)
 2407              		.loc 1 384 0
 2408 01c2 97F90D30 		ldrsb	r3, [r7, #13]
 2409 01c6 002B     		cmp	r3, #0
 2410 01c8 0FDA     		bge	.L77
 385:../libs/lcd_1100/nokia1100_lcd_lib.c **** 			P += 3 + 2 * a++;
 2411              		.loc 1 385 0
 2412 01ca FB7B     		ldrb	r3, [r7, #15]	@ zero_extendqisi2
 2413 01cc 4FEA4303 		lsl	r3, r3, #1
 2414 01d0 DAB2     		uxtb	r2, r3
 2415 01d2 7B7B     		ldrb	r3, [r7, #13]	@ zero_extendqisi2
 2416 01d4 D318     		adds	r3, r2, r3
 2417 01d6 DBB2     		uxtb	r3, r3
 2418 01d8 03F10303 		add	r3, r3, #3
 2419 01dc DBB2     		uxtb	r3, r3
 2420 01de 7B73     		strb	r3, [r7, #13]
 2421 01e0 FB7B     		ldrb	r3, [r7, #15]
 2422 01e2 03F10103 		add	r3, r3, #1
 2423 01e6 FB73     		strb	r3, [r7, #15]
 2424 01e8 17E0     		b	.L78
 2425              	.L77:
 386:../libs/lcd_1100/nokia1100_lcd_lib.c **** 		else
 387:../libs/lcd_1100/nokia1100_lcd_lib.c **** 			P += 5 + 2 * (a++ - b--);
 2426              		.loc 1 387 0
 2427 01ea 97F90F20 		ldrsb	r2, [r7, #15]
 2428 01ee 97F90E30 		ldrsb	r3, [r7, #14]
 2429 01f2 D31A     		subs	r3, r2, r3
 2430 01f4 DBB2     		uxtb	r3, r3
 2431 01f6 4FEA4303 		lsl	r3, r3, #1
 2432 01fa DAB2     		uxtb	r2, r3
 2433 01fc 7B7B     		ldrb	r3, [r7, #13]	@ zero_extendqisi2
 2434 01fe D318     		adds	r3, r2, r3
 2435 0200 DBB2     		uxtb	r3, r3
 2436 0202 03F10503 		add	r3, r3, #5
 2437 0206 DBB2     		uxtb	r3, r3
 2438 0208 7B73     		strb	r3, [r7, #13]
 2439 020a FB7B     		ldrb	r3, [r7, #15]
 2440 020c 03F10103 		add	r3, r3, #1
 2441 0210 FB73     		strb	r3, [r7, #15]
 2442 0212 BB7B     		ldrb	r3, [r7, #14]
 2443 0214 03F1FF33 		add	r3, r3, #-1
 2444 0218 BB73     		strb	r3, [r7, #14]
 2445              	.L78:
 388:../libs/lcd_1100/nokia1100_lcd_lib.c **** 	} while (a <= b);
 2446              		.loc 1 388 0
 2447 021a 97F90F20 		ldrsb	r2, [r7, #15]
 2448 021e 97F90E30 		ldrsb	r3, [r7, #14]
 2449 0222 9A42     		cmp	r2, r3
 2450 0224 7FF7FDAE 		ble	.L79
 389:../libs/lcd_1100/nokia1100_lcd_lib.c **** }
 2451              		.loc 1 389 0
 2452 0228 07F11407 		add	r7, r7, #20
 2453 022c BD46     		mov	sp, r7
 2454 022e 90BD     		pop	{r4, r7, pc}
 2455              		.cfi_endproc
 2456              	.LFE43:
 2458              		.section	.text.nlcd_Rect,"ax",%progbits
 2459              		.align	2
 2460              		.global	nlcd_Rect
 2461              		.thumb
 2462              		.thumb_func
 2464              	nlcd_Rect:
 2465              	.LFB44:
 390:../libs/lcd_1100/nokia1100_lcd_lib.c **** 
 391:../libs/lcd_1100/nokia1100_lcd_lib.c **** //******************************************************************************
 392:../libs/lcd_1100/nokia1100_lcd_lib.c **** // Вывод окружности на LCD-экран NOKIA 1100
 393:../libs/lcd_1100/nokia1100_lcd_lib.c **** //  x1, x2: 0..95  координата по горизонтали (отсчет от верхнего левого угла)
 394:../libs/lcd_1100/nokia1100_lcd_lib.c **** //	y1, y2: 0..64  координата по вертикали
 395:../libs/lcd_1100/nokia1100_lcd_lib.c **** //	pixel_mode: PIXEL_ON  - для включения пикскела
 396:../libs/lcd_1100/nokia1100_lcd_lib.c **** //				PIXEL_OFF - для выключения пиксела
 397:../libs/lcd_1100/nokia1100_lcd_lib.c **** //				PIXEL_INV - для инверсии пиксела
 398:../libs/lcd_1100/nokia1100_lcd_lib.c **** void nlcd_Rect(uint8_t x1, uint8_t y1, uint8_t x2,
 399:../libs/lcd_1100/nokia1100_lcd_lib.c **** 		uint8_t y2, uint8_t fill, uint8_t pixel_mode) {
 2466              		.loc 1 399 0
 2467              		.cfi_startproc
 2468              		@ args = 8, pretend = 0, frame = 16
 2469              		@ frame_needed = 1, uses_anonymous_args = 0
 2470 0000 90B5     		push	{r4, r7, lr}
 2471              	.LCFI45:
 2472              		.cfi_def_cfa_offset 12
 2473              		.cfi_offset 4, -12
 2474              		.cfi_offset 7, -8
 2475              		.cfi_offset 14, -4
 2476 0002 87B0     		sub	sp, sp, #28
 2477              	.LCFI46:
 2478              		.cfi_def_cfa_offset 40
 2479 0004 02AF     		add	r7, sp, #8
 2480              	.LCFI47:
 2481              		.cfi_def_cfa 7, 32
 2482 0006 F871     		strb	r0, [r7, #7]
 2483 0008 B971     		strb	r1, [r7, #6]
 2484 000a 7A71     		strb	r2, [r7, #5]
 2485 000c 3B71     		strb	r3, [r7, #4]
 400:../libs/lcd_1100/nokia1100_lcd_lib.c **** 	if (fill) { // С заливкой
 2486              		.loc 1 400 0
 2487 000e 97F82030 		ldrb	r3, [r7, #32]	@ zero_extendqisi2
 2488 0012 002B     		cmp	r3, #0
 2489 0014 37D0     		beq	.L81
 2490              	.LBB6:
 401:../libs/lcd_1100/nokia1100_lcd_lib.c **** 		uint8_t i, xmin, xmax, ymin, ymax;
 402:../libs/lcd_1100/nokia1100_lcd_lib.c **** 
 403:../libs/lcd_1100/nokia1100_lcd_lib.c **** 		if (x1 < x2) {
 2491              		.loc 1 403 0
 2492 0016 FA79     		ldrb	r2, [r7, #7]	@ zero_extendqisi2
 2493 0018 7B79     		ldrb	r3, [r7, #5]	@ zero_extendqisi2
 2494 001a 9A42     		cmp	r2, r3
 2495 001c 04D2     		bcs	.L82
 404:../libs/lcd_1100/nokia1100_lcd_lib.c **** 			xmin = x1;
 2496              		.loc 1 404 0
 2497 001e FB79     		ldrb	r3, [r7, #7]
 2498 0020 BB73     		strb	r3, [r7, #14]
 405:../libs/lcd_1100/nokia1100_lcd_lib.c **** 			xmax = x2;
 2499              		.loc 1 405 0
 2500 0022 7B79     		ldrb	r3, [r7, #5]
 2501 0024 7B73     		strb	r3, [r7, #13]
 2502 0026 03E0     		b	.L83
 2503              	.L82:
 406:../libs/lcd_1100/nokia1100_lcd_lib.c **** 		} // Определяем минимальную и максимальную координату по X
 407:../libs/lcd_1100/nokia1100_lcd_lib.c **** 		else {
 408:../libs/lcd_1100/nokia1100_lcd_lib.c **** 			xmin = x2;
 2504              		.loc 1 408 0
 2505 0028 7B79     		ldrb	r3, [r7, #5]
 2506 002a BB73     		strb	r3, [r7, #14]
 409:../libs/lcd_1100/nokia1100_lcd_lib.c **** 			xmax = x1;
 2507              		.loc 1 409 0
 2508 002c FB79     		ldrb	r3, [r7, #7]
 2509 002e 7B73     		strb	r3, [r7, #13]
 2510              	.L83:
 410:../libs/lcd_1100/nokia1100_lcd_lib.c **** 		}
 411:../libs/lcd_1100/nokia1100_lcd_lib.c **** 
 412:../libs/lcd_1100/nokia1100_lcd_lib.c **** 		if (y1 < y2) {
 2511              		.loc 1 412 0
 2512 0030 BA79     		ldrb	r2, [r7, #6]	@ zero_extendqisi2
 2513 0032 3B79     		ldrb	r3, [r7, #4]	@ zero_extendqisi2
 2514 0034 9A42     		cmp	r2, r3
 2515 0036 04D2     		bcs	.L84
 413:../libs/lcd_1100/nokia1100_lcd_lib.c **** 			ymin = y1;
 2516              		.loc 1 413 0
 2517 0038 BB79     		ldrb	r3, [r7, #6]
 2518 003a 3B73     		strb	r3, [r7, #12]
 414:../libs/lcd_1100/nokia1100_lcd_lib.c **** 			ymax = y2;
 2519              		.loc 1 414 0
 2520 003c 3B79     		ldrb	r3, [r7, #4]
 2521 003e FB72     		strb	r3, [r7, #11]
 415:../libs/lcd_1100/nokia1100_lcd_lib.c **** 		} // Определяем минимальную и максимальную координату по Y
 416:../libs/lcd_1100/nokia1100_lcd_lib.c **** 		else {
 417:../libs/lcd_1100/nokia1100_lcd_lib.c **** 			ymin = y2;
 418:../libs/lcd_1100/nokia1100_lcd_lib.c **** 			ymax = y1;
 419:../libs/lcd_1100/nokia1100_lcd_lib.c **** 		}
 420:../libs/lcd_1100/nokia1100_lcd_lib.c **** 
 421:../libs/lcd_1100/nokia1100_lcd_lib.c **** 		for (; xmin <= xmax; ++xmin) {
 2522              		.loc 1 421 0
 2523 0040 1CE0     		b	.L86
 2524              	.L84:
 417:../libs/lcd_1100/nokia1100_lcd_lib.c **** 			ymin = y2;
 2525              		.loc 1 417 0
 2526 0042 3B79     		ldrb	r3, [r7, #4]
 2527 0044 3B73     		strb	r3, [r7, #12]
 418:../libs/lcd_1100/nokia1100_lcd_lib.c **** 			ymax = y1;
 2528              		.loc 1 418 0
 2529 0046 BB79     		ldrb	r3, [r7, #6]
 2530 0048 FB72     		strb	r3, [r7, #11]
 2531              		.loc 1 421 0
 2532 004a 17E0     		b	.L86
 2533              	.L89:
 422:../libs/lcd_1100/nokia1100_lcd_lib.c **** 			for (i = ymin; i <= ymax; ++i)
 2534              		.loc 1 422 0
 2535 004c 3B7B     		ldrb	r3, [r7, #12]
 2536 004e FB73     		strb	r3, [r7, #15]
 2537 0050 0CE0     		b	.L87
 2538              	.L88:
 423:../libs/lcd_1100/nokia1100_lcd_lib.c **** 				nlcd_Pixel(xmin, i, pixel_mode);
 2539              		.loc 1 423 0 discriminator 2
 2540 0052 B97B     		ldrb	r1, [r7, #14]	@ zero_extendqisi2
 2541 0054 FA7B     		ldrb	r2, [r7, #15]	@ zero_extendqisi2
 2542 0056 97F82430 		ldrb	r3, [r7, #36]	@ zero_extendqisi2
 2543 005a 0846     		mov	r0, r1
 2544 005c 1146     		mov	r1, r2
 2545 005e 1A46     		mov	r2, r3
 2546 0060 FFF7FEFF 		bl	nlcd_Pixel
 422:../libs/lcd_1100/nokia1100_lcd_lib.c **** 			for (i = ymin; i <= ymax; ++i)
 2547              		.loc 1 422 0 discriminator 2
 2548 0064 FB7B     		ldrb	r3, [r7, #15]
 2549 0066 03F10103 		add	r3, r3, #1
 2550 006a FB73     		strb	r3, [r7, #15]
 2551              	.L87:
 422:../libs/lcd_1100/nokia1100_lcd_lib.c **** 			for (i = ymin; i <= ymax; ++i)
 2552              		.loc 1 422 0 is_stmt 0 discriminator 1
 2553 006c FA7B     		ldrb	r2, [r7, #15]	@ zero_extendqisi2
 2554 006e FB7A     		ldrb	r3, [r7, #11]	@ zero_extendqisi2
 2555 0070 9A42     		cmp	r2, r3
 2556 0072 EED9     		bls	.L88
 421:../libs/lcd_1100/nokia1100_lcd_lib.c **** 		for (; xmin <= xmax; ++xmin) {
 2557              		.loc 1 421 0 is_stmt 1
 2558 0074 BB7B     		ldrb	r3, [r7, #14]
 2559 0076 03F10103 		add	r3, r3, #1
 2560 007a BB73     		strb	r3, [r7, #14]
 2561              	.L86:
 421:../libs/lcd_1100/nokia1100_lcd_lib.c **** 		for (; xmin <= xmax; ++xmin) {
 2562              		.loc 1 421 0 is_stmt 0 discriminator 1
 2563 007c BA7B     		ldrb	r2, [r7, #14]	@ zero_extendqisi2
 2564 007e 7B7B     		ldrb	r3, [r7, #13]	@ zero_extendqisi2
 2565 0080 9A42     		cmp	r2, r3
 2566 0082 E3D9     		bls	.L89
 421:../libs/lcd_1100/nokia1100_lcd_lib.c **** 		for (; xmin <= xmax; ++xmin) {
 2567              		.loc 1 421 0
 2568 0084 2FE0     		b	.L80
 2569              	.L81:
 2570              	.LBE6:
 424:../libs/lcd_1100/nokia1100_lcd_lib.c **** 		}
 425:../libs/lcd_1100/nokia1100_lcd_lib.c **** 	} else // Без заливки
 426:../libs/lcd_1100/nokia1100_lcd_lib.c **** 	{
 427:../libs/lcd_1100/nokia1100_lcd_lib.c **** 		nlcd_Line(x1, y1, x2, y1, pixel_mode); // Рисуем стороны прямоуголиника
 2571              		.loc 1 427 0 is_stmt 1
 2572 0086 F879     		ldrb	r0, [r7, #7]	@ zero_extendqisi2
 2573 0088 B979     		ldrb	r1, [r7, #6]	@ zero_extendqisi2
 2574 008a 7A79     		ldrb	r2, [r7, #5]	@ zero_extendqisi2
 2575 008c BB79     		ldrb	r3, [r7, #6]	@ zero_extendqisi2
 2576 008e 97F82440 		ldrb	r4, [r7, #36]	@ zero_extendqisi2
 2577 0092 0094     		str	r4, [sp, #0]
 2578 0094 FFF7FEFF 		bl	nlcd_Line
 428:../libs/lcd_1100/nokia1100_lcd_lib.c **** 		nlcd_Line(x1, y2, x2, y2, pixel_mode);
 2579              		.loc 1 428 0
 2580 0098 F879     		ldrb	r0, [r7, #7]	@ zero_extendqisi2
 2581 009a 3979     		ldrb	r1, [r7, #4]	@ zero_extendqisi2
 2582 009c 7A79     		ldrb	r2, [r7, #5]	@ zero_extendqisi2
 2583 009e 3B79     		ldrb	r3, [r7, #4]	@ zero_extendqisi2
 2584 00a0 97F82440 		ldrb	r4, [r7, #36]	@ zero_extendqisi2
 2585 00a4 0094     		str	r4, [sp, #0]
 2586 00a6 FFF7FEFF 		bl	nlcd_Line
 429:../libs/lcd_1100/nokia1100_lcd_lib.c **** 		nlcd_Line(x1, y1 + 1, x1, y2 - 1, pixel_mode);
 2587              		.loc 1 429 0
 2588 00aa BB79     		ldrb	r3, [r7, #6]
 2589 00ac 03F10103 		add	r3, r3, #1
 2590 00b0 D9B2     		uxtb	r1, r3
 2591 00b2 3B79     		ldrb	r3, [r7, #4]
 2592 00b4 03F1FF33 		add	r3, r3, #-1
 2593 00b8 DBB2     		uxtb	r3, r3
 2594 00ba F879     		ldrb	r0, [r7, #7]	@ zero_extendqisi2
 2595 00bc FA79     		ldrb	r2, [r7, #7]	@ zero_extendqisi2
 2596 00be 97F82440 		ldrb	r4, [r7, #36]	@ zero_extendqisi2
 2597 00c2 0094     		str	r4, [sp, #0]
 2598 00c4 FFF7FEFF 		bl	nlcd_Line
 430:../libs/lcd_1100/nokia1100_lcd_lib.c **** 		nlcd_Line(x2, y1 + 1, x2, y2 - 1, pixel_mode);
 2599              		.loc 1 430 0
 2600 00c8 BB79     		ldrb	r3, [r7, #6]
 2601 00ca 03F10103 		add	r3, r3, #1
 2602 00ce D9B2     		uxtb	r1, r3
 2603 00d0 3B79     		ldrb	r3, [r7, #4]
 2604 00d2 03F1FF33 		add	r3, r3, #-1
 2605 00d6 DBB2     		uxtb	r3, r3
 2606 00d8 7879     		ldrb	r0, [r7, #5]	@ zero_extendqisi2
 2607 00da 7A79     		ldrb	r2, [r7, #5]	@ zero_extendqisi2
 2608 00dc 97F82440 		ldrb	r4, [r7, #36]	@ zero_extendqisi2
 2609 00e0 0094     		str	r4, [sp, #0]
 2610 00e2 FFF7FEFF 		bl	nlcd_Line
 2611              	.L80:
 431:../libs/lcd_1100/nokia1100_lcd_lib.c **** 	}
 432:../libs/lcd_1100/nokia1100_lcd_lib.c **** }
 2612              		.loc 1 432 0
 2613 00e6 07F11407 		add	r7, r7, #20
 2614 00ea BD46     		mov	sp, r7
 2615 00ec 90BD     		pop	{r4, r7, pc}
 2616              		.cfi_endproc
 2617              	.LFE44:
 2619 00ee 00BF     		.section	.text.nlcd_Pict,"ax",%progbits
 2620              		.align	2
 2621              		.global	nlcd_Pict
 2622              		.thumb
 2623              		.thumb_func
 2625              	nlcd_Pict:
 2626              	.LFB45:
 433:../libs/lcd_1100/nokia1100_lcd_lib.c **** 
 434:../libs/lcd_1100/nokia1100_lcd_lib.c **** //******************************************************************************
 435:../libs/lcd_1100/nokia1100_lcd_lib.c **** // Вывод картинки на LCD-экран NOKIA 1100
 436:../libs/lcd_1100/nokia1100_lcd_lib.c **** //  x: 0..95  координата верхнего левого угла по горизонтали (отсчет от верхнего левого угла экрана
 437:../libs/lcd_1100/nokia1100_lcd_lib.c **** //	y: 0..64  координата верхнего левого угла по вертикали
 438:../libs/lcd_1100/nokia1100_lcd_lib.c **** //  picture: указатель на массив с монохромной картинкой, первые 2 байта указывают соответственно
 439:../libs/lcd_1100/nokia1100_lcd_lib.c **** //			 размер картинки по горизонтали и вертикали 
 440:../libs/lcd_1100/nokia1100_lcd_lib.c **** void nlcd_Pict(uint8_t x, uint8_t y, uint8_t * picture) {
 2627              		.loc 1 440 0
 2628              		.cfi_startproc
 2629              		@ args = 0, pretend = 0, frame = 24
 2630              		@ frame_needed = 1, uses_anonymous_args = 0
 2631 0000 80B5     		push	{r7, lr}
 2632              	.LCFI48:
 2633              		.cfi_def_cfa_offset 8
 2634              		.cfi_offset 7, -8
 2635              		.cfi_offset 14, -4
 2636 0002 86B0     		sub	sp, sp, #24
 2637              	.LCFI49:
 2638              		.cfi_def_cfa_offset 32
 2639 0004 00AF     		add	r7, sp, #0
 2640              	.LCFI50:
 2641              		.cfi_def_cfa_register 7
 2642 0006 0B46     		mov	r3, r1
 2643 0008 3A60     		str	r2, [r7, #0]
 2644 000a 0246     		mov	r2, r0
 2645 000c FA71     		strb	r2, [r7, #7]
 2646 000e BB71     		strb	r3, [r7, #6]
 441:../libs/lcd_1100/nokia1100_lcd_lib.c **** 	uint8_t pict_width = picture[0]; // ширина спрайта в пикселах
 2647              		.loc 1 441 0
 2648 0010 3B68     		ldr	r3, [r7, #0]
 2649 0012 1B78     		ldrb	r3, [r3, #0]
 2650 0014 7B74     		strb	r3, [r7, #17]
 442:../libs/lcd_1100/nokia1100_lcd_lib.c **** 	uint8_t pict_height = picture[1]; // высота спрайта в пикселах
 2651              		.loc 1 442 0
 2652 0016 3B68     		ldr	r3, [r7, #0]
 2653 0018 5B78     		ldrb	r3, [r3, #1]
 2654 001a 3B74     		strb	r3, [r7, #16]
 443:../libs/lcd_1100/nokia1100_lcd_lib.c **** 	uint8_t pict_height_bank = pict_height / 8
 2655              		.loc 1 443 0
 2656 001c 3B7C     		ldrb	r3, [r7, #16]	@ zero_extendqisi2
 2657 001e 4FEAD303 		lsr	r3, r3, #3
 2658 0022 DAB2     		uxtb	r2, r3
 444:../libs/lcd_1100/nokia1100_lcd_lib.c **** 			+ ((pict_height % 8) > 0 ? 1 : 0); // высота спрайта в банках
 2659              		.loc 1 444 0
 2660 0024 3B7C     		ldrb	r3, [r7, #16]
 2661 0026 03F00703 		and	r3, r3, #7
 2662 002a DBB2     		uxtb	r3, r3
 2663 002c 002B     		cmp	r3, #0
 2664 002e 0CBF     		ite	eq
 2665 0030 0023     		moveq	r3, #0
 2666 0032 0123     		movne	r3, #1
 2667 0034 DBB2     		uxtb	r3, r3
 443:../libs/lcd_1100/nokia1100_lcd_lib.c **** 	uint8_t pict_height_bank = pict_height / 8
 2668              		.loc 1 443 0
 2669 0036 D318     		adds	r3, r2, r3
 2670 0038 FB73     		strb	r3, [r7, #15]
 445:../libs/lcd_1100/nokia1100_lcd_lib.c **** 	uint8_t y_pos_in_bank = y / 8 + ((y % 8) > 0 ? 1 : 0); // позиция по y в банках (строках по 8 пикс
 2671              		.loc 1 445 0
 2672 003a BB79     		ldrb	r3, [r7, #6]	@ zero_extendqisi2
 2673 003c 4FEAD303 		lsr	r3, r3, #3
 2674 0040 DAB2     		uxtb	r2, r3
 2675 0042 BB79     		ldrb	r3, [r7, #6]
 2676 0044 03F00703 		and	r3, r3, #7
 2677 0048 DBB2     		uxtb	r3, r3
 2678 004a 002B     		cmp	r3, #0
 2679 004c 0CBF     		ite	eq
 2680 004e 0023     		moveq	r3, #0
 2681 0050 0123     		movne	r3, #1
 2682 0052 DBB2     		uxtb	r3, r3
 2683 0054 D318     		adds	r3, r2, r3
 2684 0056 BB73     		strb	r3, [r7, #14]
 446:../libs/lcd_1100/nokia1100_lcd_lib.c **** 
 447:../libs/lcd_1100/nokia1100_lcd_lib.c **** 	int adr = 2; // индекс текущего байта в массиве с картинкой
 2685              		.loc 1 447 0
 2686 0058 4FF00203 		mov	r3, #2
 2687 005c 7B61     		str	r3, [r7, #20]
 2688              	.LBB7:
 448:../libs/lcd_1100/nokia1100_lcd_lib.c **** 
 449:../libs/lcd_1100/nokia1100_lcd_lib.c **** 	for (uint8_t i = 0; i < pict_height_bank; i++) { // проход построчно (по банкам)
 2689              		.loc 1 449 0
 2690 005e 4FF00003 		mov	r3, #0
 2691 0062 FB74     		strb	r3, [r7, #19]
 2692 0064 58E0     		b	.L92
 2693              	.L97:
 450:../libs/lcd_1100/nokia1100_lcd_lib.c **** 
 451:../libs/lcd_1100/nokia1100_lcd_lib.c **** 		if (i < ((NLCD_Y_RES / 8) + 1)) // не выводить картинку за пределами экрана
 2694              		.loc 1 451 0
 2695 0066 FB7C     		ldrb	r3, [r7, #19]	@ zero_extendqisi2
 2696 0068 082B     		cmp	r3, #8
 2697 006a 51D8     		bhi	.L93
 452:../libs/lcd_1100/nokia1100_lcd_lib.c **** 				{
 453:../libs/lcd_1100/nokia1100_lcd_lib.c **** 			//позиционирование на новую строку
 454:../libs/lcd_1100/nokia1100_lcd_lib.c **** 			nlcd_xcurr = x;
 2698              		.loc 1 454 0
 2699 006c 2E4B     		ldr	r3, .L98
 2700 006e FA79     		ldrb	r2, [r7, #7]
 2701 0070 1A70     		strb	r2, [r3, #0]
 455:../libs/lcd_1100/nokia1100_lcd_lib.c **** 			nlcd_ycurr = y_pos_in_bank + i;
 2702              		.loc 1 455 0
 2703 0072 BA7B     		ldrb	r2, [r7, #14]
 2704 0074 FB7C     		ldrb	r3, [r7, #19]
 2705 0076 D318     		adds	r3, r2, r3
 2706 0078 DAB2     		uxtb	r2, r3
 2707 007a 2C4B     		ldr	r3, .L98+4
 2708 007c 1A70     		strb	r2, [r3, #0]
 456:../libs/lcd_1100/nokia1100_lcd_lib.c **** 
 457:../libs/lcd_1100/nokia1100_lcd_lib.c **** 			nlcd_SendByte(CMD_LCD_MODE, (0xB0 | ((y_pos_in_bank + i) & 0x0F))); // установка адреса по Y: 01
 2709              		.loc 1 457 0
 2710 007e BA7B     		ldrb	r2, [r7, #14]
 2711 0080 FB7C     		ldrb	r3, [r7, #19]
 2712 0082 D318     		adds	r3, r2, r3
 2713 0084 DBB2     		uxtb	r3, r3
 2714 0086 DBB2     		uxtb	r3, r3
 2715 0088 03F00F03 		and	r3, r3, #15
 2716 008c DBB2     		uxtb	r3, r3
 2717 008e 63F04F03 		orn	r3, r3, #79
 2718 0092 DBB2     		uxtb	r3, r3
 2719 0094 DBB2     		uxtb	r3, r3
 2720 0096 4FF00000 		mov	r0, #0
 2721 009a 1946     		mov	r1, r3
 2722 009c FFF7FEFF 		bl	nlcd_SendByte
 458:../libs/lcd_1100/nokia1100_lcd_lib.c **** 			nlcd_SendByte(CMD_LCD_MODE, (0x00 | (x & 0x0F))); // установка адреса по X: 0000 xxxx - биты (x3
 2723              		.loc 1 458 0
 2724 00a0 FB79     		ldrb	r3, [r7, #7]
 2725 00a2 03F00F03 		and	r3, r3, #15
 2726 00a6 DBB2     		uxtb	r3, r3
 2727 00a8 4FF00000 		mov	r0, #0
 2728 00ac 1946     		mov	r1, r3
 2729 00ae FFF7FEFF 		bl	nlcd_SendByte
 459:../libs/lcd_1100/nokia1100_lcd_lib.c **** 			nlcd_SendByte(CMD_LCD_MODE, (0x10 | ((x >> 4) & 0x07))); // установка адреса по X: 0010 0xxx - б
 2730              		.loc 1 459 0
 2731 00b2 FB79     		ldrb	r3, [r7, #7]	@ zero_extendqisi2
 2732 00b4 4FEA1313 		lsr	r3, r3, #4
 2733 00b8 DBB2     		uxtb	r3, r3
 2734 00ba DBB2     		uxtb	r3, r3
 2735 00bc 03F00703 		and	r3, r3, #7
 2736 00c0 DBB2     		uxtb	r3, r3
 2737 00c2 43F01003 		orr	r3, r3, #16
 2738 00c6 DBB2     		uxtb	r3, r3
 2739 00c8 DBB2     		uxtb	r3, r3
 2740 00ca 4FF00000 		mov	r0, #0
 2741 00ce 1946     		mov	r1, r3
 2742 00d0 FFF7FEFF 		bl	nlcd_SendByte
 2743              	.LBB8:
 460:../libs/lcd_1100/nokia1100_lcd_lib.c **** 
 461:../libs/lcd_1100/nokia1100_lcd_lib.c **** 			//вывод строки
 462:../libs/lcd_1100/nokia1100_lcd_lib.c **** 			for (uint8_t j = 0; j < pict_width; j++) {
 2744              		.loc 1 462 0
 2745 00d4 4FF00003 		mov	r3, #0
 2746 00d8 BB74     		strb	r3, [r7, #18]
 2747 00da 15E0     		b	.L94
 2748              	.L96:
 463:../libs/lcd_1100/nokia1100_lcd_lib.c **** 				if ((x + j) < NLCD_X_RES)
 2749              		.loc 1 463 0
 2750 00dc FA79     		ldrb	r2, [r7, #7]	@ zero_extendqisi2
 2751 00de BB7C     		ldrb	r3, [r7, #18]	@ zero_extendqisi2
 2752 00e0 D318     		adds	r3, r2, r3
 2753 00e2 5F2B     		cmp	r3, #95
 2754 00e4 08DC     		bgt	.L95
 464:../libs/lcd_1100/nokia1100_lcd_lib.c **** 					nlcd_SendByte(DATA_LCD_MODE,
 465:../libs/lcd_1100/nokia1100_lcd_lib.c **** 							picture[adr]); // не выводить картинку за пределами экрана
 2755              		.loc 1 465 0
 2756 00e6 7B69     		ldr	r3, [r7, #20]
 2757 00e8 3A68     		ldr	r2, [r7, #0]
 2758 00ea D318     		adds	r3, r2, r3
 464:../libs/lcd_1100/nokia1100_lcd_lib.c **** 					nlcd_SendByte(DATA_LCD_MODE,
 2759              		.loc 1 464 0
 2760 00ec 1B78     		ldrb	r3, [r3, #0]	@ zero_extendqisi2
 2761 00ee 4FF00100 		mov	r0, #1
 2762 00f2 1946     		mov	r1, r3
 2763 00f4 FFF7FEFF 		bl	nlcd_SendByte
 2764              	.L95:
 466:../libs/lcd_1100/nokia1100_lcd_lib.c **** 				adr++;
 2765              		.loc 1 466 0
 2766 00f8 7B69     		ldr	r3, [r7, #20]
 2767 00fa 03F10103 		add	r3, r3, #1
 2768 00fe 7B61     		str	r3, [r7, #20]
 462:../libs/lcd_1100/nokia1100_lcd_lib.c **** 			for (uint8_t j = 0; j < pict_width; j++) {
 2769              		.loc 1 462 0
 2770 0100 BB7C     		ldrb	r3, [r7, #18]
 2771 0102 03F10103 		add	r3, r3, #1
 2772 0106 BB74     		strb	r3, [r7, #18]
 2773              	.L94:
 462:../libs/lcd_1100/nokia1100_lcd_lib.c **** 			for (uint8_t j = 0; j < pict_width; j++) {
 2774              		.loc 1 462 0 is_stmt 0 discriminator 1
 2775 0108 BA7C     		ldrb	r2, [r7, #18]	@ zero_extendqisi2
 2776 010a 7B7C     		ldrb	r3, [r7, #17]	@ zero_extendqisi2
 2777 010c 9A42     		cmp	r2, r3
 2778 010e E5D3     		bcc	.L96
 2779              	.L93:
 2780              	.LBE8:
 449:../libs/lcd_1100/nokia1100_lcd_lib.c **** 	for (uint8_t i = 0; i < pict_height_bank; i++) { // проход построчно (по банкам)
 2781              		.loc 1 449 0 is_stmt 1
 2782 0110 FB7C     		ldrb	r3, [r7, #19]
 2783 0112 03F10103 		add	r3, r3, #1
 2784 0116 FB74     		strb	r3, [r7, #19]
 2785              	.L92:
 449:../libs/lcd_1100/nokia1100_lcd_lib.c **** 	for (uint8_t i = 0; i < pict_height_bank; i++) { // проход построчно (по банкам)
 2786              		.loc 1 449 0 is_stmt 0 discriminator 1
 2787 0118 FA7C     		ldrb	r2, [r7, #19]	@ zero_extendqisi2
 2788 011a FB7B     		ldrb	r3, [r7, #15]	@ zero_extendqisi2
 2789 011c 9A42     		cmp	r2, r3
 2790 011e A2D3     		bcc	.L97
 2791              	.LBE7:
 467:../libs/lcd_1100/nokia1100_lcd_lib.c **** 			}
 468:../libs/lcd_1100/nokia1100_lcd_lib.c **** 		}
 469:../libs/lcd_1100/nokia1100_lcd_lib.c **** 	}
 470:../libs/lcd_1100/nokia1100_lcd_lib.c **** }
 2792              		.loc 1 470 0 is_stmt 1
 2793 0120 07F11807 		add	r7, r7, #24
 2794 0124 BD46     		mov	sp, r7
 2795 0126 80BD     		pop	{r7, pc}
 2796              	.L99:
 2797              		.align	2
 2798              	.L98:
 2799 0128 00000000 		.word	nlcd_xcurr
 2800 012c 00000000 		.word	nlcd_ycurr
 2801              		.cfi_endproc
 2802              	.LFE45:
 2804              		.text
 2805              	.Letext0:
 2806              		.file 2 "d:\\programs\\working\\stmprograms\\codebench\\bin\\../lib/gcc/arm-none-eabi/4.7.3/../../
 2807              		.file 3 "D:\\PROGRAMMING\\stm\\stm-discovery_test_project\\libs\\CMSIS/stm32f10x.h"
 2808              		.file 4 "D:\\PROGRAMMING\\stm\\stm-discovery_test_project\\libs\\StdPeripheralDriver\\inc/stm32f10
 2809              		.file 5 "../libs/lcd_1100/nokia1100_lcd_lib.h"
 2810              		.file 6 "D:\\PROGRAMMING\\stm\\stm-discovery_test_project\\libs\\CMSIS/core_cm3.h"
 2811              		.file 7 "../libs/lcd_1100/nokia1100_lcd_font.h"