   1              		.syntax unified
   2              		.cpu cortex-m3
   3              		.fpu softvfp
   4              		.eabi_attribute 20, 1
   5              		.eabi_attribute 21, 1
   6              		.eabi_attribute 23, 3
   7              		.eabi_attribute 24, 1
   8              		.eabi_attribute 25, 1
   9              		.eabi_attribute 26, 1
  10              		.eabi_attribute 30, 6
  11              		.eabi_attribute 34, 1
  12              		.eabi_attribute 18, 4
  13              		.thumb
  14              		.file	"stm32f10x_gpio.c"
  15              		.text
  16              	.Ltext0:
  17              		.cfi_sections	.debug_frame
  18              		.section	.text.GPIO_DeInit,"ax",%progbits
  19              		.align	2
  20              		.global	GPIO_DeInit
  21              		.thumb
  22              		.thumb_func
  24              	GPIO_DeInit:
  25              	.LFB29:
  26              		.file 1 "../libs/StdPeripheralDriver/src/stm32f10x_gpio.c"
   1:../libs/StdPeripheralDriver/src/stm32f10x_gpio.c **** /**
   2:../libs/StdPeripheralDriver/src/stm32f10x_gpio.c ****   ******************************************************************************
   3:../libs/StdPeripheralDriver/src/stm32f10x_gpio.c ****   * @file    stm32f10x_gpio.c
   4:../libs/StdPeripheralDriver/src/stm32f10x_gpio.c ****   * @author  MCD Application Team
   5:../libs/StdPeripheralDriver/src/stm32f10x_gpio.c ****   * @version V3.5.0
   6:../libs/StdPeripheralDriver/src/stm32f10x_gpio.c ****   * @date    11-March-2011
   7:../libs/StdPeripheralDriver/src/stm32f10x_gpio.c ****   * @brief   This file provides all the GPIO firmware functions.
   8:../libs/StdPeripheralDriver/src/stm32f10x_gpio.c ****   ******************************************************************************
   9:../libs/StdPeripheralDriver/src/stm32f10x_gpio.c ****   * @attention
  10:../libs/StdPeripheralDriver/src/stm32f10x_gpio.c ****   *
  11:../libs/StdPeripheralDriver/src/stm32f10x_gpio.c ****   * THE PRESENT FIRMWARE WHICH IS FOR GUIDANCE ONLY AIMS AT PROVIDING CUSTOMERS
  12:../libs/StdPeripheralDriver/src/stm32f10x_gpio.c ****   * WITH CODING INFORMATION REGARDING THEIR PRODUCTS IN ORDER FOR THEM TO SAVE
  13:../libs/StdPeripheralDriver/src/stm32f10x_gpio.c ****   * TIME. AS A RESULT, STMICROELECTRONICS SHALL NOT BE HELD LIABLE FOR ANY
  14:../libs/StdPeripheralDriver/src/stm32f10x_gpio.c ****   * DIRECT, INDIRECT OR CONSEQUENTIAL DAMAGES WITH RESPECT TO ANY CLAIMS ARISING
  15:../libs/StdPeripheralDriver/src/stm32f10x_gpio.c ****   * FROM THE CONTENT OF SUCH FIRMWARE AND/OR THE USE MADE BY CUSTOMERS OF THE
  16:../libs/StdPeripheralDriver/src/stm32f10x_gpio.c ****   * CODING INFORMATION CONTAINED HEREIN IN CONNECTION WITH THEIR PRODUCTS.
  17:../libs/StdPeripheralDriver/src/stm32f10x_gpio.c ****   *
  18:../libs/StdPeripheralDriver/src/stm32f10x_gpio.c ****   * <h2><center>&copy; COPYRIGHT 2011 STMicroelectronics</center></h2>
  19:../libs/StdPeripheralDriver/src/stm32f10x_gpio.c ****   ******************************************************************************
  20:../libs/StdPeripheralDriver/src/stm32f10x_gpio.c ****   */
  21:../libs/StdPeripheralDriver/src/stm32f10x_gpio.c **** 
  22:../libs/StdPeripheralDriver/src/stm32f10x_gpio.c **** /* Includes ------------------------------------------------------------------*/
  23:../libs/StdPeripheralDriver/src/stm32f10x_gpio.c **** #include "stm32f10x_gpio.h"
  24:../libs/StdPeripheralDriver/src/stm32f10x_gpio.c **** #include "stm32f10x_rcc.h"
  25:../libs/StdPeripheralDriver/src/stm32f10x_gpio.c **** 
  26:../libs/StdPeripheralDriver/src/stm32f10x_gpio.c **** /** @addtogroup STM32F10x_StdPeriph_Driver
  27:../libs/StdPeripheralDriver/src/stm32f10x_gpio.c ****   * @{
  28:../libs/StdPeripheralDriver/src/stm32f10x_gpio.c ****   */
  29:../libs/StdPeripheralDriver/src/stm32f10x_gpio.c **** 
  30:../libs/StdPeripheralDriver/src/stm32f10x_gpio.c **** /** @defgroup GPIO 
  31:../libs/StdPeripheralDriver/src/stm32f10x_gpio.c ****   * @brief GPIO driver modules
  32:../libs/StdPeripheralDriver/src/stm32f10x_gpio.c ****   * @{
  33:../libs/StdPeripheralDriver/src/stm32f10x_gpio.c ****   */ 
  34:../libs/StdPeripheralDriver/src/stm32f10x_gpio.c **** 
  35:../libs/StdPeripheralDriver/src/stm32f10x_gpio.c **** /** @defgroup GPIO_Private_TypesDefinitions
  36:../libs/StdPeripheralDriver/src/stm32f10x_gpio.c ****   * @{
  37:../libs/StdPeripheralDriver/src/stm32f10x_gpio.c ****   */
  38:../libs/StdPeripheralDriver/src/stm32f10x_gpio.c **** 
  39:../libs/StdPeripheralDriver/src/stm32f10x_gpio.c **** /**
  40:../libs/StdPeripheralDriver/src/stm32f10x_gpio.c ****   * @}
  41:../libs/StdPeripheralDriver/src/stm32f10x_gpio.c ****   */
  42:../libs/StdPeripheralDriver/src/stm32f10x_gpio.c **** 
  43:../libs/StdPeripheralDriver/src/stm32f10x_gpio.c **** /** @defgroup GPIO_Private_Defines
  44:../libs/StdPeripheralDriver/src/stm32f10x_gpio.c ****   * @{
  45:../libs/StdPeripheralDriver/src/stm32f10x_gpio.c ****   */
  46:../libs/StdPeripheralDriver/src/stm32f10x_gpio.c **** 
  47:../libs/StdPeripheralDriver/src/stm32f10x_gpio.c **** /* ------------ RCC registers bit address in the alias region ----------------*/
  48:../libs/StdPeripheralDriver/src/stm32f10x_gpio.c **** #define AFIO_OFFSET                 (AFIO_BASE - PERIPH_BASE)
  49:../libs/StdPeripheralDriver/src/stm32f10x_gpio.c **** 
  50:../libs/StdPeripheralDriver/src/stm32f10x_gpio.c **** /* --- EVENTCR Register -----*/
  51:../libs/StdPeripheralDriver/src/stm32f10x_gpio.c **** 
  52:../libs/StdPeripheralDriver/src/stm32f10x_gpio.c **** /* Alias word address of EVOE bit */
  53:../libs/StdPeripheralDriver/src/stm32f10x_gpio.c **** #define EVCR_OFFSET                 (AFIO_OFFSET + 0x00)
  54:../libs/StdPeripheralDriver/src/stm32f10x_gpio.c **** #define EVOE_BitNumber              ((uint8_t)0x07)
  55:../libs/StdPeripheralDriver/src/stm32f10x_gpio.c **** #define EVCR_EVOE_BB                (PERIPH_BB_BASE + (EVCR_OFFSET * 32) + (EVOE_BitNumber * 4))
  56:../libs/StdPeripheralDriver/src/stm32f10x_gpio.c **** 
  57:../libs/StdPeripheralDriver/src/stm32f10x_gpio.c **** 
  58:../libs/StdPeripheralDriver/src/stm32f10x_gpio.c **** /* ---  MAPR Register ---*/ 
  59:../libs/StdPeripheralDriver/src/stm32f10x_gpio.c **** /* Alias word address of MII_RMII_SEL bit */ 
  60:../libs/StdPeripheralDriver/src/stm32f10x_gpio.c **** #define MAPR_OFFSET                 (AFIO_OFFSET + 0x04) 
  61:../libs/StdPeripheralDriver/src/stm32f10x_gpio.c **** #define MII_RMII_SEL_BitNumber      ((u8)0x17) 
  62:../libs/StdPeripheralDriver/src/stm32f10x_gpio.c **** #define MAPR_MII_RMII_SEL_BB        (PERIPH_BB_BASE + (MAPR_OFFSET * 32) + (MII_RMII_SEL_BitNumber 
  63:../libs/StdPeripheralDriver/src/stm32f10x_gpio.c **** 
  64:../libs/StdPeripheralDriver/src/stm32f10x_gpio.c **** 
  65:../libs/StdPeripheralDriver/src/stm32f10x_gpio.c **** #define EVCR_PORTPINCONFIG_MASK     ((uint16_t)0xFF80)
  66:../libs/StdPeripheralDriver/src/stm32f10x_gpio.c **** #define LSB_MASK                    ((uint16_t)0xFFFF)
  67:../libs/StdPeripheralDriver/src/stm32f10x_gpio.c **** #define DBGAFR_POSITION_MASK        ((uint32_t)0x000F0000)
  68:../libs/StdPeripheralDriver/src/stm32f10x_gpio.c **** #define DBGAFR_SWJCFG_MASK          ((uint32_t)0xF0FFFFFF)
  69:../libs/StdPeripheralDriver/src/stm32f10x_gpio.c **** #define DBGAFR_LOCATION_MASK        ((uint32_t)0x00200000)
  70:../libs/StdPeripheralDriver/src/stm32f10x_gpio.c **** #define DBGAFR_NUMBITS_MASK         ((uint32_t)0x00100000)
  71:../libs/StdPeripheralDriver/src/stm32f10x_gpio.c **** /**
  72:../libs/StdPeripheralDriver/src/stm32f10x_gpio.c ****   * @}
  73:../libs/StdPeripheralDriver/src/stm32f10x_gpio.c ****   */
  74:../libs/StdPeripheralDriver/src/stm32f10x_gpio.c **** 
  75:../libs/StdPeripheralDriver/src/stm32f10x_gpio.c **** /** @defgroup GPIO_Private_Macros
  76:../libs/StdPeripheralDriver/src/stm32f10x_gpio.c ****   * @{
  77:../libs/StdPeripheralDriver/src/stm32f10x_gpio.c ****   */
  78:../libs/StdPeripheralDriver/src/stm32f10x_gpio.c **** 
  79:../libs/StdPeripheralDriver/src/stm32f10x_gpio.c **** /**
  80:../libs/StdPeripheralDriver/src/stm32f10x_gpio.c ****   * @}
  81:../libs/StdPeripheralDriver/src/stm32f10x_gpio.c ****   */
  82:../libs/StdPeripheralDriver/src/stm32f10x_gpio.c **** 
  83:../libs/StdPeripheralDriver/src/stm32f10x_gpio.c **** /** @defgroup GPIO_Private_Variables
  84:../libs/StdPeripheralDriver/src/stm32f10x_gpio.c ****   * @{
  85:../libs/StdPeripheralDriver/src/stm32f10x_gpio.c ****   */
  86:../libs/StdPeripheralDriver/src/stm32f10x_gpio.c **** 
  87:../libs/StdPeripheralDriver/src/stm32f10x_gpio.c **** /**
  88:../libs/StdPeripheralDriver/src/stm32f10x_gpio.c ****   * @}
  89:../libs/StdPeripheralDriver/src/stm32f10x_gpio.c ****   */
  90:../libs/StdPeripheralDriver/src/stm32f10x_gpio.c **** 
  91:../libs/StdPeripheralDriver/src/stm32f10x_gpio.c **** /** @defgroup GPIO_Private_FunctionPrototypes
  92:../libs/StdPeripheralDriver/src/stm32f10x_gpio.c ****   * @{
  93:../libs/StdPeripheralDriver/src/stm32f10x_gpio.c ****   */
  94:../libs/StdPeripheralDriver/src/stm32f10x_gpio.c **** 
  95:../libs/StdPeripheralDriver/src/stm32f10x_gpio.c **** /**
  96:../libs/StdPeripheralDriver/src/stm32f10x_gpio.c ****   * @}
  97:../libs/StdPeripheralDriver/src/stm32f10x_gpio.c ****   */
  98:../libs/StdPeripheralDriver/src/stm32f10x_gpio.c **** 
  99:../libs/StdPeripheralDriver/src/stm32f10x_gpio.c **** /** @defgroup GPIO_Private_Functions
 100:../libs/StdPeripheralDriver/src/stm32f10x_gpio.c ****   * @{
 101:../libs/StdPeripheralDriver/src/stm32f10x_gpio.c ****   */
 102:../libs/StdPeripheralDriver/src/stm32f10x_gpio.c **** 
 103:../libs/StdPeripheralDriver/src/stm32f10x_gpio.c **** /**
 104:../libs/StdPeripheralDriver/src/stm32f10x_gpio.c ****   * @brief  Deinitializes the GPIOx peripheral registers to their default reset values.
 105:../libs/StdPeripheralDriver/src/stm32f10x_gpio.c ****   * @param  GPIOx: where x can be (A..G) to select the GPIO peripheral.
 106:../libs/StdPeripheralDriver/src/stm32f10x_gpio.c ****   * @retval None
 107:../libs/StdPeripheralDriver/src/stm32f10x_gpio.c ****   */
 108:../libs/StdPeripheralDriver/src/stm32f10x_gpio.c **** void GPIO_DeInit(GPIO_TypeDef* GPIOx)
 109:../libs/StdPeripheralDriver/src/stm32f10x_gpio.c **** {
  27              		.loc 1 109 0
  28              		.cfi_startproc
  29              		@ args = 0, pretend = 0, frame = 8
  30              		@ frame_needed = 1, uses_anonymous_args = 0
  31 0000 80B5     		push	{r7, lr}
  32              	.LCFI0:
  33              		.cfi_def_cfa_offset 8
  34              		.cfi_offset 7, -8
  35              		.cfi_offset 14, -4
  36 0002 82B0     		sub	sp, sp, #8
  37              	.LCFI1:
  38              		.cfi_def_cfa_offset 16
  39 0004 00AF     		add	r7, sp, #0
  40              	.LCFI2:
  41              		.cfi_def_cfa_register 7
  42 0006 7860     		str	r0, [r7, #4]
 110:../libs/StdPeripheralDriver/src/stm32f10x_gpio.c ****   /* Check the parameters */
 111:../libs/StdPeripheralDriver/src/stm32f10x_gpio.c ****   assert_param(IS_GPIO_ALL_PERIPH(GPIOx));
  43              		.loc 1 111 0
  44 0008 7A68     		ldr	r2, [r7, #4]
  45 000a 4E4B     		ldr	r3, .L12
  46 000c 9A42     		cmp	r2, r3
  47 000e 17D0     		beq	.L2
  48              		.loc 1 111 0 is_stmt 0 discriminator 2
  49 0010 7A68     		ldr	r2, [r7, #4]
  50 0012 4D4B     		ldr	r3, .L12+4
  51 0014 9A42     		cmp	r2, r3
  52 0016 13D0     		beq	.L2
  53              		.loc 1 111 0 discriminator 1
  54 0018 7A68     		ldr	r2, [r7, #4]
  55 001a 4C4B     		ldr	r3, .L12+8
  56 001c 9A42     		cmp	r2, r3
  57 001e 0FD0     		beq	.L2
  58              		.loc 1 111 0 discriminator 2
  59 0020 7A68     		ldr	r2, [r7, #4]
  60 0022 4B4B     		ldr	r3, .L12+12
  61 0024 9A42     		cmp	r2, r3
  62 0026 0BD0     		beq	.L2
  63              		.loc 1 111 0 discriminator 3
  64 0028 7A68     		ldr	r2, [r7, #4]
  65 002a 4A4B     		ldr	r3, .L12+16
  66 002c 9A42     		cmp	r2, r3
  67 002e 07D0     		beq	.L2
  68              		.loc 1 111 0 discriminator 4
  69 0030 7A68     		ldr	r2, [r7, #4]
  70 0032 494B     		ldr	r3, .L12+20
  71 0034 9A42     		cmp	r2, r3
  72 0036 03D0     		beq	.L2
  73              		.loc 1 111 0 discriminator 5
  74 0038 7A68     		ldr	r2, [r7, #4]
  75 003a 484B     		ldr	r3, .L12+24
  76 003c 9A42     		cmp	r2, r3
  77 003e 02D1     		bne	.L3
  78              	.L2:
  79              		.loc 1 111 0 discriminator 1
  80 0040 4FF00103 		mov	r3, #1
  81 0044 01E0     		b	.L4
  82              	.L3:
  83              		.loc 1 111 0 discriminator 3
  84 0046 4FF00003 		mov	r3, #0
  85              	.L4:
  86              		.loc 1 111 0 discriminator 4
  87 004a 1846     		mov	r0, r3
  88 004c FFF7FEFF 		bl	assert_param
 112:../libs/StdPeripheralDriver/src/stm32f10x_gpio.c ****   
 113:../libs/StdPeripheralDriver/src/stm32f10x_gpio.c ****   if (GPIOx == GPIOA)
  89              		.loc 1 113 0 is_stmt 1 discriminator 4
  90 0050 7A68     		ldr	r2, [r7, #4]
  91 0052 3C4B     		ldr	r3, .L12
  92 0054 9A42     		cmp	r2, r3
  93 0056 0CD1     		bne	.L5
 114:../libs/StdPeripheralDriver/src/stm32f10x_gpio.c ****   {
 115:../libs/StdPeripheralDriver/src/stm32f10x_gpio.c ****     RCC_APB2PeriphResetCmd(RCC_APB2Periph_GPIOA, ENABLE);
  94              		.loc 1 115 0
  95 0058 4FF00400 		mov	r0, #4
  96 005c 4FF00101 		mov	r1, #1
  97 0060 FFF7FEFF 		bl	RCC_APB2PeriphResetCmd
 116:../libs/StdPeripheralDriver/src/stm32f10x_gpio.c ****     RCC_APB2PeriphResetCmd(RCC_APB2Periph_GPIOA, DISABLE);
  98              		.loc 1 116 0
  99 0064 4FF00400 		mov	r0, #4
 100 0068 4FF00001 		mov	r1, #0
 101 006c FFF7FEFF 		bl	RCC_APB2PeriphResetCmd
 102 0070 64E0     		b	.L1
 103              	.L5:
 117:../libs/StdPeripheralDriver/src/stm32f10x_gpio.c ****   }
 118:../libs/StdPeripheralDriver/src/stm32f10x_gpio.c ****   else if (GPIOx == GPIOB)
 104              		.loc 1 118 0
 105 0072 7A68     		ldr	r2, [r7, #4]
 106 0074 344B     		ldr	r3, .L12+4
 107 0076 9A42     		cmp	r2, r3
 108 0078 0CD1     		bne	.L7
 119:../libs/StdPeripheralDriver/src/stm32f10x_gpio.c ****   {
 120:../libs/StdPeripheralDriver/src/stm32f10x_gpio.c ****     RCC_APB2PeriphResetCmd(RCC_APB2Periph_GPIOB, ENABLE);
 109              		.loc 1 120 0
 110 007a 4FF00800 		mov	r0, #8
 111 007e 4FF00101 		mov	r1, #1
 112 0082 FFF7FEFF 		bl	RCC_APB2PeriphResetCmd
 121:../libs/StdPeripheralDriver/src/stm32f10x_gpio.c ****     RCC_APB2PeriphResetCmd(RCC_APB2Periph_GPIOB, DISABLE);
 113              		.loc 1 121 0
 114 0086 4FF00800 		mov	r0, #8
 115 008a 4FF00001 		mov	r1, #0
 116 008e FFF7FEFF 		bl	RCC_APB2PeriphResetCmd
 117 0092 53E0     		b	.L1
 118              	.L7:
 122:../libs/StdPeripheralDriver/src/stm32f10x_gpio.c ****   }
 123:../libs/StdPeripheralDriver/src/stm32f10x_gpio.c ****   else if (GPIOx == GPIOC)
 119              		.loc 1 123 0
 120 0094 7A68     		ldr	r2, [r7, #4]
 121 0096 2D4B     		ldr	r3, .L12+8
 122 0098 9A42     		cmp	r2, r3
 123 009a 0CD1     		bne	.L8
 124:../libs/StdPeripheralDriver/src/stm32f10x_gpio.c ****   {
 125:../libs/StdPeripheralDriver/src/stm32f10x_gpio.c ****     RCC_APB2PeriphResetCmd(RCC_APB2Periph_GPIOC, ENABLE);
 124              		.loc 1 125 0
 125 009c 4FF01000 		mov	r0, #16
 126 00a0 4FF00101 		mov	r1, #1
 127 00a4 FFF7FEFF 		bl	RCC_APB2PeriphResetCmd
 126:../libs/StdPeripheralDriver/src/stm32f10x_gpio.c ****     RCC_APB2PeriphResetCmd(RCC_APB2Periph_GPIOC, DISABLE);
 128              		.loc 1 126 0
 129 00a8 4FF01000 		mov	r0, #16
 130 00ac 4FF00001 		mov	r1, #0
 131 00b0 FFF7FEFF 		bl	RCC_APB2PeriphResetCmd
 132 00b4 42E0     		b	.L1
 133              	.L8:
 127:../libs/StdPeripheralDriver/src/stm32f10x_gpio.c ****   }
 128:../libs/StdPeripheralDriver/src/stm32f10x_gpio.c ****   else if (GPIOx == GPIOD)
 134              		.loc 1 128 0
 135 00b6 7A68     		ldr	r2, [r7, #4]
 136 00b8 254B     		ldr	r3, .L12+12
 137 00ba 9A42     		cmp	r2, r3
 138 00bc 0CD1     		bne	.L9
 129:../libs/StdPeripheralDriver/src/stm32f10x_gpio.c ****   {
 130:../libs/StdPeripheralDriver/src/stm32f10x_gpio.c ****     RCC_APB2PeriphResetCmd(RCC_APB2Periph_GPIOD, ENABLE);
 139              		.loc 1 130 0
 140 00be 4FF02000 		mov	r0, #32
 141 00c2 4FF00101 		mov	r1, #1
 142 00c6 FFF7FEFF 		bl	RCC_APB2PeriphResetCmd
 131:../libs/StdPeripheralDriver/src/stm32f10x_gpio.c ****     RCC_APB2PeriphResetCmd(RCC_APB2Periph_GPIOD, DISABLE);
 143              		.loc 1 131 0
 144 00ca 4FF02000 		mov	r0, #32
 145 00ce 4FF00001 		mov	r1, #0
 146 00d2 FFF7FEFF 		bl	RCC_APB2PeriphResetCmd
 147 00d6 31E0     		b	.L1
 148              	.L9:
 132:../libs/StdPeripheralDriver/src/stm32f10x_gpio.c ****   }    
 133:../libs/StdPeripheralDriver/src/stm32f10x_gpio.c ****   else if (GPIOx == GPIOE)
 149              		.loc 1 133 0
 150 00d8 7A68     		ldr	r2, [r7, #4]
 151 00da 1E4B     		ldr	r3, .L12+16
 152 00dc 9A42     		cmp	r2, r3
 153 00de 0CD1     		bne	.L10
 134:../libs/StdPeripheralDriver/src/stm32f10x_gpio.c ****   {
 135:../libs/StdPeripheralDriver/src/stm32f10x_gpio.c ****     RCC_APB2PeriphResetCmd(RCC_APB2Periph_GPIOE, ENABLE);
 154              		.loc 1 135 0
 155 00e0 4FF04000 		mov	r0, #64
 156 00e4 4FF00101 		mov	r1, #1
 157 00e8 FFF7FEFF 		bl	RCC_APB2PeriphResetCmd
 136:../libs/StdPeripheralDriver/src/stm32f10x_gpio.c ****     RCC_APB2PeriphResetCmd(RCC_APB2Periph_GPIOE, DISABLE);
 158              		.loc 1 136 0
 159 00ec 4FF04000 		mov	r0, #64
 160 00f0 4FF00001 		mov	r1, #0
 161 00f4 FFF7FEFF 		bl	RCC_APB2PeriphResetCmd
 162 00f8 20E0     		b	.L1
 163              	.L10:
 137:../libs/StdPeripheralDriver/src/stm32f10x_gpio.c ****   } 
 138:../libs/StdPeripheralDriver/src/stm32f10x_gpio.c ****   else if (GPIOx == GPIOF)
 164              		.loc 1 138 0
 165 00fa 7A68     		ldr	r2, [r7, #4]
 166 00fc 164B     		ldr	r3, .L12+20
 167 00fe 9A42     		cmp	r2, r3
 168 0100 0CD1     		bne	.L11
 139:../libs/StdPeripheralDriver/src/stm32f10x_gpio.c ****   {
 140:../libs/StdPeripheralDriver/src/stm32f10x_gpio.c ****     RCC_APB2PeriphResetCmd(RCC_APB2Periph_GPIOF, ENABLE);
 169              		.loc 1 140 0
 170 0102 4FF08000 		mov	r0, #128
 171 0106 4FF00101 		mov	r1, #1
 172 010a FFF7FEFF 		bl	RCC_APB2PeriphResetCmd
 141:../libs/StdPeripheralDriver/src/stm32f10x_gpio.c ****     RCC_APB2PeriphResetCmd(RCC_APB2Periph_GPIOF, DISABLE);
 173              		.loc 1 141 0
 174 010e 4FF08000 		mov	r0, #128
 175 0112 4FF00001 		mov	r1, #0
 176 0116 FFF7FEFF 		bl	RCC_APB2PeriphResetCmd
 177 011a 0FE0     		b	.L1
 178              	.L11:
 142:../libs/StdPeripheralDriver/src/stm32f10x_gpio.c ****   }
 143:../libs/StdPeripheralDriver/src/stm32f10x_gpio.c ****   else
 144:../libs/StdPeripheralDriver/src/stm32f10x_gpio.c ****   {
 145:../libs/StdPeripheralDriver/src/stm32f10x_gpio.c ****     if (GPIOx == GPIOG)
 179              		.loc 1 145 0
 180 011c 7A68     		ldr	r2, [r7, #4]
 181 011e 0F4B     		ldr	r3, .L12+24
 182 0120 9A42     		cmp	r2, r3
 183 0122 0BD1     		bne	.L1
 146:../libs/StdPeripheralDriver/src/stm32f10x_gpio.c ****     {
 147:../libs/StdPeripheralDriver/src/stm32f10x_gpio.c ****       RCC_APB2PeriphResetCmd(RCC_APB2Periph_GPIOG, ENABLE);
 184              		.loc 1 147 0
 185 0124 4FF48070 		mov	r0, #256
 186 0128 4FF00101 		mov	r1, #1
 187 012c FFF7FEFF 		bl	RCC_APB2PeriphResetCmd
 148:../libs/StdPeripheralDriver/src/stm32f10x_gpio.c ****       RCC_APB2PeriphResetCmd(RCC_APB2Periph_GPIOG, DISABLE);
 188              		.loc 1 148 0
 189 0130 4FF48070 		mov	r0, #256
 190 0134 4FF00001 		mov	r1, #0
 191 0138 FFF7FEFF 		bl	RCC_APB2PeriphResetCmd
 192              	.L1:
 149:../libs/StdPeripheralDriver/src/stm32f10x_gpio.c ****     }
 150:../libs/StdPeripheralDriver/src/stm32f10x_gpio.c ****   }
 151:../libs/StdPeripheralDriver/src/stm32f10x_gpio.c **** }
 193              		.loc 1 151 0
 194 013c 07F10807 		add	r7, r7, #8
 195 0140 BD46     		mov	sp, r7
 196 0142 80BD     		pop	{r7, pc}
 197              	.L13:
 198              		.align	2
 199              	.L12:
 200 0144 00080140 		.word	1073809408
 201 0148 000C0140 		.word	1073810432
 202 014c 00100140 		.word	1073811456
 203 0150 00140140 		.word	1073812480
 204 0154 00180140 		.word	1073813504
 205 0158 001C0140 		.word	1073814528
 206 015c 00200140 		.word	1073815552
 207              		.cfi_endproc
 208              	.LFE29:
 210              		.section	.text.GPIO_AFIODeInit,"ax",%progbits
 211              		.align	2
 212              		.global	GPIO_AFIODeInit
 213              		.thumb
 214              		.thumb_func
 216              	GPIO_AFIODeInit:
 217              	.LFB30:
 152:../libs/StdPeripheralDriver/src/stm32f10x_gpio.c **** 
 153:../libs/StdPeripheralDriver/src/stm32f10x_gpio.c **** /**
 154:../libs/StdPeripheralDriver/src/stm32f10x_gpio.c ****   * @brief  Deinitializes the Alternate Functions (remap, event control
 155:../libs/StdPeripheralDriver/src/stm32f10x_gpio.c ****   *   and EXTI configuration) registers to their default reset values.
 156:../libs/StdPeripheralDriver/src/stm32f10x_gpio.c ****   * @param  None
 157:../libs/StdPeripheralDriver/src/stm32f10x_gpio.c ****   * @retval None
 158:../libs/StdPeripheralDriver/src/stm32f10x_gpio.c ****   */
 159:../libs/StdPeripheralDriver/src/stm32f10x_gpio.c **** void GPIO_AFIODeInit(void)
 160:../libs/StdPeripheralDriver/src/stm32f10x_gpio.c **** {
 218              		.loc 1 160 0
 219              		.cfi_startproc
 220              		@ args = 0, pretend = 0, frame = 0
 221              		@ frame_needed = 1, uses_anonymous_args = 0
 222 0000 80B5     		push	{r7, lr}
 223              	.LCFI3:
 224              		.cfi_def_cfa_offset 8
 225              		.cfi_offset 7, -8
 226              		.cfi_offset 14, -4
 227 0002 00AF     		add	r7, sp, #0
 228              	.LCFI4:
 229              		.cfi_def_cfa_register 7
 161:../libs/StdPeripheralDriver/src/stm32f10x_gpio.c ****   RCC_APB2PeriphResetCmd(RCC_APB2Periph_AFIO, ENABLE);
 230              		.loc 1 161 0
 231 0004 4FF00100 		mov	r0, #1
 232 0008 4FF00101 		mov	r1, #1
 233 000c FFF7FEFF 		bl	RCC_APB2PeriphResetCmd
 162:../libs/StdPeripheralDriver/src/stm32f10x_gpio.c ****   RCC_APB2PeriphResetCmd(RCC_APB2Periph_AFIO, DISABLE);
 234              		.loc 1 162 0
 235 0010 4FF00100 		mov	r0, #1
 236 0014 4FF00001 		mov	r1, #0
 237 0018 FFF7FEFF 		bl	RCC_APB2PeriphResetCmd
 163:../libs/StdPeripheralDriver/src/stm32f10x_gpio.c **** }
 238              		.loc 1 163 0
 239 001c 80BD     		pop	{r7, pc}
 240              		.cfi_endproc
 241              	.LFE30:
 243 001e 00BF     		.section	.text.GPIO_Init,"ax",%progbits
 244              		.align	2
 245              		.global	GPIO_Init
 246              		.thumb
 247              		.thumb_func
 249              	GPIO_Init:
 250              	.LFB31:
 164:../libs/StdPeripheralDriver/src/stm32f10x_gpio.c **** 
 165:../libs/StdPeripheralDriver/src/stm32f10x_gpio.c **** /**
 166:../libs/StdPeripheralDriver/src/stm32f10x_gpio.c ****   * @brief  Initializes the GPIOx peripheral according to the specified
 167:../libs/StdPeripheralDriver/src/stm32f10x_gpio.c ****   *         parameters in the GPIO_InitStruct.
 168:../libs/StdPeripheralDriver/src/stm32f10x_gpio.c ****   * @param  GPIOx: where x can be (A..G) to select the GPIO peripheral.
 169:../libs/StdPeripheralDriver/src/stm32f10x_gpio.c ****   * @param  GPIO_InitStruct: pointer to a GPIO_InitTypeDef structure that
 170:../libs/StdPeripheralDriver/src/stm32f10x_gpio.c ****   *         contains the configuration information for the specified GPIO peripheral.
 171:../libs/StdPeripheralDriver/src/stm32f10x_gpio.c ****   * @retval None
 172:../libs/StdPeripheralDriver/src/stm32f10x_gpio.c ****   */
 173:../libs/StdPeripheralDriver/src/stm32f10x_gpio.c **** void GPIO_Init(GPIO_TypeDef* GPIOx, GPIO_InitTypeDef* GPIO_InitStruct)
 174:../libs/StdPeripheralDriver/src/stm32f10x_gpio.c **** {
 251              		.loc 1 174 0
 252              		.cfi_startproc
 253              		@ args = 0, pretend = 0, frame = 32
 254              		@ frame_needed = 1, uses_anonymous_args = 0
 255 0000 80B5     		push	{r7, lr}
 256              	.LCFI5:
 257              		.cfi_def_cfa_offset 8
 258              		.cfi_offset 7, -8
 259              		.cfi_offset 14, -4
 260 0002 88B0     		sub	sp, sp, #32
 261              	.LCFI6:
 262              		.cfi_def_cfa_offset 40
 263 0004 00AF     		add	r7, sp, #0
 264              	.LCFI7:
 265              		.cfi_def_cfa_register 7
 266 0006 7860     		str	r0, [r7, #4]
 267 0008 3960     		str	r1, [r7, #0]
 175:../libs/StdPeripheralDriver/src/stm32f10x_gpio.c ****   uint32_t currentmode = 0x00, currentpin = 0x00, pinpos = 0x00, pos = 0x00;
 268              		.loc 1 175 0
 269 000a 4FF00003 		mov	r3, #0
 270 000e FB61     		str	r3, [r7, #28]
 271 0010 4FF00003 		mov	r3, #0
 272 0014 3B61     		str	r3, [r7, #16]
 273 0016 4FF00003 		mov	r3, #0
 274 001a BB61     		str	r3, [r7, #24]
 275 001c 4FF00003 		mov	r3, #0
 276 0020 FB60     		str	r3, [r7, #12]
 176:../libs/StdPeripheralDriver/src/stm32f10x_gpio.c ****   uint32_t tmpreg = 0x00, pinmask = 0x00;
 277              		.loc 1 176 0
 278 0022 4FF00003 		mov	r3, #0
 279 0026 7B61     		str	r3, [r7, #20]
 280 0028 4FF00003 		mov	r3, #0
 281 002c BB60     		str	r3, [r7, #8]
 177:../libs/StdPeripheralDriver/src/stm32f10x_gpio.c ****   /* Check the parameters */
 178:../libs/StdPeripheralDriver/src/stm32f10x_gpio.c ****   assert_param(IS_GPIO_ALL_PERIPH(GPIOx));
 282              		.loc 1 178 0
 283 002e 7A68     		ldr	r2, [r7, #4]
 284 0030 944B     		ldr	r3, .L36
 285 0032 9A42     		cmp	r2, r3
 286 0034 17D0     		beq	.L16
 287              		.loc 1 178 0 is_stmt 0 discriminator 2
 288 0036 7A68     		ldr	r2, [r7, #4]
 289 0038 934B     		ldr	r3, .L36+4
 290 003a 9A42     		cmp	r2, r3
 291 003c 13D0     		beq	.L16
 292              		.loc 1 178 0 discriminator 1
 293 003e 7A68     		ldr	r2, [r7, #4]
 294 0040 924B     		ldr	r3, .L36+8
 295 0042 9A42     		cmp	r2, r3
 296 0044 0FD0     		beq	.L16
 297              		.loc 1 178 0 discriminator 2
 298 0046 7A68     		ldr	r2, [r7, #4]
 299 0048 914B     		ldr	r3, .L36+12
 300 004a 9A42     		cmp	r2, r3
 301 004c 0BD0     		beq	.L16
 302              		.loc 1 178 0 discriminator 3
 303 004e 7A68     		ldr	r2, [r7, #4]
 304 0050 904B     		ldr	r3, .L36+16
 305 0052 9A42     		cmp	r2, r3
 306 0054 07D0     		beq	.L16
 307              		.loc 1 178 0 discriminator 4
 308 0056 7A68     		ldr	r2, [r7, #4]
 309 0058 8F4B     		ldr	r3, .L36+20
 310 005a 9A42     		cmp	r2, r3
 311 005c 03D0     		beq	.L16
 312              		.loc 1 178 0 discriminator 5
 313 005e 7A68     		ldr	r2, [r7, #4]
 314 0060 8E4B     		ldr	r3, .L36+24
 315 0062 9A42     		cmp	r2, r3
 316 0064 02D1     		bne	.L17
 317              	.L16:
 318              		.loc 1 178 0 discriminator 1
 319 0066 4FF00103 		mov	r3, #1
 320 006a 01E0     		b	.L18
 321              	.L17:
 322              		.loc 1 178 0 discriminator 3
 323 006c 4FF00003 		mov	r3, #0
 324              	.L18:
 325              		.loc 1 178 0 discriminator 4
 326 0070 1846     		mov	r0, r3
 327 0072 FFF7FEFF 		bl	assert_param
 179:../libs/StdPeripheralDriver/src/stm32f10x_gpio.c ****   assert_param(IS_GPIO_MODE(GPIO_InitStruct->GPIO_Mode));
 328              		.loc 1 179 0 is_stmt 1 discriminator 4
 329 0076 3B68     		ldr	r3, [r7, #0]
 330 0078 DB78     		ldrb	r3, [r3, #3]	@ zero_extendqisi2
 331 007a 002B     		cmp	r3, #0
 332 007c 1BD0     		beq	.L19
 333              		.loc 1 179 0 is_stmt 0 discriminator 2
 334 007e 3B68     		ldr	r3, [r7, #0]
 335 0080 DB78     		ldrb	r3, [r3, #3]	@ zero_extendqisi2
 336 0082 042B     		cmp	r3, #4
 337 0084 17D0     		beq	.L19
 338              		.loc 1 179 0 discriminator 1
 339 0086 3B68     		ldr	r3, [r7, #0]
 340 0088 DB78     		ldrb	r3, [r3, #3]	@ zero_extendqisi2
 341 008a 282B     		cmp	r3, #40
 342 008c 13D0     		beq	.L19
 343              		.loc 1 179 0 discriminator 2
 344 008e 3B68     		ldr	r3, [r7, #0]
 345 0090 DB78     		ldrb	r3, [r3, #3]	@ zero_extendqisi2
 346 0092 482B     		cmp	r3, #72
 347 0094 0FD0     		beq	.L19
 348              		.loc 1 179 0 discriminator 3
 349 0096 3B68     		ldr	r3, [r7, #0]
 350 0098 DB78     		ldrb	r3, [r3, #3]	@ zero_extendqisi2
 351 009a 142B     		cmp	r3, #20
 352 009c 0BD0     		beq	.L19
 353              		.loc 1 179 0 discriminator 4
 354 009e 3B68     		ldr	r3, [r7, #0]
 355 00a0 DB78     		ldrb	r3, [r3, #3]	@ zero_extendqisi2
 356 00a2 102B     		cmp	r3, #16
 357 00a4 07D0     		beq	.L19
 358              		.loc 1 179 0 discriminator 5
 359 00a6 3B68     		ldr	r3, [r7, #0]
 360 00a8 DB78     		ldrb	r3, [r3, #3]	@ zero_extendqisi2
 361 00aa 1C2B     		cmp	r3, #28
 362 00ac 03D0     		beq	.L19
 363              		.loc 1 179 0 discriminator 6
 364 00ae 3B68     		ldr	r3, [r7, #0]
 365 00b0 DB78     		ldrb	r3, [r3, #3]	@ zero_extendqisi2
 366 00b2 182B     		cmp	r3, #24
 367 00b4 02D1     		bne	.L20
 368              	.L19:
 369              		.loc 1 179 0 discriminator 1
 370 00b6 4FF00103 		mov	r3, #1
 371 00ba 01E0     		b	.L21
 372              	.L20:
 373              		.loc 1 179 0 discriminator 3
 374 00bc 4FF00003 		mov	r3, #0
 375              	.L21:
 376              		.loc 1 179 0 discriminator 4
 377 00c0 1846     		mov	r0, r3
 378 00c2 FFF7FEFF 		bl	assert_param
 180:../libs/StdPeripheralDriver/src/stm32f10x_gpio.c ****   assert_param(IS_GPIO_PIN(GPIO_InitStruct->GPIO_Pin));  
 379              		.loc 1 180 0 is_stmt 1 discriminator 4
 380 00c6 3B68     		ldr	r3, [r7, #0]
 381 00c8 1B88     		ldrh	r3, [r3, #0]
 382 00ca 002B     		cmp	r3, #0
 383 00cc 0CBF     		ite	eq
 384 00ce 0023     		moveq	r3, #0
 385 00d0 0123     		movne	r3, #1
 386 00d2 DBB2     		uxtb	r3, r3
 387 00d4 1846     		mov	r0, r3
 388 00d6 FFF7FEFF 		bl	assert_param
 181:../libs/StdPeripheralDriver/src/stm32f10x_gpio.c ****   
 182:../libs/StdPeripheralDriver/src/stm32f10x_gpio.c **** /*---------------------------- GPIO Mode Configuration -----------------------*/
 183:../libs/StdPeripheralDriver/src/stm32f10x_gpio.c ****   currentmode = ((uint32_t)GPIO_InitStruct->GPIO_Mode) & ((uint32_t)0x0F);
 389              		.loc 1 183 0 discriminator 4
 390 00da 3B68     		ldr	r3, [r7, #0]
 391 00dc DB78     		ldrb	r3, [r3, #3]	@ zero_extendqisi2
 392 00de 03F00F03 		and	r3, r3, #15
 393 00e2 FB61     		str	r3, [r7, #28]
 184:../libs/StdPeripheralDriver/src/stm32f10x_gpio.c ****   if ((((uint32_t)GPIO_InitStruct->GPIO_Mode) & ((uint32_t)0x10)) != 0x00)
 394              		.loc 1 184 0 discriminator 4
 395 00e4 3B68     		ldr	r3, [r7, #0]
 396 00e6 DB78     		ldrb	r3, [r3, #3]	@ zero_extendqisi2
 397 00e8 03F01003 		and	r3, r3, #16
 398 00ec 002B     		cmp	r3, #0
 399 00ee 18D0     		beq	.L22
 185:../libs/StdPeripheralDriver/src/stm32f10x_gpio.c ****   { 
 186:../libs/StdPeripheralDriver/src/stm32f10x_gpio.c ****     /* Check the parameters */
 187:../libs/StdPeripheralDriver/src/stm32f10x_gpio.c ****     assert_param(IS_GPIO_SPEED(GPIO_InitStruct->GPIO_Speed));
 400              		.loc 1 187 0
 401 00f0 3B68     		ldr	r3, [r7, #0]
 402 00f2 9B78     		ldrb	r3, [r3, #2]	@ zero_extendqisi2
 403 00f4 012B     		cmp	r3, #1
 404 00f6 07D0     		beq	.L23
 405              		.loc 1 187 0 is_stmt 0 discriminator 2
 406 00f8 3B68     		ldr	r3, [r7, #0]
 407 00fa 9B78     		ldrb	r3, [r3, #2]	@ zero_extendqisi2
 408 00fc 022B     		cmp	r3, #2
 409 00fe 03D0     		beq	.L23
 410              		.loc 1 187 0 discriminator 1
 411 0100 3B68     		ldr	r3, [r7, #0]
 412 0102 9B78     		ldrb	r3, [r3, #2]	@ zero_extendqisi2
 413 0104 032B     		cmp	r3, #3
 414 0106 02D1     		bne	.L24
 415              	.L23:
 416 0108 4FF00103 		mov	r3, #1
 417 010c 01E0     		b	.L25
 418              	.L24:
 419              		.loc 1 187 0 discriminator 3
 420 010e 4FF00003 		mov	r3, #0
 421              	.L25:
 422              		.loc 1 187 0 discriminator 4
 423 0112 1846     		mov	r0, r3
 424 0114 FFF7FEFF 		bl	assert_param
 188:../libs/StdPeripheralDriver/src/stm32f10x_gpio.c ****     /* Output mode */
 189:../libs/StdPeripheralDriver/src/stm32f10x_gpio.c ****     currentmode |= (uint32_t)GPIO_InitStruct->GPIO_Speed;
 425              		.loc 1 189 0 is_stmt 1 discriminator 4
 426 0118 3B68     		ldr	r3, [r7, #0]
 427 011a 9B78     		ldrb	r3, [r3, #2]	@ zero_extendqisi2
 428 011c FA69     		ldr	r2, [r7, #28]
 429 011e 1343     		orrs	r3, r3, r2
 430 0120 FB61     		str	r3, [r7, #28]
 431              	.L22:
 190:../libs/StdPeripheralDriver/src/stm32f10x_gpio.c ****   }
 191:../libs/StdPeripheralDriver/src/stm32f10x_gpio.c **** /*---------------------------- GPIO CRL Configuration ------------------------*/
 192:../libs/StdPeripheralDriver/src/stm32f10x_gpio.c ****   /* Configure the eight low port pins */
 193:../libs/StdPeripheralDriver/src/stm32f10x_gpio.c ****   if (((uint32_t)GPIO_InitStruct->GPIO_Pin & ((uint32_t)0x00FF)) != 0x00)
 432              		.loc 1 193 0
 433 0122 3B68     		ldr	r3, [r7, #0]
 434 0124 1B88     		ldrh	r3, [r3, #0]
 435 0126 DBB2     		uxtb	r3, r3
 436 0128 002B     		cmp	r3, #0
 437 012a 4ED0     		beq	.L26
 194:../libs/StdPeripheralDriver/src/stm32f10x_gpio.c ****   {
 195:../libs/StdPeripheralDriver/src/stm32f10x_gpio.c ****     tmpreg = GPIOx->CRL;
 438              		.loc 1 195 0
 439 012c 7B68     		ldr	r3, [r7, #4]
 440 012e 1B68     		ldr	r3, [r3, #0]
 441 0130 7B61     		str	r3, [r7, #20]
 196:../libs/StdPeripheralDriver/src/stm32f10x_gpio.c ****     for (pinpos = 0x00; pinpos < 0x08; pinpos++)
 442              		.loc 1 196 0
 443 0132 4FF00003 		mov	r3, #0
 444 0136 BB61     		str	r3, [r7, #24]
 445 0138 41E0     		b	.L27
 446              	.L30:
 197:../libs/StdPeripheralDriver/src/stm32f10x_gpio.c ****     {
 198:../libs/StdPeripheralDriver/src/stm32f10x_gpio.c ****       pos = ((uint32_t)0x01) << pinpos;
 447              		.loc 1 198 0
 448 013a BB69     		ldr	r3, [r7, #24]
 449 013c 4FF00102 		mov	r2, #1
 450 0140 02FA03F3 		lsl	r3, r2, r3
 451 0144 FB60     		str	r3, [r7, #12]
 199:../libs/StdPeripheralDriver/src/stm32f10x_gpio.c ****       /* Get the port pins position */
 200:../libs/StdPeripheralDriver/src/stm32f10x_gpio.c ****       currentpin = (GPIO_InitStruct->GPIO_Pin) & pos;
 452              		.loc 1 200 0
 453 0146 3B68     		ldr	r3, [r7, #0]
 454 0148 1B88     		ldrh	r3, [r3, #0]
 455 014a 1A46     		mov	r2, r3
 456 014c FB68     		ldr	r3, [r7, #12]
 457 014e 1340     		ands	r3, r3, r2
 458 0150 3B61     		str	r3, [r7, #16]
 201:../libs/StdPeripheralDriver/src/stm32f10x_gpio.c ****       if (currentpin == pos)
 459              		.loc 1 201 0
 460 0152 3A69     		ldr	r2, [r7, #16]
 461 0154 FB68     		ldr	r3, [r7, #12]
 462 0156 9A42     		cmp	r2, r3
 463 0158 2DD1     		bne	.L28
 202:../libs/StdPeripheralDriver/src/stm32f10x_gpio.c ****       {
 203:../libs/StdPeripheralDriver/src/stm32f10x_gpio.c ****         pos = pinpos << 2;
 464              		.loc 1 203 0
 465 015a BB69     		ldr	r3, [r7, #24]
 466 015c 4FEA8303 		lsl	r3, r3, #2
 467 0160 FB60     		str	r3, [r7, #12]
 204:../libs/StdPeripheralDriver/src/stm32f10x_gpio.c ****         /* Clear the corresponding low control register bits */
 205:../libs/StdPeripheralDriver/src/stm32f10x_gpio.c ****         pinmask = ((uint32_t)0x0F) << pos;
 468              		.loc 1 205 0
 469 0162 FB68     		ldr	r3, [r7, #12]
 470 0164 4FF00F02 		mov	r2, #15
 471 0168 02FA03F3 		lsl	r3, r2, r3
 472 016c BB60     		str	r3, [r7, #8]
 206:../libs/StdPeripheralDriver/src/stm32f10x_gpio.c ****         tmpreg &= ~pinmask;
 473              		.loc 1 206 0
 474 016e BB68     		ldr	r3, [r7, #8]
 475 0170 6FEA0303 		mvn	r3, r3
 476 0174 7A69     		ldr	r2, [r7, #20]
 477 0176 1340     		ands	r3, r3, r2
 478 0178 7B61     		str	r3, [r7, #20]
 207:../libs/StdPeripheralDriver/src/stm32f10x_gpio.c ****         /* Write the mode configuration in the corresponding bits */
 208:../libs/StdPeripheralDriver/src/stm32f10x_gpio.c ****         tmpreg |= (currentmode << pos);
 479              		.loc 1 208 0
 480 017a FB68     		ldr	r3, [r7, #12]
 481 017c FA69     		ldr	r2, [r7, #28]
 482 017e 02FA03F3 		lsl	r3, r2, r3
 483 0182 7A69     		ldr	r2, [r7, #20]
 484 0184 1343     		orrs	r3, r3, r2
 485 0186 7B61     		str	r3, [r7, #20]
 209:../libs/StdPeripheralDriver/src/stm32f10x_gpio.c ****         /* Reset the corresponding ODR bit */
 210:../libs/StdPeripheralDriver/src/stm32f10x_gpio.c ****         if (GPIO_InitStruct->GPIO_Mode == GPIO_Mode_IPD)
 486              		.loc 1 210 0
 487 0188 3B68     		ldr	r3, [r7, #0]
 488 018a DB78     		ldrb	r3, [r3, #3]	@ zero_extendqisi2
 489 018c 282B     		cmp	r3, #40
 490 018e 07D1     		bne	.L29
 211:../libs/StdPeripheralDriver/src/stm32f10x_gpio.c ****         {
 212:../libs/StdPeripheralDriver/src/stm32f10x_gpio.c ****           GPIOx->BRR = (((uint32_t)0x01) << pinpos);
 491              		.loc 1 212 0
 492 0190 BB69     		ldr	r3, [r7, #24]
 493 0192 4FF00102 		mov	r2, #1
 494 0196 02FA03F2 		lsl	r2, r2, r3
 495 019a 7B68     		ldr	r3, [r7, #4]
 496 019c 5A61     		str	r2, [r3, #20]
 497 019e 0AE0     		b	.L28
 498              	.L29:
 213:../libs/StdPeripheralDriver/src/stm32f10x_gpio.c ****         }
 214:../libs/StdPeripheralDriver/src/stm32f10x_gpio.c ****         else
 215:../libs/StdPeripheralDriver/src/stm32f10x_gpio.c ****         {
 216:../libs/StdPeripheralDriver/src/stm32f10x_gpio.c ****           /* Set the corresponding ODR bit */
 217:../libs/StdPeripheralDriver/src/stm32f10x_gpio.c ****           if (GPIO_InitStruct->GPIO_Mode == GPIO_Mode_IPU)
 499              		.loc 1 217 0
 500 01a0 3B68     		ldr	r3, [r7, #0]
 501 01a2 DB78     		ldrb	r3, [r3, #3]	@ zero_extendqisi2
 502 01a4 482B     		cmp	r3, #72
 503 01a6 06D1     		bne	.L28
 218:../libs/StdPeripheralDriver/src/stm32f10x_gpio.c ****           {
 219:../libs/StdPeripheralDriver/src/stm32f10x_gpio.c ****             GPIOx->BSRR = (((uint32_t)0x01) << pinpos);
 504              		.loc 1 219 0
 505 01a8 BB69     		ldr	r3, [r7, #24]
 506 01aa 4FF00102 		mov	r2, #1
 507 01ae 02FA03F2 		lsl	r2, r2, r3
 508 01b2 7B68     		ldr	r3, [r7, #4]
 509 01b4 1A61     		str	r2, [r3, #16]
 510              	.L28:
 196:../libs/StdPeripheralDriver/src/stm32f10x_gpio.c ****     for (pinpos = 0x00; pinpos < 0x08; pinpos++)
 511              		.loc 1 196 0
 512 01b6 BB69     		ldr	r3, [r7, #24]
 513 01b8 03F10103 		add	r3, r3, #1
 514 01bc BB61     		str	r3, [r7, #24]
 515              	.L27:
 196:../libs/StdPeripheralDriver/src/stm32f10x_gpio.c ****     for (pinpos = 0x00; pinpos < 0x08; pinpos++)
 516              		.loc 1 196 0 is_stmt 0 discriminator 1
 517 01be BB69     		ldr	r3, [r7, #24]
 518 01c0 072B     		cmp	r3, #7
 519 01c2 BAD9     		bls	.L30
 220:../libs/StdPeripheralDriver/src/stm32f10x_gpio.c ****           }
 221:../libs/StdPeripheralDriver/src/stm32f10x_gpio.c ****         }
 222:../libs/StdPeripheralDriver/src/stm32f10x_gpio.c ****       }
 223:../libs/StdPeripheralDriver/src/stm32f10x_gpio.c ****     }
 224:../libs/StdPeripheralDriver/src/stm32f10x_gpio.c ****     GPIOx->CRL = tmpreg;
 520              		.loc 1 224 0 is_stmt 1
 521 01c4 7B68     		ldr	r3, [r7, #4]
 522 01c6 7A69     		ldr	r2, [r7, #20]
 523 01c8 1A60     		str	r2, [r3, #0]
 524              	.L26:
 225:../libs/StdPeripheralDriver/src/stm32f10x_gpio.c ****   }
 226:../libs/StdPeripheralDriver/src/stm32f10x_gpio.c **** /*---------------------------- GPIO CRH Configuration ------------------------*/
 227:../libs/StdPeripheralDriver/src/stm32f10x_gpio.c ****   /* Configure the eight high port pins */
 228:../libs/StdPeripheralDriver/src/stm32f10x_gpio.c ****   if (GPIO_InitStruct->GPIO_Pin > 0x00FF)
 525              		.loc 1 228 0
 526 01ca 3B68     		ldr	r3, [r7, #0]
 527 01cc 1B88     		ldrh	r3, [r3, #0]
 528 01ce FF2B     		cmp	r3, #255
 529 01d0 53D9     		bls	.L15
 229:../libs/StdPeripheralDriver/src/stm32f10x_gpio.c ****   {
 230:../libs/StdPeripheralDriver/src/stm32f10x_gpio.c ****     tmpreg = GPIOx->CRH;
 530              		.loc 1 230 0
 531 01d2 7B68     		ldr	r3, [r7, #4]
 532 01d4 5B68     		ldr	r3, [r3, #4]
 533 01d6 7B61     		str	r3, [r7, #20]
 231:../libs/StdPeripheralDriver/src/stm32f10x_gpio.c ****     for (pinpos = 0x00; pinpos < 0x08; pinpos++)
 534              		.loc 1 231 0
 535 01d8 4FF00003 		mov	r3, #0
 536 01dc BB61     		str	r3, [r7, #24]
 537 01de 46E0     		b	.L32
 538              	.L35:
 232:../libs/StdPeripheralDriver/src/stm32f10x_gpio.c ****     {
 233:../libs/StdPeripheralDriver/src/stm32f10x_gpio.c ****       pos = (((uint32_t)0x01) << (pinpos + 0x08));
 539              		.loc 1 233 0
 540 01e0 BB69     		ldr	r3, [r7, #24]
 541 01e2 03F10803 		add	r3, r3, #8
 542 01e6 4FF00102 		mov	r2, #1
 543 01ea 02FA03F3 		lsl	r3, r2, r3
 544 01ee FB60     		str	r3, [r7, #12]
 234:../libs/StdPeripheralDriver/src/stm32f10x_gpio.c ****       /* Get the port pins position */
 235:../libs/StdPeripheralDriver/src/stm32f10x_gpio.c ****       currentpin = ((GPIO_InitStruct->GPIO_Pin) & pos);
 545              		.loc 1 235 0
 546 01f0 3B68     		ldr	r3, [r7, #0]
 547 01f2 1B88     		ldrh	r3, [r3, #0]
 548 01f4 1A46     		mov	r2, r3
 549 01f6 FB68     		ldr	r3, [r7, #12]
 550 01f8 1340     		ands	r3, r3, r2
 551 01fa 3B61     		str	r3, [r7, #16]
 236:../libs/StdPeripheralDriver/src/stm32f10x_gpio.c ****       if (currentpin == pos)
 552              		.loc 1 236 0
 553 01fc 3A69     		ldr	r2, [r7, #16]
 554 01fe FB68     		ldr	r3, [r7, #12]
 555 0200 9A42     		cmp	r2, r3
 556 0202 30D1     		bne	.L33
 237:../libs/StdPeripheralDriver/src/stm32f10x_gpio.c ****       {
 238:../libs/StdPeripheralDriver/src/stm32f10x_gpio.c ****         pos = pinpos << 2;
 557              		.loc 1 238 0
 558 0204 BB69     		ldr	r3, [r7, #24]
 559 0206 4FEA8303 		lsl	r3, r3, #2
 560 020a FB60     		str	r3, [r7, #12]
 239:../libs/StdPeripheralDriver/src/stm32f10x_gpio.c ****         /* Clear the corresponding high control register bits */
 240:../libs/StdPeripheralDriver/src/stm32f10x_gpio.c ****         pinmask = ((uint32_t)0x0F) << pos;
 561              		.loc 1 240 0
 562 020c FB68     		ldr	r3, [r7, #12]
 563 020e 4FF00F02 		mov	r2, #15
 564 0212 02FA03F3 		lsl	r3, r2, r3
 565 0216 BB60     		str	r3, [r7, #8]
 241:../libs/StdPeripheralDriver/src/stm32f10x_gpio.c ****         tmpreg &= ~pinmask;
 566              		.loc 1 241 0
 567 0218 BB68     		ldr	r3, [r7, #8]
 568 021a 6FEA0303 		mvn	r3, r3
 569 021e 7A69     		ldr	r2, [r7, #20]
 570 0220 1340     		ands	r3, r3, r2
 571 0222 7B61     		str	r3, [r7, #20]
 242:../libs/StdPeripheralDriver/src/stm32f10x_gpio.c ****         /* Write the mode configuration in the corresponding bits */
 243:../libs/StdPeripheralDriver/src/stm32f10x_gpio.c ****         tmpreg |= (currentmode << pos);
 572              		.loc 1 243 0
 573 0224 FB68     		ldr	r3, [r7, #12]
 574 0226 FA69     		ldr	r2, [r7, #28]
 575 0228 02FA03F3 		lsl	r3, r2, r3
 576 022c 7A69     		ldr	r2, [r7, #20]
 577 022e 1343     		orrs	r3, r3, r2
 578 0230 7B61     		str	r3, [r7, #20]
 244:../libs/StdPeripheralDriver/src/stm32f10x_gpio.c ****         /* Reset the corresponding ODR bit */
 245:../libs/StdPeripheralDriver/src/stm32f10x_gpio.c ****         if (GPIO_InitStruct->GPIO_Mode == GPIO_Mode_IPD)
 579              		.loc 1 245 0
 580 0232 3B68     		ldr	r3, [r7, #0]
 581 0234 DB78     		ldrb	r3, [r3, #3]	@ zero_extendqisi2
 582 0236 282B     		cmp	r3, #40
 583 0238 08D1     		bne	.L34
 246:../libs/StdPeripheralDriver/src/stm32f10x_gpio.c ****         {
 247:../libs/StdPeripheralDriver/src/stm32f10x_gpio.c ****           GPIOx->BRR = (((uint32_t)0x01) << (pinpos + 0x08));
 584              		.loc 1 247 0
 585 023a BB69     		ldr	r3, [r7, #24]
 586 023c 03F10803 		add	r3, r3, #8
 587 0240 4FF00102 		mov	r2, #1
 588 0244 02FA03F2 		lsl	r2, r2, r3
 589 0248 7B68     		ldr	r3, [r7, #4]
 590 024a 5A61     		str	r2, [r3, #20]
 591              	.L34:
 248:../libs/StdPeripheralDriver/src/stm32f10x_gpio.c ****         }
 249:../libs/StdPeripheralDriver/src/stm32f10x_gpio.c ****         /* Set the corresponding ODR bit */
 250:../libs/StdPeripheralDriver/src/stm32f10x_gpio.c ****         if (GPIO_InitStruct->GPIO_Mode == GPIO_Mode_IPU)
 592              		.loc 1 250 0
 593 024c 3B68     		ldr	r3, [r7, #0]
 594 024e DB78     		ldrb	r3, [r3, #3]	@ zero_extendqisi2
 595 0250 482B     		cmp	r3, #72
 596 0252 08D1     		bne	.L33
 251:../libs/StdPeripheralDriver/src/stm32f10x_gpio.c ****         {
 252:../libs/StdPeripheralDriver/src/stm32f10x_gpio.c ****           GPIOx->BSRR = (((uint32_t)0x01) << (pinpos + 0x08));
 597              		.loc 1 252 0
 598 0254 BB69     		ldr	r3, [r7, #24]
 599 0256 03F10803 		add	r3, r3, #8
 600 025a 4FF00102 		mov	r2, #1
 601 025e 02FA03F2 		lsl	r2, r2, r3
 602 0262 7B68     		ldr	r3, [r7, #4]
 603 0264 1A61     		str	r2, [r3, #16]
 604              	.L33:
 231:../libs/StdPeripheralDriver/src/stm32f10x_gpio.c ****     for (pinpos = 0x00; pinpos < 0x08; pinpos++)
 605              		.loc 1 231 0
 606 0266 BB69     		ldr	r3, [r7, #24]
 607 0268 03F10103 		add	r3, r3, #1
 608 026c BB61     		str	r3, [r7, #24]
 609              	.L32:
 231:../libs/StdPeripheralDriver/src/stm32f10x_gpio.c ****     for (pinpos = 0x00; pinpos < 0x08; pinpos++)
 610              		.loc 1 231 0 is_stmt 0 discriminator 1
 611 026e BB69     		ldr	r3, [r7, #24]
 612 0270 072B     		cmp	r3, #7
 613 0272 B5D9     		bls	.L35
 253:../libs/StdPeripheralDriver/src/stm32f10x_gpio.c ****         }
 254:../libs/StdPeripheralDriver/src/stm32f10x_gpio.c ****       }
 255:../libs/StdPeripheralDriver/src/stm32f10x_gpio.c ****     }
 256:../libs/StdPeripheralDriver/src/stm32f10x_gpio.c ****     GPIOx->CRH = tmpreg;
 614              		.loc 1 256 0 is_stmt 1
 615 0274 7B68     		ldr	r3, [r7, #4]
 616 0276 7A69     		ldr	r2, [r7, #20]
 617 0278 5A60     		str	r2, [r3, #4]
 618              	.L15:
 257:../libs/StdPeripheralDriver/src/stm32f10x_gpio.c ****   }
 258:../libs/StdPeripheralDriver/src/stm32f10x_gpio.c **** }
 619              		.loc 1 258 0
 620 027a 07F12007 		add	r7, r7, #32
 621 027e BD46     		mov	sp, r7
 622 0280 80BD     		pop	{r7, pc}
 623              	.L37:
 624 0282 00BF     		.align	2
 625              	.L36:
 626 0284 00080140 		.word	1073809408
 627 0288 000C0140 		.word	1073810432
 628 028c 00100140 		.word	1073811456
 629 0290 00140140 		.word	1073812480
 630 0294 00180140 		.word	1073813504
 631 0298 001C0140 		.word	1073814528
 632 029c 00200140 		.word	1073815552
 633              		.cfi_endproc
 634              	.LFE31:
 636              		.section	.text.GPIO_StructInit,"ax",%progbits
 637              		.align	2
 638              		.global	GPIO_StructInit
 639              		.thumb
 640              		.thumb_func
 642              	GPIO_StructInit:
 643              	.LFB32:
 259:../libs/StdPeripheralDriver/src/stm32f10x_gpio.c **** 
 260:../libs/StdPeripheralDriver/src/stm32f10x_gpio.c **** /**
 261:../libs/StdPeripheralDriver/src/stm32f10x_gpio.c ****   * @brief  Fills each GPIO_InitStruct member with its default value.
 262:../libs/StdPeripheralDriver/src/stm32f10x_gpio.c ****   * @param  GPIO_InitStruct : pointer to a GPIO_InitTypeDef structure which will
 263:../libs/StdPeripheralDriver/src/stm32f10x_gpio.c ****   *         be initialized.
 264:../libs/StdPeripheralDriver/src/stm32f10x_gpio.c ****   * @retval None
 265:../libs/StdPeripheralDriver/src/stm32f10x_gpio.c ****   */
 266:../libs/StdPeripheralDriver/src/stm32f10x_gpio.c **** void GPIO_StructInit(GPIO_InitTypeDef* GPIO_InitStruct)
 267:../libs/StdPeripheralDriver/src/stm32f10x_gpio.c **** {
 644              		.loc 1 267 0
 645              		.cfi_startproc
 646              		@ args = 0, pretend = 0, frame = 8
 647              		@ frame_needed = 1, uses_anonymous_args = 0
 648              		@ link register save eliminated.
 649 0000 80B4     		push	{r7}
 650              	.LCFI8:
 651              		.cfi_def_cfa_offset 4
 652              		.cfi_offset 7, -4
 653 0002 83B0     		sub	sp, sp, #12
 654              	.LCFI9:
 655              		.cfi_def_cfa_offset 16
 656 0004 00AF     		add	r7, sp, #0
 657              	.LCFI10:
 658              		.cfi_def_cfa_register 7
 659 0006 7860     		str	r0, [r7, #4]
 268:../libs/StdPeripheralDriver/src/stm32f10x_gpio.c ****   /* Reset GPIO init structure parameters values */
 269:../libs/StdPeripheralDriver/src/stm32f10x_gpio.c ****   GPIO_InitStruct->GPIO_Pin  = GPIO_Pin_All;
 660              		.loc 1 269 0
 661 0008 7B68     		ldr	r3, [r7, #4]
 662 000a 4FF6FF72 		movw	r2, #65535
 663 000e 1A80     		strh	r2, [r3, #0]	@ movhi
 270:../libs/StdPeripheralDriver/src/stm32f10x_gpio.c ****   GPIO_InitStruct->GPIO_Speed = GPIO_Speed_2MHz;
 664              		.loc 1 270 0
 665 0010 7B68     		ldr	r3, [r7, #4]
 666 0012 4FF00202 		mov	r2, #2
 667 0016 9A70     		strb	r2, [r3, #2]
 271:../libs/StdPeripheralDriver/src/stm32f10x_gpio.c ****   GPIO_InitStruct->GPIO_Mode = GPIO_Mode_IN_FLOATING;
 668              		.loc 1 271 0
 669 0018 7B68     		ldr	r3, [r7, #4]
 670 001a 4FF00402 		mov	r2, #4
 671 001e DA70     		strb	r2, [r3, #3]
 272:../libs/StdPeripheralDriver/src/stm32f10x_gpio.c **** }
 672              		.loc 1 272 0
 673 0020 07F10C07 		add	r7, r7, #12
 674 0024 BD46     		mov	sp, r7
 675 0026 80BC     		pop	{r7}
 676 0028 7047     		bx	lr
 677              		.cfi_endproc
 678              	.LFE32:
 680 002a 00BF     		.section	.text.GPIO_ReadInputDataBit,"ax",%progbits
 681              		.align	2
 682              		.global	GPIO_ReadInputDataBit
 683              		.thumb
 684              		.thumb_func
 686              	GPIO_ReadInputDataBit:
 687              	.LFB33:
 273:../libs/StdPeripheralDriver/src/stm32f10x_gpio.c **** 
 274:../libs/StdPeripheralDriver/src/stm32f10x_gpio.c **** /**
 275:../libs/StdPeripheralDriver/src/stm32f10x_gpio.c ****   * @brief  Reads the specified input port pin.
 276:../libs/StdPeripheralDriver/src/stm32f10x_gpio.c ****   * @param  GPIOx: where x can be (A..G) to select the GPIO peripheral.
 277:../libs/StdPeripheralDriver/src/stm32f10x_gpio.c ****   * @param  GPIO_Pin:  specifies the port bit to read.
 278:../libs/StdPeripheralDriver/src/stm32f10x_gpio.c ****   *   This parameter can be GPIO_Pin_x where x can be (0..15).
 279:../libs/StdPeripheralDriver/src/stm32f10x_gpio.c ****   * @retval The input port pin value.
 280:../libs/StdPeripheralDriver/src/stm32f10x_gpio.c ****   */
 281:../libs/StdPeripheralDriver/src/stm32f10x_gpio.c **** uint8_t GPIO_ReadInputDataBit(GPIO_TypeDef* GPIOx, uint16_t GPIO_Pin)
 282:../libs/StdPeripheralDriver/src/stm32f10x_gpio.c **** {
 688              		.loc 1 282 0
 689              		.cfi_startproc
 690              		@ args = 0, pretend = 0, frame = 16
 691              		@ frame_needed = 1, uses_anonymous_args = 0
 692 0000 80B5     		push	{r7, lr}
 693              	.LCFI11:
 694              		.cfi_def_cfa_offset 8
 695              		.cfi_offset 7, -8
 696              		.cfi_offset 14, -4
 697 0002 84B0     		sub	sp, sp, #16
 698              	.LCFI12:
 699              		.cfi_def_cfa_offset 24
 700 0004 00AF     		add	r7, sp, #0
 701              	.LCFI13:
 702              		.cfi_def_cfa_register 7
 703 0006 7860     		str	r0, [r7, #4]
 704 0008 0B46     		mov	r3, r1
 705 000a 7B80     		strh	r3, [r7, #2]	@ movhi
 283:../libs/StdPeripheralDriver/src/stm32f10x_gpio.c ****   uint8_t bitstatus = 0x00;
 706              		.loc 1 283 0
 707 000c 4FF00003 		mov	r3, #0
 708 0010 FB73     		strb	r3, [r7, #15]
 284:../libs/StdPeripheralDriver/src/stm32f10x_gpio.c ****   
 285:../libs/StdPeripheralDriver/src/stm32f10x_gpio.c ****   /* Check the parameters */
 286:../libs/StdPeripheralDriver/src/stm32f10x_gpio.c ****   assert_param(IS_GPIO_ALL_PERIPH(GPIOx));
 709              		.loc 1 286 0
 710 0012 7A68     		ldr	r2, [r7, #4]
 711 0014 3A4B     		ldr	r3, .L49
 712 0016 9A42     		cmp	r2, r3
 713 0018 17D0     		beq	.L40
 714              		.loc 1 286 0 is_stmt 0 discriminator 2
 715 001a 7A68     		ldr	r2, [r7, #4]
 716 001c 394B     		ldr	r3, .L49+4
 717 001e 9A42     		cmp	r2, r3
 718 0020 13D0     		beq	.L40
 719              		.loc 1 286 0 discriminator 1
 720 0022 7A68     		ldr	r2, [r7, #4]
 721 0024 384B     		ldr	r3, .L49+8
 722 0026 9A42     		cmp	r2, r3
 723 0028 0FD0     		beq	.L40
 724              		.loc 1 286 0 discriminator 2
 725 002a 7A68     		ldr	r2, [r7, #4]
 726 002c 374B     		ldr	r3, .L49+12
 727 002e 9A42     		cmp	r2, r3
 728 0030 0BD0     		beq	.L40
 729              		.loc 1 286 0 discriminator 3
 730 0032 7A68     		ldr	r2, [r7, #4]
 731 0034 364B     		ldr	r3, .L49+16
 732 0036 9A42     		cmp	r2, r3
 733 0038 07D0     		beq	.L40
 734              		.loc 1 286 0 discriminator 4
 735 003a 7A68     		ldr	r2, [r7, #4]
 736 003c 354B     		ldr	r3, .L49+20
 737 003e 9A42     		cmp	r2, r3
 738 0040 03D0     		beq	.L40
 739              		.loc 1 286 0 discriminator 5
 740 0042 7A68     		ldr	r2, [r7, #4]
 741 0044 344B     		ldr	r3, .L49+24
 742 0046 9A42     		cmp	r2, r3
 743 0048 02D1     		bne	.L41
 744              	.L40:
 745              		.loc 1 286 0 discriminator 1
 746 004a 4FF00103 		mov	r3, #1
 747 004e 01E0     		b	.L42
 748              	.L41:
 749              		.loc 1 286 0 discriminator 3
 750 0050 4FF00003 		mov	r3, #0
 751              	.L42:
 752              		.loc 1 286 0 discriminator 4
 753 0054 1846     		mov	r0, r3
 754 0056 FFF7FEFF 		bl	assert_param
 287:../libs/StdPeripheralDriver/src/stm32f10x_gpio.c ****   assert_param(IS_GET_GPIO_PIN(GPIO_Pin)); 
 755              		.loc 1 287 0 is_stmt 1 discriminator 4
 756 005a 7B88     		ldrh	r3, [r7, #2]
 757 005c 012B     		cmp	r3, #1
 758 005e 34D0     		beq	.L43
 759              		.loc 1 287 0 is_stmt 0 discriminator 2
 760 0060 7B88     		ldrh	r3, [r7, #2]
 761 0062 022B     		cmp	r3, #2
 762 0064 31D0     		beq	.L43
 763              		.loc 1 287 0 discriminator 1
 764 0066 7B88     		ldrh	r3, [r7, #2]
 765 0068 042B     		cmp	r3, #4
 766 006a 2ED0     		beq	.L43
 767              		.loc 1 287 0 discriminator 2
 768 006c 7B88     		ldrh	r3, [r7, #2]
 769 006e 082B     		cmp	r3, #8
 770 0070 2BD0     		beq	.L43
 771              		.loc 1 287 0 discriminator 3
 772 0072 7B88     		ldrh	r3, [r7, #2]
 773 0074 102B     		cmp	r3, #16
 774 0076 28D0     		beq	.L43
 775              		.loc 1 287 0 discriminator 4
 776 0078 7B88     		ldrh	r3, [r7, #2]
 777 007a 202B     		cmp	r3, #32
 778 007c 25D0     		beq	.L43
 779              		.loc 1 287 0 discriminator 5
 780 007e 7B88     		ldrh	r3, [r7, #2]
 781 0080 402B     		cmp	r3, #64
 782 0082 22D0     		beq	.L43
 783              		.loc 1 287 0 discriminator 6
 784 0084 7B88     		ldrh	r3, [r7, #2]
 785 0086 802B     		cmp	r3, #128
 786 0088 1FD0     		beq	.L43
 787              		.loc 1 287 0 discriminator 7
 788 008a 7B88     		ldrh	r3, [r7, #2]
 789 008c B3F5807F 		cmp	r3, #256
 790 0090 1BD0     		beq	.L43
 791              		.loc 1 287 0 discriminator 8
 792 0092 7B88     		ldrh	r3, [r7, #2]
 793 0094 B3F5007F 		cmp	r3, #512
 794 0098 17D0     		beq	.L43
 795              		.loc 1 287 0 discriminator 9
 796 009a 7B88     		ldrh	r3, [r7, #2]
 797 009c B3F5806F 		cmp	r3, #1024
 798 00a0 13D0     		beq	.L43
 799              		.loc 1 287 0 discriminator 10
 800 00a2 7B88     		ldrh	r3, [r7, #2]
 801 00a4 B3F5006F 		cmp	r3, #2048
 802 00a8 0FD0     		beq	.L43
 803              		.loc 1 287 0 discriminator 11
 804 00aa 7B88     		ldrh	r3, [r7, #2]
 805 00ac B3F5805F 		cmp	r3, #4096
 806 00b0 0BD0     		beq	.L43
 807              		.loc 1 287 0 discriminator 12
 808 00b2 7B88     		ldrh	r3, [r7, #2]
 809 00b4 B3F5005F 		cmp	r3, #8192
 810 00b8 07D0     		beq	.L43
 811              		.loc 1 287 0 discriminator 13
 812 00ba 7B88     		ldrh	r3, [r7, #2]
 813 00bc B3F5804F 		cmp	r3, #16384
 814 00c0 03D0     		beq	.L43
 815              		.loc 1 287 0 discriminator 14
 816 00c2 7B88     		ldrh	r3, [r7, #2]
 817 00c4 B3F5004F 		cmp	r3, #32768
 818 00c8 02D1     		bne	.L44
 819              	.L43:
 820              		.loc 1 287 0 discriminator 1
 821 00ca 4FF00103 		mov	r3, #1
 822 00ce 01E0     		b	.L45
 823              	.L44:
 824              		.loc 1 287 0 discriminator 3
 825 00d0 4FF00003 		mov	r3, #0
 826              	.L45:
 827              		.loc 1 287 0 discriminator 4
 828 00d4 1846     		mov	r0, r3
 829 00d6 FFF7FEFF 		bl	assert_param
 288:../libs/StdPeripheralDriver/src/stm32f10x_gpio.c ****   
 289:../libs/StdPeripheralDriver/src/stm32f10x_gpio.c ****   if ((GPIOx->IDR & GPIO_Pin) != (uint32_t)Bit_RESET)
 830              		.loc 1 289 0 is_stmt 1 discriminator 4
 831 00da 7B68     		ldr	r3, [r7, #4]
 832 00dc 9A68     		ldr	r2, [r3, #8]
 833 00de 7B88     		ldrh	r3, [r7, #2]
 834 00e0 1340     		ands	r3, r3, r2
 835 00e2 002B     		cmp	r3, #0
 836 00e4 03D0     		beq	.L46
 290:../libs/StdPeripheralDriver/src/stm32f10x_gpio.c ****   {
 291:../libs/StdPeripheralDriver/src/stm32f10x_gpio.c ****     bitstatus = (uint8_t)Bit_SET;
 837              		.loc 1 291 0
 838 00e6 4FF00103 		mov	r3, #1
 839 00ea FB73     		strb	r3, [r7, #15]
 840 00ec 02E0     		b	.L47
 841              	.L46:
 292:../libs/StdPeripheralDriver/src/stm32f10x_gpio.c ****   }
 293:../libs/StdPeripheralDriver/src/stm32f10x_gpio.c ****   else
 294:../libs/StdPeripheralDriver/src/stm32f10x_gpio.c ****   {
 295:../libs/StdPeripheralDriver/src/stm32f10x_gpio.c ****     bitstatus = (uint8_t)Bit_RESET;
 842              		.loc 1 295 0
 843 00ee 4FF00003 		mov	r3, #0
 844 00f2 FB73     		strb	r3, [r7, #15]
 845              	.L47:
 296:../libs/StdPeripheralDriver/src/stm32f10x_gpio.c ****   }
 297:../libs/StdPeripheralDriver/src/stm32f10x_gpio.c ****   return bitstatus;
 846              		.loc 1 297 0
 847 00f4 FB7B     		ldrb	r3, [r7, #15]	@ zero_extendqisi2
 298:../libs/StdPeripheralDriver/src/stm32f10x_gpio.c **** }
 848              		.loc 1 298 0
 849 00f6 1846     		mov	r0, r3
 850 00f8 07F11007 		add	r7, r7, #16
 851 00fc BD46     		mov	sp, r7
 852 00fe 80BD     		pop	{r7, pc}
 853              	.L50:
 854              		.align	2
 855              	.L49:
 856 0100 00080140 		.word	1073809408
 857 0104 000C0140 		.word	1073810432
 858 0108 00100140 		.word	1073811456
 859 010c 00140140 		.word	1073812480
 860 0110 00180140 		.word	1073813504
 861 0114 001C0140 		.word	1073814528
 862 0118 00200140 		.word	1073815552
 863              		.cfi_endproc
 864              	.LFE33:
 866              		.section	.text.GPIO_ReadInputData,"ax",%progbits
 867              		.align	2
 868              		.global	GPIO_ReadInputData
 869              		.thumb
 870              		.thumb_func
 872              	GPIO_ReadInputData:
 873              	.LFB34:
 299:../libs/StdPeripheralDriver/src/stm32f10x_gpio.c **** 
 300:../libs/StdPeripheralDriver/src/stm32f10x_gpio.c **** /**
 301:../libs/StdPeripheralDriver/src/stm32f10x_gpio.c ****   * @brief  Reads the specified GPIO input data port.
 302:../libs/StdPeripheralDriver/src/stm32f10x_gpio.c ****   * @param  GPIOx: where x can be (A..G) to select the GPIO peripheral.
 303:../libs/StdPeripheralDriver/src/stm32f10x_gpio.c ****   * @retval GPIO input data port value.
 304:../libs/StdPeripheralDriver/src/stm32f10x_gpio.c ****   */
 305:../libs/StdPeripheralDriver/src/stm32f10x_gpio.c **** uint16_t GPIO_ReadInputData(GPIO_TypeDef* GPIOx)
 306:../libs/StdPeripheralDriver/src/stm32f10x_gpio.c **** {
 874              		.loc 1 306 0
 875              		.cfi_startproc
 876              		@ args = 0, pretend = 0, frame = 8
 877              		@ frame_needed = 1, uses_anonymous_args = 0
 878 0000 80B5     		push	{r7, lr}
 879              	.LCFI14:
 880              		.cfi_def_cfa_offset 8
 881              		.cfi_offset 7, -8
 882              		.cfi_offset 14, -4
 883 0002 82B0     		sub	sp, sp, #8
 884              	.LCFI15:
 885              		.cfi_def_cfa_offset 16
 886 0004 00AF     		add	r7, sp, #0
 887              	.LCFI16:
 888              		.cfi_def_cfa_register 7
 889 0006 7860     		str	r0, [r7, #4]
 307:../libs/StdPeripheralDriver/src/stm32f10x_gpio.c ****   /* Check the parameters */
 308:../libs/StdPeripheralDriver/src/stm32f10x_gpio.c ****   assert_param(IS_GPIO_ALL_PERIPH(GPIOx));
 890              		.loc 1 308 0
 891 0008 7A68     		ldr	r2, [r7, #4]
 892 000a 154B     		ldr	r3, .L56
 893 000c 9A42     		cmp	r2, r3
 894 000e 17D0     		beq	.L52
 895              		.loc 1 308 0 is_stmt 0 discriminator 2
 896 0010 7A68     		ldr	r2, [r7, #4]
 897 0012 144B     		ldr	r3, .L56+4
 898 0014 9A42     		cmp	r2, r3
 899 0016 13D0     		beq	.L52
 900              		.loc 1 308 0 discriminator 1
 901 0018 7A68     		ldr	r2, [r7, #4]
 902 001a 134B     		ldr	r3, .L56+8
 903 001c 9A42     		cmp	r2, r3
 904 001e 0FD0     		beq	.L52
 905              		.loc 1 308 0 discriminator 2
 906 0020 7A68     		ldr	r2, [r7, #4]
 907 0022 124B     		ldr	r3, .L56+12
 908 0024 9A42     		cmp	r2, r3
 909 0026 0BD0     		beq	.L52
 910              		.loc 1 308 0 discriminator 3
 911 0028 7A68     		ldr	r2, [r7, #4]
 912 002a 114B     		ldr	r3, .L56+16
 913 002c 9A42     		cmp	r2, r3
 914 002e 07D0     		beq	.L52
 915              		.loc 1 308 0 discriminator 4
 916 0030 7A68     		ldr	r2, [r7, #4]
 917 0032 104B     		ldr	r3, .L56+20
 918 0034 9A42     		cmp	r2, r3
 919 0036 03D0     		beq	.L52
 920              		.loc 1 308 0 discriminator 5
 921 0038 7A68     		ldr	r2, [r7, #4]
 922 003a 0F4B     		ldr	r3, .L56+24
 923 003c 9A42     		cmp	r2, r3
 924 003e 02D1     		bne	.L53
 925              	.L52:
 926              		.loc 1 308 0 discriminator 1
 927 0040 4FF00103 		mov	r3, #1
 928 0044 01E0     		b	.L54
 929              	.L53:
 930              		.loc 1 308 0 discriminator 3
 931 0046 4FF00003 		mov	r3, #0
 932              	.L54:
 933              		.loc 1 308 0 discriminator 4
 934 004a 1846     		mov	r0, r3
 935 004c FFF7FEFF 		bl	assert_param
 309:../libs/StdPeripheralDriver/src/stm32f10x_gpio.c ****   
 310:../libs/StdPeripheralDriver/src/stm32f10x_gpio.c ****   return ((uint16_t)GPIOx->IDR);
 936              		.loc 1 310 0 is_stmt 1 discriminator 4
 937 0050 7B68     		ldr	r3, [r7, #4]
 938 0052 9B68     		ldr	r3, [r3, #8]
 939 0054 9BB2     		uxth	r3, r3
 311:../libs/StdPeripheralDriver/src/stm32f10x_gpio.c **** }
 940              		.loc 1 311 0 discriminator 4
 941 0056 1846     		mov	r0, r3
 942 0058 07F10807 		add	r7, r7, #8
 943 005c BD46     		mov	sp, r7
 944 005e 80BD     		pop	{r7, pc}
 945              	.L57:
 946              		.align	2
 947              	.L56:
 948 0060 00080140 		.word	1073809408
 949 0064 000C0140 		.word	1073810432
 950 0068 00100140 		.word	1073811456
 951 006c 00140140 		.word	1073812480
 952 0070 00180140 		.word	1073813504
 953 0074 001C0140 		.word	1073814528
 954 0078 00200140 		.word	1073815552
 955              		.cfi_endproc
 956              	.LFE34:
 958              		.section	.text.GPIO_ReadOutputDataBit,"ax",%progbits
 959              		.align	2
 960              		.global	GPIO_ReadOutputDataBit
 961              		.thumb
 962              		.thumb_func
 964              	GPIO_ReadOutputDataBit:
 965              	.LFB35:
 312:../libs/StdPeripheralDriver/src/stm32f10x_gpio.c **** 
 313:../libs/StdPeripheralDriver/src/stm32f10x_gpio.c **** /**
 314:../libs/StdPeripheralDriver/src/stm32f10x_gpio.c ****   * @brief  Reads the specified output data port bit.
 315:../libs/StdPeripheralDriver/src/stm32f10x_gpio.c ****   * @param  GPIOx: where x can be (A..G) to select the GPIO peripheral.
 316:../libs/StdPeripheralDriver/src/stm32f10x_gpio.c ****   * @param  GPIO_Pin:  specifies the port bit to read.
 317:../libs/StdPeripheralDriver/src/stm32f10x_gpio.c ****   *   This parameter can be GPIO_Pin_x where x can be (0..15).
 318:../libs/StdPeripheralDriver/src/stm32f10x_gpio.c ****   * @retval The output port pin value.
 319:../libs/StdPeripheralDriver/src/stm32f10x_gpio.c ****   */
 320:../libs/StdPeripheralDriver/src/stm32f10x_gpio.c **** uint8_t GPIO_ReadOutputDataBit(GPIO_TypeDef* GPIOx, uint16_t GPIO_Pin)
 321:../libs/StdPeripheralDriver/src/stm32f10x_gpio.c **** {
 966              		.loc 1 321 0
 967              		.cfi_startproc
 968              		@ args = 0, pretend = 0, frame = 16
 969              		@ frame_needed = 1, uses_anonymous_args = 0
 970 0000 80B5     		push	{r7, lr}
 971              	.LCFI17:
 972              		.cfi_def_cfa_offset 8
 973              		.cfi_offset 7, -8
 974              		.cfi_offset 14, -4
 975 0002 84B0     		sub	sp, sp, #16
 976              	.LCFI18:
 977              		.cfi_def_cfa_offset 24
 978 0004 00AF     		add	r7, sp, #0
 979              	.LCFI19:
 980              		.cfi_def_cfa_register 7
 981 0006 7860     		str	r0, [r7, #4]
 982 0008 0B46     		mov	r3, r1
 983 000a 7B80     		strh	r3, [r7, #2]	@ movhi
 322:../libs/StdPeripheralDriver/src/stm32f10x_gpio.c ****   uint8_t bitstatus = 0x00;
 984              		.loc 1 322 0
 985 000c 4FF00003 		mov	r3, #0
 986 0010 FB73     		strb	r3, [r7, #15]
 323:../libs/StdPeripheralDriver/src/stm32f10x_gpio.c ****   /* Check the parameters */
 324:../libs/StdPeripheralDriver/src/stm32f10x_gpio.c ****   assert_param(IS_GPIO_ALL_PERIPH(GPIOx));
 987              		.loc 1 324 0
 988 0012 7A68     		ldr	r2, [r7, #4]
 989 0014 3A4B     		ldr	r3, .L68
 990 0016 9A42     		cmp	r2, r3
 991 0018 17D0     		beq	.L59
 992              		.loc 1 324 0 is_stmt 0 discriminator 2
 993 001a 7A68     		ldr	r2, [r7, #4]
 994 001c 394B     		ldr	r3, .L68+4
 995 001e 9A42     		cmp	r2, r3
 996 0020 13D0     		beq	.L59
 997              		.loc 1 324 0 discriminator 1
 998 0022 7A68     		ldr	r2, [r7, #4]
 999 0024 384B     		ldr	r3, .L68+8
 1000 0026 9A42     		cmp	r2, r3
 1001 0028 0FD0     		beq	.L59
 1002              		.loc 1 324 0 discriminator 2
 1003 002a 7A68     		ldr	r2, [r7, #4]
 1004 002c 374B     		ldr	r3, .L68+12
 1005 002e 9A42     		cmp	r2, r3
 1006 0030 0BD0     		beq	.L59
 1007              		.loc 1 324 0 discriminator 3
 1008 0032 7A68     		ldr	r2, [r7, #4]
 1009 0034 364B     		ldr	r3, .L68+16
 1010 0036 9A42     		cmp	r2, r3
 1011 0038 07D0     		beq	.L59
 1012              		.loc 1 324 0 discriminator 4
 1013 003a 7A68     		ldr	r2, [r7, #4]
 1014 003c 354B     		ldr	r3, .L68+20
 1015 003e 9A42     		cmp	r2, r3
 1016 0040 03D0     		beq	.L59
 1017              		.loc 1 324 0 discriminator 5
 1018 0042 7A68     		ldr	r2, [r7, #4]
 1019 0044 344B     		ldr	r3, .L68+24
 1020 0046 9A42     		cmp	r2, r3
 1021 0048 02D1     		bne	.L60
 1022              	.L59:
 1023              		.loc 1 324 0 discriminator 1
 1024 004a 4FF00103 		mov	r3, #1
 1025 004e 01E0     		b	.L61
 1026              	.L60:
 1027              		.loc 1 324 0 discriminator 3
 1028 0050 4FF00003 		mov	r3, #0
 1029              	.L61:
 1030              		.loc 1 324 0 discriminator 4
 1031 0054 1846     		mov	r0, r3
 1032 0056 FFF7FEFF 		bl	assert_param
 325:../libs/StdPeripheralDriver/src/stm32f10x_gpio.c ****   assert_param(IS_GET_GPIO_PIN(GPIO_Pin)); 
 1033              		.loc 1 325 0 is_stmt 1 discriminator 4
 1034 005a 7B88     		ldrh	r3, [r7, #2]
 1035 005c 012B     		cmp	r3, #1
 1036 005e 34D0     		beq	.L62
 1037              		.loc 1 325 0 is_stmt 0 discriminator 2
 1038 0060 7B88     		ldrh	r3, [r7, #2]
 1039 0062 022B     		cmp	r3, #2
 1040 0064 31D0     		beq	.L62
 1041              		.loc 1 325 0 discriminator 1
 1042 0066 7B88     		ldrh	r3, [r7, #2]
 1043 0068 042B     		cmp	r3, #4
 1044 006a 2ED0     		beq	.L62
 1045              		.loc 1 325 0 discriminator 2
 1046 006c 7B88     		ldrh	r3, [r7, #2]
 1047 006e 082B     		cmp	r3, #8
 1048 0070 2BD0     		beq	.L62
 1049              		.loc 1 325 0 discriminator 3
 1050 0072 7B88     		ldrh	r3, [r7, #2]
 1051 0074 102B     		cmp	r3, #16
 1052 0076 28D0     		beq	.L62
 1053              		.loc 1 325 0 discriminator 4
 1054 0078 7B88     		ldrh	r3, [r7, #2]
 1055 007a 202B     		cmp	r3, #32
 1056 007c 25D0     		beq	.L62
 1057              		.loc 1 325 0 discriminator 5
 1058 007e 7B88     		ldrh	r3, [r7, #2]
 1059 0080 402B     		cmp	r3, #64
 1060 0082 22D0     		beq	.L62
 1061              		.loc 1 325 0 discriminator 6
 1062 0084 7B88     		ldrh	r3, [r7, #2]
 1063 0086 802B     		cmp	r3, #128
 1064 0088 1FD0     		beq	.L62
 1065              		.loc 1 325 0 discriminator 7
 1066 008a 7B88     		ldrh	r3, [r7, #2]
 1067 008c B3F5807F 		cmp	r3, #256
 1068 0090 1BD0     		beq	.L62
 1069              		.loc 1 325 0 discriminator 8
 1070 0092 7B88     		ldrh	r3, [r7, #2]
 1071 0094 B3F5007F 		cmp	r3, #512
 1072 0098 17D0     		beq	.L62
 1073              		.loc 1 325 0 discriminator 9
 1074 009a 7B88     		ldrh	r3, [r7, #2]
 1075 009c B3F5806F 		cmp	r3, #1024
 1076 00a0 13D0     		beq	.L62
 1077              		.loc 1 325 0 discriminator 10
 1078 00a2 7B88     		ldrh	r3, [r7, #2]
 1079 00a4 B3F5006F 		cmp	r3, #2048
 1080 00a8 0FD0     		beq	.L62
 1081              		.loc 1 325 0 discriminator 11
 1082 00aa 7B88     		ldrh	r3, [r7, #2]
 1083 00ac B3F5805F 		cmp	r3, #4096
 1084 00b0 0BD0     		beq	.L62
 1085              		.loc 1 325 0 discriminator 12
 1086 00b2 7B88     		ldrh	r3, [r7, #2]
 1087 00b4 B3F5005F 		cmp	r3, #8192
 1088 00b8 07D0     		beq	.L62
 1089              		.loc 1 325 0 discriminator 13
 1090 00ba 7B88     		ldrh	r3, [r7, #2]
 1091 00bc B3F5804F 		cmp	r3, #16384
 1092 00c0 03D0     		beq	.L62
 1093              		.loc 1 325 0 discriminator 14
 1094 00c2 7B88     		ldrh	r3, [r7, #2]
 1095 00c4 B3F5004F 		cmp	r3, #32768
 1096 00c8 02D1     		bne	.L63
 1097              	.L62:
 1098              		.loc 1 325 0 discriminator 1
 1099 00ca 4FF00103 		mov	r3, #1
 1100 00ce 01E0     		b	.L64
 1101              	.L63:
 1102              		.loc 1 325 0 discriminator 3
 1103 00d0 4FF00003 		mov	r3, #0
 1104              	.L64:
 1105              		.loc 1 325 0 discriminator 4
 1106 00d4 1846     		mov	r0, r3
 1107 00d6 FFF7FEFF 		bl	assert_param
 326:../libs/StdPeripheralDriver/src/stm32f10x_gpio.c ****   
 327:../libs/StdPeripheralDriver/src/stm32f10x_gpio.c ****   if ((GPIOx->ODR & GPIO_Pin) != (uint32_t)Bit_RESET)
 1108              		.loc 1 327 0 is_stmt 1 discriminator 4
 1109 00da 7B68     		ldr	r3, [r7, #4]
 1110 00dc DA68     		ldr	r2, [r3, #12]
 1111 00de 7B88     		ldrh	r3, [r7, #2]
 1112 00e0 1340     		ands	r3, r3, r2
 1113 00e2 002B     		cmp	r3, #0
 1114 00e4 03D0     		beq	.L65
 328:../libs/StdPeripheralDriver/src/stm32f10x_gpio.c ****   {
 329:../libs/StdPeripheralDriver/src/stm32f10x_gpio.c ****     bitstatus = (uint8_t)Bit_SET;
 1115              		.loc 1 329 0
 1116 00e6 4FF00103 		mov	r3, #1
 1117 00ea FB73     		strb	r3, [r7, #15]
 1118 00ec 02E0     		b	.L66
 1119              	.L65:
 330:../libs/StdPeripheralDriver/src/stm32f10x_gpio.c ****   }
 331:../libs/StdPeripheralDriver/src/stm32f10x_gpio.c ****   else
 332:../libs/StdPeripheralDriver/src/stm32f10x_gpio.c ****   {
 333:../libs/StdPeripheralDriver/src/stm32f10x_gpio.c ****     bitstatus = (uint8_t)Bit_RESET;
 1120              		.loc 1 333 0
 1121 00ee 4FF00003 		mov	r3, #0
 1122 00f2 FB73     		strb	r3, [r7, #15]
 1123              	.L66:
 334:../libs/StdPeripheralDriver/src/stm32f10x_gpio.c ****   }
 335:../libs/StdPeripheralDriver/src/stm32f10x_gpio.c ****   return bitstatus;
 1124              		.loc 1 335 0
 1125 00f4 FB7B     		ldrb	r3, [r7, #15]	@ zero_extendqisi2
 336:../libs/StdPeripheralDriver/src/stm32f10x_gpio.c **** }
 1126              		.loc 1 336 0
 1127 00f6 1846     		mov	r0, r3
 1128 00f8 07F11007 		add	r7, r7, #16
 1129 00fc BD46     		mov	sp, r7
 1130 00fe 80BD     		pop	{r7, pc}
 1131              	.L69:
 1132              		.align	2
 1133              	.L68:
 1134 0100 00080140 		.word	1073809408
 1135 0104 000C0140 		.word	1073810432
 1136 0108 00100140 		.word	1073811456
 1137 010c 00140140 		.word	1073812480
 1138 0110 00180140 		.word	1073813504
 1139 0114 001C0140 		.word	1073814528
 1140 0118 00200140 		.word	1073815552
 1141              		.cfi_endproc
 1142              	.LFE35:
 1144              		.section	.text.GPIO_ReadOutputData,"ax",%progbits
 1145              		.align	2
 1146              		.global	GPIO_ReadOutputData
 1147              		.thumb
 1148              		.thumb_func
 1150              	GPIO_ReadOutputData:
 1151              	.LFB36:
 337:../libs/StdPeripheralDriver/src/stm32f10x_gpio.c **** 
 338:../libs/StdPeripheralDriver/src/stm32f10x_gpio.c **** /**
 339:../libs/StdPeripheralDriver/src/stm32f10x_gpio.c ****   * @brief  Reads the specified GPIO output data port.
 340:../libs/StdPeripheralDriver/src/stm32f10x_gpio.c ****   * @param  GPIOx: where x can be (A..G) to select the GPIO peripheral.
 341:../libs/StdPeripheralDriver/src/stm32f10x_gpio.c ****   * @retval GPIO output data port value.
 342:../libs/StdPeripheralDriver/src/stm32f10x_gpio.c ****   */
 343:../libs/StdPeripheralDriver/src/stm32f10x_gpio.c **** uint16_t GPIO_ReadOutputData(GPIO_TypeDef* GPIOx)
 344:../libs/StdPeripheralDriver/src/stm32f10x_gpio.c **** {
 1152              		.loc 1 344 0
 1153              		.cfi_startproc
 1154              		@ args = 0, pretend = 0, frame = 8
 1155              		@ frame_needed = 1, uses_anonymous_args = 0
 1156 0000 80B5     		push	{r7, lr}
 1157              	.LCFI20:
 1158              		.cfi_def_cfa_offset 8
 1159              		.cfi_offset 7, -8
 1160              		.cfi_offset 14, -4
 1161 0002 82B0     		sub	sp, sp, #8
 1162              	.LCFI21:
 1163              		.cfi_def_cfa_offset 16
 1164 0004 00AF     		add	r7, sp, #0
 1165              	.LCFI22:
 1166              		.cfi_def_cfa_register 7
 1167 0006 7860     		str	r0, [r7, #4]
 345:../libs/StdPeripheralDriver/src/stm32f10x_gpio.c ****   /* Check the parameters */
 346:../libs/StdPeripheralDriver/src/stm32f10x_gpio.c ****   assert_param(IS_GPIO_ALL_PERIPH(GPIOx));
 1168              		.loc 1 346 0
 1169 0008 7A68     		ldr	r2, [r7, #4]
 1170 000a 154B     		ldr	r3, .L75
 1171 000c 9A42     		cmp	r2, r3
 1172 000e 17D0     		beq	.L71
 1173              		.loc 1 346 0 is_stmt 0 discriminator 2
 1174 0010 7A68     		ldr	r2, [r7, #4]
 1175 0012 144B     		ldr	r3, .L75+4
 1176 0014 9A42     		cmp	r2, r3
 1177 0016 13D0     		beq	.L71
 1178              		.loc 1 346 0 discriminator 1
 1179 0018 7A68     		ldr	r2, [r7, #4]
 1180 001a 134B     		ldr	r3, .L75+8
 1181 001c 9A42     		cmp	r2, r3
 1182 001e 0FD0     		beq	.L71
 1183              		.loc 1 346 0 discriminator 2
 1184 0020 7A68     		ldr	r2, [r7, #4]
 1185 0022 124B     		ldr	r3, .L75+12
 1186 0024 9A42     		cmp	r2, r3
 1187 0026 0BD0     		beq	.L71
 1188              		.loc 1 346 0 discriminator 3
 1189 0028 7A68     		ldr	r2, [r7, #4]
 1190 002a 114B     		ldr	r3, .L75+16
 1191 002c 9A42     		cmp	r2, r3
 1192 002e 07D0     		beq	.L71
 1193              		.loc 1 346 0 discriminator 4
 1194 0030 7A68     		ldr	r2, [r7, #4]
 1195 0032 104B     		ldr	r3, .L75+20
 1196 0034 9A42     		cmp	r2, r3
 1197 0036 03D0     		beq	.L71
 1198              		.loc 1 346 0 discriminator 5
 1199 0038 7A68     		ldr	r2, [r7, #4]
 1200 003a 0F4B     		ldr	r3, .L75+24
 1201 003c 9A42     		cmp	r2, r3
 1202 003e 02D1     		bne	.L72
 1203              	.L71:
 1204              		.loc 1 346 0 discriminator 1
 1205 0040 4FF00103 		mov	r3, #1
 1206 0044 01E0     		b	.L73
 1207              	.L72:
 1208              		.loc 1 346 0 discriminator 3
 1209 0046 4FF00003 		mov	r3, #0
 1210              	.L73:
 1211              		.loc 1 346 0 discriminator 4
 1212 004a 1846     		mov	r0, r3
 1213 004c FFF7FEFF 		bl	assert_param
 347:../libs/StdPeripheralDriver/src/stm32f10x_gpio.c ****     
 348:../libs/StdPeripheralDriver/src/stm32f10x_gpio.c ****   return ((uint16_t)GPIOx->ODR);
 1214              		.loc 1 348 0 is_stmt 1 discriminator 4
 1215 0050 7B68     		ldr	r3, [r7, #4]
 1216 0052 DB68     		ldr	r3, [r3, #12]
 1217 0054 9BB2     		uxth	r3, r3
 349:../libs/StdPeripheralDriver/src/stm32f10x_gpio.c **** }
 1218              		.loc 1 349 0 discriminator 4
 1219 0056 1846     		mov	r0, r3
 1220 0058 07F10807 		add	r7, r7, #8
 1221 005c BD46     		mov	sp, r7
 1222 005e 80BD     		pop	{r7, pc}
 1223              	.L76:
 1224              		.align	2
 1225              	.L75:
 1226 0060 00080140 		.word	1073809408
 1227 0064 000C0140 		.word	1073810432
 1228 0068 00100140 		.word	1073811456
 1229 006c 00140140 		.word	1073812480
 1230 0070 00180140 		.word	1073813504
 1231 0074 001C0140 		.word	1073814528
 1232 0078 00200140 		.word	1073815552
 1233              		.cfi_endproc
 1234              	.LFE36:
 1236              		.section	.text.GPIO_SetBits,"ax",%progbits
 1237              		.align	2
 1238              		.global	GPIO_SetBits
 1239              		.thumb
 1240              		.thumb_func
 1242              	GPIO_SetBits:
 1243              	.LFB37:
 350:../libs/StdPeripheralDriver/src/stm32f10x_gpio.c **** 
 351:../libs/StdPeripheralDriver/src/stm32f10x_gpio.c **** /**
 352:../libs/StdPeripheralDriver/src/stm32f10x_gpio.c ****   * @brief  Sets the selected data port bits.
 353:../libs/StdPeripheralDriver/src/stm32f10x_gpio.c ****   * @param  GPIOx: where x can be (A..G) to select the GPIO peripheral.
 354:../libs/StdPeripheralDriver/src/stm32f10x_gpio.c ****   * @param  GPIO_Pin: specifies the port bits to be written.
 355:../libs/StdPeripheralDriver/src/stm32f10x_gpio.c ****   *   This parameter can be any combination of GPIO_Pin_x where x can be (0..15).
 356:../libs/StdPeripheralDriver/src/stm32f10x_gpio.c ****   * @retval None
 357:../libs/StdPeripheralDriver/src/stm32f10x_gpio.c ****   */
 358:../libs/StdPeripheralDriver/src/stm32f10x_gpio.c **** void GPIO_SetBits(GPIO_TypeDef* GPIOx, uint16_t GPIO_Pin)
 359:../libs/StdPeripheralDriver/src/stm32f10x_gpio.c **** {
 1244              		.loc 1 359 0
 1245              		.cfi_startproc
 1246              		@ args = 0, pretend = 0, frame = 8
 1247              		@ frame_needed = 1, uses_anonymous_args = 0
 1248 0000 80B5     		push	{r7, lr}
 1249              	.LCFI23:
 1250              		.cfi_def_cfa_offset 8
 1251              		.cfi_offset 7, -8
 1252              		.cfi_offset 14, -4
 1253 0002 82B0     		sub	sp, sp, #8
 1254              	.LCFI24:
 1255              		.cfi_def_cfa_offset 16
 1256 0004 00AF     		add	r7, sp, #0
 1257              	.LCFI25:
 1258              		.cfi_def_cfa_register 7
 1259 0006 7860     		str	r0, [r7, #4]
 1260 0008 0B46     		mov	r3, r1
 1261 000a 7B80     		strh	r3, [r7, #2]	@ movhi
 360:../libs/StdPeripheralDriver/src/stm32f10x_gpio.c ****   /* Check the parameters */
 361:../libs/StdPeripheralDriver/src/stm32f10x_gpio.c ****   assert_param(IS_GPIO_ALL_PERIPH(GPIOx));
 1262              		.loc 1 361 0
 1263 000c 7A68     		ldr	r2, [r7, #4]
 1264 000e 194B     		ldr	r3, .L81
 1265 0010 9A42     		cmp	r2, r3
 1266 0012 17D0     		beq	.L78
 1267              		.loc 1 361 0 is_stmt 0 discriminator 2
 1268 0014 7A68     		ldr	r2, [r7, #4]
 1269 0016 184B     		ldr	r3, .L81+4
 1270 0018 9A42     		cmp	r2, r3
 1271 001a 13D0     		beq	.L78
 1272              		.loc 1 361 0 discriminator 1
 1273 001c 7A68     		ldr	r2, [r7, #4]
 1274 001e 174B     		ldr	r3, .L81+8
 1275 0020 9A42     		cmp	r2, r3
 1276 0022 0FD0     		beq	.L78
 1277              		.loc 1 361 0 discriminator 2
 1278 0024 7A68     		ldr	r2, [r7, #4]
 1279 0026 164B     		ldr	r3, .L81+12
 1280 0028 9A42     		cmp	r2, r3
 1281 002a 0BD0     		beq	.L78
 1282              		.loc 1 361 0 discriminator 3
 1283 002c 7A68     		ldr	r2, [r7, #4]
 1284 002e 154B     		ldr	r3, .L81+16
 1285 0030 9A42     		cmp	r2, r3
 1286 0032 07D0     		beq	.L78
 1287              		.loc 1 361 0 discriminator 4
 1288 0034 7A68     		ldr	r2, [r7, #4]
 1289 0036 144B     		ldr	r3, .L81+20
 1290 0038 9A42     		cmp	r2, r3
 1291 003a 03D0     		beq	.L78
 1292              		.loc 1 361 0 discriminator 5
 1293 003c 7A68     		ldr	r2, [r7, #4]
 1294 003e 134B     		ldr	r3, .L81+24
 1295 0040 9A42     		cmp	r2, r3
 1296 0042 02D1     		bne	.L79
 1297              	.L78:
 1298              		.loc 1 361 0 discriminator 1
 1299 0044 4FF00103 		mov	r3, #1
 1300 0048 01E0     		b	.L80
 1301              	.L79:
 1302              		.loc 1 361 0 discriminator 3
 1303 004a 4FF00003 		mov	r3, #0
 1304              	.L80:
 1305              		.loc 1 361 0 discriminator 4
 1306 004e 1846     		mov	r0, r3
 1307 0050 FFF7FEFF 		bl	assert_param
 362:../libs/StdPeripheralDriver/src/stm32f10x_gpio.c ****   assert_param(IS_GPIO_PIN(GPIO_Pin));
 1308              		.loc 1 362 0 is_stmt 1 discriminator 4
 1309 0054 7B88     		ldrh	r3, [r7, #2]
 1310 0056 002B     		cmp	r3, #0
 1311 0058 0CBF     		ite	eq
 1312 005a 0023     		moveq	r3, #0
 1313 005c 0123     		movne	r3, #1
 1314 005e DBB2     		uxtb	r3, r3
 1315 0060 1846     		mov	r0, r3
 1316 0062 FFF7FEFF 		bl	assert_param
 363:../libs/StdPeripheralDriver/src/stm32f10x_gpio.c ****   
 364:../libs/StdPeripheralDriver/src/stm32f10x_gpio.c ****   GPIOx->BSRR = GPIO_Pin;
 1317              		.loc 1 364 0 discriminator 4
 1318 0066 7A88     		ldrh	r2, [r7, #2]
 1319 0068 7B68     		ldr	r3, [r7, #4]
 1320 006a 1A61     		str	r2, [r3, #16]
 365:../libs/StdPeripheralDriver/src/stm32f10x_gpio.c **** }
 1321              		.loc 1 365 0 discriminator 4
 1322 006c 07F10807 		add	r7, r7, #8
 1323 0070 BD46     		mov	sp, r7
 1324 0072 80BD     		pop	{r7, pc}
 1325              	.L82:
 1326              		.align	2
 1327              	.L81:
 1328 0074 00080140 		.word	1073809408
 1329 0078 000C0140 		.word	1073810432
 1330 007c 00100140 		.word	1073811456
 1331 0080 00140140 		.word	1073812480
 1332 0084 00180140 		.word	1073813504
 1333 0088 001C0140 		.word	1073814528
 1334 008c 00200140 		.word	1073815552
 1335              		.cfi_endproc
 1336              	.LFE37:
 1338              		.section	.text.GPIO_ResetBits,"ax",%progbits
 1339              		.align	2
 1340              		.global	GPIO_ResetBits
 1341              		.thumb
 1342              		.thumb_func
 1344              	GPIO_ResetBits:
 1345              	.LFB38:
 366:../libs/StdPeripheralDriver/src/stm32f10x_gpio.c **** 
 367:../libs/StdPeripheralDriver/src/stm32f10x_gpio.c **** /**
 368:../libs/StdPeripheralDriver/src/stm32f10x_gpio.c ****   * @brief  Clears the selected data port bits.
 369:../libs/StdPeripheralDriver/src/stm32f10x_gpio.c ****   * @param  GPIOx: where x can be (A..G) to select the GPIO peripheral.
 370:../libs/StdPeripheralDriver/src/stm32f10x_gpio.c ****   * @param  GPIO_Pin: specifies the port bits to be written.
 371:../libs/StdPeripheralDriver/src/stm32f10x_gpio.c ****   *   This parameter can be any combination of GPIO_Pin_x where x can be (0..15).
 372:../libs/StdPeripheralDriver/src/stm32f10x_gpio.c ****   * @retval None
 373:../libs/StdPeripheralDriver/src/stm32f10x_gpio.c ****   */
 374:../libs/StdPeripheralDriver/src/stm32f10x_gpio.c **** void GPIO_ResetBits(GPIO_TypeDef* GPIOx, uint16_t GPIO_Pin)
 375:../libs/StdPeripheralDriver/src/stm32f10x_gpio.c **** {
 1346              		.loc 1 375 0
 1347              		.cfi_startproc
 1348              		@ args = 0, pretend = 0, frame = 8
 1349              		@ frame_needed = 1, uses_anonymous_args = 0
 1350 0000 80B5     		push	{r7, lr}
 1351              	.LCFI26:
 1352              		.cfi_def_cfa_offset 8
 1353              		.cfi_offset 7, -8
 1354              		.cfi_offset 14, -4
 1355 0002 82B0     		sub	sp, sp, #8
 1356              	.LCFI27:
 1357              		.cfi_def_cfa_offset 16
 1358 0004 00AF     		add	r7, sp, #0
 1359              	.LCFI28:
 1360              		.cfi_def_cfa_register 7
 1361 0006 7860     		str	r0, [r7, #4]
 1362 0008 0B46     		mov	r3, r1
 1363 000a 7B80     		strh	r3, [r7, #2]	@ movhi
 376:../libs/StdPeripheralDriver/src/stm32f10x_gpio.c ****   /* Check the parameters */
 377:../libs/StdPeripheralDriver/src/stm32f10x_gpio.c ****   assert_param(IS_GPIO_ALL_PERIPH(GPIOx));
 1364              		.loc 1 377 0
 1365 000c 7A68     		ldr	r2, [r7, #4]
 1366 000e 194B     		ldr	r3, .L87
 1367 0010 9A42     		cmp	r2, r3
 1368 0012 17D0     		beq	.L84
 1369              		.loc 1 377 0 is_stmt 0 discriminator 2
 1370 0014 7A68     		ldr	r2, [r7, #4]
 1371 0016 184B     		ldr	r3, .L87+4
 1372 0018 9A42     		cmp	r2, r3
 1373 001a 13D0     		beq	.L84
 1374              		.loc 1 377 0 discriminator 1
 1375 001c 7A68     		ldr	r2, [r7, #4]
 1376 001e 174B     		ldr	r3, .L87+8
 1377 0020 9A42     		cmp	r2, r3
 1378 0022 0FD0     		beq	.L84
 1379              		.loc 1 377 0 discriminator 2
 1380 0024 7A68     		ldr	r2, [r7, #4]
 1381 0026 164B     		ldr	r3, .L87+12
 1382 0028 9A42     		cmp	r2, r3
 1383 002a 0BD0     		beq	.L84
 1384              		.loc 1 377 0 discriminator 3
 1385 002c 7A68     		ldr	r2, [r7, #4]
 1386 002e 154B     		ldr	r3, .L87+16
 1387 0030 9A42     		cmp	r2, r3
 1388 0032 07D0     		beq	.L84
 1389              		.loc 1 377 0 discriminator 4
 1390 0034 7A68     		ldr	r2, [r7, #4]
 1391 0036 144B     		ldr	r3, .L87+20
 1392 0038 9A42     		cmp	r2, r3
 1393 003a 03D0     		beq	.L84
 1394              		.loc 1 377 0 discriminator 5
 1395 003c 7A68     		ldr	r2, [r7, #4]
 1396 003e 134B     		ldr	r3, .L87+24
 1397 0040 9A42     		cmp	r2, r3
 1398 0042 02D1     		bne	.L85
 1399              	.L84:
 1400              		.loc 1 377 0 discriminator 1
 1401 0044 4FF00103 		mov	r3, #1
 1402 0048 01E0     		b	.L86
 1403              	.L85:
 1404              		.loc 1 377 0 discriminator 3
 1405 004a 4FF00003 		mov	r3, #0
 1406              	.L86:
 1407              		.loc 1 377 0 discriminator 4
 1408 004e 1846     		mov	r0, r3
 1409 0050 FFF7FEFF 		bl	assert_param
 378:../libs/StdPeripheralDriver/src/stm32f10x_gpio.c ****   assert_param(IS_GPIO_PIN(GPIO_Pin));
 1410              		.loc 1 378 0 is_stmt 1 discriminator 4
 1411 0054 7B88     		ldrh	r3, [r7, #2]
 1412 0056 002B     		cmp	r3, #0
 1413 0058 0CBF     		ite	eq
 1414 005a 0023     		moveq	r3, #0
 1415 005c 0123     		movne	r3, #1
 1416 005e DBB2     		uxtb	r3, r3
 1417 0060 1846     		mov	r0, r3
 1418 0062 FFF7FEFF 		bl	assert_param
 379:../libs/StdPeripheralDriver/src/stm32f10x_gpio.c ****   
 380:../libs/StdPeripheralDriver/src/stm32f10x_gpio.c ****   GPIOx->BRR = GPIO_Pin;
 1419              		.loc 1 380 0 discriminator 4
 1420 0066 7A88     		ldrh	r2, [r7, #2]
 1421 0068 7B68     		ldr	r3, [r7, #4]
 1422 006a 5A61     		str	r2, [r3, #20]
 381:../libs/StdPeripheralDriver/src/stm32f10x_gpio.c **** }
 1423              		.loc 1 381 0 discriminator 4
 1424 006c 07F10807 		add	r7, r7, #8
 1425 0070 BD46     		mov	sp, r7
 1426 0072 80BD     		pop	{r7, pc}
 1427              	.L88:
 1428              		.align	2
 1429              	.L87:
 1430 0074 00080140 		.word	1073809408
 1431 0078 000C0140 		.word	1073810432
 1432 007c 00100140 		.word	1073811456
 1433 0080 00140140 		.word	1073812480
 1434 0084 00180140 		.word	1073813504
 1435 0088 001C0140 		.word	1073814528
 1436 008c 00200140 		.word	1073815552
 1437              		.cfi_endproc
 1438              	.LFE38:
 1440              		.section	.text.GPIO_WriteBit,"ax",%progbits
 1441              		.align	2
 1442              		.global	GPIO_WriteBit
 1443              		.thumb
 1444              		.thumb_func
 1446              	GPIO_WriteBit:
 1447              	.LFB39:
 382:../libs/StdPeripheralDriver/src/stm32f10x_gpio.c **** 
 383:../libs/StdPeripheralDriver/src/stm32f10x_gpio.c **** /**
 384:../libs/StdPeripheralDriver/src/stm32f10x_gpio.c ****   * @brief  Sets or clears the selected data port bit.
 385:../libs/StdPeripheralDriver/src/stm32f10x_gpio.c ****   * @param  GPIOx: where x can be (A..G) to select the GPIO peripheral.
 386:../libs/StdPeripheralDriver/src/stm32f10x_gpio.c ****   * @param  GPIO_Pin: specifies the port bit to be written.
 387:../libs/StdPeripheralDriver/src/stm32f10x_gpio.c ****   *   This parameter can be one of GPIO_Pin_x where x can be (0..15).
 388:../libs/StdPeripheralDriver/src/stm32f10x_gpio.c ****   * @param  BitVal: specifies the value to be written to the selected bit.
 389:../libs/StdPeripheralDriver/src/stm32f10x_gpio.c ****   *   This parameter can be one of the BitAction enum values:
 390:../libs/StdPeripheralDriver/src/stm32f10x_gpio.c ****   *     @arg Bit_RESET: to clear the port pin
 391:../libs/StdPeripheralDriver/src/stm32f10x_gpio.c ****   *     @arg Bit_SET: to set the port pin
 392:../libs/StdPeripheralDriver/src/stm32f10x_gpio.c ****   * @retval None
 393:../libs/StdPeripheralDriver/src/stm32f10x_gpio.c ****   */
 394:../libs/StdPeripheralDriver/src/stm32f10x_gpio.c **** void GPIO_WriteBit(GPIO_TypeDef* GPIOx, uint16_t GPIO_Pin, BitAction BitVal)
 395:../libs/StdPeripheralDriver/src/stm32f10x_gpio.c **** {
 1448              		.loc 1 395 0
 1449              		.cfi_startproc
 1450              		@ args = 0, pretend = 0, frame = 8
 1451              		@ frame_needed = 1, uses_anonymous_args = 0
 1452 0000 80B5     		push	{r7, lr}
 1453              	.LCFI29:
 1454              		.cfi_def_cfa_offset 8
 1455              		.cfi_offset 7, -8
 1456              		.cfi_offset 14, -4
 1457 0002 82B0     		sub	sp, sp, #8
 1458              	.LCFI30:
 1459              		.cfi_def_cfa_offset 16
 1460 0004 00AF     		add	r7, sp, #0
 1461              	.LCFI31:
 1462              		.cfi_def_cfa_register 7
 1463 0006 7860     		str	r0, [r7, #4]
 1464 0008 1346     		mov	r3, r2
 1465 000a 0A46     		mov	r2, r1	@ movhi
 1466 000c 7A80     		strh	r2, [r7, #2]	@ movhi
 1467 000e 7B70     		strb	r3, [r7, #1]
 396:../libs/StdPeripheralDriver/src/stm32f10x_gpio.c ****   /* Check the parameters */
 397:../libs/StdPeripheralDriver/src/stm32f10x_gpio.c ****   assert_param(IS_GPIO_ALL_PERIPH(GPIOx));
 1468              		.loc 1 397 0
 1469 0010 7A68     		ldr	r2, [r7, #4]
 1470 0012 3F4B     		ldr	r3, .L101
 1471 0014 9A42     		cmp	r2, r3
 1472 0016 17D0     		beq	.L90
 1473              		.loc 1 397 0 is_stmt 0 discriminator 2
 1474 0018 7A68     		ldr	r2, [r7, #4]
 1475 001a 3E4B     		ldr	r3, .L101+4
 1476 001c 9A42     		cmp	r2, r3
 1477 001e 13D0     		beq	.L90
 1478              		.loc 1 397 0 discriminator 1
 1479 0020 7A68     		ldr	r2, [r7, #4]
 1480 0022 3D4B     		ldr	r3, .L101+8
 1481 0024 9A42     		cmp	r2, r3
 1482 0026 0FD0     		beq	.L90
 1483              		.loc 1 397 0 discriminator 2
 1484 0028 7A68     		ldr	r2, [r7, #4]
 1485 002a 3C4B     		ldr	r3, .L101+12
 1486 002c 9A42     		cmp	r2, r3
 1487 002e 0BD0     		beq	.L90
 1488              		.loc 1 397 0 discriminator 3
 1489 0030 7A68     		ldr	r2, [r7, #4]
 1490 0032 3B4B     		ldr	r3, .L101+16
 1491 0034 9A42     		cmp	r2, r3
 1492 0036 07D0     		beq	.L90
 1493              		.loc 1 397 0 discriminator 4
 1494 0038 7A68     		ldr	r2, [r7, #4]
 1495 003a 3A4B     		ldr	r3, .L101+20
 1496 003c 9A42     		cmp	r2, r3
 1497 003e 03D0     		beq	.L90
 1498              		.loc 1 397 0 discriminator 5
 1499 0040 7A68     		ldr	r2, [r7, #4]
 1500 0042 394B     		ldr	r3, .L101+24
 1501 0044 9A42     		cmp	r2, r3
 1502 0046 02D1     		bne	.L91
 1503              	.L90:
 1504              		.loc 1 397 0 discriminator 1
 1505 0048 4FF00103 		mov	r3, #1
 1506 004c 01E0     		b	.L92
 1507              	.L91:
 1508              		.loc 1 397 0 discriminator 3
 1509 004e 4FF00003 		mov	r3, #0
 1510              	.L92:
 1511              		.loc 1 397 0 discriminator 4
 1512 0052 1846     		mov	r0, r3
 1513 0054 FFF7FEFF 		bl	assert_param
 398:../libs/StdPeripheralDriver/src/stm32f10x_gpio.c ****   assert_param(IS_GET_GPIO_PIN(GPIO_Pin));
 1514              		.loc 1 398 0 is_stmt 1 discriminator 4
 1515 0058 7B88     		ldrh	r3, [r7, #2]
 1516 005a 012B     		cmp	r3, #1
 1517 005c 34D0     		beq	.L93
 1518              		.loc 1 398 0 is_stmt 0 discriminator 2
 1519 005e 7B88     		ldrh	r3, [r7, #2]
 1520 0060 022B     		cmp	r3, #2
 1521 0062 31D0     		beq	.L93
 1522              		.loc 1 398 0 discriminator 1
 1523 0064 7B88     		ldrh	r3, [r7, #2]
 1524 0066 042B     		cmp	r3, #4
 1525 0068 2ED0     		beq	.L93
 1526              		.loc 1 398 0 discriminator 2
 1527 006a 7B88     		ldrh	r3, [r7, #2]
 1528 006c 082B     		cmp	r3, #8
 1529 006e 2BD0     		beq	.L93
 1530              		.loc 1 398 0 discriminator 3
 1531 0070 7B88     		ldrh	r3, [r7, #2]
 1532 0072 102B     		cmp	r3, #16
 1533 0074 28D0     		beq	.L93
 1534              		.loc 1 398 0 discriminator 4
 1535 0076 7B88     		ldrh	r3, [r7, #2]
 1536 0078 202B     		cmp	r3, #32
 1537 007a 25D0     		beq	.L93
 1538              		.loc 1 398 0 discriminator 5
 1539 007c 7B88     		ldrh	r3, [r7, #2]
 1540 007e 402B     		cmp	r3, #64
 1541 0080 22D0     		beq	.L93
 1542              		.loc 1 398 0 discriminator 6
 1543 0082 7B88     		ldrh	r3, [r7, #2]
 1544 0084 802B     		cmp	r3, #128
 1545 0086 1FD0     		beq	.L93
 1546              		.loc 1 398 0 discriminator 7
 1547 0088 7B88     		ldrh	r3, [r7, #2]
 1548 008a B3F5807F 		cmp	r3, #256
 1549 008e 1BD0     		beq	.L93
 1550              		.loc 1 398 0 discriminator 8
 1551 0090 7B88     		ldrh	r3, [r7, #2]
 1552 0092 B3F5007F 		cmp	r3, #512
 1553 0096 17D0     		beq	.L93
 1554              		.loc 1 398 0 discriminator 9
 1555 0098 7B88     		ldrh	r3, [r7, #2]
 1556 009a B3F5806F 		cmp	r3, #1024
 1557 009e 13D0     		beq	.L93
 1558              		.loc 1 398 0 discriminator 10
 1559 00a0 7B88     		ldrh	r3, [r7, #2]
 1560 00a2 B3F5006F 		cmp	r3, #2048
 1561 00a6 0FD0     		beq	.L93
 1562              		.loc 1 398 0 discriminator 11
 1563 00a8 7B88     		ldrh	r3, [r7, #2]
 1564 00aa B3F5805F 		cmp	r3, #4096
 1565 00ae 0BD0     		beq	.L93
 1566              		.loc 1 398 0 discriminator 12
 1567 00b0 7B88     		ldrh	r3, [r7, #2]
 1568 00b2 B3F5005F 		cmp	r3, #8192
 1569 00b6 07D0     		beq	.L93
 1570              		.loc 1 398 0 discriminator 13
 1571 00b8 7B88     		ldrh	r3, [r7, #2]
 1572 00ba B3F5804F 		cmp	r3, #16384
 1573 00be 03D0     		beq	.L93
 1574              		.loc 1 398 0 discriminator 14
 1575 00c0 7B88     		ldrh	r3, [r7, #2]
 1576 00c2 B3F5004F 		cmp	r3, #32768
 1577 00c6 02D1     		bne	.L94
 1578              	.L93:
 1579              		.loc 1 398 0 discriminator 1
 1580 00c8 4FF00103 		mov	r3, #1
 1581 00cc 01E0     		b	.L95
 1582              	.L94:
 1583              		.loc 1 398 0 discriminator 3
 1584 00ce 4FF00003 		mov	r3, #0
 1585              	.L95:
 1586              		.loc 1 398 0 discriminator 4
 1587 00d2 1846     		mov	r0, r3
 1588 00d4 FFF7FEFF 		bl	assert_param
 399:../libs/StdPeripheralDriver/src/stm32f10x_gpio.c ****   assert_param(IS_GPIO_BIT_ACTION(BitVal)); 
 1589              		.loc 1 399 0 is_stmt 1 discriminator 4
 1590 00d8 7B78     		ldrb	r3, [r7, #1]	@ zero_extendqisi2
 1591 00da 002B     		cmp	r3, #0
 1592 00dc 02D0     		beq	.L96
 1593              		.loc 1 399 0 is_stmt 0 discriminator 2
 1594 00de 7B78     		ldrb	r3, [r7, #1]	@ zero_extendqisi2
 1595 00e0 012B     		cmp	r3, #1
 1596 00e2 02D1     		bne	.L97
 1597              	.L96:
 1598              		.loc 1 399 0 discriminator 1
 1599 00e4 4FF00103 		mov	r3, #1
 1600 00e8 01E0     		b	.L98
 1601              	.L97:
 1602              		.loc 1 399 0 discriminator 3
 1603 00ea 4FF00003 		mov	r3, #0
 1604              	.L98:
 1605              		.loc 1 399 0 discriminator 4
 1606 00ee 1846     		mov	r0, r3
 1607 00f0 FFF7FEFF 		bl	assert_param
 400:../libs/StdPeripheralDriver/src/stm32f10x_gpio.c ****   
 401:../libs/StdPeripheralDriver/src/stm32f10x_gpio.c ****   if (BitVal != Bit_RESET)
 1608              		.loc 1 401 0 is_stmt 1 discriminator 4
 1609 00f4 7B78     		ldrb	r3, [r7, #1]	@ zero_extendqisi2
 1610 00f6 002B     		cmp	r3, #0
 1611 00f8 03D0     		beq	.L99
 402:../libs/StdPeripheralDriver/src/stm32f10x_gpio.c ****   {
 403:../libs/StdPeripheralDriver/src/stm32f10x_gpio.c ****     GPIOx->BSRR = GPIO_Pin;
 1612              		.loc 1 403 0
 1613 00fa 7A88     		ldrh	r2, [r7, #2]
 1614 00fc 7B68     		ldr	r3, [r7, #4]
 1615 00fe 1A61     		str	r2, [r3, #16]
 1616 0100 02E0     		b	.L89
 1617              	.L99:
 404:../libs/StdPeripheralDriver/src/stm32f10x_gpio.c ****   }
 405:../libs/StdPeripheralDriver/src/stm32f10x_gpio.c ****   else
 406:../libs/StdPeripheralDriver/src/stm32f10x_gpio.c ****   {
 407:../libs/StdPeripheralDriver/src/stm32f10x_gpio.c ****     GPIOx->BRR = GPIO_Pin;
 1618              		.loc 1 407 0
 1619 0102 7A88     		ldrh	r2, [r7, #2]
 1620 0104 7B68     		ldr	r3, [r7, #4]
 1621 0106 5A61     		str	r2, [r3, #20]
 1622              	.L89:
 408:../libs/StdPeripheralDriver/src/stm32f10x_gpio.c ****   }
 409:../libs/StdPeripheralDriver/src/stm32f10x_gpio.c **** }
 1623              		.loc 1 409 0
 1624 0108 07F10807 		add	r7, r7, #8
 1625 010c BD46     		mov	sp, r7
 1626 010e 80BD     		pop	{r7, pc}
 1627              	.L102:
 1628              		.align	2
 1629              	.L101:
 1630 0110 00080140 		.word	1073809408
 1631 0114 000C0140 		.word	1073810432
 1632 0118 00100140 		.word	1073811456
 1633 011c 00140140 		.word	1073812480
 1634 0120 00180140 		.word	1073813504
 1635 0124 001C0140 		.word	1073814528
 1636 0128 00200140 		.word	1073815552
 1637              		.cfi_endproc
 1638              	.LFE39:
 1640              		.section	.text.GPIO_Write,"ax",%progbits
 1641              		.align	2
 1642              		.global	GPIO_Write
 1643              		.thumb
 1644              		.thumb_func
 1646              	GPIO_Write:
 1647              	.LFB40:
 410:../libs/StdPeripheralDriver/src/stm32f10x_gpio.c **** 
 411:../libs/StdPeripheralDriver/src/stm32f10x_gpio.c **** /**
 412:../libs/StdPeripheralDriver/src/stm32f10x_gpio.c ****   * @brief  Writes data to the specified GPIO data port.
 413:../libs/StdPeripheralDriver/src/stm32f10x_gpio.c ****   * @param  GPIOx: where x can be (A..G) to select the GPIO peripheral.
 414:../libs/StdPeripheralDriver/src/stm32f10x_gpio.c ****   * @param  PortVal: specifies the value to be written to the port output data register.
 415:../libs/StdPeripheralDriver/src/stm32f10x_gpio.c ****   * @retval None
 416:../libs/StdPeripheralDriver/src/stm32f10x_gpio.c ****   */
 417:../libs/StdPeripheralDriver/src/stm32f10x_gpio.c **** void GPIO_Write(GPIO_TypeDef* GPIOx, uint16_t PortVal)
 418:../libs/StdPeripheralDriver/src/stm32f10x_gpio.c **** {
 1648              		.loc 1 418 0
 1649              		.cfi_startproc
 1650              		@ args = 0, pretend = 0, frame = 8
 1651              		@ frame_needed = 1, uses_anonymous_args = 0
 1652 0000 80B5     		push	{r7, lr}
 1653              	.LCFI32:
 1654              		.cfi_def_cfa_offset 8
 1655              		.cfi_offset 7, -8
 1656              		.cfi_offset 14, -4
 1657 0002 82B0     		sub	sp, sp, #8
 1658              	.LCFI33:
 1659              		.cfi_def_cfa_offset 16
 1660 0004 00AF     		add	r7, sp, #0
 1661              	.LCFI34:
 1662              		.cfi_def_cfa_register 7
 1663 0006 7860     		str	r0, [r7, #4]
 1664 0008 0B46     		mov	r3, r1
 1665 000a 7B80     		strh	r3, [r7, #2]	@ movhi
 419:../libs/StdPeripheralDriver/src/stm32f10x_gpio.c ****   /* Check the parameters */
 420:../libs/StdPeripheralDriver/src/stm32f10x_gpio.c ****   assert_param(IS_GPIO_ALL_PERIPH(GPIOx));
 1666              		.loc 1 420 0
 1667 000c 7A68     		ldr	r2, [r7, #4]
 1668 000e 154B     		ldr	r3, .L107
 1669 0010 9A42     		cmp	r2, r3
 1670 0012 17D0     		beq	.L104
 1671              		.loc 1 420 0 is_stmt 0 discriminator 2
 1672 0014 7A68     		ldr	r2, [r7, #4]
 1673 0016 144B     		ldr	r3, .L107+4
 1674 0018 9A42     		cmp	r2, r3
 1675 001a 13D0     		beq	.L104
 1676              		.loc 1 420 0 discriminator 1
 1677 001c 7A68     		ldr	r2, [r7, #4]
 1678 001e 134B     		ldr	r3, .L107+8
 1679 0020 9A42     		cmp	r2, r3
 1680 0022 0FD0     		beq	.L104
 1681              		.loc 1 420 0 discriminator 2
 1682 0024 7A68     		ldr	r2, [r7, #4]
 1683 0026 124B     		ldr	r3, .L107+12
 1684 0028 9A42     		cmp	r2, r3
 1685 002a 0BD0     		beq	.L104
 1686              		.loc 1 420 0 discriminator 3
 1687 002c 7A68     		ldr	r2, [r7, #4]
 1688 002e 114B     		ldr	r3, .L107+16
 1689 0030 9A42     		cmp	r2, r3
 1690 0032 07D0     		beq	.L104
 1691              		.loc 1 420 0 discriminator 4
 1692 0034 7A68     		ldr	r2, [r7, #4]
 1693 0036 104B     		ldr	r3, .L107+20
 1694 0038 9A42     		cmp	r2, r3
 1695 003a 03D0     		beq	.L104
 1696              		.loc 1 420 0 discriminator 5
 1697 003c 7A68     		ldr	r2, [r7, #4]
 1698 003e 0F4B     		ldr	r3, .L107+24
 1699 0040 9A42     		cmp	r2, r3
 1700 0042 02D1     		bne	.L105
 1701              	.L104:
 1702              		.loc 1 420 0 discriminator 1
 1703 0044 4FF00103 		mov	r3, #1
 1704 0048 01E0     		b	.L106
 1705              	.L105:
 1706              		.loc 1 420 0 discriminator 3
 1707 004a 4FF00003 		mov	r3, #0
 1708              	.L106:
 1709              		.loc 1 420 0 discriminator 4
 1710 004e 1846     		mov	r0, r3
 1711 0050 FFF7FEFF 		bl	assert_param
 421:../libs/StdPeripheralDriver/src/stm32f10x_gpio.c ****   
 422:../libs/StdPeripheralDriver/src/stm32f10x_gpio.c ****   GPIOx->ODR = PortVal;
 1712              		.loc 1 422 0 is_stmt 1 discriminator 4
 1713 0054 7A88     		ldrh	r2, [r7, #2]
 1714 0056 7B68     		ldr	r3, [r7, #4]
 1715 0058 DA60     		str	r2, [r3, #12]
 423:../libs/StdPeripheralDriver/src/stm32f10x_gpio.c **** }
 1716              		.loc 1 423 0 discriminator 4
 1717 005a 07F10807 		add	r7, r7, #8
 1718 005e BD46     		mov	sp, r7
 1719 0060 80BD     		pop	{r7, pc}
 1720              	.L108:
 1721 0062 00BF     		.align	2
 1722              	.L107:
 1723 0064 00080140 		.word	1073809408
 1724 0068 000C0140 		.word	1073810432
 1725 006c 00100140 		.word	1073811456
 1726 0070 00140140 		.word	1073812480
 1727 0074 00180140 		.word	1073813504
 1728 0078 001C0140 		.word	1073814528
 1729 007c 00200140 		.word	1073815552
 1730              		.cfi_endproc
 1731              	.LFE40:
 1733              		.section	.text.GPIO_PinLockConfig,"ax",%progbits
 1734              		.align	2
 1735              		.global	GPIO_PinLockConfig
 1736              		.thumb
 1737              		.thumb_func
 1739              	GPIO_PinLockConfig:
 1740              	.LFB41:
 424:../libs/StdPeripheralDriver/src/stm32f10x_gpio.c **** 
 425:../libs/StdPeripheralDriver/src/stm32f10x_gpio.c **** /**
 426:../libs/StdPeripheralDriver/src/stm32f10x_gpio.c ****   * @brief  Locks GPIO Pins configuration registers.
 427:../libs/StdPeripheralDriver/src/stm32f10x_gpio.c ****   * @param  GPIOx: where x can be (A..G) to select the GPIO peripheral.
 428:../libs/StdPeripheralDriver/src/stm32f10x_gpio.c ****   * @param  GPIO_Pin: specifies the port bit to be written.
 429:../libs/StdPeripheralDriver/src/stm32f10x_gpio.c ****   *   This parameter can be any combination of GPIO_Pin_x where x can be (0..15).
 430:../libs/StdPeripheralDriver/src/stm32f10x_gpio.c ****   * @retval None
 431:../libs/StdPeripheralDriver/src/stm32f10x_gpio.c ****   */
 432:../libs/StdPeripheralDriver/src/stm32f10x_gpio.c **** void GPIO_PinLockConfig(GPIO_TypeDef* GPIOx, uint16_t GPIO_Pin)
 433:../libs/StdPeripheralDriver/src/stm32f10x_gpio.c **** {
 1741              		.loc 1 433 0
 1742              		.cfi_startproc
 1743              		@ args = 0, pretend = 0, frame = 16
 1744              		@ frame_needed = 1, uses_anonymous_args = 0
 1745 0000 80B5     		push	{r7, lr}
 1746              	.LCFI35:
 1747              		.cfi_def_cfa_offset 8
 1748              		.cfi_offset 7, -8
 1749              		.cfi_offset 14, -4
 1750 0002 84B0     		sub	sp, sp, #16
 1751              	.LCFI36:
 1752              		.cfi_def_cfa_offset 24
 1753 0004 00AF     		add	r7, sp, #0
 1754              	.LCFI37:
 1755              		.cfi_def_cfa_register 7
 1756 0006 7860     		str	r0, [r7, #4]
 1757 0008 0B46     		mov	r3, r1
 1758 000a 7B80     		strh	r3, [r7, #2]	@ movhi
 434:../libs/StdPeripheralDriver/src/stm32f10x_gpio.c ****   uint32_t tmp = 0x00010000;
 1759              		.loc 1 434 0
 1760 000c 4FF48033 		mov	r3, #65536
 1761 0010 FB60     		str	r3, [r7, #12]
 435:../libs/StdPeripheralDriver/src/stm32f10x_gpio.c ****   
 436:../libs/StdPeripheralDriver/src/stm32f10x_gpio.c ****   /* Check the parameters */
 437:../libs/StdPeripheralDriver/src/stm32f10x_gpio.c ****   assert_param(IS_GPIO_ALL_PERIPH(GPIOx));
 1762              		.loc 1 437 0
 1763 0012 7A68     		ldr	r2, [r7, #4]
 1764 0014 214B     		ldr	r3, .L113
 1765 0016 9A42     		cmp	r2, r3
 1766 0018 17D0     		beq	.L110
 1767              		.loc 1 437 0 is_stmt 0 discriminator 2
 1768 001a 7A68     		ldr	r2, [r7, #4]
 1769 001c 204B     		ldr	r3, .L113+4
 1770 001e 9A42     		cmp	r2, r3
 1771 0020 13D0     		beq	.L110
 1772              		.loc 1 437 0 discriminator 1
 1773 0022 7A68     		ldr	r2, [r7, #4]
 1774 0024 1F4B     		ldr	r3, .L113+8
 1775 0026 9A42     		cmp	r2, r3
 1776 0028 0FD0     		beq	.L110
 1777              		.loc 1 437 0 discriminator 2
 1778 002a 7A68     		ldr	r2, [r7, #4]
 1779 002c 1E4B     		ldr	r3, .L113+12
 1780 002e 9A42     		cmp	r2, r3
 1781 0030 0BD0     		beq	.L110
 1782              		.loc 1 437 0 discriminator 3
 1783 0032 7A68     		ldr	r2, [r7, #4]
 1784 0034 1D4B     		ldr	r3, .L113+16
 1785 0036 9A42     		cmp	r2, r3
 1786 0038 07D0     		beq	.L110
 1787              		.loc 1 437 0 discriminator 4
 1788 003a 7A68     		ldr	r2, [r7, #4]
 1789 003c 1C4B     		ldr	r3, .L113+20
 1790 003e 9A42     		cmp	r2, r3
 1791 0040 03D0     		beq	.L110
 1792              		.loc 1 437 0 discriminator 5
 1793 0042 7A68     		ldr	r2, [r7, #4]
 1794 0044 1B4B     		ldr	r3, .L113+24
 1795 0046 9A42     		cmp	r2, r3
 1796 0048 02D1     		bne	.L111
 1797              	.L110:
 1798              		.loc 1 437 0 discriminator 1
 1799 004a 4FF00103 		mov	r3, #1
 1800 004e 01E0     		b	.L112
 1801              	.L111:
 1802              		.loc 1 437 0 discriminator 3
 1803 0050 4FF00003 		mov	r3, #0
 1804              	.L112:
 1805              		.loc 1 437 0 discriminator 4
 1806 0054 1846     		mov	r0, r3
 1807 0056 FFF7FEFF 		bl	assert_param
 438:../libs/StdPeripheralDriver/src/stm32f10x_gpio.c ****   assert_param(IS_GPIO_PIN(GPIO_Pin));
 1808              		.loc 1 438 0 is_stmt 1 discriminator 4
 1809 005a 7B88     		ldrh	r3, [r7, #2]
 1810 005c 002B     		cmp	r3, #0
 1811 005e 0CBF     		ite	eq
 1812 0060 0023     		moveq	r3, #0
 1813 0062 0123     		movne	r3, #1
 1814 0064 DBB2     		uxtb	r3, r3
 1815 0066 1846     		mov	r0, r3
 1816 0068 FFF7FEFF 		bl	assert_param
 439:../libs/StdPeripheralDriver/src/stm32f10x_gpio.c ****   
 440:../libs/StdPeripheralDriver/src/stm32f10x_gpio.c ****   tmp |= GPIO_Pin;
 1817              		.loc 1 440 0 discriminator 4
 1818 006c 7B88     		ldrh	r3, [r7, #2]
 1819 006e FA68     		ldr	r2, [r7, #12]
 1820 0070 1343     		orrs	r3, r3, r2
 1821 0072 FB60     		str	r3, [r7, #12]
 441:../libs/StdPeripheralDriver/src/stm32f10x_gpio.c ****   /* Set LCKK bit */
 442:../libs/StdPeripheralDriver/src/stm32f10x_gpio.c ****   GPIOx->LCKR = tmp;
 1822              		.loc 1 442 0 discriminator 4
 1823 0074 7B68     		ldr	r3, [r7, #4]
 1824 0076 FA68     		ldr	r2, [r7, #12]
 1825 0078 9A61     		str	r2, [r3, #24]
 443:../libs/StdPeripheralDriver/src/stm32f10x_gpio.c ****   /* Reset LCKK bit */
 444:../libs/StdPeripheralDriver/src/stm32f10x_gpio.c ****   GPIOx->LCKR =  GPIO_Pin;
 1826              		.loc 1 444 0 discriminator 4
 1827 007a 7A88     		ldrh	r2, [r7, #2]
 1828 007c 7B68     		ldr	r3, [r7, #4]
 1829 007e 9A61     		str	r2, [r3, #24]
 445:../libs/StdPeripheralDriver/src/stm32f10x_gpio.c ****   /* Set LCKK bit */
 446:../libs/StdPeripheralDriver/src/stm32f10x_gpio.c ****   GPIOx->LCKR = tmp;
 1830              		.loc 1 446 0 discriminator 4
 1831 0080 7B68     		ldr	r3, [r7, #4]
 1832 0082 FA68     		ldr	r2, [r7, #12]
 1833 0084 9A61     		str	r2, [r3, #24]
 447:../libs/StdPeripheralDriver/src/stm32f10x_gpio.c ****   /* Read LCKK bit*/
 448:../libs/StdPeripheralDriver/src/stm32f10x_gpio.c ****   tmp = GPIOx->LCKR;
 1834              		.loc 1 448 0 discriminator 4
 1835 0086 7B68     		ldr	r3, [r7, #4]
 1836 0088 9B69     		ldr	r3, [r3, #24]
 1837 008a FB60     		str	r3, [r7, #12]
 449:../libs/StdPeripheralDriver/src/stm32f10x_gpio.c ****   /* Read LCKK bit*/
 450:../libs/StdPeripheralDriver/src/stm32f10x_gpio.c ****   tmp = GPIOx->LCKR;
 1838              		.loc 1 450 0 discriminator 4
 1839 008c 7B68     		ldr	r3, [r7, #4]
 1840 008e 9B69     		ldr	r3, [r3, #24]
 1841 0090 FB60     		str	r3, [r7, #12]
 451:../libs/StdPeripheralDriver/src/stm32f10x_gpio.c **** }
 1842              		.loc 1 451 0 discriminator 4
 1843 0092 07F11007 		add	r7, r7, #16
 1844 0096 BD46     		mov	sp, r7
 1845 0098 80BD     		pop	{r7, pc}
 1846              	.L114:
 1847 009a 00BF     		.align	2
 1848              	.L113:
 1849 009c 00080140 		.word	1073809408
 1850 00a0 000C0140 		.word	1073810432
 1851 00a4 00100140 		.word	1073811456
 1852 00a8 00140140 		.word	1073812480
 1853 00ac 00180140 		.word	1073813504
 1854 00b0 001C0140 		.word	1073814528
 1855 00b4 00200140 		.word	1073815552
 1856              		.cfi_endproc
 1857              	.LFE41:
 1859              		.section	.text.GPIO_EventOutputConfig,"ax",%progbits
 1860              		.align	2
 1861              		.global	GPIO_EventOutputConfig
 1862              		.thumb
 1863              		.thumb_func
 1865              	GPIO_EventOutputConfig:
 1866              	.LFB42:
 452:../libs/StdPeripheralDriver/src/stm32f10x_gpio.c **** 
 453:../libs/StdPeripheralDriver/src/stm32f10x_gpio.c **** /**
 454:../libs/StdPeripheralDriver/src/stm32f10x_gpio.c ****   * @brief  Selects the GPIO pin used as Event output.
 455:../libs/StdPeripheralDriver/src/stm32f10x_gpio.c ****   * @param  GPIO_PortSource: selects the GPIO port to be used as source
 456:../libs/StdPeripheralDriver/src/stm32f10x_gpio.c ****   *   for Event output.
 457:../libs/StdPeripheralDriver/src/stm32f10x_gpio.c ****   *   This parameter can be GPIO_PortSourceGPIOx where x can be (A..E).
 458:../libs/StdPeripheralDriver/src/stm32f10x_gpio.c ****   * @param  GPIO_PinSource: specifies the pin for the Event output.
 459:../libs/StdPeripheralDriver/src/stm32f10x_gpio.c ****   *   This parameter can be GPIO_PinSourcex where x can be (0..15).
 460:../libs/StdPeripheralDriver/src/stm32f10x_gpio.c ****   * @retval None
 461:../libs/StdPeripheralDriver/src/stm32f10x_gpio.c ****   */
 462:../libs/StdPeripheralDriver/src/stm32f10x_gpio.c **** void GPIO_EventOutputConfig(uint8_t GPIO_PortSource, uint8_t GPIO_PinSource)
 463:../libs/StdPeripheralDriver/src/stm32f10x_gpio.c **** {
 1867              		.loc 1 463 0
 1868              		.cfi_startproc
 1869              		@ args = 0, pretend = 0, frame = 16
 1870              		@ frame_needed = 1, uses_anonymous_args = 0
 1871 0000 80B5     		push	{r7, lr}
 1872              	.LCFI38:
 1873              		.cfi_def_cfa_offset 8
 1874              		.cfi_offset 7, -8
 1875              		.cfi_offset 14, -4
 1876 0002 84B0     		sub	sp, sp, #16
 1877              	.LCFI39:
 1878              		.cfi_def_cfa_offset 24
 1879 0004 00AF     		add	r7, sp, #0
 1880              	.LCFI40:
 1881              		.cfi_def_cfa_register 7
 1882 0006 0246     		mov	r2, r0
 1883 0008 0B46     		mov	r3, r1
 1884 000a FA71     		strb	r2, [r7, #7]
 1885 000c BB71     		strb	r3, [r7, #6]
 464:../libs/StdPeripheralDriver/src/stm32f10x_gpio.c ****   uint32_t tmpreg = 0x00;
 1886              		.loc 1 464 0
 1887 000e 4FF00003 		mov	r3, #0
 1888 0012 FB60     		str	r3, [r7, #12]
 465:../libs/StdPeripheralDriver/src/stm32f10x_gpio.c ****   /* Check the parameters */
 466:../libs/StdPeripheralDriver/src/stm32f10x_gpio.c ****   assert_param(IS_GPIO_EVENTOUT_PORT_SOURCE(GPIO_PortSource));
 1889              		.loc 1 466 0
 1890 0014 FB79     		ldrb	r3, [r7, #7]	@ zero_extendqisi2
 1891 0016 002B     		cmp	r3, #0
 1892 0018 0BD0     		beq	.L116
 1893              		.loc 1 466 0 is_stmt 0 discriminator 2
 1894 001a FB79     		ldrb	r3, [r7, #7]	@ zero_extendqisi2
 1895 001c 012B     		cmp	r3, #1
 1896 001e 08D0     		beq	.L116
 1897              		.loc 1 466 0 discriminator 1
 1898 0020 FB79     		ldrb	r3, [r7, #7]	@ zero_extendqisi2
 1899 0022 022B     		cmp	r3, #2
 1900 0024 05D0     		beq	.L116
 1901              		.loc 1 466 0 discriminator 2
 1902 0026 FB79     		ldrb	r3, [r7, #7]	@ zero_extendqisi2
 1903 0028 032B     		cmp	r3, #3
 1904 002a 02D0     		beq	.L116
 1905              		.loc 1 466 0 discriminator 3
 1906 002c FB79     		ldrb	r3, [r7, #7]	@ zero_extendqisi2
 1907 002e 042B     		cmp	r3, #4
 1908 0030 02D1     		bne	.L117
 1909              	.L116:
 1910              		.loc 1 466 0 discriminator 1
 1911 0032 4FF00103 		mov	r3, #1
 1912 0036 01E0     		b	.L118
 1913              	.L117:
 1914              		.loc 1 466 0 discriminator 3
 1915 0038 4FF00003 		mov	r3, #0
 1916              	.L118:
 1917              		.loc 1 466 0 discriminator 4
 1918 003c 1846     		mov	r0, r3
 1919 003e FFF7FEFF 		bl	assert_param
 467:../libs/StdPeripheralDriver/src/stm32f10x_gpio.c ****   assert_param(IS_GPIO_PIN_SOURCE(GPIO_PinSource));
 1920              		.loc 1 467 0 is_stmt 1 discriminator 4
 1921 0042 BB79     		ldrb	r3, [r7, #6]	@ zero_extendqisi2
 1922 0044 002B     		cmp	r3, #0
 1923 0046 2CD0     		beq	.L119
 1924              		.loc 1 467 0 is_stmt 0 discriminator 2
 1925 0048 BB79     		ldrb	r3, [r7, #6]	@ zero_extendqisi2
 1926 004a 012B     		cmp	r3, #1
 1927 004c 29D0     		beq	.L119
 1928              		.loc 1 467 0 discriminator 1
 1929 004e BB79     		ldrb	r3, [r7, #6]	@ zero_extendqisi2
 1930 0050 022B     		cmp	r3, #2
 1931 0052 26D0     		beq	.L119
 1932              		.loc 1 467 0 discriminator 2
 1933 0054 BB79     		ldrb	r3, [r7, #6]	@ zero_extendqisi2
 1934 0056 032B     		cmp	r3, #3
 1935 0058 23D0     		beq	.L119
 1936              		.loc 1 467 0 discriminator 3
 1937 005a BB79     		ldrb	r3, [r7, #6]	@ zero_extendqisi2
 1938 005c 042B     		cmp	r3, #4
 1939 005e 20D0     		beq	.L119
 1940              		.loc 1 467 0 discriminator 4
 1941 0060 BB79     		ldrb	r3, [r7, #6]	@ zero_extendqisi2
 1942 0062 052B     		cmp	r3, #5
 1943 0064 1DD0     		beq	.L119
 1944              		.loc 1 467 0 discriminator 5
 1945 0066 BB79     		ldrb	r3, [r7, #6]	@ zero_extendqisi2
 1946 0068 062B     		cmp	r3, #6
 1947 006a 1AD0     		beq	.L119
 1948              		.loc 1 467 0 discriminator 6
 1949 006c BB79     		ldrb	r3, [r7, #6]	@ zero_extendqisi2
 1950 006e 072B     		cmp	r3, #7
 1951 0070 17D0     		beq	.L119
 1952              		.loc 1 467 0 discriminator 7
 1953 0072 BB79     		ldrb	r3, [r7, #6]	@ zero_extendqisi2
 1954 0074 082B     		cmp	r3, #8
 1955 0076 14D0     		beq	.L119
 1956              		.loc 1 467 0 discriminator 8
 1957 0078 BB79     		ldrb	r3, [r7, #6]	@ zero_extendqisi2
 1958 007a 092B     		cmp	r3, #9
 1959 007c 11D0     		beq	.L119
 1960              		.loc 1 467 0 discriminator 9
 1961 007e BB79     		ldrb	r3, [r7, #6]	@ zero_extendqisi2
 1962 0080 0A2B     		cmp	r3, #10
 1963 0082 0ED0     		beq	.L119
 1964              		.loc 1 467 0 discriminator 10
 1965 0084 BB79     		ldrb	r3, [r7, #6]	@ zero_extendqisi2
 1966 0086 0B2B     		cmp	r3, #11
 1967 0088 0BD0     		beq	.L119
 1968              		.loc 1 467 0 discriminator 11
 1969 008a BB79     		ldrb	r3, [r7, #6]	@ zero_extendqisi2
 1970 008c 0C2B     		cmp	r3, #12
 1971 008e 08D0     		beq	.L119
 1972              		.loc 1 467 0 discriminator 12
 1973 0090 BB79     		ldrb	r3, [r7, #6]	@ zero_extendqisi2
 1974 0092 0D2B     		cmp	r3, #13
 1975 0094 05D0     		beq	.L119
 1976              		.loc 1 467 0 discriminator 13
 1977 0096 BB79     		ldrb	r3, [r7, #6]	@ zero_extendqisi2
 1978 0098 0E2B     		cmp	r3, #14
 1979 009a 02D0     		beq	.L119
 1980              		.loc 1 467 0 discriminator 14
 1981 009c BB79     		ldrb	r3, [r7, #6]	@ zero_extendqisi2
 1982 009e 0F2B     		cmp	r3, #15
 1983 00a0 02D1     		bne	.L120
 1984              	.L119:
 1985              		.loc 1 467 0 discriminator 1
 1986 00a2 4FF00103 		mov	r3, #1
 1987 00a6 01E0     		b	.L121
 1988              	.L120:
 1989              		.loc 1 467 0 discriminator 3
 1990 00a8 4FF00003 		mov	r3, #0
 1991              	.L121:
 1992              		.loc 1 467 0 discriminator 4
 1993 00ac 1846     		mov	r0, r3
 1994 00ae FFF7FEFF 		bl	assert_param
 468:../libs/StdPeripheralDriver/src/stm32f10x_gpio.c ****     
 469:../libs/StdPeripheralDriver/src/stm32f10x_gpio.c ****   tmpreg = AFIO->EVCR;
 1995              		.loc 1 469 0 is_stmt 1 discriminator 4
 1996 00b2 0C4B     		ldr	r3, .L122
 1997 00b4 1B68     		ldr	r3, [r3, #0]
 1998 00b6 FB60     		str	r3, [r7, #12]
 470:../libs/StdPeripheralDriver/src/stm32f10x_gpio.c ****   /* Clear the PORT[6:4] and PIN[3:0] bits */
 471:../libs/StdPeripheralDriver/src/stm32f10x_gpio.c ****   tmpreg &= EVCR_PORTPINCONFIG_MASK;
 1999              		.loc 1 471 0 discriminator 4
 2000 00b8 FA68     		ldr	r2, [r7, #12]
 2001 00ba 4FF68073 		movw	r3, #65408
 2002 00be 1340     		ands	r3, r3, r2
 2003 00c0 FB60     		str	r3, [r7, #12]
 472:../libs/StdPeripheralDriver/src/stm32f10x_gpio.c ****   tmpreg |= (uint32_t)GPIO_PortSource << 0x04;
 2004              		.loc 1 472 0 discriminator 4
 2005 00c2 FB79     		ldrb	r3, [r7, #7]	@ zero_extendqisi2
 2006 00c4 4FEA0313 		lsl	r3, r3, #4
 2007 00c8 FA68     		ldr	r2, [r7, #12]
 2008 00ca 1343     		orrs	r3, r3, r2
 2009 00cc FB60     		str	r3, [r7, #12]
 473:../libs/StdPeripheralDriver/src/stm32f10x_gpio.c ****   tmpreg |= GPIO_PinSource;
 2010              		.loc 1 473 0 discriminator 4
 2011 00ce BB79     		ldrb	r3, [r7, #6]	@ zero_extendqisi2
 2012 00d0 FA68     		ldr	r2, [r7, #12]
 2013 00d2 1343     		orrs	r3, r3, r2
 2014 00d4 FB60     		str	r3, [r7, #12]
 474:../libs/StdPeripheralDriver/src/stm32f10x_gpio.c ****   AFIO->EVCR = tmpreg;
 2015              		.loc 1 474 0 discriminator 4
 2016 00d6 034B     		ldr	r3, .L122
 2017 00d8 FA68     		ldr	r2, [r7, #12]
 2018 00da 1A60     		str	r2, [r3, #0]
 475:../libs/StdPeripheralDriver/src/stm32f10x_gpio.c **** }
 2019              		.loc 1 475 0 discriminator 4
 2020 00dc 07F11007 		add	r7, r7, #16
 2021 00e0 BD46     		mov	sp, r7
 2022 00e2 80BD     		pop	{r7, pc}
 2023              	.L123:
 2024              		.align	2
 2025              	.L122:
 2026 00e4 00000140 		.word	1073807360
 2027              		.cfi_endproc
 2028              	.LFE42:
 2030              		.section	.text.GPIO_EventOutputCmd,"ax",%progbits
 2031              		.align	2
 2032              		.global	GPIO_EventOutputCmd
 2033              		.thumb
 2034              		.thumb_func
 2036              	GPIO_EventOutputCmd:
 2037              	.LFB43:
 476:../libs/StdPeripheralDriver/src/stm32f10x_gpio.c **** 
 477:../libs/StdPeripheralDriver/src/stm32f10x_gpio.c **** /**
 478:../libs/StdPeripheralDriver/src/stm32f10x_gpio.c ****   * @brief  Enables or disables the Event Output.
 479:../libs/StdPeripheralDriver/src/stm32f10x_gpio.c ****   * @param  NewState: new state of the Event output.
 480:../libs/StdPeripheralDriver/src/stm32f10x_gpio.c ****   *   This parameter can be: ENABLE or DISABLE.
 481:../libs/StdPeripheralDriver/src/stm32f10x_gpio.c ****   * @retval None
 482:../libs/StdPeripheralDriver/src/stm32f10x_gpio.c ****   */
 483:../libs/StdPeripheralDriver/src/stm32f10x_gpio.c **** void GPIO_EventOutputCmd(FunctionalState NewState)
 484:../libs/StdPeripheralDriver/src/stm32f10x_gpio.c **** {
 2038              		.loc 1 484 0
 2039              		.cfi_startproc
 2040              		@ args = 0, pretend = 0, frame = 8
 2041              		@ frame_needed = 1, uses_anonymous_args = 0
 2042 0000 80B5     		push	{r7, lr}
 2043              	.LCFI41:
 2044              		.cfi_def_cfa_offset 8
 2045              		.cfi_offset 7, -8
 2046              		.cfi_offset 14, -4
 2047 0002 82B0     		sub	sp, sp, #8
 2048              	.LCFI42:
 2049              		.cfi_def_cfa_offset 16
 2050 0004 00AF     		add	r7, sp, #0
 2051              	.LCFI43:
 2052              		.cfi_def_cfa_register 7
 2053 0006 0346     		mov	r3, r0
 2054 0008 FB71     		strb	r3, [r7, #7]
 485:../libs/StdPeripheralDriver/src/stm32f10x_gpio.c ****   /* Check the parameters */
 486:../libs/StdPeripheralDriver/src/stm32f10x_gpio.c ****   assert_param(IS_FUNCTIONAL_STATE(NewState));
 2055              		.loc 1 486 0
 2056 000a FB79     		ldrb	r3, [r7, #7]	@ zero_extendqisi2
 2057 000c 002B     		cmp	r3, #0
 2058 000e 02D0     		beq	.L125
 2059              		.loc 1 486 0 is_stmt 0 discriminator 2
 2060 0010 FB79     		ldrb	r3, [r7, #7]	@ zero_extendqisi2
 2061 0012 012B     		cmp	r3, #1
 2062 0014 02D1     		bne	.L126
 2063              	.L125:
 2064              		.loc 1 486 0 discriminator 1
 2065 0016 4FF00103 		mov	r3, #1
 2066 001a 01E0     		b	.L127
 2067              	.L126:
 2068              		.loc 1 486 0 discriminator 3
 2069 001c 4FF00003 		mov	r3, #0
 2070              	.L127:
 2071              		.loc 1 486 0 discriminator 4
 2072 0020 1846     		mov	r0, r3
 2073 0022 FFF7FEFF 		bl	assert_param
 487:../libs/StdPeripheralDriver/src/stm32f10x_gpio.c ****   
 488:../libs/StdPeripheralDriver/src/stm32f10x_gpio.c ****   *(__IO uint32_t *) EVCR_EVOE_BB = (uint32_t)NewState;
 2074              		.loc 1 488 0 is_stmt 1 discriminator 4
 2075 0026 034B     		ldr	r3, .L128
 2076 0028 FA79     		ldrb	r2, [r7, #7]	@ zero_extendqisi2
 2077 002a 1A60     		str	r2, [r3, #0]
 489:../libs/StdPeripheralDriver/src/stm32f10x_gpio.c **** }
 2078              		.loc 1 489 0 discriminator 4
 2079 002c 07F10807 		add	r7, r7, #8
 2080 0030 BD46     		mov	sp, r7
 2081 0032 80BD     		pop	{r7, pc}
 2082              	.L129:
 2083              		.align	2
 2084              	.L128:
 2085 0034 1C002042 		.word	1109393436
 2086              		.cfi_endproc
 2087              	.LFE43:
 2089              		.section	.text.GPIO_PinRemapConfig,"ax",%progbits
 2090              		.align	2
 2091              		.global	GPIO_PinRemapConfig
 2092              		.thumb
 2093              		.thumb_func
 2095              	GPIO_PinRemapConfig:
 2096              	.LFB44:
 490:../libs/StdPeripheralDriver/src/stm32f10x_gpio.c **** 
 491:../libs/StdPeripheralDriver/src/stm32f10x_gpio.c **** /**
 492:../libs/StdPeripheralDriver/src/stm32f10x_gpio.c ****   * @brief  Changes the mapping of the specified pin.
 493:../libs/StdPeripheralDriver/src/stm32f10x_gpio.c ****   * @param  GPIO_Remap: selects the pin to remap.
 494:../libs/StdPeripheralDriver/src/stm32f10x_gpio.c ****   *   This parameter can be one of the following values:
 495:../libs/StdPeripheralDriver/src/stm32f10x_gpio.c ****   *     @arg GPIO_Remap_SPI1             : SPI1 Alternate Function mapping
 496:../libs/StdPeripheralDriver/src/stm32f10x_gpio.c ****   *     @arg GPIO_Remap_I2C1             : I2C1 Alternate Function mapping
 497:../libs/StdPeripheralDriver/src/stm32f10x_gpio.c ****   *     @arg GPIO_Remap_USART1           : USART1 Alternate Function mapping
 498:../libs/StdPeripheralDriver/src/stm32f10x_gpio.c ****   *     @arg GPIO_Remap_USART2           : USART2 Alternate Function mapping
 499:../libs/StdPeripheralDriver/src/stm32f10x_gpio.c ****   *     @arg GPIO_PartialRemap_USART3    : USART3 Partial Alternate Function mapping
 500:../libs/StdPeripheralDriver/src/stm32f10x_gpio.c ****   *     @arg GPIO_FullRemap_USART3       : USART3 Full Alternate Function mapping
 501:../libs/StdPeripheralDriver/src/stm32f10x_gpio.c ****   *     @arg GPIO_PartialRemap_TIM1      : TIM1 Partial Alternate Function mapping
 502:../libs/StdPeripheralDriver/src/stm32f10x_gpio.c ****   *     @arg GPIO_FullRemap_TIM1         : TIM1 Full Alternate Function mapping
 503:../libs/StdPeripheralDriver/src/stm32f10x_gpio.c ****   *     @arg GPIO_PartialRemap1_TIM2     : TIM2 Partial1 Alternate Function mapping
 504:../libs/StdPeripheralDriver/src/stm32f10x_gpio.c ****   *     @arg GPIO_PartialRemap2_TIM2     : TIM2 Partial2 Alternate Function mapping
 505:../libs/StdPeripheralDriver/src/stm32f10x_gpio.c ****   *     @arg GPIO_FullRemap_TIM2         : TIM2 Full Alternate Function mapping
 506:../libs/StdPeripheralDriver/src/stm32f10x_gpio.c ****   *     @arg GPIO_PartialRemap_TIM3      : TIM3 Partial Alternate Function mapping
 507:../libs/StdPeripheralDriver/src/stm32f10x_gpio.c ****   *     @arg GPIO_FullRemap_TIM3         : TIM3 Full Alternate Function mapping
 508:../libs/StdPeripheralDriver/src/stm32f10x_gpio.c ****   *     @arg GPIO_Remap_TIM4             : TIM4 Alternate Function mapping
 509:../libs/StdPeripheralDriver/src/stm32f10x_gpio.c ****   *     @arg GPIO_Remap1_CAN1            : CAN1 Alternate Function mapping
 510:../libs/StdPeripheralDriver/src/stm32f10x_gpio.c ****   *     @arg GPIO_Remap2_CAN1            : CAN1 Alternate Function mapping
 511:../libs/StdPeripheralDriver/src/stm32f10x_gpio.c ****   *     @arg GPIO_Remap_PD01             : PD01 Alternate Function mapping
 512:../libs/StdPeripheralDriver/src/stm32f10x_gpio.c ****   *     @arg GPIO_Remap_TIM5CH4_LSI      : LSI connected to TIM5 Channel4 input capture for calibra
 513:../libs/StdPeripheralDriver/src/stm32f10x_gpio.c ****   *     @arg GPIO_Remap_ADC1_ETRGINJ     : ADC1 External Trigger Injected Conversion remapping
 514:../libs/StdPeripheralDriver/src/stm32f10x_gpio.c ****   *     @arg GPIO_Remap_ADC1_ETRGREG     : ADC1 External Trigger Regular Conversion remapping
 515:../libs/StdPeripheralDriver/src/stm32f10x_gpio.c ****   *     @arg GPIO_Remap_ADC2_ETRGINJ     : ADC2 External Trigger Injected Conversion remapping
 516:../libs/StdPeripheralDriver/src/stm32f10x_gpio.c ****   *     @arg GPIO_Remap_ADC2_ETRGREG     : ADC2 External Trigger Regular Conversion remapping
 517:../libs/StdPeripheralDriver/src/stm32f10x_gpio.c ****   *     @arg GPIO_Remap_ETH              : Ethernet remapping (only for Connectivity line devices)
 518:../libs/StdPeripheralDriver/src/stm32f10x_gpio.c ****   *     @arg GPIO_Remap_CAN2             : CAN2 remapping (only for Connectivity line devices)
 519:../libs/StdPeripheralDriver/src/stm32f10x_gpio.c ****   *     @arg GPIO_Remap_SWJ_NoJTRST      : Full SWJ Enabled (JTAG-DP + SW-DP) but without JTRST
 520:../libs/StdPeripheralDriver/src/stm32f10x_gpio.c ****   *     @arg GPIO_Remap_SWJ_JTAGDisable  : JTAG-DP Disabled and SW-DP Enabled
 521:../libs/StdPeripheralDriver/src/stm32f10x_gpio.c ****   *     @arg GPIO_Remap_SWJ_Disable      : Full SWJ Disabled (JTAG-DP + SW-DP)
 522:../libs/StdPeripheralDriver/src/stm32f10x_gpio.c ****   *     @arg GPIO_Remap_SPI3             : SPI3/I2S3 Alternate Function mapping (only for Connectiv
 523:../libs/StdPeripheralDriver/src/stm32f10x_gpio.c ****   *                                        When the SPI3/I2S3 is remapped using this function, the 
 524:../libs/StdPeripheralDriver/src/stm32f10x_gpio.c ****   *                                        to Full SWJ Enabled (JTAG-DP + SW-DP) but without JTRST.
 525:../libs/StdPeripheralDriver/src/stm32f10x_gpio.c ****   *     @arg GPIO_Remap_TIM2ITR1_PTP_SOF : Ethernet PTP output or USB OTG SOF (Start of Frame) conn
 526:../libs/StdPeripheralDriver/src/stm32f10x_gpio.c ****   *                                        to TIM2 Internal Trigger 1 for calibration (only for Con
 527:../libs/StdPeripheralDriver/src/stm32f10x_gpio.c ****   *                                        If the GPIO_Remap_TIM2ITR1_PTP_SOF is enabled the TIM2 I
 528:../libs/StdPeripheralDriver/src/stm32f10x_gpio.c ****   *                                        Ethernet PTP output. When Reset TIM2 ITR1 is connected t
 529:../libs/StdPeripheralDriver/src/stm32f10x_gpio.c ****   *     @arg GPIO_Remap_PTP_PPS          : Ethernet MAC PPS_PTS output on PB05 (only for Connectivi
 530:../libs/StdPeripheralDriver/src/stm32f10x_gpio.c ****   *     @arg GPIO_Remap_TIM15            : TIM15 Alternate Function mapping (only for Value line de
 531:../libs/StdPeripheralDriver/src/stm32f10x_gpio.c ****   *     @arg GPIO_Remap_TIM16            : TIM16 Alternate Function mapping (only for Value line de
 532:../libs/StdPeripheralDriver/src/stm32f10x_gpio.c ****   *     @arg GPIO_Remap_TIM17            : TIM17 Alternate Function mapping (only for Value line de
 533:../libs/StdPeripheralDriver/src/stm32f10x_gpio.c ****   *     @arg GPIO_Remap_CEC              : CEC Alternate Function mapping (only for Value line devi
 534:../libs/StdPeripheralDriver/src/stm32f10x_gpio.c ****   *     @arg GPIO_Remap_TIM1_DMA         : TIM1 DMA requests mapping (only for Value line devices)
 535:../libs/StdPeripheralDriver/src/stm32f10x_gpio.c ****   *     @arg GPIO_Remap_TIM9             : TIM9 Alternate Function mapping (only for XL-density dev
 536:../libs/StdPeripheralDriver/src/stm32f10x_gpio.c ****   *     @arg GPIO_Remap_TIM10            : TIM10 Alternate Function mapping (only for XL-density de
 537:../libs/StdPeripheralDriver/src/stm32f10x_gpio.c ****   *     @arg GPIO_Remap_TIM11            : TIM11 Alternate Function mapping (only for XL-density de
 538:../libs/StdPeripheralDriver/src/stm32f10x_gpio.c ****   *     @arg GPIO_Remap_TIM13            : TIM13 Alternate Function mapping (only for High density 
 539:../libs/StdPeripheralDriver/src/stm32f10x_gpio.c ****   *     @arg GPIO_Remap_TIM14            : TIM14 Alternate Function mapping (only for High density 
 540:../libs/StdPeripheralDriver/src/stm32f10x_gpio.c ****   *     @arg GPIO_Remap_FSMC_NADV        : FSMC_NADV Alternate Function mapping (only for High dens
 541:../libs/StdPeripheralDriver/src/stm32f10x_gpio.c ****   *     @arg GPIO_Remap_TIM67_DAC_DMA    : TIM6/TIM7 and DAC DMA requests remapping (only for High 
 542:../libs/StdPeripheralDriver/src/stm32f10x_gpio.c ****   *     @arg GPIO_Remap_TIM12            : TIM12 Alternate Function mapping (only for High density 
 543:../libs/StdPeripheralDriver/src/stm32f10x_gpio.c ****   *     @arg GPIO_Remap_MISC             : Miscellaneous Remap (DMA2 Channel5 Position and DAC Trig
 544:../libs/StdPeripheralDriver/src/stm32f10x_gpio.c ****   *                                        only for High density Value line devices)     
 545:../libs/StdPeripheralDriver/src/stm32f10x_gpio.c ****   * @param  NewState: new state of the port pin remapping.
 546:../libs/StdPeripheralDriver/src/stm32f10x_gpio.c ****   *   This parameter can be: ENABLE or DISABLE.
 547:../libs/StdPeripheralDriver/src/stm32f10x_gpio.c ****   * @retval None
 548:../libs/StdPeripheralDriver/src/stm32f10x_gpio.c ****   */
 549:../libs/StdPeripheralDriver/src/stm32f10x_gpio.c **** void GPIO_PinRemapConfig(uint32_t GPIO_Remap, FunctionalState NewState)
 550:../libs/StdPeripheralDriver/src/stm32f10x_gpio.c **** {
 2097              		.loc 1 550 0
 2098              		.cfi_startproc
 2099              		@ args = 0, pretend = 0, frame = 24
 2100              		@ frame_needed = 1, uses_anonymous_args = 0
 2101 0000 80B5     		push	{r7, lr}
 2102              	.LCFI44:
 2103              		.cfi_def_cfa_offset 8
 2104              		.cfi_offset 7, -8
 2105              		.cfi_offset 14, -4
 2106 0002 86B0     		sub	sp, sp, #24
 2107              	.LCFI45:
 2108              		.cfi_def_cfa_offset 32
 2109 0004 00AF     		add	r7, sp, #0
 2110              	.LCFI46:
 2111              		.cfi_def_cfa_register 7
 2112 0006 7860     		str	r0, [r7, #4]
 2113 0008 0B46     		mov	r3, r1
 2114 000a FB70     		strb	r3, [r7, #3]
 551:../libs/StdPeripheralDriver/src/stm32f10x_gpio.c ****   uint32_t tmp = 0x00, tmp1 = 0x00, tmpreg = 0x00, tmpmask = 0x00;
 2115              		.loc 1 551 0
 2116 000c 4FF00003 		mov	r3, #0
 2117 0010 3B61     		str	r3, [r7, #16]
 2118 0012 4FF00003 		mov	r3, #0
 2119 0016 FB60     		str	r3, [r7, #12]
 2120 0018 4FF00003 		mov	r3, #0
 2121 001c 7B61     		str	r3, [r7, #20]
 2122 001e 4FF00003 		mov	r3, #0
 2123 0022 BB60     		str	r3, [r7, #8]
 552:../libs/StdPeripheralDriver/src/stm32f10x_gpio.c **** 
 553:../libs/StdPeripheralDriver/src/stm32f10x_gpio.c ****   /* Check the parameters */
 554:../libs/StdPeripheralDriver/src/stm32f10x_gpio.c ****   assert_param(IS_GPIO_REMAP(GPIO_Remap));
 2124              		.loc 1 554 0
 2125 0024 7B68     		ldr	r3, [r7, #4]
 2126 0026 012B     		cmp	r3, #1
 2127 0028 00F0B380 		beq	.L131
 2128              		.loc 1 554 0 is_stmt 0 discriminator 2
 2129 002c 7B68     		ldr	r3, [r7, #4]
 2130 002e 022B     		cmp	r3, #2
 2131 0030 00F0AF80 		beq	.L131
 2132              		.loc 1 554 0 discriminator 1
 2133 0034 7B68     		ldr	r3, [r7, #4]
 2134 0036 042B     		cmp	r3, #4
 2135 0038 00F0AB80 		beq	.L131
 2136              		.loc 1 554 0 discriminator 2
 2137 003c 7B68     		ldr	r3, [r7, #4]
 2138 003e 082B     		cmp	r3, #8
 2139 0040 00F0A780 		beq	.L131
 2140              		.loc 1 554 0 discriminator 3
 2141 0044 7A68     		ldr	r2, [r7, #4]
 2142 0046 934B     		ldr	r3, .L145
 2143 0048 9A42     		cmp	r2, r3
 2144 004a 00F0A280 		beq	.L131
 2145              		.loc 1 554 0 discriminator 4
 2146 004e 7A68     		ldr	r2, [r7, #4]
 2147 0050 914B     		ldr	r3, .L145+4
 2148 0052 9A42     		cmp	r2, r3
 2149 0054 00F09D80 		beq	.L131
 2150              		.loc 1 554 0 discriminator 5
 2151 0058 7A68     		ldr	r2, [r7, #4]
 2152 005a 904B     		ldr	r3, .L145+8
 2153 005c 9A42     		cmp	r2, r3
 2154 005e 00F09880 		beq	.L131
 2155              		.loc 1 554 0 discriminator 6
 2156 0062 7A68     		ldr	r2, [r7, #4]
 2157 0064 8E4B     		ldr	r3, .L145+12
 2158 0066 9A42     		cmp	r2, r3
 2159 0068 00F09380 		beq	.L131
 2160              		.loc 1 554 0 discriminator 7
 2161 006c 7A68     		ldr	r2, [r7, #4]
 2162 006e 8D4B     		ldr	r3, .L145+16
 2163 0070 9A42     		cmp	r2, r3
 2164 0072 00F08E80 		beq	.L131
 2165              		.loc 1 554 0 discriminator 8
 2166 0076 7A68     		ldr	r2, [r7, #4]
 2167 0078 8B4B     		ldr	r3, .L145+20
 2168 007a 9A42     		cmp	r2, r3
 2169 007c 00F08980 		beq	.L131
 2170              		.loc 1 554 0 discriminator 9
 2171 0080 7A68     		ldr	r2, [r7, #4]
 2172 0082 8A4B     		ldr	r3, .L145+24
 2173 0084 9A42     		cmp	r2, r3
 2174 0086 00F08480 		beq	.L131
 2175              		.loc 1 554 0 discriminator 10
 2176 008a 7A68     		ldr	r2, [r7, #4]
 2177 008c 884B     		ldr	r3, .L145+28
 2178 008e 9A42     		cmp	r2, r3
 2179 0090 7FD0     		beq	.L131
 2180              		.loc 1 554 0 discriminator 11
 2181 0092 7A68     		ldr	r2, [r7, #4]
 2182 0094 874B     		ldr	r3, .L145+32
 2183 0096 9A42     		cmp	r2, r3
 2184 0098 7BD0     		beq	.L131
 2185              		.loc 1 554 0 discriminator 12
 2186 009a 7B68     		ldr	r3, [r7, #4]
 2187 009c B3F5805F 		cmp	r3, #4096
 2188 00a0 77D0     		beq	.L131
 2189              		.loc 1 554 0 discriminator 13
 2190 00a2 7B68     		ldr	r3, [r7, #4]
 2191 00a4 B3F5EA1F 		cmp	r3, #1916928
 2192 00a8 73D0     		beq	.L131
 2193              		.loc 1 554 0 discriminator 14
 2194 00aa 7B68     		ldr	r3, [r7, #4]
 2195 00ac B3F5EB1F 		cmp	r3, #1925120
 2196 00b0 6FD0     		beq	.L131
 2197              		.loc 1 554 0 discriminator 15
 2198 00b2 7B68     		ldr	r3, [r7, #4]
 2199 00b4 B3F5004F 		cmp	r3, #32768
 2200 00b8 6BD0     		beq	.L131
 2201              		.loc 1 554 0 discriminator 16
 2202 00ba 7A68     		ldr	r2, [r7, #4]
 2203 00bc 7E4B     		ldr	r3, .L145+36
 2204 00be 9A42     		cmp	r2, r3
 2205 00c0 67D0     		beq	.L131
 2206              		.loc 1 554 0 discriminator 17
 2207 00c2 7A68     		ldr	r2, [r7, #4]
 2208 00c4 7D4B     		ldr	r3, .L145+40
 2209 00c6 9A42     		cmp	r2, r3
 2210 00c8 63D0     		beq	.L131
 2211              		.loc 1 554 0 discriminator 18
 2212 00ca 7A68     		ldr	r2, [r7, #4]
 2213 00cc 7C4B     		ldr	r3, .L145+44
 2214 00ce 9A42     		cmp	r2, r3
 2215 00d0 5FD0     		beq	.L131
 2216              		.loc 1 554 0 discriminator 19
 2217 00d2 7A68     		ldr	r2, [r7, #4]
 2218 00d4 7B4B     		ldr	r3, .L145+48
 2219 00d6 9A42     		cmp	r2, r3
 2220 00d8 5BD0     		beq	.L131
 2221              		.loc 1 554 0 discriminator 20
 2222 00da 7A68     		ldr	r2, [r7, #4]
 2223 00dc 7A4B     		ldr	r3, .L145+52
 2224 00de 9A42     		cmp	r2, r3
 2225 00e0 57D0     		beq	.L131
 2226              		.loc 1 554 0 discriminator 21
 2227 00e2 7B68     		ldr	r3, [r7, #4]
 2228 00e4 B3F1201F 		cmp	r3, #2097184
 2229 00e8 53D0     		beq	.L131
 2230              		.loc 1 554 0 discriminator 22
 2231 00ea 7A68     		ldr	r2, [r7, #4]
 2232 00ec 774B     		ldr	r3, .L145+56
 2233 00ee 9A42     		cmp	r2, r3
 2234 00f0 4FD0     		beq	.L131
 2235              		.loc 1 554 0 discriminator 23
 2236 00f2 7A68     		ldr	r2, [r7, #4]
 2237 00f4 764B     		ldr	r3, .L145+60
 2238 00f6 9A42     		cmp	r2, r3
 2239 00f8 4BD0     		beq	.L131
 2240              		.loc 1 554 0 discriminator 24
 2241 00fa 7A68     		ldr	r2, [r7, #4]
 2242 00fc 754B     		ldr	r3, .L145+64
 2243 00fe 9A42     		cmp	r2, r3
 2244 0100 47D0     		beq	.L131
 2245              		.loc 1 554 0 discriminator 25
 2246 0102 7A68     		ldr	r2, [r7, #4]
 2247 0104 744B     		ldr	r3, .L145+68
 2248 0106 9A42     		cmp	r2, r3
 2249 0108 43D0     		beq	.L131
 2250              		.loc 1 554 0 discriminator 26
 2251 010a 7A68     		ldr	r2, [r7, #4]
 2252 010c 734B     		ldr	r3, .L145+72
 2253 010e 9A42     		cmp	r2, r3
 2254 0110 3FD0     		beq	.L131
 2255              		.loc 1 554 0 discriminator 27
 2256 0112 7A68     		ldr	r2, [r7, #4]
 2257 0114 724B     		ldr	r3, .L145+76
 2258 0116 9A42     		cmp	r2, r3
 2259 0118 3BD0     		beq	.L131
 2260              		.loc 1 554 0 discriminator 28
 2261 011a 7B68     		ldr	r3, [r7, #4]
 2262 011c B3F5011F 		cmp	r3, #2113536
 2263 0120 37D0     		beq	.L131
 2264              		.loc 1 554 0 discriminator 29
 2265 0122 7A68     		ldr	r2, [r7, #4]
 2266 0124 6F4B     		ldr	r3, .L145+80
 2267 0126 9A42     		cmp	r2, r3
 2268 0128 33D0     		beq	.L131
 2269              		.loc 1 554 0 discriminator 30
 2270 012a 7A68     		ldr	r2, [r7, #4]
 2271 012c 6E4B     		ldr	r3, .L145+84
 2272 012e 9A42     		cmp	r2, r3
 2273 0130 2FD0     		beq	.L131
 2274              		.loc 1 554 0 discriminator 31
 2275 0132 7A68     		ldr	r2, [r7, #4]
 2276 0134 6D4B     		ldr	r3, .L145+88
 2277 0136 9A42     		cmp	r2, r3
 2278 0138 2BD0     		beq	.L131
 2279              		.loc 1 554 0 discriminator 32
 2280 013a 7A68     		ldr	r2, [r7, #4]
 2281 013c 6C4B     		ldr	r3, .L145+92
 2282 013e 9A42     		cmp	r2, r3
 2283 0140 27D0     		beq	.L131
 2284              		.loc 1 554 0 discriminator 33
 2285 0142 7A68     		ldr	r2, [r7, #4]
 2286 0144 6B4B     		ldr	r3, .L145+96
 2287 0146 9A42     		cmp	r2, r3
 2288 0148 23D0     		beq	.L131
 2289              		.loc 1 554 0 discriminator 34
 2290 014a 7A68     		ldr	r2, [r7, #4]
 2291 014c 6A4B     		ldr	r3, .L145+100
 2292 014e 9A42     		cmp	r2, r3
 2293 0150 1FD0     		beq	.L131
 2294              		.loc 1 554 0 discriminator 35
 2295 0152 7A68     		ldr	r2, [r7, #4]
 2296 0154 694B     		ldr	r3, .L145+104
 2297 0156 9A42     		cmp	r2, r3
 2298 0158 1BD0     		beq	.L131
 2299              		.loc 1 554 0 discriminator 36
 2300 015a 7A68     		ldr	r2, [r7, #4]
 2301 015c 684B     		ldr	r3, .L145+108
 2302 015e 9A42     		cmp	r2, r3
 2303 0160 17D0     		beq	.L131
 2304              		.loc 1 554 0 discriminator 37
 2305 0162 7A68     		ldr	r2, [r7, #4]
 2306 0164 674B     		ldr	r3, .L145+112
 2307 0166 9A42     		cmp	r2, r3
 2308 0168 13D0     		beq	.L131
 2309              		.loc 1 554 0 discriminator 38
 2310 016a 7A68     		ldr	r2, [r7, #4]
 2311 016c 664B     		ldr	r3, .L145+116
 2312 016e 9A42     		cmp	r2, r3
 2313 0170 0FD0     		beq	.L131
 2314              		.loc 1 554 0 discriminator 39
 2315 0172 7A68     		ldr	r2, [r7, #4]
 2316 0174 654B     		ldr	r3, .L145+120
 2317 0176 9A42     		cmp	r2, r3
 2318 0178 0BD0     		beq	.L131
 2319              		.loc 1 554 0 discriminator 40
 2320 017a 7A68     		ldr	r2, [r7, #4]
 2321 017c 644B     		ldr	r3, .L145+124
 2322 017e 9A42     		cmp	r2, r3
 2323 0180 07D0     		beq	.L131
 2324              		.loc 1 554 0 discriminator 41
 2325 0182 7A68     		ldr	r2, [r7, #4]
 2326 0184 634B     		ldr	r3, .L145+128
 2327 0186 9A42     		cmp	r2, r3
 2328 0188 03D0     		beq	.L131
 2329              		.loc 1 554 0 discriminator 42
 2330 018a 7A68     		ldr	r2, [r7, #4]
 2331 018c 624B     		ldr	r3, .L145+132
 2332 018e 9A42     		cmp	r2, r3
 2333 0190 02D1     		bne	.L132
 2334              	.L131:
 2335              		.loc 1 554 0 discriminator 1
 2336 0192 4FF00103 		mov	r3, #1
 2337 0196 01E0     		b	.L133
 2338              	.L132:
 2339              		.loc 1 554 0 discriminator 3
 2340 0198 4FF00003 		mov	r3, #0
 2341              	.L133:
 2342              		.loc 1 554 0 discriminator 4
 2343 019c 1846     		mov	r0, r3
 2344 019e FFF7FEFF 		bl	assert_param
 555:../libs/StdPeripheralDriver/src/stm32f10x_gpio.c ****   assert_param(IS_FUNCTIONAL_STATE(NewState));  
 2345              		.loc 1 555 0 is_stmt 1 discriminator 4
 2346 01a2 FB78     		ldrb	r3, [r7, #3]	@ zero_extendqisi2
 2347 01a4 002B     		cmp	r3, #0
 2348 01a6 02D0     		beq	.L134
 2349              		.loc 1 555 0 is_stmt 0 discriminator 2
 2350 01a8 FB78     		ldrb	r3, [r7, #3]	@ zero_extendqisi2
 2351 01aa 012B     		cmp	r3, #1
 2352 01ac 02D1     		bne	.L135
 2353              	.L134:
 2354              		.loc 1 555 0 discriminator 1
 2355 01ae 4FF00103 		mov	r3, #1
 2356 01b2 01E0     		b	.L136
 2357              	.L135:
 2358              		.loc 1 555 0 discriminator 3
 2359 01b4 4FF00003 		mov	r3, #0
 2360              	.L136:
 2361              		.loc 1 555 0 discriminator 4
 2362 01b8 1846     		mov	r0, r3
 2363 01ba FFF7FEFF 		bl	assert_param
 556:../libs/StdPeripheralDriver/src/stm32f10x_gpio.c ****   
 557:../libs/StdPeripheralDriver/src/stm32f10x_gpio.c ****   if((GPIO_Remap & 0x80000000) == 0x80000000)
 2364              		.loc 1 557 0 is_stmt 1 discriminator 4
 2365 01be 7B68     		ldr	r3, [r7, #4]
 2366 01c0 002B     		cmp	r3, #0
 2367 01c2 03DA     		bge	.L137
 558:../libs/StdPeripheralDriver/src/stm32f10x_gpio.c ****   {
 559:../libs/StdPeripheralDriver/src/stm32f10x_gpio.c ****     tmpreg = AFIO->MAPR2;
 2368              		.loc 1 559 0
 2369 01c4 554B     		ldr	r3, .L145+136
 2370 01c6 DB69     		ldr	r3, [r3, #28]
 2371 01c8 7B61     		str	r3, [r7, #20]
 2372 01ca 02E0     		b	.L138
 2373              	.L137:
 560:../libs/StdPeripheralDriver/src/stm32f10x_gpio.c ****   }
 561:../libs/StdPeripheralDriver/src/stm32f10x_gpio.c ****   else
 562:../libs/StdPeripheralDriver/src/stm32f10x_gpio.c ****   {
 563:../libs/StdPeripheralDriver/src/stm32f10x_gpio.c ****     tmpreg = AFIO->MAPR;
 2374              		.loc 1 563 0
 2375 01cc 534B     		ldr	r3, .L145+136
 2376 01ce 5B68     		ldr	r3, [r3, #4]
 2377 01d0 7B61     		str	r3, [r7, #20]
 2378              	.L138:
 564:../libs/StdPeripheralDriver/src/stm32f10x_gpio.c ****   }
 565:../libs/StdPeripheralDriver/src/stm32f10x_gpio.c **** 
 566:../libs/StdPeripheralDriver/src/stm32f10x_gpio.c ****   tmpmask = (GPIO_Remap & DBGAFR_POSITION_MASK) >> 0x10;
 2379              		.loc 1 566 0
 2380 01d2 7B68     		ldr	r3, [r7, #4]
 2381 01d4 03F47023 		and	r3, r3, #983040
 2382 01d8 4FEA1343 		lsr	r3, r3, #16
 2383 01dc BB60     		str	r3, [r7, #8]
 567:../libs/StdPeripheralDriver/src/stm32f10x_gpio.c ****   tmp = GPIO_Remap & LSB_MASK;
 2384              		.loc 1 567 0
 2385 01de 7B68     		ldr	r3, [r7, #4]
 2386 01e0 4FEA0343 		lsl	r3, r3, #16
 2387 01e4 4FEA1343 		lsr	r3, r3, #16
 2388 01e8 3B61     		str	r3, [r7, #16]
 568:../libs/StdPeripheralDriver/src/stm32f10x_gpio.c **** 
 569:../libs/StdPeripheralDriver/src/stm32f10x_gpio.c ****   if ((GPIO_Remap & (DBGAFR_LOCATION_MASK | DBGAFR_NUMBITS_MASK)) == (DBGAFR_LOCATION_MASK | DBGAFR
 2389              		.loc 1 569 0
 2390 01ea 7B68     		ldr	r3, [r7, #4]
 2391 01ec 03F44013 		and	r3, r3, #3145728
 2392 01f0 B3F5401F 		cmp	r3, #3145728
 2393 01f4 0AD1     		bne	.L139
 570:../libs/StdPeripheralDriver/src/stm32f10x_gpio.c ****   {
 571:../libs/StdPeripheralDriver/src/stm32f10x_gpio.c ****     tmpreg &= DBGAFR_SWJCFG_MASK;
 2394              		.loc 1 571 0
 2395 01f6 7B69     		ldr	r3, [r7, #20]
 2396 01f8 23F07063 		bic	r3, r3, #251658240
 2397 01fc 7B61     		str	r3, [r7, #20]
 572:../libs/StdPeripheralDriver/src/stm32f10x_gpio.c ****     AFIO->MAPR &= DBGAFR_SWJCFG_MASK;
 2398              		.loc 1 572 0
 2399 01fe 474B     		ldr	r3, .L145+136
 2400 0200 464A     		ldr	r2, .L145+136
 2401 0202 5268     		ldr	r2, [r2, #4]
 2402 0204 22F07062 		bic	r2, r2, #251658240
 2403 0208 5A60     		str	r2, [r3, #4]
 2404 020a 26E0     		b	.L140
 2405              	.L139:
 573:../libs/StdPeripheralDriver/src/stm32f10x_gpio.c ****   }
 574:../libs/StdPeripheralDriver/src/stm32f10x_gpio.c ****   else if ((GPIO_Remap & DBGAFR_NUMBITS_MASK) == DBGAFR_NUMBITS_MASK)
 2406              		.loc 1 574 0
 2407 020c 7B68     		ldr	r3, [r7, #4]
 2408 020e 03F48013 		and	r3, r3, #1048576
 2409 0212 002B     		cmp	r3, #0
 2410 0214 10D0     		beq	.L141
 575:../libs/StdPeripheralDriver/src/stm32f10x_gpio.c ****   {
 576:../libs/StdPeripheralDriver/src/stm32f10x_gpio.c ****     tmp1 = ((uint32_t)0x03) << tmpmask;
 2411              		.loc 1 576 0
 2412 0216 BB68     		ldr	r3, [r7, #8]
 2413 0218 4FF00302 		mov	r2, #3
 2414 021c 02FA03F3 		lsl	r3, r2, r3
 2415 0220 FB60     		str	r3, [r7, #12]
 577:../libs/StdPeripheralDriver/src/stm32f10x_gpio.c ****     tmpreg &= ~tmp1;
 2416              		.loc 1 577 0
 2417 0222 FB68     		ldr	r3, [r7, #12]
 2418 0224 6FEA0303 		mvn	r3, r3
 2419 0228 7A69     		ldr	r2, [r7, #20]
 2420 022a 1340     		ands	r3, r3, r2
 2421 022c 7B61     		str	r3, [r7, #20]
 578:../libs/StdPeripheralDriver/src/stm32f10x_gpio.c ****     tmpreg |= ~DBGAFR_SWJCFG_MASK;
 2422              		.loc 1 578 0
 2423 022e 7B69     		ldr	r3, [r7, #20]
 2424 0230 43F07063 		orr	r3, r3, #251658240
 2425 0234 7B61     		str	r3, [r7, #20]
 2426 0236 10E0     		b	.L140
 2427              	.L141:
 579:../libs/StdPeripheralDriver/src/stm32f10x_gpio.c ****   }
 580:../libs/StdPeripheralDriver/src/stm32f10x_gpio.c ****   else
 581:../libs/StdPeripheralDriver/src/stm32f10x_gpio.c ****   {
 582:../libs/StdPeripheralDriver/src/stm32f10x_gpio.c ****     tmpreg &= ~(tmp << ((GPIO_Remap >> 0x15)*0x10));
 2428              		.loc 1 582 0
 2429 0238 7B68     		ldr	r3, [r7, #4]
 2430 023a 4FEA5353 		lsr	r3, r3, #21
 2431 023e 4FEA0313 		lsl	r3, r3, #4
 2432 0242 3A69     		ldr	r2, [r7, #16]
 2433 0244 02FA03F3 		lsl	r3, r2, r3
 2434 0248 6FEA0303 		mvn	r3, r3
 2435 024c 7A69     		ldr	r2, [r7, #20]
 2436 024e 1340     		ands	r3, r3, r2
 2437 0250 7B61     		str	r3, [r7, #20]
 583:../libs/StdPeripheralDriver/src/stm32f10x_gpio.c ****     tmpreg |= ~DBGAFR_SWJCFG_MASK;
 2438              		.loc 1 583 0
 2439 0252 7B69     		ldr	r3, [r7, #20]
 2440 0254 43F07063 		orr	r3, r3, #251658240
 2441 0258 7B61     		str	r3, [r7, #20]
 2442              	.L140:
 584:../libs/StdPeripheralDriver/src/stm32f10x_gpio.c ****   }
 585:../libs/StdPeripheralDriver/src/stm32f10x_gpio.c **** 
 586:../libs/StdPeripheralDriver/src/stm32f10x_gpio.c ****   if (NewState != DISABLE)
 2443              		.loc 1 586 0
 2444 025a FB78     		ldrb	r3, [r7, #3]	@ zero_extendqisi2
 2445 025c 002B     		cmp	r3, #0
 2446 025e 0AD0     		beq	.L142
 587:../libs/StdPeripheralDriver/src/stm32f10x_gpio.c ****   {
 588:../libs/StdPeripheralDriver/src/stm32f10x_gpio.c ****     tmpreg |= (tmp << ((GPIO_Remap >> 0x15)*0x10));
 2447              		.loc 1 588 0
 2448 0260 7B68     		ldr	r3, [r7, #4]
 2449 0262 4FEA5353 		lsr	r3, r3, #21
 2450 0266 4FEA0313 		lsl	r3, r3, #4
 2451 026a 3A69     		ldr	r2, [r7, #16]
 2452 026c 02FA03F3 		lsl	r3, r2, r3
 2453 0270 7A69     		ldr	r2, [r7, #20]
 2454 0272 1343     		orrs	r3, r3, r2
 2455 0274 7B61     		str	r3, [r7, #20]
 2456              	.L142:
 589:../libs/StdPeripheralDriver/src/stm32f10x_gpio.c ****   }
 590:../libs/StdPeripheralDriver/src/stm32f10x_gpio.c **** 
 591:../libs/StdPeripheralDriver/src/stm32f10x_gpio.c ****   if((GPIO_Remap & 0x80000000) == 0x80000000)
 2457              		.loc 1 591 0
 2458 0276 7B68     		ldr	r3, [r7, #4]
 2459 0278 002B     		cmp	r3, #0
 2460 027a 03DA     		bge	.L143
 592:../libs/StdPeripheralDriver/src/stm32f10x_gpio.c ****   {
 593:../libs/StdPeripheralDriver/src/stm32f10x_gpio.c ****     AFIO->MAPR2 = tmpreg;
 2461              		.loc 1 593 0
 2462 027c 274B     		ldr	r3, .L145+136
 2463 027e 7A69     		ldr	r2, [r7, #20]
 2464 0280 DA61     		str	r2, [r3, #28]
 2465 0282 02E0     		b	.L130
 2466              	.L143:
 594:../libs/StdPeripheralDriver/src/stm32f10x_gpio.c ****   }
 595:../libs/StdPeripheralDriver/src/stm32f10x_gpio.c ****   else
 596:../libs/StdPeripheralDriver/src/stm32f10x_gpio.c ****   {
 597:../libs/StdPeripheralDriver/src/stm32f10x_gpio.c ****     AFIO->MAPR = tmpreg;
 2467              		.loc 1 597 0
 2468 0284 254B     		ldr	r3, .L145+136
 2469 0286 7A69     		ldr	r2, [r7, #20]
 2470 0288 5A60     		str	r2, [r3, #4]
 2471              	.L130:
 598:../libs/StdPeripheralDriver/src/stm32f10x_gpio.c ****   }  
 599:../libs/StdPeripheralDriver/src/stm32f10x_gpio.c **** }
 2472              		.loc 1 599 0
 2473 028a 07F11807 		add	r7, r7, #24
 2474 028e BD46     		mov	sp, r7
 2475 0290 80BD     		pop	{r7, pc}
 2476              	.L146:
 2477 0292 00BF     		.align	2
 2478              	.L145:
 2479 0294 10001400 		.word	1310736
 2480 0298 30001400 		.word	1310768
 2481 029c 40001600 		.word	1441856
 2482 02a0 C0001600 		.word	1441984
 2483 02a4 00011800 		.word	1573120
 2484 02a8 00021800 		.word	1573376
 2485 02ac 00031800 		.word	1573632
 2486 02b0 00081A00 		.word	1705984
 2487 02b4 000C1A00 		.word	1707008
 2488 02b8 01002000 		.word	2097153
 2489 02bc 02002000 		.word	2097154
 2490 02c0 04002000 		.word	2097156
 2491 02c4 08002000 		.word	2097160
 2492 02c8 10002000 		.word	2097168
 2493 02cc 40002000 		.word	2097216
 2494 02d0 00013000 		.word	3145984
 2495 02d4 00023000 		.word	3146240
 2496 02d8 00043000 		.word	3146752
 2497 02dc 00112000 		.word	2101504
 2498 02e0 00202000 		.word	2105344
 2499 02e4 01000080 		.word	-2147483647
 2500 02e8 02000080 		.word	-2147483646
 2501 02ec 04000080 		.word	-2147483644
 2502 02f0 08000080 		.word	-2147483640
 2503 02f4 10000080 		.word	-2147483632
 2504 02f8 20000080 		.word	-2147483616
 2505 02fc 40000080 		.word	-2147483584
 2506 0300 80000080 		.word	-2147483520
 2507 0304 00010080 		.word	-2147483392
 2508 0308 00020080 		.word	-2147483136
 2509 030c 00040080 		.word	-2147482624
 2510 0310 00080080 		.word	-2147481600
 2511 0314 00100080 		.word	-2147479552
 2512 0318 00200080 		.word	-2147475456
 2513 031c 00000140 		.word	1073807360
 2514              		.cfi_endproc
 2515              	.LFE44:
 2517              		.section	.text.GPIO_EXTILineConfig,"ax",%progbits
 2518              		.align	2
 2519              		.global	GPIO_EXTILineConfig
 2520              		.thumb
 2521              		.thumb_func
 2523              	GPIO_EXTILineConfig:
 2524              	.LFB45:
 600:../libs/StdPeripheralDriver/src/stm32f10x_gpio.c **** 
 601:../libs/StdPeripheralDriver/src/stm32f10x_gpio.c **** /**
 602:../libs/StdPeripheralDriver/src/stm32f10x_gpio.c ****   * @brief  Selects the GPIO pin used as EXTI Line.
 603:../libs/StdPeripheralDriver/src/stm32f10x_gpio.c ****   * @param  GPIO_PortSource: selects the GPIO port to be used as source for EXTI lines.
 604:../libs/StdPeripheralDriver/src/stm32f10x_gpio.c ****   *   This parameter can be GPIO_PortSourceGPIOx where x can be (A..G).
 605:../libs/StdPeripheralDriver/src/stm32f10x_gpio.c ****   * @param  GPIO_PinSource: specifies the EXTI line to be configured.
 606:../libs/StdPeripheralDriver/src/stm32f10x_gpio.c ****   *   This parameter can be GPIO_PinSourcex where x can be (0..15).
 607:../libs/StdPeripheralDriver/src/stm32f10x_gpio.c ****   * @retval None
 608:../libs/StdPeripheralDriver/src/stm32f10x_gpio.c ****   */
 609:../libs/StdPeripheralDriver/src/stm32f10x_gpio.c **** void GPIO_EXTILineConfig(uint8_t GPIO_PortSource, uint8_t GPIO_PinSource)
 610:../libs/StdPeripheralDriver/src/stm32f10x_gpio.c **** {
 2525              		.loc 1 610 0
 2526              		.cfi_startproc
 2527              		@ args = 0, pretend = 0, frame = 16
 2528              		@ frame_needed = 1, uses_anonymous_args = 0
 2529 0000 90B5     		push	{r4, r7, lr}
 2530              	.LCFI47:
 2531              		.cfi_def_cfa_offset 12
 2532              		.cfi_offset 4, -12
 2533              		.cfi_offset 7, -8
 2534              		.cfi_offset 14, -4
 2535 0002 85B0     		sub	sp, sp, #20
 2536              	.LCFI48:
 2537              		.cfi_def_cfa_offset 32
 2538 0004 00AF     		add	r7, sp, #0
 2539              	.LCFI49:
 2540              		.cfi_def_cfa_register 7
 2541 0006 0246     		mov	r2, r0
 2542 0008 0B46     		mov	r3, r1
 2543 000a FA71     		strb	r2, [r7, #7]
 2544 000c BB71     		strb	r3, [r7, #6]
 611:../libs/StdPeripheralDriver/src/stm32f10x_gpio.c ****   uint32_t tmp = 0x00;
 2545              		.loc 1 611 0
 2546 000e 4FF00003 		mov	r3, #0
 2547 0012 FB60     		str	r3, [r7, #12]
 612:../libs/StdPeripheralDriver/src/stm32f10x_gpio.c ****   /* Check the parameters */
 613:../libs/StdPeripheralDriver/src/stm32f10x_gpio.c ****   assert_param(IS_GPIO_EXTI_PORT_SOURCE(GPIO_PortSource));
 2548              		.loc 1 613 0
 2549 0014 FB79     		ldrb	r3, [r7, #7]	@ zero_extendqisi2
 2550 0016 002B     		cmp	r3, #0
 2551 0018 11D0     		beq	.L148
 2552              		.loc 1 613 0 is_stmt 0 discriminator 2
 2553 001a FB79     		ldrb	r3, [r7, #7]	@ zero_extendqisi2
 2554 001c 012B     		cmp	r3, #1
 2555 001e 0ED0     		beq	.L148
 2556              		.loc 1 613 0 discriminator 1
 2557 0020 FB79     		ldrb	r3, [r7, #7]	@ zero_extendqisi2
 2558 0022 022B     		cmp	r3, #2
 2559 0024 0BD0     		beq	.L148
 2560              		.loc 1 613 0 discriminator 2
 2561 0026 FB79     		ldrb	r3, [r7, #7]	@ zero_extendqisi2
 2562 0028 032B     		cmp	r3, #3
 2563 002a 08D0     		beq	.L148
 2564              		.loc 1 613 0 discriminator 3
 2565 002c FB79     		ldrb	r3, [r7, #7]	@ zero_extendqisi2
 2566 002e 042B     		cmp	r3, #4
 2567 0030 05D0     		beq	.L148
 2568              		.loc 1 613 0 discriminator 4
 2569 0032 FB79     		ldrb	r3, [r7, #7]	@ zero_extendqisi2
 2570 0034 052B     		cmp	r3, #5
 2571 0036 02D0     		beq	.L148
 2572              		.loc 1 613 0 discriminator 5
 2573 0038 FB79     		ldrb	r3, [r7, #7]	@ zero_extendqisi2
 2574 003a 062B     		cmp	r3, #6
 2575 003c 02D1     		bne	.L149
 2576              	.L148:
 2577              		.loc 1 613 0 discriminator 1
 2578 003e 4FF00103 		mov	r3, #1
 2579 0042 01E0     		b	.L150
 2580              	.L149:
 2581              		.loc 1 613 0 discriminator 3
 2582 0044 4FF00003 		mov	r3, #0
 2583              	.L150:
 2584              		.loc 1 613 0 discriminator 4
 2585 0048 1846     		mov	r0, r3
 2586 004a FFF7FEFF 		bl	assert_param
 614:../libs/StdPeripheralDriver/src/stm32f10x_gpio.c ****   assert_param(IS_GPIO_PIN_SOURCE(GPIO_PinSource));
 2587              		.loc 1 614 0 is_stmt 1 discriminator 4
 2588 004e BB79     		ldrb	r3, [r7, #6]	@ zero_extendqisi2
 2589 0050 002B     		cmp	r3, #0
 2590 0052 2CD0     		beq	.L151
 2591              		.loc 1 614 0 is_stmt 0 discriminator 2
 2592 0054 BB79     		ldrb	r3, [r7, #6]	@ zero_extendqisi2
 2593 0056 012B     		cmp	r3, #1
 2594 0058 29D0     		beq	.L151
 2595              		.loc 1 614 0 discriminator 1
 2596 005a BB79     		ldrb	r3, [r7, #6]	@ zero_extendqisi2
 2597 005c 022B     		cmp	r3, #2
 2598 005e 26D0     		beq	.L151
 2599              		.loc 1 614 0 discriminator 2
 2600 0060 BB79     		ldrb	r3, [r7, #6]	@ zero_extendqisi2
 2601 0062 032B     		cmp	r3, #3
 2602 0064 23D0     		beq	.L151
 2603              		.loc 1 614 0 discriminator 3
 2604 0066 BB79     		ldrb	r3, [r7, #6]	@ zero_extendqisi2
 2605 0068 042B     		cmp	r3, #4
 2606 006a 20D0     		beq	.L151
 2607              		.loc 1 614 0 discriminator 4
 2608 006c BB79     		ldrb	r3, [r7, #6]	@ zero_extendqisi2
 2609 006e 052B     		cmp	r3, #5
 2610 0070 1DD0     		beq	.L151
 2611              		.loc 1 614 0 discriminator 5
 2612 0072 BB79     		ldrb	r3, [r7, #6]	@ zero_extendqisi2
 2613 0074 062B     		cmp	r3, #6
 2614 0076 1AD0     		beq	.L151
 2615              		.loc 1 614 0 discriminator 6
 2616 0078 BB79     		ldrb	r3, [r7, #6]	@ zero_extendqisi2
 2617 007a 072B     		cmp	r3, #7
 2618 007c 17D0     		beq	.L151
 2619              		.loc 1 614 0 discriminator 7
 2620 007e BB79     		ldrb	r3, [r7, #6]	@ zero_extendqisi2
 2621 0080 082B     		cmp	r3, #8
 2622 0082 14D0     		beq	.L151
 2623              		.loc 1 614 0 discriminator 8
 2624 0084 BB79     		ldrb	r3, [r7, #6]	@ zero_extendqisi2
 2625 0086 092B     		cmp	r3, #9
 2626 0088 11D0     		beq	.L151
 2627              		.loc 1 614 0 discriminator 9
 2628 008a BB79     		ldrb	r3, [r7, #6]	@ zero_extendqisi2
 2629 008c 0A2B     		cmp	r3, #10
 2630 008e 0ED0     		beq	.L151
 2631              		.loc 1 614 0 discriminator 10
 2632 0090 BB79     		ldrb	r3, [r7, #6]	@ zero_extendqisi2
 2633 0092 0B2B     		cmp	r3, #11
 2634 0094 0BD0     		beq	.L151
 2635              		.loc 1 614 0 discriminator 11
 2636 0096 BB79     		ldrb	r3, [r7, #6]	@ zero_extendqisi2
 2637 0098 0C2B     		cmp	r3, #12
 2638 009a 08D0     		beq	.L151
 2639              		.loc 1 614 0 discriminator 12
 2640 009c BB79     		ldrb	r3, [r7, #6]	@ zero_extendqisi2
 2641 009e 0D2B     		cmp	r3, #13
 2642 00a0 05D0     		beq	.L151
 2643              		.loc 1 614 0 discriminator 13
 2644 00a2 BB79     		ldrb	r3, [r7, #6]	@ zero_extendqisi2
 2645 00a4 0E2B     		cmp	r3, #14
 2646 00a6 02D0     		beq	.L151
 2647              		.loc 1 614 0 discriminator 14
 2648 00a8 BB79     		ldrb	r3, [r7, #6]	@ zero_extendqisi2
 2649 00aa 0F2B     		cmp	r3, #15
 2650 00ac 02D1     		bne	.L152
 2651              	.L151:
 2652              		.loc 1 614 0 discriminator 1
 2653 00ae 4FF00103 		mov	r3, #1
 2654 00b2 01E0     		b	.L153
 2655              	.L152:
 2656              		.loc 1 614 0 discriminator 3
 2657 00b4 4FF00003 		mov	r3, #0
 2658              	.L153:
 2659              		.loc 1 614 0 discriminator 4
 2660 00b8 1846     		mov	r0, r3
 2661 00ba FFF7FEFF 		bl	assert_param
 615:../libs/StdPeripheralDriver/src/stm32f10x_gpio.c ****   
 616:../libs/StdPeripheralDriver/src/stm32f10x_gpio.c ****   tmp = ((uint32_t)0x0F) << (0x04 * (GPIO_PinSource & (uint8_t)0x03));
 2662              		.loc 1 616 0 is_stmt 1 discriminator 4
 2663 00be BB79     		ldrb	r3, [r7, #6]	@ zero_extendqisi2
 2664 00c0 03F00303 		and	r3, r3, #3
 2665 00c4 4FEA8303 		lsl	r3, r3, #2
 2666 00c8 4FF00F02 		mov	r2, #15
 2667 00cc 02FA03F3 		lsl	r3, r2, r3
 2668 00d0 FB60     		str	r3, [r7, #12]
 617:../libs/StdPeripheralDriver/src/stm32f10x_gpio.c ****   AFIO->EXTICR[GPIO_PinSource >> 0x02] &= ~tmp;
 2669              		.loc 1 617 0 discriminator 4
 2670 00d2 1A4B     		ldr	r3, .L154
 2671 00d4 BA79     		ldrb	r2, [r7, #6]	@ zero_extendqisi2
 2672 00d6 4FEA9202 		lsr	r2, r2, #2
 2673 00da D2B2     		uxtb	r2, r2
 2674 00dc 1749     		ldr	r1, .L154
 2675 00de B879     		ldrb	r0, [r7, #6]	@ zero_extendqisi2
 2676 00e0 4FEA9000 		lsr	r0, r0, #2
 2677 00e4 C0B2     		uxtb	r0, r0
 2678 00e6 00F10200 		add	r0, r0, #2
 2679 00ea 51F82000 		ldr	r0, [r1, r0, lsl #2]
 2680 00ee F968     		ldr	r1, [r7, #12]
 2681 00f0 6FEA0101 		mvn	r1, r1
 2682 00f4 0140     		ands	r1, r1, r0
 2683 00f6 02F10202 		add	r2, r2, #2
 2684 00fa 43F82210 		str	r1, [r3, r2, lsl #2]
 618:../libs/StdPeripheralDriver/src/stm32f10x_gpio.c ****   AFIO->EXTICR[GPIO_PinSource >> 0x02] |= (((uint32_t)GPIO_PortSource) << (0x04 * (GPIO_PinSource &
 2685              		.loc 1 618 0 discriminator 4
 2686 00fe 0F4B     		ldr	r3, .L154
 2687 0100 BA79     		ldrb	r2, [r7, #6]	@ zero_extendqisi2
 2688 0102 4FEA9202 		lsr	r2, r2, #2
 2689 0106 D2B2     		uxtb	r2, r2
 2690 0108 0C49     		ldr	r1, .L154
 2691 010a B879     		ldrb	r0, [r7, #6]	@ zero_extendqisi2
 2692 010c 4FEA9000 		lsr	r0, r0, #2
 2693 0110 C0B2     		uxtb	r0, r0
 2694 0112 00F10200 		add	r0, r0, #2
 2695 0116 51F82000 		ldr	r0, [r1, r0, lsl #2]
 2696 011a FC79     		ldrb	r4, [r7, #7]	@ zero_extendqisi2
 2697 011c B979     		ldrb	r1, [r7, #6]	@ zero_extendqisi2
 2698 011e 01F00301 		and	r1, r1, #3
 2699 0122 4FEA8101 		lsl	r1, r1, #2
 2700 0126 04FA01F1 		lsl	r1, r4, r1
 2701 012a 0143     		orrs	r1, r1, r0
 2702 012c 02F10202 		add	r2, r2, #2
 2703 0130 43F82210 		str	r1, [r3, r2, lsl #2]
 619:../libs/StdPeripheralDriver/src/stm32f10x_gpio.c **** }
 2704              		.loc 1 619 0 discriminator 4
 2705 0134 07F11407 		add	r7, r7, #20
 2706 0138 BD46     		mov	sp, r7
 2707 013a 90BD     		pop	{r4, r7, pc}
 2708              	.L155:
 2709              		.align	2
 2710              	.L154:
 2711 013c 00000140 		.word	1073807360
 2712              		.cfi_endproc
 2713              	.LFE45:
 2715              		.section	.text.GPIO_ETH_MediaInterfaceConfig,"ax",%progbits
 2716              		.align	2
 2717              		.global	GPIO_ETH_MediaInterfaceConfig
 2718              		.thumb
 2719              		.thumb_func
 2721              	GPIO_ETH_MediaInterfaceConfig:
 2722              	.LFB46:
 620:../libs/StdPeripheralDriver/src/stm32f10x_gpio.c **** 
 621:../libs/StdPeripheralDriver/src/stm32f10x_gpio.c **** /**
 622:../libs/StdPeripheralDriver/src/stm32f10x_gpio.c ****   * @brief  Selects the Ethernet media interface.
 623:../libs/StdPeripheralDriver/src/stm32f10x_gpio.c ****   * @note   This function applies only to STM32 Connectivity line devices.  
 624:../libs/StdPeripheralDriver/src/stm32f10x_gpio.c ****   * @param  GPIO_ETH_MediaInterface: specifies the Media Interface mode.
 625:../libs/StdPeripheralDriver/src/stm32f10x_gpio.c ****   *   This parameter can be one of the following values:
 626:../libs/StdPeripheralDriver/src/stm32f10x_gpio.c ****   *     @arg GPIO_ETH_MediaInterface_MII: MII mode
 627:../libs/StdPeripheralDriver/src/stm32f10x_gpio.c ****   *     @arg GPIO_ETH_MediaInterface_RMII: RMII mode    
 628:../libs/StdPeripheralDriver/src/stm32f10x_gpio.c ****   * @retval None
 629:../libs/StdPeripheralDriver/src/stm32f10x_gpio.c ****   */
 630:../libs/StdPeripheralDriver/src/stm32f10x_gpio.c **** void GPIO_ETH_MediaInterfaceConfig(uint32_t GPIO_ETH_MediaInterface) 
 631:../libs/StdPeripheralDriver/src/stm32f10x_gpio.c **** { 
 2723              		.loc 1 631 0
 2724              		.cfi_startproc
 2725              		@ args = 0, pretend = 0, frame = 8
 2726              		@ frame_needed = 1, uses_anonymous_args = 0
 2727 0000 80B5     		push	{r7, lr}
 2728              	.LCFI50:
 2729              		.cfi_def_cfa_offset 8
 2730              		.cfi_offset 7, -8
 2731              		.cfi_offset 14, -4
 2732 0002 82B0     		sub	sp, sp, #8
 2733              	.LCFI51:
 2734              		.cfi_def_cfa_offset 16
 2735 0004 00AF     		add	r7, sp, #0
 2736              	.LCFI52:
 2737              		.cfi_def_cfa_register 7
 2738 0006 7860     		str	r0, [r7, #4]
 632:../libs/StdPeripheralDriver/src/stm32f10x_gpio.c ****   assert_param(IS_GPIO_ETH_MEDIA_INTERFACE(GPIO_ETH_MediaInterface)); 
 2739              		.loc 1 632 0
 2740 0008 7B68     		ldr	r3, [r7, #4]
 2741 000a 002B     		cmp	r3, #0
 2742 000c 02D0     		beq	.L157
 2743              		.loc 1 632 0 is_stmt 0 discriminator 2
 2744 000e 7B68     		ldr	r3, [r7, #4]
 2745 0010 012B     		cmp	r3, #1
 2746 0012 02D1     		bne	.L158
 2747              	.L157:
 2748              		.loc 1 632 0 discriminator 1
 2749 0014 4FF00103 		mov	r3, #1
 2750 0018 01E0     		b	.L159
 2751              	.L158:
 2752              		.loc 1 632 0 discriminator 3
 2753 001a 4FF00003 		mov	r3, #0
 2754              	.L159:
 2755              		.loc 1 632 0 discriminator 4
 2756 001e 1846     		mov	r0, r3
 2757 0020 FFF7FEFF 		bl	assert_param
 633:../libs/StdPeripheralDriver/src/stm32f10x_gpio.c **** 
 634:../libs/StdPeripheralDriver/src/stm32f10x_gpio.c ****   /* Configure MII_RMII selection bit */ 
 635:../libs/StdPeripheralDriver/src/stm32f10x_gpio.c ****   *(__IO uint32_t *) MAPR_MII_RMII_SEL_BB = GPIO_ETH_MediaInterface; 
 2758              		.loc 1 635 0 is_stmt 1 discriminator 4
 2759 0024 034B     		ldr	r3, .L160
 2760 0026 7A68     		ldr	r2, [r7, #4]
 2761 0028 1A60     		str	r2, [r3, #0]
 636:../libs/StdPeripheralDriver/src/stm32f10x_gpio.c **** }
 2762              		.loc 1 636 0 discriminator 4
 2763 002a 07F10807 		add	r7, r7, #8
 2764 002e BD46     		mov	sp, r7
 2765 0030 80BD     		pop	{r7, pc}
 2766              	.L161:
 2767 0032 00BF     		.align	2
 2768              	.L160:
 2769 0034 DC002042 		.word	1109393628
 2770              		.cfi_endproc
 2771              	.LFE46:
 2773              		.text
 2774              	.Letext0:
 2775              		.file 2 "d:\\programs\\stm programs\\codebench\\bin\\../lib/gcc/arm-none-eabi/4.7.3/../../../../ar
 2776              		.file 3 "D:\\PROGRAMMING\\stm\\stm-discovery_test_project\\libs\\CMSIS/stm32f10x.h"
 2777              		.file 4 "D:\\PROGRAMMING\\stm\\stm-discovery_test_project\\libs\\StdPeripheralDriver\\inc/stm32f10
 2778              		.file 5 "D:\\PROGRAMMING\\stm\\stm-discovery_test_project\\libs\\CMSIS/core_cm3.h"
DEFINED SYMBOLS
                            *ABS*:00000000 stm32f10x_gpio.c
C:\Users\6262~1\AppData\Local\Temp\cc4c9Tk5.s:19     .text.GPIO_DeInit:00000000 $t
C:\Users\6262~1\AppData\Local\Temp\cc4c9Tk5.s:24     .text.GPIO_DeInit:00000000 GPIO_DeInit
C:\Users\6262~1\AppData\Local\Temp\cc4c9Tk5.s:200    .text.GPIO_DeInit:00000144 $d
C:\Users\6262~1\AppData\Local\Temp\cc4c9Tk5.s:211    .text.GPIO_AFIODeInit:00000000 $t
C:\Users\6262~1\AppData\Local\Temp\cc4c9Tk5.s:216    .text.GPIO_AFIODeInit:00000000 GPIO_AFIODeInit
C:\Users\6262~1\AppData\Local\Temp\cc4c9Tk5.s:244    .text.GPIO_Init:00000000 $t
C:\Users\6262~1\AppData\Local\Temp\cc4c9Tk5.s:249    .text.GPIO_Init:00000000 GPIO_Init
C:\Users\6262~1\AppData\Local\Temp\cc4c9Tk5.s:626    .text.GPIO_Init:00000284 $d
C:\Users\6262~1\AppData\Local\Temp\cc4c9Tk5.s:637    .text.GPIO_StructInit:00000000 $t
C:\Users\6262~1\AppData\Local\Temp\cc4c9Tk5.s:642    .text.GPIO_StructInit:00000000 GPIO_StructInit
C:\Users\6262~1\AppData\Local\Temp\cc4c9Tk5.s:681    .text.GPIO_ReadInputDataBit:00000000 $t
C:\Users\6262~1\AppData\Local\Temp\cc4c9Tk5.s:686    .text.GPIO_ReadInputDataBit:00000000 GPIO_ReadInputDataBit
C:\Users\6262~1\AppData\Local\Temp\cc4c9Tk5.s:856    .text.GPIO_ReadInputDataBit:00000100 $d
C:\Users\6262~1\AppData\Local\Temp\cc4c9Tk5.s:867    .text.GPIO_ReadInputData:00000000 $t
C:\Users\6262~1\AppData\Local\Temp\cc4c9Tk5.s:872    .text.GPIO_ReadInputData:00000000 GPIO_ReadInputData
C:\Users\6262~1\AppData\Local\Temp\cc4c9Tk5.s:948    .text.GPIO_ReadInputData:00000060 $d
C:\Users\6262~1\AppData\Local\Temp\cc4c9Tk5.s:959    .text.GPIO_ReadOutputDataBit:00000000 $t
C:\Users\6262~1\AppData\Local\Temp\cc4c9Tk5.s:964    .text.GPIO_ReadOutputDataBit:00000000 GPIO_ReadOutputDataBit
C:\Users\6262~1\AppData\Local\Temp\cc4c9Tk5.s:1134   .text.GPIO_ReadOutputDataBit:00000100 $d
C:\Users\6262~1\AppData\Local\Temp\cc4c9Tk5.s:1145   .text.GPIO_ReadOutputData:00000000 $t
C:\Users\6262~1\AppData\Local\Temp\cc4c9Tk5.s:1150   .text.GPIO_ReadOutputData:00000000 GPIO_ReadOutputData
C:\Users\6262~1\AppData\Local\Temp\cc4c9Tk5.s:1226   .text.GPIO_ReadOutputData:00000060 $d
C:\Users\6262~1\AppData\Local\Temp\cc4c9Tk5.s:1237   .text.GPIO_SetBits:00000000 $t
C:\Users\6262~1\AppData\Local\Temp\cc4c9Tk5.s:1242   .text.GPIO_SetBits:00000000 GPIO_SetBits
C:\Users\6262~1\AppData\Local\Temp\cc4c9Tk5.s:1328   .text.GPIO_SetBits:00000074 $d
C:\Users\6262~1\AppData\Local\Temp\cc4c9Tk5.s:1339   .text.GPIO_ResetBits:00000000 $t
C:\Users\6262~1\AppData\Local\Temp\cc4c9Tk5.s:1344   .text.GPIO_ResetBits:00000000 GPIO_ResetBits
C:\Users\6262~1\AppData\Local\Temp\cc4c9Tk5.s:1430   .text.GPIO_ResetBits:00000074 $d
C:\Users\6262~1\AppData\Local\Temp\cc4c9Tk5.s:1441   .text.GPIO_WriteBit:00000000 $t
C:\Users\6262~1\AppData\Local\Temp\cc4c9Tk5.s:1446   .text.GPIO_WriteBit:00000000 GPIO_WriteBit
C:\Users\6262~1\AppData\Local\Temp\cc4c9Tk5.s:1630   .text.GPIO_WriteBit:00000110 $d
C:\Users\6262~1\AppData\Local\Temp\cc4c9Tk5.s:1641   .text.GPIO_Write:00000000 $t
C:\Users\6262~1\AppData\Local\Temp\cc4c9Tk5.s:1646   .text.GPIO_Write:00000000 GPIO_Write
C:\Users\6262~1\AppData\Local\Temp\cc4c9Tk5.s:1723   .text.GPIO_Write:00000064 $d
C:\Users\6262~1\AppData\Local\Temp\cc4c9Tk5.s:1734   .text.GPIO_PinLockConfig:00000000 $t
C:\Users\6262~1\AppData\Local\Temp\cc4c9Tk5.s:1739   .text.GPIO_PinLockConfig:00000000 GPIO_PinLockConfig
C:\Users\6262~1\AppData\Local\Temp\cc4c9Tk5.s:1849   .text.GPIO_PinLockConfig:0000009c $d
C:\Users\6262~1\AppData\Local\Temp\cc4c9Tk5.s:1860   .text.GPIO_EventOutputConfig:00000000 $t
C:\Users\6262~1\AppData\Local\Temp\cc4c9Tk5.s:1865   .text.GPIO_EventOutputConfig:00000000 GPIO_EventOutputConfig
C:\Users\6262~1\AppData\Local\Temp\cc4c9Tk5.s:2026   .text.GPIO_EventOutputConfig:000000e4 $d
C:\Users\6262~1\AppData\Local\Temp\cc4c9Tk5.s:2031   .text.GPIO_EventOutputCmd:00000000 $t
C:\Users\6262~1\AppData\Local\Temp\cc4c9Tk5.s:2036   .text.GPIO_EventOutputCmd:00000000 GPIO_EventOutputCmd
C:\Users\6262~1\AppData\Local\Temp\cc4c9Tk5.s:2085   .text.GPIO_EventOutputCmd:00000034 $d
C:\Users\6262~1\AppData\Local\Temp\cc4c9Tk5.s:2090   .text.GPIO_PinRemapConfig:00000000 $t
C:\Users\6262~1\AppData\Local\Temp\cc4c9Tk5.s:2095   .text.GPIO_PinRemapConfig:00000000 GPIO_PinRemapConfig
C:\Users\6262~1\AppData\Local\Temp\cc4c9Tk5.s:2479   .text.GPIO_PinRemapConfig:00000294 $d
C:\Users\6262~1\AppData\Local\Temp\cc4c9Tk5.s:2518   .text.GPIO_EXTILineConfig:00000000 $t
C:\Users\6262~1\AppData\Local\Temp\cc4c9Tk5.s:2523   .text.GPIO_EXTILineConfig:00000000 GPIO_EXTILineConfig
C:\Users\6262~1\AppData\Local\Temp\cc4c9Tk5.s:2711   .text.GPIO_EXTILineConfig:0000013c $d
C:\Users\6262~1\AppData\Local\Temp\cc4c9Tk5.s:2716   .text.GPIO_ETH_MediaInterfaceConfig:00000000 $t
C:\Users\6262~1\AppData\Local\Temp\cc4c9Tk5.s:2721   .text.GPIO_ETH_MediaInterfaceConfig:00000000 GPIO_ETH_MediaInterfaceConfig
C:\Users\6262~1\AppData\Local\Temp\cc4c9Tk5.s:2769   .text.GPIO_ETH_MediaInterfaceConfig:00000034 $d
                     .debug_frame:00000010 $d
                           .group:00000000 wm4.1.a89c7a2b9e0955e95368adfe2cbc52f6
                           .group:00000000 wm4.stm32f10x.h.51.b859cb68ed44ee02c916b41cb8c68f1c
                           .group:00000000 wm4.core_cm3.h.25.d35e9a9b04ec4aaebae9bf79fff061f9
                           .group:00000000 wm4.stdint.h.10.90b695f550ca6cc3fb08fa83baf01e05
                           .group:00000000 wm4.core_cm3.h.113.b286929a54d33b4c8909a7132437b244
                           .group:00000000 wm4.stm32f10x.h.522.a925aafc848b1f088438cf0e9b167b78
                           .group:00000000 wm4.stm32f10x.h.8304.f7d8ad90959e99679b3257267c3aadfe
                           .group:00000000 wm4.stm32f10x_gpio.h.46.4096b03458401eca76553253bd40f29d
                           .group:00000000 wm4.stm32f10x_rcc.h.25.fe8897e7491f2eb0cff54551d08eb765

UNDEFINED SYMBOLS
assert_param
RCC_APB2PeriphResetCmd
