   1              		.syntax unified
   2              		.cpu cortex-m3
   3              		.fpu softvfp
   4              		.eabi_attribute 20, 1
   5              		.eabi_attribute 21, 1
   6              		.eabi_attribute 23, 3
   7              		.eabi_attribute 24, 1
   8              		.eabi_attribute 25, 1
   9              		.eabi_attribute 26, 1
  10              		.eabi_attribute 30, 6
  11              		.eabi_attribute 34, 1
  12              		.eabi_attribute 18, 4
  13              		.thumb
  14              		.file	"stm32f10x_usart.c"
  15              		.text
  16              	.Ltext0:
  17              		.cfi_sections	.debug_frame
  18              		.section	.text.USART_DeInit,"ax",%progbits
  19              		.align	2
  20              		.global	USART_DeInit
  21              		.thumb
  22              		.thumb_func
  24              	USART_DeInit:
  25              	.LFB29:
  26              		.file 1 "../libs/StdPeripheralDriver/src/stm32f10x_usart.c"
   1:../libs/StdPeripheralDriver/src/stm32f10x_usart.c **** /**
   2:../libs/StdPeripheralDriver/src/stm32f10x_usart.c ****   ******************************************************************************
   3:../libs/StdPeripheralDriver/src/stm32f10x_usart.c ****   * @file    stm32f10x_usart.c
   4:../libs/StdPeripheralDriver/src/stm32f10x_usart.c ****   * @author  MCD Application Team
   5:../libs/StdPeripheralDriver/src/stm32f10x_usart.c ****   * @version V3.5.0
   6:../libs/StdPeripheralDriver/src/stm32f10x_usart.c ****   * @date    11-March-2011
   7:../libs/StdPeripheralDriver/src/stm32f10x_usart.c ****   * @brief   This file provides all the USART firmware functions.
   8:../libs/StdPeripheralDriver/src/stm32f10x_usart.c ****   ******************************************************************************
   9:../libs/StdPeripheralDriver/src/stm32f10x_usart.c ****   * @attention
  10:../libs/StdPeripheralDriver/src/stm32f10x_usart.c ****   *
  11:../libs/StdPeripheralDriver/src/stm32f10x_usart.c ****   * THE PRESENT FIRMWARE WHICH IS FOR GUIDANCE ONLY AIMS AT PROVIDING CUSTOMERS
  12:../libs/StdPeripheralDriver/src/stm32f10x_usart.c ****   * WITH CODING INFORMATION REGARDING THEIR PRODUCTS IN ORDER FOR THEM TO SAVE
  13:../libs/StdPeripheralDriver/src/stm32f10x_usart.c ****   * TIME. AS A RESULT, STMICROELECTRONICS SHALL NOT BE HELD LIABLE FOR ANY
  14:../libs/StdPeripheralDriver/src/stm32f10x_usart.c ****   * DIRECT, INDIRECT OR CONSEQUENTIAL DAMAGES WITH RESPECT TO ANY CLAIMS ARISING
  15:../libs/StdPeripheralDriver/src/stm32f10x_usart.c ****   * FROM THE CONTENT OF SUCH FIRMWARE AND/OR THE USE MADE BY CUSTOMERS OF THE
  16:../libs/StdPeripheralDriver/src/stm32f10x_usart.c ****   * CODING INFORMATION CONTAINED HEREIN IN CONNECTION WITH THEIR PRODUCTS.
  17:../libs/StdPeripheralDriver/src/stm32f10x_usart.c ****   *
  18:../libs/StdPeripheralDriver/src/stm32f10x_usart.c ****   * <h2><center>&copy; COPYRIGHT 2011 STMicroelectronics</center></h2>
  19:../libs/StdPeripheralDriver/src/stm32f10x_usart.c ****   ******************************************************************************
  20:../libs/StdPeripheralDriver/src/stm32f10x_usart.c ****   */
  21:../libs/StdPeripheralDriver/src/stm32f10x_usart.c **** 
  22:../libs/StdPeripheralDriver/src/stm32f10x_usart.c **** /* Includes ------------------------------------------------------------------*/
  23:../libs/StdPeripheralDriver/src/stm32f10x_usart.c **** #include "stm32f10x_usart.h"
  24:../libs/StdPeripheralDriver/src/stm32f10x_usart.c **** #include "stm32f10x_rcc.h"
  25:../libs/StdPeripheralDriver/src/stm32f10x_usart.c **** 
  26:../libs/StdPeripheralDriver/src/stm32f10x_usart.c **** /** @addtogroup STM32F10x_StdPeriph_Driver
  27:../libs/StdPeripheralDriver/src/stm32f10x_usart.c ****   * @{
  28:../libs/StdPeripheralDriver/src/stm32f10x_usart.c ****   */
  29:../libs/StdPeripheralDriver/src/stm32f10x_usart.c **** 
  30:../libs/StdPeripheralDriver/src/stm32f10x_usart.c **** /** @defgroup USART 
  31:../libs/StdPeripheralDriver/src/stm32f10x_usart.c ****   * @brief USART driver modules
  32:../libs/StdPeripheralDriver/src/stm32f10x_usart.c ****   * @{
  33:../libs/StdPeripheralDriver/src/stm32f10x_usart.c ****   */
  34:../libs/StdPeripheralDriver/src/stm32f10x_usart.c **** 
  35:../libs/StdPeripheralDriver/src/stm32f10x_usart.c **** /** @defgroup USART_Private_TypesDefinitions
  36:../libs/StdPeripheralDriver/src/stm32f10x_usart.c ****   * @{
  37:../libs/StdPeripheralDriver/src/stm32f10x_usart.c ****   */
  38:../libs/StdPeripheralDriver/src/stm32f10x_usart.c **** 
  39:../libs/StdPeripheralDriver/src/stm32f10x_usart.c **** /**
  40:../libs/StdPeripheralDriver/src/stm32f10x_usart.c ****   * @}
  41:../libs/StdPeripheralDriver/src/stm32f10x_usart.c ****   */
  42:../libs/StdPeripheralDriver/src/stm32f10x_usart.c **** 
  43:../libs/StdPeripheralDriver/src/stm32f10x_usart.c **** /** @defgroup USART_Private_Defines
  44:../libs/StdPeripheralDriver/src/stm32f10x_usart.c ****   * @{
  45:../libs/StdPeripheralDriver/src/stm32f10x_usart.c ****   */
  46:../libs/StdPeripheralDriver/src/stm32f10x_usart.c **** 
  47:../libs/StdPeripheralDriver/src/stm32f10x_usart.c **** #define CR1_UE_Set                ((uint16_t)0x2000)  /*!< USART Enable Mask */
  48:../libs/StdPeripheralDriver/src/stm32f10x_usart.c **** #define CR1_UE_Reset              ((uint16_t)0xDFFF)  /*!< USART Disable Mask */
  49:../libs/StdPeripheralDriver/src/stm32f10x_usart.c **** 
  50:../libs/StdPeripheralDriver/src/stm32f10x_usart.c **** #define CR1_WAKE_Mask             ((uint16_t)0xF7FF)  /*!< USART WakeUp Method Mask */
  51:../libs/StdPeripheralDriver/src/stm32f10x_usart.c **** 
  52:../libs/StdPeripheralDriver/src/stm32f10x_usart.c **** #define CR1_RWU_Set               ((uint16_t)0x0002)  /*!< USART mute mode Enable Mask */
  53:../libs/StdPeripheralDriver/src/stm32f10x_usart.c **** #define CR1_RWU_Reset             ((uint16_t)0xFFFD)  /*!< USART mute mode Enable Mask */
  54:../libs/StdPeripheralDriver/src/stm32f10x_usart.c **** #define CR1_SBK_Set               ((uint16_t)0x0001)  /*!< USART Break Character send Mask */
  55:../libs/StdPeripheralDriver/src/stm32f10x_usart.c **** #define CR1_CLEAR_Mask            ((uint16_t)0xE9F3)  /*!< USART CR1 Mask */
  56:../libs/StdPeripheralDriver/src/stm32f10x_usart.c **** #define CR2_Address_Mask          ((uint16_t)0xFFF0)  /*!< USART address Mask */
  57:../libs/StdPeripheralDriver/src/stm32f10x_usart.c **** 
  58:../libs/StdPeripheralDriver/src/stm32f10x_usart.c **** #define CR2_LINEN_Set              ((uint16_t)0x4000)  /*!< USART LIN Enable Mask */
  59:../libs/StdPeripheralDriver/src/stm32f10x_usart.c **** #define CR2_LINEN_Reset            ((uint16_t)0xBFFF)  /*!< USART LIN Disable Mask */
  60:../libs/StdPeripheralDriver/src/stm32f10x_usart.c **** 
  61:../libs/StdPeripheralDriver/src/stm32f10x_usart.c **** #define CR2_LBDL_Mask             ((uint16_t)0xFFDF)  /*!< USART LIN Break detection Mask */
  62:../libs/StdPeripheralDriver/src/stm32f10x_usart.c **** #define CR2_STOP_CLEAR_Mask       ((uint16_t)0xCFFF)  /*!< USART CR2 STOP Bits Mask */
  63:../libs/StdPeripheralDriver/src/stm32f10x_usart.c **** #define CR2_CLOCK_CLEAR_Mask      ((uint16_t)0xF0FF)  /*!< USART CR2 Clock Mask */
  64:../libs/StdPeripheralDriver/src/stm32f10x_usart.c **** 
  65:../libs/StdPeripheralDriver/src/stm32f10x_usart.c **** #define CR3_SCEN_Set              ((uint16_t)0x0020)  /*!< USART SC Enable Mask */
  66:../libs/StdPeripheralDriver/src/stm32f10x_usart.c **** #define CR3_SCEN_Reset            ((uint16_t)0xFFDF)  /*!< USART SC Disable Mask */
  67:../libs/StdPeripheralDriver/src/stm32f10x_usart.c **** 
  68:../libs/StdPeripheralDriver/src/stm32f10x_usart.c **** #define CR3_NACK_Set              ((uint16_t)0x0010)  /*!< USART SC NACK Enable Mask */
  69:../libs/StdPeripheralDriver/src/stm32f10x_usart.c **** #define CR3_NACK_Reset            ((uint16_t)0xFFEF)  /*!< USART SC NACK Disable Mask */
  70:../libs/StdPeripheralDriver/src/stm32f10x_usart.c **** 
  71:../libs/StdPeripheralDriver/src/stm32f10x_usart.c **** #define CR3_HDSEL_Set             ((uint16_t)0x0008)  /*!< USART Half-Duplex Enable Mask */
  72:../libs/StdPeripheralDriver/src/stm32f10x_usart.c **** #define CR3_HDSEL_Reset           ((uint16_t)0xFFF7)  /*!< USART Half-Duplex Disable Mask */
  73:../libs/StdPeripheralDriver/src/stm32f10x_usart.c **** 
  74:../libs/StdPeripheralDriver/src/stm32f10x_usart.c **** #define CR3_IRLP_Mask             ((uint16_t)0xFFFB)  /*!< USART IrDA LowPower mode Mask */
  75:../libs/StdPeripheralDriver/src/stm32f10x_usart.c **** #define CR3_CLEAR_Mask            ((uint16_t)0xFCFF)  /*!< USART CR3 Mask */
  76:../libs/StdPeripheralDriver/src/stm32f10x_usart.c **** 
  77:../libs/StdPeripheralDriver/src/stm32f10x_usart.c **** #define CR3_IREN_Set              ((uint16_t)0x0002)  /*!< USART IrDA Enable Mask */
  78:../libs/StdPeripheralDriver/src/stm32f10x_usart.c **** #define CR3_IREN_Reset            ((uint16_t)0xFFFD)  /*!< USART IrDA Disable Mask */
  79:../libs/StdPeripheralDriver/src/stm32f10x_usart.c **** #define GTPR_LSB_Mask             ((uint16_t)0x00FF)  /*!< Guard Time Register LSB Mask */
  80:../libs/StdPeripheralDriver/src/stm32f10x_usart.c **** #define GTPR_MSB_Mask             ((uint16_t)0xFF00)  /*!< Guard Time Register MSB Mask */
  81:../libs/StdPeripheralDriver/src/stm32f10x_usart.c **** #define IT_Mask                   ((uint16_t)0x001F)  /*!< USART Interrupt Mask */
  82:../libs/StdPeripheralDriver/src/stm32f10x_usart.c **** 
  83:../libs/StdPeripheralDriver/src/stm32f10x_usart.c **** /* USART OverSampling-8 Mask */
  84:../libs/StdPeripheralDriver/src/stm32f10x_usart.c **** #define CR1_OVER8_Set             ((u16)0x8000)  /* USART OVER8 mode Enable Mask */
  85:../libs/StdPeripheralDriver/src/stm32f10x_usart.c **** #define CR1_OVER8_Reset           ((u16)0x7FFF)  /* USART OVER8 mode Disable Mask */
  86:../libs/StdPeripheralDriver/src/stm32f10x_usart.c **** 
  87:../libs/StdPeripheralDriver/src/stm32f10x_usart.c **** /* USART One Bit Sampling Mask */
  88:../libs/StdPeripheralDriver/src/stm32f10x_usart.c **** #define CR3_ONEBITE_Set           ((u16)0x0800)  /* USART ONEBITE mode Enable Mask */
  89:../libs/StdPeripheralDriver/src/stm32f10x_usart.c **** #define CR3_ONEBITE_Reset         ((u16)0xF7FF)  /* USART ONEBITE mode Disable Mask */
  90:../libs/StdPeripheralDriver/src/stm32f10x_usart.c **** 
  91:../libs/StdPeripheralDriver/src/stm32f10x_usart.c **** /**
  92:../libs/StdPeripheralDriver/src/stm32f10x_usart.c ****   * @}
  93:../libs/StdPeripheralDriver/src/stm32f10x_usart.c ****   */
  94:../libs/StdPeripheralDriver/src/stm32f10x_usart.c **** 
  95:../libs/StdPeripheralDriver/src/stm32f10x_usart.c **** /** @defgroup USART_Private_Macros
  96:../libs/StdPeripheralDriver/src/stm32f10x_usart.c ****   * @{
  97:../libs/StdPeripheralDriver/src/stm32f10x_usart.c ****   */
  98:../libs/StdPeripheralDriver/src/stm32f10x_usart.c **** 
  99:../libs/StdPeripheralDriver/src/stm32f10x_usart.c **** /**
 100:../libs/StdPeripheralDriver/src/stm32f10x_usart.c ****   * @}
 101:../libs/StdPeripheralDriver/src/stm32f10x_usart.c ****   */
 102:../libs/StdPeripheralDriver/src/stm32f10x_usart.c **** 
 103:../libs/StdPeripheralDriver/src/stm32f10x_usart.c **** /** @defgroup USART_Private_Variables
 104:../libs/StdPeripheralDriver/src/stm32f10x_usart.c ****   * @{
 105:../libs/StdPeripheralDriver/src/stm32f10x_usart.c ****   */
 106:../libs/StdPeripheralDriver/src/stm32f10x_usart.c **** 
 107:../libs/StdPeripheralDriver/src/stm32f10x_usart.c **** /**
 108:../libs/StdPeripheralDriver/src/stm32f10x_usart.c ****   * @}
 109:../libs/StdPeripheralDriver/src/stm32f10x_usart.c ****   */
 110:../libs/StdPeripheralDriver/src/stm32f10x_usart.c **** 
 111:../libs/StdPeripheralDriver/src/stm32f10x_usart.c **** /** @defgroup USART_Private_FunctionPrototypes
 112:../libs/StdPeripheralDriver/src/stm32f10x_usart.c ****   * @{
 113:../libs/StdPeripheralDriver/src/stm32f10x_usart.c ****   */
 114:../libs/StdPeripheralDriver/src/stm32f10x_usart.c **** 
 115:../libs/StdPeripheralDriver/src/stm32f10x_usart.c **** /**
 116:../libs/StdPeripheralDriver/src/stm32f10x_usart.c ****   * @}
 117:../libs/StdPeripheralDriver/src/stm32f10x_usart.c ****   */
 118:../libs/StdPeripheralDriver/src/stm32f10x_usart.c **** 
 119:../libs/StdPeripheralDriver/src/stm32f10x_usart.c **** /** @defgroup USART_Private_Functions
 120:../libs/StdPeripheralDriver/src/stm32f10x_usart.c ****   * @{
 121:../libs/StdPeripheralDriver/src/stm32f10x_usart.c ****   */
 122:../libs/StdPeripheralDriver/src/stm32f10x_usart.c **** 
 123:../libs/StdPeripheralDriver/src/stm32f10x_usart.c **** /**
 124:../libs/StdPeripheralDriver/src/stm32f10x_usart.c ****   * @brief  Deinitializes the USARTx peripheral registers to their default reset values.
 125:../libs/StdPeripheralDriver/src/stm32f10x_usart.c ****   * @param  USARTx: Select the USART or the UART peripheral. 
 126:../libs/StdPeripheralDriver/src/stm32f10x_usart.c ****   *   This parameter can be one of the following values: 
 127:../libs/StdPeripheralDriver/src/stm32f10x_usart.c ****   *      USART1, USART2, USART3, UART4 or UART5.
 128:../libs/StdPeripheralDriver/src/stm32f10x_usart.c ****   * @retval None
 129:../libs/StdPeripheralDriver/src/stm32f10x_usart.c ****   */
 130:../libs/StdPeripheralDriver/src/stm32f10x_usart.c **** void USART_DeInit(USART_TypeDef* USARTx)
 131:../libs/StdPeripheralDriver/src/stm32f10x_usart.c **** {
  27              		.loc 1 131 0
  28              		.cfi_startproc
  29              		@ args = 0, pretend = 0, frame = 8
  30              		@ frame_needed = 1, uses_anonymous_args = 0
  31 0000 80B5     		push	{r7, lr}
  32              	.LCFI0:
  33              		.cfi_def_cfa_offset 8
  34              		.cfi_offset 7, -8
  35              		.cfi_offset 14, -4
  36 0002 82B0     		sub	sp, sp, #8
  37              	.LCFI1:
  38              		.cfi_def_cfa_offset 16
  39 0004 00AF     		add	r7, sp, #0
  40              	.LCFI2:
  41              		.cfi_def_cfa_register 7
  42 0006 7860     		str	r0, [r7, #4]
 132:../libs/StdPeripheralDriver/src/stm32f10x_usart.c ****   /* Check the parameters */
 133:../libs/StdPeripheralDriver/src/stm32f10x_usart.c ****   assert_param(IS_USART_ALL_PERIPH(USARTx));
  43              		.loc 1 133 0
  44 0008 7A68     		ldr	r2, [r7, #4]
  45 000a 394B     		ldr	r3, .L10
  46 000c 9A42     		cmp	r2, r3
  47 000e 0FD0     		beq	.L2
  48              		.loc 1 133 0 is_stmt 0 discriminator 2
  49 0010 7A68     		ldr	r2, [r7, #4]
  50 0012 384B     		ldr	r3, .L10+4
  51 0014 9A42     		cmp	r2, r3
  52 0016 0BD0     		beq	.L2
  53              		.loc 1 133 0 discriminator 1
  54 0018 7A68     		ldr	r2, [r7, #4]
  55 001a 374B     		ldr	r3, .L10+8
  56 001c 9A42     		cmp	r2, r3
  57 001e 07D0     		beq	.L2
  58              		.loc 1 133 0 discriminator 2
  59 0020 7A68     		ldr	r2, [r7, #4]
  60 0022 364B     		ldr	r3, .L10+12
  61 0024 9A42     		cmp	r2, r3
  62 0026 03D0     		beq	.L2
  63              		.loc 1 133 0 discriminator 3
  64 0028 7A68     		ldr	r2, [r7, #4]
  65 002a 354B     		ldr	r3, .L10+16
  66 002c 9A42     		cmp	r2, r3
  67 002e 02D1     		bne	.L3
  68              	.L2:
  69              		.loc 1 133 0 discriminator 1
  70 0030 4FF00103 		mov	r3, #1
  71 0034 01E0     		b	.L4
  72              	.L3:
  73              		.loc 1 133 0 discriminator 3
  74 0036 4FF00003 		mov	r3, #0
  75              	.L4:
  76              		.loc 1 133 0 discriminator 4
  77 003a 1846     		mov	r0, r3
  78 003c FFF7FEFF 		bl	assert_param
 134:../libs/StdPeripheralDriver/src/stm32f10x_usart.c **** 
 135:../libs/StdPeripheralDriver/src/stm32f10x_usart.c ****   if (USARTx == USART1)
  79              		.loc 1 135 0 is_stmt 1 discriminator 4
  80 0040 7A68     		ldr	r2, [r7, #4]
  81 0042 2B4B     		ldr	r3, .L10
  82 0044 9A42     		cmp	r2, r3
  83 0046 0CD1     		bne	.L5
 136:../libs/StdPeripheralDriver/src/stm32f10x_usart.c ****   {
 137:../libs/StdPeripheralDriver/src/stm32f10x_usart.c ****     RCC_APB2PeriphResetCmd(RCC_APB2Periph_USART1, ENABLE);
  84              		.loc 1 137 0
  85 0048 4FF48040 		mov	r0, #16384
  86 004c 4FF00101 		mov	r1, #1
  87 0050 FFF7FEFF 		bl	RCC_APB2PeriphResetCmd
 138:../libs/StdPeripheralDriver/src/stm32f10x_usart.c ****     RCC_APB2PeriphResetCmd(RCC_APB2Periph_USART1, DISABLE);
  88              		.loc 1 138 0
  89 0054 4FF48040 		mov	r0, #16384
  90 0058 4FF00001 		mov	r1, #0
  91 005c FFF7FEFF 		bl	RCC_APB2PeriphResetCmd
  92 0060 42E0     		b	.L1
  93              	.L5:
 139:../libs/StdPeripheralDriver/src/stm32f10x_usart.c ****   }
 140:../libs/StdPeripheralDriver/src/stm32f10x_usart.c ****   else if (USARTx == USART2)
  94              		.loc 1 140 0
  95 0062 7A68     		ldr	r2, [r7, #4]
  96 0064 234B     		ldr	r3, .L10+4
  97 0066 9A42     		cmp	r2, r3
  98 0068 0CD1     		bne	.L7
 141:../libs/StdPeripheralDriver/src/stm32f10x_usart.c ****   {
 142:../libs/StdPeripheralDriver/src/stm32f10x_usart.c ****     RCC_APB1PeriphResetCmd(RCC_APB1Periph_USART2, ENABLE);
  99              		.loc 1 142 0
 100 006a 4FF40030 		mov	r0, #131072
 101 006e 4FF00101 		mov	r1, #1
 102 0072 FFF7FEFF 		bl	RCC_APB1PeriphResetCmd
 143:../libs/StdPeripheralDriver/src/stm32f10x_usart.c ****     RCC_APB1PeriphResetCmd(RCC_APB1Periph_USART2, DISABLE);
 103              		.loc 1 143 0
 104 0076 4FF40030 		mov	r0, #131072
 105 007a 4FF00001 		mov	r1, #0
 106 007e FFF7FEFF 		bl	RCC_APB1PeriphResetCmd
 107 0082 31E0     		b	.L1
 108              	.L7:
 144:../libs/StdPeripheralDriver/src/stm32f10x_usart.c ****   }
 145:../libs/StdPeripheralDriver/src/stm32f10x_usart.c ****   else if (USARTx == USART3)
 109              		.loc 1 145 0
 110 0084 7A68     		ldr	r2, [r7, #4]
 111 0086 1C4B     		ldr	r3, .L10+8
 112 0088 9A42     		cmp	r2, r3
 113 008a 0CD1     		bne	.L8
 146:../libs/StdPeripheralDriver/src/stm32f10x_usart.c ****   {
 147:../libs/StdPeripheralDriver/src/stm32f10x_usart.c ****     RCC_APB1PeriphResetCmd(RCC_APB1Periph_USART3, ENABLE);
 114              		.loc 1 147 0
 115 008c 4FF48020 		mov	r0, #262144
 116 0090 4FF00101 		mov	r1, #1
 117 0094 FFF7FEFF 		bl	RCC_APB1PeriphResetCmd
 148:../libs/StdPeripheralDriver/src/stm32f10x_usart.c ****     RCC_APB1PeriphResetCmd(RCC_APB1Periph_USART3, DISABLE);
 118              		.loc 1 148 0
 119 0098 4FF48020 		mov	r0, #262144
 120 009c 4FF00001 		mov	r1, #0
 121 00a0 FFF7FEFF 		bl	RCC_APB1PeriphResetCmd
 122 00a4 20E0     		b	.L1
 123              	.L8:
 149:../libs/StdPeripheralDriver/src/stm32f10x_usart.c ****   }    
 150:../libs/StdPeripheralDriver/src/stm32f10x_usart.c ****   else if (USARTx == UART4)
 124              		.loc 1 150 0
 125 00a6 7A68     		ldr	r2, [r7, #4]
 126 00a8 144B     		ldr	r3, .L10+12
 127 00aa 9A42     		cmp	r2, r3
 128 00ac 0CD1     		bne	.L9
 151:../libs/StdPeripheralDriver/src/stm32f10x_usart.c ****   {
 152:../libs/StdPeripheralDriver/src/stm32f10x_usart.c ****     RCC_APB1PeriphResetCmd(RCC_APB1Periph_UART4, ENABLE);
 129              		.loc 1 152 0
 130 00ae 4FF40020 		mov	r0, #524288
 131 00b2 4FF00101 		mov	r1, #1
 132 00b6 FFF7FEFF 		bl	RCC_APB1PeriphResetCmd
 153:../libs/StdPeripheralDriver/src/stm32f10x_usart.c ****     RCC_APB1PeriphResetCmd(RCC_APB1Periph_UART4, DISABLE);
 133              		.loc 1 153 0
 134 00ba 4FF40020 		mov	r0, #524288
 135 00be 4FF00001 		mov	r1, #0
 136 00c2 FFF7FEFF 		bl	RCC_APB1PeriphResetCmd
 137 00c6 0FE0     		b	.L1
 138              	.L9:
 154:../libs/StdPeripheralDriver/src/stm32f10x_usart.c ****   }    
 155:../libs/StdPeripheralDriver/src/stm32f10x_usart.c ****   else
 156:../libs/StdPeripheralDriver/src/stm32f10x_usart.c ****   {
 157:../libs/StdPeripheralDriver/src/stm32f10x_usart.c ****     if (USARTx == UART5)
 139              		.loc 1 157 0
 140 00c8 7A68     		ldr	r2, [r7, #4]
 141 00ca 0D4B     		ldr	r3, .L10+16
 142 00cc 9A42     		cmp	r2, r3
 143 00ce 0BD1     		bne	.L1
 158:../libs/StdPeripheralDriver/src/stm32f10x_usart.c ****     { 
 159:../libs/StdPeripheralDriver/src/stm32f10x_usart.c ****       RCC_APB1PeriphResetCmd(RCC_APB1Periph_UART5, ENABLE);
 144              		.loc 1 159 0
 145 00d0 4FF48010 		mov	r0, #1048576
 146 00d4 4FF00101 		mov	r1, #1
 147 00d8 FFF7FEFF 		bl	RCC_APB1PeriphResetCmd
 160:../libs/StdPeripheralDriver/src/stm32f10x_usart.c ****       RCC_APB1PeriphResetCmd(RCC_APB1Periph_UART5, DISABLE);
 148              		.loc 1 160 0
 149 00dc 4FF48010 		mov	r0, #1048576
 150 00e0 4FF00001 		mov	r1, #0
 151 00e4 FFF7FEFF 		bl	RCC_APB1PeriphResetCmd
 152              	.L1:
 161:../libs/StdPeripheralDriver/src/stm32f10x_usart.c ****     }
 162:../libs/StdPeripheralDriver/src/stm32f10x_usart.c ****   }
 163:../libs/StdPeripheralDriver/src/stm32f10x_usart.c **** }
 153              		.loc 1 163 0
 154 00e8 07F10807 		add	r7, r7, #8
 155 00ec BD46     		mov	sp, r7
 156 00ee 80BD     		pop	{r7, pc}
 157              	.L11:
 158              		.align	2
 159              	.L10:
 160 00f0 00380140 		.word	1073821696
 161 00f4 00440040 		.word	1073759232
 162 00f8 00480040 		.word	1073760256
 163 00fc 004C0040 		.word	1073761280
 164 0100 00500040 		.word	1073762304
 165              		.cfi_endproc
 166              	.LFE29:
 168              		.section	.text.USART_Init,"ax",%progbits
 169              		.align	2
 170              		.global	USART_Init
 171              		.thumb
 172              		.thumb_func
 174              	USART_Init:
 175              	.LFB30:
 164:../libs/StdPeripheralDriver/src/stm32f10x_usart.c **** 
 165:../libs/StdPeripheralDriver/src/stm32f10x_usart.c **** /**
 166:../libs/StdPeripheralDriver/src/stm32f10x_usart.c ****   * @brief  Initializes the USARTx peripheral according to the specified
 167:../libs/StdPeripheralDriver/src/stm32f10x_usart.c ****   *         parameters in the USART_InitStruct .
 168:../libs/StdPeripheralDriver/src/stm32f10x_usart.c ****   * @param  USARTx: Select the USART or the UART peripheral. 
 169:../libs/StdPeripheralDriver/src/stm32f10x_usart.c ****   *   This parameter can be one of the following values:
 170:../libs/StdPeripheralDriver/src/stm32f10x_usart.c ****   *   USART1, USART2, USART3, UART4 or UART5.
 171:../libs/StdPeripheralDriver/src/stm32f10x_usart.c ****   * @param  USART_InitStruct: pointer to a USART_InitTypeDef structure
 172:../libs/StdPeripheralDriver/src/stm32f10x_usart.c ****   *         that contains the configuration information for the specified USART 
 173:../libs/StdPeripheralDriver/src/stm32f10x_usart.c ****   *         peripheral.
 174:../libs/StdPeripheralDriver/src/stm32f10x_usart.c ****   * @retval None
 175:../libs/StdPeripheralDriver/src/stm32f10x_usart.c ****   */
 176:../libs/StdPeripheralDriver/src/stm32f10x_usart.c **** void USART_Init(USART_TypeDef* USARTx, USART_InitTypeDef* USART_InitStruct)
 177:../libs/StdPeripheralDriver/src/stm32f10x_usart.c **** {
 176              		.loc 1 177 0
 177              		.cfi_startproc
 178              		@ args = 0, pretend = 0, frame = 48
 179              		@ frame_needed = 1, uses_anonymous_args = 0
 180 0000 80B5     		push	{r7, lr}
 181              	.LCFI3:
 182              		.cfi_def_cfa_offset 8
 183              		.cfi_offset 7, -8
 184              		.cfi_offset 14, -4
 185 0002 8CB0     		sub	sp, sp, #48
 186              	.LCFI4:
 187              		.cfi_def_cfa_offset 56
 188 0004 00AF     		add	r7, sp, #0
 189              	.LCFI5:
 190              		.cfi_def_cfa_register 7
 191 0006 7860     		str	r0, [r7, #4]
 192 0008 3960     		str	r1, [r7, #0]
 178:../libs/StdPeripheralDriver/src/stm32f10x_usart.c ****   uint32_t tmpreg = 0x00, apbclock = 0x00;
 193              		.loc 1 178 0
 194 000a 4FF00003 		mov	r3, #0
 195 000e FB62     		str	r3, [r7, #44]
 196 0010 4FF00003 		mov	r3, #0
 197 0014 BB62     		str	r3, [r7, #40]
 179:../libs/StdPeripheralDriver/src/stm32f10x_usart.c ****   uint32_t integerdivider = 0x00;
 198              		.loc 1 179 0
 199 0016 4FF00003 		mov	r3, #0
 200 001a 7B62     		str	r3, [r7, #36]
 180:../libs/StdPeripheralDriver/src/stm32f10x_usart.c ****   uint32_t fractionaldivider = 0x00;
 201              		.loc 1 180 0
 202 001c 4FF00003 		mov	r3, #0
 203 0020 3B62     		str	r3, [r7, #32]
 181:../libs/StdPeripheralDriver/src/stm32f10x_usart.c ****   uint32_t usartxbase = 0;
 204              		.loc 1 181 0
 205 0022 4FF00003 		mov	r3, #0
 206 0026 FB61     		str	r3, [r7, #28]
 182:../libs/StdPeripheralDriver/src/stm32f10x_usart.c ****   RCC_ClocksTypeDef RCC_ClocksStatus;
 183:../libs/StdPeripheralDriver/src/stm32f10x_usart.c ****   /* Check the parameters */
 184:../libs/StdPeripheralDriver/src/stm32f10x_usart.c ****   assert_param(IS_USART_ALL_PERIPH(USARTx));
 207              		.loc 1 184 0
 208 0028 7A68     		ldr	r2, [r7, #4]
 209 002a 8D4B     		ldr	r3, .L42
 210 002c 9A42     		cmp	r2, r3
 211 002e 0FD0     		beq	.L13
 212              		.loc 1 184 0 is_stmt 0 discriminator 2
 213 0030 7A68     		ldr	r2, [r7, #4]
 214 0032 8C4B     		ldr	r3, .L42+4
 215 0034 9A42     		cmp	r2, r3
 216 0036 0BD0     		beq	.L13
 217              		.loc 1 184 0 discriminator 1
 218 0038 7A68     		ldr	r2, [r7, #4]
 219 003a 8B4B     		ldr	r3, .L42+8
 220 003c 9A42     		cmp	r2, r3
 221 003e 07D0     		beq	.L13
 222              		.loc 1 184 0 discriminator 2
 223 0040 7A68     		ldr	r2, [r7, #4]
 224 0042 8A4B     		ldr	r3, .L42+12
 225 0044 9A42     		cmp	r2, r3
 226 0046 03D0     		beq	.L13
 227              		.loc 1 184 0 discriminator 3
 228 0048 7A68     		ldr	r2, [r7, #4]
 229 004a 894B     		ldr	r3, .L42+16
 230 004c 9A42     		cmp	r2, r3
 231 004e 02D1     		bne	.L14
 232              	.L13:
 233              		.loc 1 184 0 discriminator 1
 234 0050 4FF00103 		mov	r3, #1
 235 0054 01E0     		b	.L15
 236              	.L14:
 237              		.loc 1 184 0 discriminator 3
 238 0056 4FF00003 		mov	r3, #0
 239              	.L15:
 240              		.loc 1 184 0 discriminator 4
 241 005a 1846     		mov	r0, r3
 242 005c FFF7FEFF 		bl	assert_param
 185:../libs/StdPeripheralDriver/src/stm32f10x_usart.c ****   assert_param(IS_USART_BAUDRATE(USART_InitStruct->USART_BaudRate));  
 243              		.loc 1 185 0 is_stmt 1 discriminator 4
 244 0060 3B68     		ldr	r3, [r7, #0]
 245 0062 1B68     		ldr	r3, [r3, #0]
 246 0064 002B     		cmp	r3, #0
 247 0066 07D0     		beq	.L16
 248              		.loc 1 185 0 is_stmt 0 discriminator 1
 249 0068 3B68     		ldr	r3, [r7, #0]
 250 006a 1A68     		ldr	r2, [r3, #0]
 251 006c 814B     		ldr	r3, .L42+20
 252 006e 9A42     		cmp	r2, r3
 253 0070 02D8     		bhi	.L16
 254              		.loc 1 185 0 discriminator 3
 255 0072 4FF00103 		mov	r3, #1
 256 0076 01E0     		b	.L17
 257              	.L16:
 258              		.loc 1 185 0 discriminator 2
 259 0078 4FF00003 		mov	r3, #0
 260              	.L17:
 261              		.loc 1 185 0 discriminator 4
 262 007c 1846     		mov	r0, r3
 263 007e FFF7FEFF 		bl	assert_param
 186:../libs/StdPeripheralDriver/src/stm32f10x_usart.c ****   assert_param(IS_USART_WORD_LENGTH(USART_InitStruct->USART_WordLength));
 264              		.loc 1 186 0 is_stmt 1 discriminator 4
 265 0082 3B68     		ldr	r3, [r7, #0]
 266 0084 9B88     		ldrh	r3, [r3, #4]
 267 0086 002B     		cmp	r3, #0
 268 0088 04D0     		beq	.L18
 269              		.loc 1 186 0 is_stmt 0 discriminator 2
 270 008a 3B68     		ldr	r3, [r7, #0]
 271 008c 9B88     		ldrh	r3, [r3, #4]
 272 008e B3F5805F 		cmp	r3, #4096
 273 0092 02D1     		bne	.L19
 274              	.L18:
 275              		.loc 1 186 0 discriminator 1
 276 0094 4FF00103 		mov	r3, #1
 277 0098 01E0     		b	.L20
 278              	.L19:
 279              		.loc 1 186 0 discriminator 3
 280 009a 4FF00003 		mov	r3, #0
 281              	.L20:
 282              		.loc 1 186 0 discriminator 4
 283 009e 1846     		mov	r0, r3
 284 00a0 FFF7FEFF 		bl	assert_param
 187:../libs/StdPeripheralDriver/src/stm32f10x_usart.c ****   assert_param(IS_USART_STOPBITS(USART_InitStruct->USART_StopBits));
 285              		.loc 1 187 0 is_stmt 1 discriminator 4
 286 00a4 3B68     		ldr	r3, [r7, #0]
 287 00a6 DB88     		ldrh	r3, [r3, #6]
 288 00a8 002B     		cmp	r3, #0
 289 00aa 0ED0     		beq	.L21
 290              		.loc 1 187 0 is_stmt 0 discriminator 2
 291 00ac 3B68     		ldr	r3, [r7, #0]
 292 00ae DB88     		ldrh	r3, [r3, #6]
 293 00b0 B3F5805F 		cmp	r3, #4096
 294 00b4 09D0     		beq	.L21
 295              		.loc 1 187 0 discriminator 1
 296 00b6 3B68     		ldr	r3, [r7, #0]
 297 00b8 DB88     		ldrh	r3, [r3, #6]
 298 00ba B3F5005F 		cmp	r3, #8192
 299 00be 04D0     		beq	.L21
 300              		.loc 1 187 0 discriminator 2
 301 00c0 3B68     		ldr	r3, [r7, #0]
 302 00c2 DB88     		ldrh	r3, [r3, #6]
 303 00c4 B3F5405F 		cmp	r3, #12288
 304 00c8 02D1     		bne	.L22
 305              	.L21:
 306              		.loc 1 187 0 discriminator 1
 307 00ca 4FF00103 		mov	r3, #1
 308 00ce 01E0     		b	.L23
 309              	.L22:
 310              		.loc 1 187 0 discriminator 3
 311 00d0 4FF00003 		mov	r3, #0
 312              	.L23:
 313              		.loc 1 187 0 discriminator 4
 314 00d4 1846     		mov	r0, r3
 315 00d6 FFF7FEFF 		bl	assert_param
 188:../libs/StdPeripheralDriver/src/stm32f10x_usart.c ****   assert_param(IS_USART_PARITY(USART_InitStruct->USART_Parity));
 316              		.loc 1 188 0 is_stmt 1 discriminator 4
 317 00da 3B68     		ldr	r3, [r7, #0]
 318 00dc 1B89     		ldrh	r3, [r3, #8]
 319 00de 002B     		cmp	r3, #0
 320 00e0 09D0     		beq	.L24
 321              		.loc 1 188 0 is_stmt 0 discriminator 2
 322 00e2 3B68     		ldr	r3, [r7, #0]
 323 00e4 1B89     		ldrh	r3, [r3, #8]
 324 00e6 B3F5806F 		cmp	r3, #1024
 325 00ea 04D0     		beq	.L24
 326              		.loc 1 188 0 discriminator 1
 327 00ec 3B68     		ldr	r3, [r7, #0]
 328 00ee 1B89     		ldrh	r3, [r3, #8]
 329 00f0 B3F5C06F 		cmp	r3, #1536
 330 00f4 02D1     		bne	.L25
 331              	.L24:
 332 00f6 4FF00103 		mov	r3, #1
 333 00fa 01E0     		b	.L26
 334              	.L25:
 335              		.loc 1 188 0 discriminator 3
 336 00fc 4FF00003 		mov	r3, #0
 337              	.L26:
 338              		.loc 1 188 0 discriminator 4
 339 0100 1846     		mov	r0, r3
 340 0102 FFF7FEFF 		bl	assert_param
 189:../libs/StdPeripheralDriver/src/stm32f10x_usart.c ****   assert_param(IS_USART_MODE(USART_InitStruct->USART_Mode));
 341              		.loc 1 189 0 is_stmt 1 discriminator 4
 342 0106 3B68     		ldr	r3, [r7, #0]
 343 0108 5B89     		ldrh	r3, [r3, #10]
 344 010a 1A46     		mov	r2, r3
 345 010c 4FF6F373 		movw	r3, #65523
 346 0110 1340     		ands	r3, r3, r2
 347 0112 002B     		cmp	r3, #0
 348 0114 06D1     		bne	.L27
 349              		.loc 1 189 0 is_stmt 0 discriminator 1
 350 0116 3B68     		ldr	r3, [r7, #0]
 351 0118 5B89     		ldrh	r3, [r3, #10]
 352 011a 002B     		cmp	r3, #0
 353 011c 02D0     		beq	.L27
 354              		.loc 1 189 0 discriminator 3
 355 011e 4FF00103 		mov	r3, #1
 356 0122 01E0     		b	.L28
 357              	.L27:
 358              		.loc 1 189 0 discriminator 2
 359 0124 4FF00003 		mov	r3, #0
 360              	.L28:
 361              		.loc 1 189 0 discriminator 4
 362 0128 1846     		mov	r0, r3
 363 012a FFF7FEFF 		bl	assert_param
 190:../libs/StdPeripheralDriver/src/stm32f10x_usart.c ****   assert_param(IS_USART_HARDWARE_FLOW_CONTROL(USART_InitStruct->USART_HardwareFlowControl));
 364              		.loc 1 190 0 is_stmt 1 discriminator 4
 365 012e 3B68     		ldr	r3, [r7, #0]
 366 0130 9B89     		ldrh	r3, [r3, #12]
 367 0132 002B     		cmp	r3, #0
 368 0134 0ED0     		beq	.L29
 369              		.loc 1 190 0 is_stmt 0 discriminator 2
 370 0136 3B68     		ldr	r3, [r7, #0]
 371 0138 9B89     		ldrh	r3, [r3, #12]
 372 013a B3F5807F 		cmp	r3, #256
 373 013e 09D0     		beq	.L29
 374              		.loc 1 190 0 discriminator 1
 375 0140 3B68     		ldr	r3, [r7, #0]
 376 0142 9B89     		ldrh	r3, [r3, #12]
 377 0144 B3F5007F 		cmp	r3, #512
 378 0148 04D0     		beq	.L29
 379              		.loc 1 190 0 discriminator 2
 380 014a 3B68     		ldr	r3, [r7, #0]
 381 014c 9B89     		ldrh	r3, [r3, #12]
 382 014e B3F5407F 		cmp	r3, #768
 383 0152 02D1     		bne	.L30
 384              	.L29:
 385              		.loc 1 190 0 discriminator 1
 386 0154 4FF00103 		mov	r3, #1
 387 0158 01E0     		b	.L31
 388              	.L30:
 389              		.loc 1 190 0 discriminator 3
 390 015a 4FF00003 		mov	r3, #0
 391              	.L31:
 392              		.loc 1 190 0 discriminator 4
 393 015e 1846     		mov	r0, r3
 394 0160 FFF7FEFF 		bl	assert_param
 191:../libs/StdPeripheralDriver/src/stm32f10x_usart.c ****   /* The hardware flow control is available only for USART1, USART2 and USART3 */
 192:../libs/StdPeripheralDriver/src/stm32f10x_usart.c ****   if (USART_InitStruct->USART_HardwareFlowControl != USART_HardwareFlowControl_None)
 395              		.loc 1 192 0 is_stmt 1 discriminator 4
 396 0164 3B68     		ldr	r3, [r7, #0]
 397 0166 9B89     		ldrh	r3, [r3, #12]
 398 0168 002B     		cmp	r3, #0
 399 016a 13D0     		beq	.L32
 193:../libs/StdPeripheralDriver/src/stm32f10x_usart.c ****   {
 194:../libs/StdPeripheralDriver/src/stm32f10x_usart.c ****     assert_param(IS_USART_123_PERIPH(USARTx));
 400              		.loc 1 194 0
 401 016c 7A68     		ldr	r2, [r7, #4]
 402 016e 3C4B     		ldr	r3, .L42
 403 0170 9A42     		cmp	r2, r3
 404 0172 07D0     		beq	.L33
 405              		.loc 1 194 0 is_stmt 0 discriminator 2
 406 0174 7A68     		ldr	r2, [r7, #4]
 407 0176 3B4B     		ldr	r3, .L42+4
 408 0178 9A42     		cmp	r2, r3
 409 017a 03D0     		beq	.L33
 410              		.loc 1 194 0 discriminator 1
 411 017c 7A68     		ldr	r2, [r7, #4]
 412 017e 3A4B     		ldr	r3, .L42+8
 413 0180 9A42     		cmp	r2, r3
 414 0182 02D1     		bne	.L34
 415              	.L33:
 416 0184 4FF00103 		mov	r3, #1
 417 0188 01E0     		b	.L35
 418              	.L34:
 419              		.loc 1 194 0 discriminator 3
 420 018a 4FF00003 		mov	r3, #0
 421              	.L35:
 422              		.loc 1 194 0 discriminator 4
 423 018e 1846     		mov	r0, r3
 424 0190 FFF7FEFF 		bl	assert_param
 425              	.L32:
 195:../libs/StdPeripheralDriver/src/stm32f10x_usart.c ****   }
 196:../libs/StdPeripheralDriver/src/stm32f10x_usart.c **** 
 197:../libs/StdPeripheralDriver/src/stm32f10x_usart.c ****   usartxbase = (uint32_t)USARTx;
 426              		.loc 1 197 0 is_stmt 1
 427 0194 7B68     		ldr	r3, [r7, #4]
 428 0196 FB61     		str	r3, [r7, #28]
 198:../libs/StdPeripheralDriver/src/stm32f10x_usart.c **** 
 199:../libs/StdPeripheralDriver/src/stm32f10x_usart.c **** /*---------------------------- USART CR2 Configuration -----------------------*/
 200:../libs/StdPeripheralDriver/src/stm32f10x_usart.c ****   tmpreg = USARTx->CR2;
 429              		.loc 1 200 0
 430 0198 7B68     		ldr	r3, [r7, #4]
 431 019a 1B8A     		ldrh	r3, [r3, #16]	@ movhi
 432 019c 9BB2     		uxth	r3, r3
 433 019e FB62     		str	r3, [r7, #44]
 201:../libs/StdPeripheralDriver/src/stm32f10x_usart.c ****   /* Clear STOP[13:12] bits */
 202:../libs/StdPeripheralDriver/src/stm32f10x_usart.c ****   tmpreg &= CR2_STOP_CLEAR_Mask;
 434              		.loc 1 202 0
 435 01a0 FA6A     		ldr	r2, [r7, #44]
 436 01a2 4CF6FF73 		movw	r3, #53247
 437 01a6 1340     		ands	r3, r3, r2
 438 01a8 FB62     		str	r3, [r7, #44]
 203:../libs/StdPeripheralDriver/src/stm32f10x_usart.c ****   /* Configure the USART Stop Bits, Clock, CPOL, CPHA and LastBit ------------*/
 204:../libs/StdPeripheralDriver/src/stm32f10x_usart.c ****   /* Set STOP[13:12] bits according to USART_StopBits value */
 205:../libs/StdPeripheralDriver/src/stm32f10x_usart.c ****   tmpreg |= (uint32_t)USART_InitStruct->USART_StopBits;
 439              		.loc 1 205 0
 440 01aa 3B68     		ldr	r3, [r7, #0]
 441 01ac DB88     		ldrh	r3, [r3, #6]
 442 01ae FA6A     		ldr	r2, [r7, #44]
 443 01b0 1343     		orrs	r3, r3, r2
 444 01b2 FB62     		str	r3, [r7, #44]
 206:../libs/StdPeripheralDriver/src/stm32f10x_usart.c ****   
 207:../libs/StdPeripheralDriver/src/stm32f10x_usart.c ****   /* Write to USART CR2 */
 208:../libs/StdPeripheralDriver/src/stm32f10x_usart.c ****   USARTx->CR2 = (uint16_t)tmpreg;
 445              		.loc 1 208 0
 446 01b4 FB6A     		ldr	r3, [r7, #44]
 447 01b6 9AB2     		uxth	r2, r3
 448 01b8 7B68     		ldr	r3, [r7, #4]
 449 01ba 1A82     		strh	r2, [r3, #16]	@ movhi
 209:../libs/StdPeripheralDriver/src/stm32f10x_usart.c **** 
 210:../libs/StdPeripheralDriver/src/stm32f10x_usart.c **** /*---------------------------- USART CR1 Configuration -----------------------*/
 211:../libs/StdPeripheralDriver/src/stm32f10x_usart.c ****   tmpreg = USARTx->CR1;
 450              		.loc 1 211 0
 451 01bc 7B68     		ldr	r3, [r7, #4]
 452 01be 9B89     		ldrh	r3, [r3, #12]	@ movhi
 453 01c0 9BB2     		uxth	r3, r3
 454 01c2 FB62     		str	r3, [r7, #44]
 212:../libs/StdPeripheralDriver/src/stm32f10x_usart.c ****   /* Clear M, PCE, PS, TE and RE bits */
 213:../libs/StdPeripheralDriver/src/stm32f10x_usart.c ****   tmpreg &= CR1_CLEAR_Mask;
 455              		.loc 1 213 0
 456 01c4 FA6A     		ldr	r2, [r7, #44]
 457 01c6 4EF6F313 		movw	r3, #59891
 458 01ca 1340     		ands	r3, r3, r2
 459 01cc FB62     		str	r3, [r7, #44]
 214:../libs/StdPeripheralDriver/src/stm32f10x_usart.c ****   /* Configure the USART Word Length, Parity and mode ----------------------- */
 215:../libs/StdPeripheralDriver/src/stm32f10x_usart.c ****   /* Set the M bits according to USART_WordLength value */
 216:../libs/StdPeripheralDriver/src/stm32f10x_usart.c ****   /* Set PCE and PS bits according to USART_Parity value */
 217:../libs/StdPeripheralDriver/src/stm32f10x_usart.c ****   /* Set TE and RE bits according to USART_Mode value */
 218:../libs/StdPeripheralDriver/src/stm32f10x_usart.c ****   tmpreg |= (uint32_t)USART_InitStruct->USART_WordLength | USART_InitStruct->USART_Parity |
 460              		.loc 1 218 0
 461 01ce 3B68     		ldr	r3, [r7, #0]
 462 01d0 9A88     		ldrh	r2, [r3, #4]
 463 01d2 3B68     		ldr	r3, [r7, #0]
 464 01d4 1B89     		ldrh	r3, [r3, #8]
 465 01d6 1343     		orrs	r3, r3, r2
 466 01d8 9AB2     		uxth	r2, r3
 219:../libs/StdPeripheralDriver/src/stm32f10x_usart.c ****             USART_InitStruct->USART_Mode;
 467              		.loc 1 219 0
 468 01da 3B68     		ldr	r3, [r7, #0]
 469 01dc 5B89     		ldrh	r3, [r3, #10]
 218:../libs/StdPeripheralDriver/src/stm32f10x_usart.c ****   tmpreg |= (uint32_t)USART_InitStruct->USART_WordLength | USART_InitStruct->USART_Parity |
 470              		.loc 1 218 0
 471 01de 1343     		orrs	r3, r3, r2
 472 01e0 9BB2     		uxth	r3, r3
 473 01e2 FA6A     		ldr	r2, [r7, #44]
 474 01e4 1343     		orrs	r3, r3, r2
 475 01e6 FB62     		str	r3, [r7, #44]
 220:../libs/StdPeripheralDriver/src/stm32f10x_usart.c ****   /* Write to USART CR1 */
 221:../libs/StdPeripheralDriver/src/stm32f10x_usart.c ****   USARTx->CR1 = (uint16_t)tmpreg;
 476              		.loc 1 221 0
 477 01e8 FB6A     		ldr	r3, [r7, #44]
 478 01ea 9AB2     		uxth	r2, r3
 479 01ec 7B68     		ldr	r3, [r7, #4]
 480 01ee 9A81     		strh	r2, [r3, #12]	@ movhi
 222:../libs/StdPeripheralDriver/src/stm32f10x_usart.c **** 
 223:../libs/StdPeripheralDriver/src/stm32f10x_usart.c **** /*---------------------------- USART CR3 Configuration -----------------------*/  
 224:../libs/StdPeripheralDriver/src/stm32f10x_usart.c ****   tmpreg = USARTx->CR3;
 481              		.loc 1 224 0
 482 01f0 7B68     		ldr	r3, [r7, #4]
 483 01f2 9B8A     		ldrh	r3, [r3, #20]	@ movhi
 484 01f4 9BB2     		uxth	r3, r3
 485 01f6 FB62     		str	r3, [r7, #44]
 225:../libs/StdPeripheralDriver/src/stm32f10x_usart.c ****   /* Clear CTSE and RTSE bits */
 226:../libs/StdPeripheralDriver/src/stm32f10x_usart.c ****   tmpreg &= CR3_CLEAR_Mask;
 486              		.loc 1 226 0
 487 01f8 FA6A     		ldr	r2, [r7, #44]
 488 01fa 4FF6FF43 		movw	r3, #64767
 489 01fe 1340     		ands	r3, r3, r2
 490 0200 FB62     		str	r3, [r7, #44]
 227:../libs/StdPeripheralDriver/src/stm32f10x_usart.c ****   /* Configure the USART HFC -------------------------------------------------*/
 228:../libs/StdPeripheralDriver/src/stm32f10x_usart.c ****   /* Set CTSE and RTSE bits according to USART_HardwareFlowControl value */
 229:../libs/StdPeripheralDriver/src/stm32f10x_usart.c ****   tmpreg |= USART_InitStruct->USART_HardwareFlowControl;
 491              		.loc 1 229 0
 492 0202 3B68     		ldr	r3, [r7, #0]
 493 0204 9B89     		ldrh	r3, [r3, #12]
 494 0206 FA6A     		ldr	r2, [r7, #44]
 495 0208 1343     		orrs	r3, r3, r2
 496 020a FB62     		str	r3, [r7, #44]
 230:../libs/StdPeripheralDriver/src/stm32f10x_usart.c ****   /* Write to USART CR3 */
 231:../libs/StdPeripheralDriver/src/stm32f10x_usart.c ****   USARTx->CR3 = (uint16_t)tmpreg;
 497              		.loc 1 231 0
 498 020c FB6A     		ldr	r3, [r7, #44]
 499 020e 9AB2     		uxth	r2, r3
 500 0210 7B68     		ldr	r3, [r7, #4]
 501 0212 9A82     		strh	r2, [r3, #20]	@ movhi
 232:../libs/StdPeripheralDriver/src/stm32f10x_usart.c **** 
 233:../libs/StdPeripheralDriver/src/stm32f10x_usart.c **** /*---------------------------- USART BRR Configuration -----------------------*/
 234:../libs/StdPeripheralDriver/src/stm32f10x_usart.c ****   /* Configure the USART Baud Rate -------------------------------------------*/
 235:../libs/StdPeripheralDriver/src/stm32f10x_usart.c ****   RCC_GetClocksFreq(&RCC_ClocksStatus);
 502              		.loc 1 235 0
 503 0214 07F10803 		add	r3, r7, #8
 504 0218 1846     		mov	r0, r3
 505 021a FFF7FEFF 		bl	RCC_GetClocksFreq
 236:../libs/StdPeripheralDriver/src/stm32f10x_usart.c ****   if (usartxbase == USART1_BASE)
 506              		.loc 1 236 0
 507 021e FA69     		ldr	r2, [r7, #28]
 508 0220 0F4B     		ldr	r3, .L42
 509 0222 9A42     		cmp	r2, r3
 510 0224 02D1     		bne	.L36
 237:../libs/StdPeripheralDriver/src/stm32f10x_usart.c ****   {
 238:../libs/StdPeripheralDriver/src/stm32f10x_usart.c ****     apbclock = RCC_ClocksStatus.PCLK2_Frequency;
 511              		.loc 1 238 0
 512 0226 7B69     		ldr	r3, [r7, #20]
 513 0228 BB62     		str	r3, [r7, #40]
 514 022a 01E0     		b	.L37
 515              	.L36:
 239:../libs/StdPeripheralDriver/src/stm32f10x_usart.c ****   }
 240:../libs/StdPeripheralDriver/src/stm32f10x_usart.c ****   else
 241:../libs/StdPeripheralDriver/src/stm32f10x_usart.c ****   {
 242:../libs/StdPeripheralDriver/src/stm32f10x_usart.c ****     apbclock = RCC_ClocksStatus.PCLK1_Frequency;
 516              		.loc 1 242 0
 517 022c 3B69     		ldr	r3, [r7, #16]
 518 022e BB62     		str	r3, [r7, #40]
 519              	.L37:
 243:../libs/StdPeripheralDriver/src/stm32f10x_usart.c ****   }
 244:../libs/StdPeripheralDriver/src/stm32f10x_usart.c ****   
 245:../libs/StdPeripheralDriver/src/stm32f10x_usart.c ****   /* Determine the integer part */
 246:../libs/StdPeripheralDriver/src/stm32f10x_usart.c ****   if ((USARTx->CR1 & CR1_OVER8_Set) != 0)
 520              		.loc 1 246 0
 521 0230 7B68     		ldr	r3, [r7, #4]
 522 0232 9B89     		ldrh	r3, [r3, #12]	@ movhi
 523 0234 9BB2     		uxth	r3, r3
 524 0236 9BB2     		uxth	r3, r3
 525 0238 1BB2     		sxth	r3, r3
 526 023a 002B     		cmp	r3, #0
 527 023c 1CDA     		bge	.L38
 247:../libs/StdPeripheralDriver/src/stm32f10x_usart.c ****   {
 248:../libs/StdPeripheralDriver/src/stm32f10x_usart.c ****     /* Integer part computing in case Oversampling mode is 8 Samples */
 249:../libs/StdPeripheralDriver/src/stm32f10x_usart.c ****     integerdivider = ((25 * apbclock) / (2 * (USART_InitStruct->USART_BaudRate)));    
 528              		.loc 1 249 0
 529 023e BA6A     		ldr	r2, [r7, #40]
 530 0240 1346     		mov	r3, r2
 531 0242 4FEA8303 		lsl	r3, r3, #2
 532 0246 9B18     		adds	r3, r3, r2
 533 0248 4FEA8302 		lsl	r2, r3, #2
 534 024c 9A18     		adds	r2, r3, r2
 535 024e 3B68     		ldr	r3, [r7, #0]
 536 0250 1B68     		ldr	r3, [r3, #0]
 537 0252 4FEA4303 		lsl	r3, r3, #1
 538 0256 B2FBF3F3 		udiv	r3, r2, r3
 539 025a 7B62     		str	r3, [r7, #36]
 540 025c 1BE0     		b	.L39
 541              	.L43:
 542 025e 00BF     		.align	2
 543              	.L42:
 544 0260 00380140 		.word	1073821696
 545 0264 00440040 		.word	1073759232
 546 0268 00480040 		.word	1073760256
 547 026c 004C0040 		.word	1073761280
 548 0270 00500040 		.word	1073762304
 549 0274 20AA4400 		.word	4500000
 550              	.L38:
 250:../libs/StdPeripheralDriver/src/stm32f10x_usart.c ****   }
 251:../libs/StdPeripheralDriver/src/stm32f10x_usart.c ****   else /* if ((USARTx->CR1 & CR1_OVER8_Set) == 0) */
 252:../libs/StdPeripheralDriver/src/stm32f10x_usart.c ****   {
 253:../libs/StdPeripheralDriver/src/stm32f10x_usart.c ****     /* Integer part computing in case Oversampling mode is 16 Samples */
 254:../libs/StdPeripheralDriver/src/stm32f10x_usart.c ****     integerdivider = ((25 * apbclock) / (4 * (USART_InitStruct->USART_BaudRate)));    
 551              		.loc 1 254 0
 552 0278 BA6A     		ldr	r2, [r7, #40]
 553 027a 1346     		mov	r3, r2
 554 027c 4FEA8303 		lsl	r3, r3, #2
 555 0280 9B18     		adds	r3, r3, r2
 556 0282 4FEA8302 		lsl	r2, r3, #2
 557 0286 9A18     		adds	r2, r3, r2
 558 0288 3B68     		ldr	r3, [r7, #0]
 559 028a 1B68     		ldr	r3, [r3, #0]
 560 028c 4FEA8303 		lsl	r3, r3, #2
 561 0290 B2FBF3F3 		udiv	r3, r2, r3
 562 0294 7B62     		str	r3, [r7, #36]
 563              	.L39:
 255:../libs/StdPeripheralDriver/src/stm32f10x_usart.c ****   }
 256:../libs/StdPeripheralDriver/src/stm32f10x_usart.c ****   tmpreg = (integerdivider / 100) << 4;
 564              		.loc 1 256 0
 565 0296 7A6A     		ldr	r2, [r7, #36]
 566 0298 1F4B     		ldr	r3, .L44
 567 029a A3FB0213 		umull	r1, r3, r3, r2
 568 029e 4FEA5313 		lsr	r3, r3, #5
 569 02a2 4FEA0313 		lsl	r3, r3, #4
 570 02a6 FB62     		str	r3, [r7, #44]
 257:../libs/StdPeripheralDriver/src/stm32f10x_usart.c **** 
 258:../libs/StdPeripheralDriver/src/stm32f10x_usart.c ****   /* Determine the fractional part */
 259:../libs/StdPeripheralDriver/src/stm32f10x_usart.c ****   fractionaldivider = integerdivider - (100 * (tmpreg >> 4));
 571              		.loc 1 259 0
 572 02a8 FB6A     		ldr	r3, [r7, #44]
 573 02aa 4FEA1313 		lsr	r3, r3, #4
 574 02ae 4FF06402 		mov	r2, #100
 575 02b2 02FB03F3 		mul	r3, r2, r3
 576 02b6 7A6A     		ldr	r2, [r7, #36]
 577 02b8 D31A     		subs	r3, r2, r3
 578 02ba 3B62     		str	r3, [r7, #32]
 260:../libs/StdPeripheralDriver/src/stm32f10x_usart.c **** 
 261:../libs/StdPeripheralDriver/src/stm32f10x_usart.c ****   /* Implement the fractional part in the register */
 262:../libs/StdPeripheralDriver/src/stm32f10x_usart.c ****   if ((USARTx->CR1 & CR1_OVER8_Set) != 0)
 579              		.loc 1 262 0
 580 02bc 7B68     		ldr	r3, [r7, #4]
 581 02be 9B89     		ldrh	r3, [r3, #12]	@ movhi
 582 02c0 9BB2     		uxth	r3, r3
 583 02c2 9BB2     		uxth	r3, r3
 584 02c4 1BB2     		sxth	r3, r3
 585 02c6 002B     		cmp	r3, #0
 586 02c8 0FDA     		bge	.L40
 263:../libs/StdPeripheralDriver/src/stm32f10x_usart.c ****   {
 264:../libs/StdPeripheralDriver/src/stm32f10x_usart.c ****     tmpreg |= ((((fractionaldivider * 8) + 50) / 100)) & ((uint8_t)0x07);
 587              		.loc 1 264 0
 588 02ca 3B6A     		ldr	r3, [r7, #32]
 589 02cc 4FEAC303 		lsl	r3, r3, #3
 590 02d0 03F13202 		add	r2, r3, #50
 591 02d4 104B     		ldr	r3, .L44
 592 02d6 A3FB0213 		umull	r1, r3, r3, r2
 593 02da 4FEA5313 		lsr	r3, r3, #5
 594 02de 03F00703 		and	r3, r3, #7
 595 02e2 FA6A     		ldr	r2, [r7, #44]
 596 02e4 1343     		orrs	r3, r3, r2
 597 02e6 FB62     		str	r3, [r7, #44]
 598 02e8 0EE0     		b	.L41
 599              	.L40:
 265:../libs/StdPeripheralDriver/src/stm32f10x_usart.c ****   }
 266:../libs/StdPeripheralDriver/src/stm32f10x_usart.c ****   else /* if ((USARTx->CR1 & CR1_OVER8_Set) == 0) */
 267:../libs/StdPeripheralDriver/src/stm32f10x_usart.c ****   {
 268:../libs/StdPeripheralDriver/src/stm32f10x_usart.c ****     tmpreg |= ((((fractionaldivider * 16) + 50) / 100)) & ((uint8_t)0x0F);
 600              		.loc 1 268 0
 601 02ea 3B6A     		ldr	r3, [r7, #32]
 602 02ec 4FEA0313 		lsl	r3, r3, #4
 603 02f0 03F13202 		add	r2, r3, #50
 604 02f4 084B     		ldr	r3, .L44
 605 02f6 A3FB0213 		umull	r1, r3, r3, r2
 606 02fa 4FEA5313 		lsr	r3, r3, #5
 607 02fe 03F00F03 		and	r3, r3, #15
 608 0302 FA6A     		ldr	r2, [r7, #44]
 609 0304 1343     		orrs	r3, r3, r2
 610 0306 FB62     		str	r3, [r7, #44]
 611              	.L41:
 269:../libs/StdPeripheralDriver/src/stm32f10x_usart.c ****   }
 270:../libs/StdPeripheralDriver/src/stm32f10x_usart.c ****   
 271:../libs/StdPeripheralDriver/src/stm32f10x_usart.c ****   /* Write to USART BRR */
 272:../libs/StdPeripheralDriver/src/stm32f10x_usart.c ****   USARTx->BRR = (uint16_t)tmpreg;
 612              		.loc 1 272 0
 613 0308 FB6A     		ldr	r3, [r7, #44]
 614 030a 9AB2     		uxth	r2, r3
 615 030c 7B68     		ldr	r3, [r7, #4]
 616 030e 1A81     		strh	r2, [r3, #8]	@ movhi
 273:../libs/StdPeripheralDriver/src/stm32f10x_usart.c **** }
 617              		.loc 1 273 0
 618 0310 07F13007 		add	r7, r7, #48
 619 0314 BD46     		mov	sp, r7
 620 0316 80BD     		pop	{r7, pc}
 621              	.L45:
 622              		.align	2
 623              	.L44:
 624 0318 1F85EB51 		.word	1374389535
 625              		.cfi_endproc
 626              	.LFE30:
 628              		.section	.text.USART_StructInit,"ax",%progbits
 629              		.align	2
 630              		.global	USART_StructInit
 631              		.thumb
 632              		.thumb_func
 634              	USART_StructInit:
 635              	.LFB31:
 274:../libs/StdPeripheralDriver/src/stm32f10x_usart.c **** 
 275:../libs/StdPeripheralDriver/src/stm32f10x_usart.c **** /**
 276:../libs/StdPeripheralDriver/src/stm32f10x_usart.c ****   * @brief  Fills each USART_InitStruct member with its default value.
 277:../libs/StdPeripheralDriver/src/stm32f10x_usart.c ****   * @param  USART_InitStruct: pointer to a USART_InitTypeDef structure
 278:../libs/StdPeripheralDriver/src/stm32f10x_usart.c ****   *         which will be initialized.
 279:../libs/StdPeripheralDriver/src/stm32f10x_usart.c ****   * @retval None
 280:../libs/StdPeripheralDriver/src/stm32f10x_usart.c ****   */
 281:../libs/StdPeripheralDriver/src/stm32f10x_usart.c **** void USART_StructInit(USART_InitTypeDef* USART_InitStruct)
 282:../libs/StdPeripheralDriver/src/stm32f10x_usart.c **** {
 636              		.loc 1 282 0
 637              		.cfi_startproc
 638              		@ args = 0, pretend = 0, frame = 8
 639              		@ frame_needed = 1, uses_anonymous_args = 0
 640              		@ link register save eliminated.
 641 0000 80B4     		push	{r7}
 642              	.LCFI6:
 643              		.cfi_def_cfa_offset 4
 644              		.cfi_offset 7, -4
 645 0002 83B0     		sub	sp, sp, #12
 646              	.LCFI7:
 647              		.cfi_def_cfa_offset 16
 648 0004 00AF     		add	r7, sp, #0
 649              	.LCFI8:
 650              		.cfi_def_cfa_register 7
 651 0006 7860     		str	r0, [r7, #4]
 283:../libs/StdPeripheralDriver/src/stm32f10x_usart.c ****   /* USART_InitStruct members default value */
 284:../libs/StdPeripheralDriver/src/stm32f10x_usart.c ****   USART_InitStruct->USART_BaudRate = 9600;
 652              		.loc 1 284 0
 653 0008 7B68     		ldr	r3, [r7, #4]
 654 000a 4FF41652 		mov	r2, #9600
 655 000e 1A60     		str	r2, [r3, #0]
 285:../libs/StdPeripheralDriver/src/stm32f10x_usart.c ****   USART_InitStruct->USART_WordLength = USART_WordLength_8b;
 656              		.loc 1 285 0
 657 0010 7B68     		ldr	r3, [r7, #4]
 658 0012 4FF00002 		mov	r2, #0
 659 0016 9A80     		strh	r2, [r3, #4]	@ movhi
 286:../libs/StdPeripheralDriver/src/stm32f10x_usart.c ****   USART_InitStruct->USART_StopBits = USART_StopBits_1;
 660              		.loc 1 286 0
 661 0018 7B68     		ldr	r3, [r7, #4]
 662 001a 4FF00002 		mov	r2, #0
 663 001e DA80     		strh	r2, [r3, #6]	@ movhi
 287:../libs/StdPeripheralDriver/src/stm32f10x_usart.c ****   USART_InitStruct->USART_Parity = USART_Parity_No ;
 664              		.loc 1 287 0
 665 0020 7B68     		ldr	r3, [r7, #4]
 666 0022 4FF00002 		mov	r2, #0
 667 0026 1A81     		strh	r2, [r3, #8]	@ movhi
 288:../libs/StdPeripheralDriver/src/stm32f10x_usart.c ****   USART_InitStruct->USART_Mode = USART_Mode_Rx | USART_Mode_Tx;
 668              		.loc 1 288 0
 669 0028 7B68     		ldr	r3, [r7, #4]
 670 002a 4FF00C02 		mov	r2, #12
 671 002e 5A81     		strh	r2, [r3, #10]	@ movhi
 289:../libs/StdPeripheralDriver/src/stm32f10x_usart.c ****   USART_InitStruct->USART_HardwareFlowControl = USART_HardwareFlowControl_None;  
 672              		.loc 1 289 0
 673 0030 7B68     		ldr	r3, [r7, #4]
 674 0032 4FF00002 		mov	r2, #0
 675 0036 9A81     		strh	r2, [r3, #12]	@ movhi
 290:../libs/StdPeripheralDriver/src/stm32f10x_usart.c **** }
 676              		.loc 1 290 0
 677 0038 07F10C07 		add	r7, r7, #12
 678 003c BD46     		mov	sp, r7
 679 003e 80BC     		pop	{r7}
 680 0040 7047     		bx	lr
 681              		.cfi_endproc
 682              	.LFE31:
 684 0042 00BF     		.section	.text.USART_ClockInit,"ax",%progbits
 685              		.align	2
 686              		.global	USART_ClockInit
 687              		.thumb
 688              		.thumb_func
 690              	USART_ClockInit:
 691              	.LFB32:
 291:../libs/StdPeripheralDriver/src/stm32f10x_usart.c **** 
 292:../libs/StdPeripheralDriver/src/stm32f10x_usart.c **** /**
 293:../libs/StdPeripheralDriver/src/stm32f10x_usart.c ****   * @brief  Initializes the USARTx peripheral Clock according to the 
 294:../libs/StdPeripheralDriver/src/stm32f10x_usart.c ****   *          specified parameters in the USART_ClockInitStruct .
 295:../libs/StdPeripheralDriver/src/stm32f10x_usart.c ****   * @param  USARTx: where x can be 1, 2, 3 to select the USART peripheral.
 296:../libs/StdPeripheralDriver/src/stm32f10x_usart.c ****   * @param  USART_ClockInitStruct: pointer to a USART_ClockInitTypeDef
 297:../libs/StdPeripheralDriver/src/stm32f10x_usart.c ****   *         structure that contains the configuration information for the specified 
 298:../libs/StdPeripheralDriver/src/stm32f10x_usart.c ****   *         USART peripheral.  
 299:../libs/StdPeripheralDriver/src/stm32f10x_usart.c ****   * @note The Smart Card and Synchronous modes are not available for UART4 and UART5.
 300:../libs/StdPeripheralDriver/src/stm32f10x_usart.c ****   * @retval None
 301:../libs/StdPeripheralDriver/src/stm32f10x_usart.c ****   */
 302:../libs/StdPeripheralDriver/src/stm32f10x_usart.c **** void USART_ClockInit(USART_TypeDef* USARTx, USART_ClockInitTypeDef* USART_ClockInitStruct)
 303:../libs/StdPeripheralDriver/src/stm32f10x_usart.c **** {
 692              		.loc 1 303 0
 693              		.cfi_startproc
 694              		@ args = 0, pretend = 0, frame = 16
 695              		@ frame_needed = 1, uses_anonymous_args = 0
 696 0000 80B5     		push	{r7, lr}
 697              	.LCFI9:
 698              		.cfi_def_cfa_offset 8
 699              		.cfi_offset 7, -8
 700              		.cfi_offset 14, -4
 701 0002 84B0     		sub	sp, sp, #16
 702              	.LCFI10:
 703              		.cfi_def_cfa_offset 24
 704 0004 00AF     		add	r7, sp, #0
 705              	.LCFI11:
 706              		.cfi_def_cfa_register 7
 707 0006 7860     		str	r0, [r7, #4]
 708 0008 3960     		str	r1, [r7, #0]
 304:../libs/StdPeripheralDriver/src/stm32f10x_usart.c ****   uint32_t tmpreg = 0x00;
 709              		.loc 1 304 0
 710 000a 4FF00003 		mov	r3, #0
 711 000e FB60     		str	r3, [r7, #12]
 305:../libs/StdPeripheralDriver/src/stm32f10x_usart.c ****   /* Check the parameters */
 306:../libs/StdPeripheralDriver/src/stm32f10x_usart.c ****   assert_param(IS_USART_123_PERIPH(USARTx));
 712              		.loc 1 306 0
 713 0010 7A68     		ldr	r2, [r7, #4]
 714 0012 3C4B     		ldr	r3, .L63
 715 0014 9A42     		cmp	r2, r3
 716 0016 07D0     		beq	.L48
 717              		.loc 1 306 0 is_stmt 0 discriminator 2
 718 0018 7A68     		ldr	r2, [r7, #4]
 719 001a 3B4B     		ldr	r3, .L63+4
 720 001c 9A42     		cmp	r2, r3
 721 001e 03D0     		beq	.L48
 722              		.loc 1 306 0 discriminator 1
 723 0020 7A68     		ldr	r2, [r7, #4]
 724 0022 3A4B     		ldr	r3, .L63+8
 725 0024 9A42     		cmp	r2, r3
 726 0026 02D1     		bne	.L49
 727              	.L48:
 728 0028 4FF00103 		mov	r3, #1
 729 002c 01E0     		b	.L50
 730              	.L49:
 731              		.loc 1 306 0 discriminator 3
 732 002e 4FF00003 		mov	r3, #0
 733              	.L50:
 734              		.loc 1 306 0 discriminator 4
 735 0032 1846     		mov	r0, r3
 736 0034 FFF7FEFF 		bl	assert_param
 307:../libs/StdPeripheralDriver/src/stm32f10x_usart.c ****   assert_param(IS_USART_CLOCK(USART_ClockInitStruct->USART_Clock));
 737              		.loc 1 307 0 is_stmt 1 discriminator 4
 738 0038 3B68     		ldr	r3, [r7, #0]
 739 003a 1B88     		ldrh	r3, [r3, #0]
 740 003c 002B     		cmp	r3, #0
 741 003e 04D0     		beq	.L51
 742              		.loc 1 307 0 is_stmt 0 discriminator 2
 743 0040 3B68     		ldr	r3, [r7, #0]
 744 0042 1B88     		ldrh	r3, [r3, #0]
 745 0044 B3F5006F 		cmp	r3, #2048
 746 0048 02D1     		bne	.L52
 747              	.L51:
 748              		.loc 1 307 0 discriminator 1
 749 004a 4FF00103 		mov	r3, #1
 750 004e 01E0     		b	.L53
 751              	.L52:
 752              		.loc 1 307 0 discriminator 3
 753 0050 4FF00003 		mov	r3, #0
 754              	.L53:
 755              		.loc 1 307 0 discriminator 4
 756 0054 1846     		mov	r0, r3
 757 0056 FFF7FEFF 		bl	assert_param
 308:../libs/StdPeripheralDriver/src/stm32f10x_usart.c ****   assert_param(IS_USART_CPOL(USART_ClockInitStruct->USART_CPOL));
 758              		.loc 1 308 0 is_stmt 1 discriminator 4
 759 005a 3B68     		ldr	r3, [r7, #0]
 760 005c 5B88     		ldrh	r3, [r3, #2]
 761 005e 002B     		cmp	r3, #0
 762 0060 04D0     		beq	.L54
 763              		.loc 1 308 0 is_stmt 0 discriminator 2
 764 0062 3B68     		ldr	r3, [r7, #0]
 765 0064 5B88     		ldrh	r3, [r3, #2]
 766 0066 B3F5806F 		cmp	r3, #1024
 767 006a 02D1     		bne	.L55
 768              	.L54:
 769              		.loc 1 308 0 discriminator 1
 770 006c 4FF00103 		mov	r3, #1
 771 0070 01E0     		b	.L56
 772              	.L55:
 773              		.loc 1 308 0 discriminator 3
 774 0072 4FF00003 		mov	r3, #0
 775              	.L56:
 776              		.loc 1 308 0 discriminator 4
 777 0076 1846     		mov	r0, r3
 778 0078 FFF7FEFF 		bl	assert_param
 309:../libs/StdPeripheralDriver/src/stm32f10x_usart.c ****   assert_param(IS_USART_CPHA(USART_ClockInitStruct->USART_CPHA));
 779              		.loc 1 309 0 is_stmt 1 discriminator 4
 780 007c 3B68     		ldr	r3, [r7, #0]
 781 007e 9B88     		ldrh	r3, [r3, #4]
 782 0080 002B     		cmp	r3, #0
 783 0082 04D0     		beq	.L57
 784              		.loc 1 309 0 is_stmt 0 discriminator 2
 785 0084 3B68     		ldr	r3, [r7, #0]
 786 0086 9B88     		ldrh	r3, [r3, #4]
 787 0088 B3F5007F 		cmp	r3, #512
 788 008c 02D1     		bne	.L58
 789              	.L57:
 790              		.loc 1 309 0 discriminator 1
 791 008e 4FF00103 		mov	r3, #1
 792 0092 01E0     		b	.L59
 793              	.L58:
 794              		.loc 1 309 0 discriminator 3
 795 0094 4FF00003 		mov	r3, #0
 796              	.L59:
 797              		.loc 1 309 0 discriminator 4
 798 0098 1846     		mov	r0, r3
 799 009a FFF7FEFF 		bl	assert_param
 310:../libs/StdPeripheralDriver/src/stm32f10x_usart.c ****   assert_param(IS_USART_LASTBIT(USART_ClockInitStruct->USART_LastBit));
 800              		.loc 1 310 0 is_stmt 1 discriminator 4
 801 009e 3B68     		ldr	r3, [r7, #0]
 802 00a0 DB88     		ldrh	r3, [r3, #6]
 803 00a2 002B     		cmp	r3, #0
 804 00a4 04D0     		beq	.L60
 805              		.loc 1 310 0 is_stmt 0 discriminator 2
 806 00a6 3B68     		ldr	r3, [r7, #0]
 807 00a8 DB88     		ldrh	r3, [r3, #6]
 808 00aa B3F5807F 		cmp	r3, #256
 809 00ae 02D1     		bne	.L61
 810              	.L60:
 811              		.loc 1 310 0 discriminator 1
 812 00b0 4FF00103 		mov	r3, #1
 813 00b4 01E0     		b	.L62
 814              	.L61:
 815              		.loc 1 310 0 discriminator 3
 816 00b6 4FF00003 		mov	r3, #0
 817              	.L62:
 818              		.loc 1 310 0 discriminator 4
 819 00ba 1846     		mov	r0, r3
 820 00bc FFF7FEFF 		bl	assert_param
 311:../libs/StdPeripheralDriver/src/stm32f10x_usart.c ****   
 312:../libs/StdPeripheralDriver/src/stm32f10x_usart.c **** /*---------------------------- USART CR2 Configuration -----------------------*/
 313:../libs/StdPeripheralDriver/src/stm32f10x_usart.c ****   tmpreg = USARTx->CR2;
 821              		.loc 1 313 0 is_stmt 1 discriminator 4
 822 00c0 7B68     		ldr	r3, [r7, #4]
 823 00c2 1B8A     		ldrh	r3, [r3, #16]	@ movhi
 824 00c4 9BB2     		uxth	r3, r3
 825 00c6 FB60     		str	r3, [r7, #12]
 314:../libs/StdPeripheralDriver/src/stm32f10x_usart.c ****   /* Clear CLKEN, CPOL, CPHA and LBCL bits */
 315:../libs/StdPeripheralDriver/src/stm32f10x_usart.c ****   tmpreg &= CR2_CLOCK_CLEAR_Mask;
 826              		.loc 1 315 0 discriminator 4
 827 00c8 FA68     		ldr	r2, [r7, #12]
 828 00ca 4FF2FF03 		movw	r3, #61695
 829 00ce 1340     		ands	r3, r3, r2
 830 00d0 FB60     		str	r3, [r7, #12]
 316:../libs/StdPeripheralDriver/src/stm32f10x_usart.c ****   /* Configure the USART Clock, CPOL, CPHA and LastBit ------------*/
 317:../libs/StdPeripheralDriver/src/stm32f10x_usart.c ****   /* Set CLKEN bit according to USART_Clock value */
 318:../libs/StdPeripheralDriver/src/stm32f10x_usart.c ****   /* Set CPOL bit according to USART_CPOL value */
 319:../libs/StdPeripheralDriver/src/stm32f10x_usart.c ****   /* Set CPHA bit according to USART_CPHA value */
 320:../libs/StdPeripheralDriver/src/stm32f10x_usart.c ****   /* Set LBCL bit according to USART_LastBit value */
 321:../libs/StdPeripheralDriver/src/stm32f10x_usart.c ****   tmpreg |= (uint32_t)USART_ClockInitStruct->USART_Clock | USART_ClockInitStruct->USART_CPOL | 
 831              		.loc 1 321 0 discriminator 4
 832 00d2 3B68     		ldr	r3, [r7, #0]
 833 00d4 1A88     		ldrh	r2, [r3, #0]
 834 00d6 3B68     		ldr	r3, [r7, #0]
 835 00d8 5B88     		ldrh	r3, [r3, #2]
 322:../libs/StdPeripheralDriver/src/stm32f10x_usart.c ****                  USART_ClockInitStruct->USART_CPHA | USART_ClockInitStruct->USART_LastBit;
 836              		.loc 1 322 0 discriminator 4
 837 00da 1343     		orrs	r3, r3, r2
 838 00dc 9AB2     		uxth	r2, r3
 839 00de 3B68     		ldr	r3, [r7, #0]
 840 00e0 9B88     		ldrh	r3, [r3, #4]
 841 00e2 1343     		orrs	r3, r3, r2
 842 00e4 9AB2     		uxth	r2, r3
 843 00e6 3B68     		ldr	r3, [r7, #0]
 844 00e8 DB88     		ldrh	r3, [r3, #6]
 845 00ea 1343     		orrs	r3, r3, r2
 846 00ec 9BB2     		uxth	r3, r3
 321:../libs/StdPeripheralDriver/src/stm32f10x_usart.c ****   tmpreg |= (uint32_t)USART_ClockInitStruct->USART_Clock | USART_ClockInitStruct->USART_CPOL | 
 847              		.loc 1 321 0 discriminator 4
 848 00ee FA68     		ldr	r2, [r7, #12]
 849 00f0 1343     		orrs	r3, r3, r2
 850 00f2 FB60     		str	r3, [r7, #12]
 323:../libs/StdPeripheralDriver/src/stm32f10x_usart.c ****   /* Write to USART CR2 */
 324:../libs/StdPeripheralDriver/src/stm32f10x_usart.c ****   USARTx->CR2 = (uint16_t)tmpreg;
 851              		.loc 1 324 0 discriminator 4
 852 00f4 FB68     		ldr	r3, [r7, #12]
 853 00f6 9AB2     		uxth	r2, r3
 854 00f8 7B68     		ldr	r3, [r7, #4]
 855 00fa 1A82     		strh	r2, [r3, #16]	@ movhi
 325:../libs/StdPeripheralDriver/src/stm32f10x_usart.c **** }
 856              		.loc 1 325 0 discriminator 4
 857 00fc 07F11007 		add	r7, r7, #16
 858 0100 BD46     		mov	sp, r7
 859 0102 80BD     		pop	{r7, pc}
 860              	.L64:
 861              		.align	2
 862              	.L63:
 863 0104 00380140 		.word	1073821696
 864 0108 00440040 		.word	1073759232
 865 010c 00480040 		.word	1073760256
 866              		.cfi_endproc
 867              	.LFE32:
 869              		.section	.text.USART_ClockStructInit,"ax",%progbits
 870              		.align	2
 871              		.global	USART_ClockStructInit
 872              		.thumb
 873              		.thumb_func
 875              	USART_ClockStructInit:
 876              	.LFB33:
 326:../libs/StdPeripheralDriver/src/stm32f10x_usart.c **** 
 327:../libs/StdPeripheralDriver/src/stm32f10x_usart.c **** /**
 328:../libs/StdPeripheralDriver/src/stm32f10x_usart.c ****   * @brief  Fills each USART_ClockInitStruct member with its default value.
 329:../libs/StdPeripheralDriver/src/stm32f10x_usart.c ****   * @param  USART_ClockInitStruct: pointer to a USART_ClockInitTypeDef
 330:../libs/StdPeripheralDriver/src/stm32f10x_usart.c ****   *         structure which will be initialized.
 331:../libs/StdPeripheralDriver/src/stm32f10x_usart.c ****   * @retval None
 332:../libs/StdPeripheralDriver/src/stm32f10x_usart.c ****   */
 333:../libs/StdPeripheralDriver/src/stm32f10x_usart.c **** void USART_ClockStructInit(USART_ClockInitTypeDef* USART_ClockInitStruct)
 334:../libs/StdPeripheralDriver/src/stm32f10x_usart.c **** {
 877              		.loc 1 334 0
 878              		.cfi_startproc
 879              		@ args = 0, pretend = 0, frame = 8
 880              		@ frame_needed = 1, uses_anonymous_args = 0
 881              		@ link register save eliminated.
 882 0000 80B4     		push	{r7}
 883              	.LCFI12:
 884              		.cfi_def_cfa_offset 4
 885              		.cfi_offset 7, -4
 886 0002 83B0     		sub	sp, sp, #12
 887              	.LCFI13:
 888              		.cfi_def_cfa_offset 16
 889 0004 00AF     		add	r7, sp, #0
 890              	.LCFI14:
 891              		.cfi_def_cfa_register 7
 892 0006 7860     		str	r0, [r7, #4]
 335:../libs/StdPeripheralDriver/src/stm32f10x_usart.c ****   /* USART_ClockInitStruct members default value */
 336:../libs/StdPeripheralDriver/src/stm32f10x_usart.c ****   USART_ClockInitStruct->USART_Clock = USART_Clock_Disable;
 893              		.loc 1 336 0
 894 0008 7B68     		ldr	r3, [r7, #4]
 895 000a 4FF00002 		mov	r2, #0
 896 000e 1A80     		strh	r2, [r3, #0]	@ movhi
 337:../libs/StdPeripheralDriver/src/stm32f10x_usart.c ****   USART_ClockInitStruct->USART_CPOL = USART_CPOL_Low;
 897              		.loc 1 337 0
 898 0010 7B68     		ldr	r3, [r7, #4]
 899 0012 4FF00002 		mov	r2, #0
 900 0016 5A80     		strh	r2, [r3, #2]	@ movhi
 338:../libs/StdPeripheralDriver/src/stm32f10x_usart.c ****   USART_ClockInitStruct->USART_CPHA = USART_CPHA_1Edge;
 901              		.loc 1 338 0
 902 0018 7B68     		ldr	r3, [r7, #4]
 903 001a 4FF00002 		mov	r2, #0
 904 001e 9A80     		strh	r2, [r3, #4]	@ movhi
 339:../libs/StdPeripheralDriver/src/stm32f10x_usart.c ****   USART_ClockInitStruct->USART_LastBit = USART_LastBit_Disable;
 905              		.loc 1 339 0
 906 0020 7B68     		ldr	r3, [r7, #4]
 907 0022 4FF00002 		mov	r2, #0
 908 0026 DA80     		strh	r2, [r3, #6]	@ movhi
 340:../libs/StdPeripheralDriver/src/stm32f10x_usart.c **** }
 909              		.loc 1 340 0
 910 0028 07F10C07 		add	r7, r7, #12
 911 002c BD46     		mov	sp, r7
 912 002e 80BC     		pop	{r7}
 913 0030 7047     		bx	lr
 914              		.cfi_endproc
 915              	.LFE33:
 917 0032 00BF     		.section	.text.USART_Cmd,"ax",%progbits
 918              		.align	2
 919              		.global	USART_Cmd
 920              		.thumb
 921              		.thumb_func
 923              	USART_Cmd:
 924              	.LFB34:
 341:../libs/StdPeripheralDriver/src/stm32f10x_usart.c **** 
 342:../libs/StdPeripheralDriver/src/stm32f10x_usart.c **** /**
 343:../libs/StdPeripheralDriver/src/stm32f10x_usart.c ****   * @brief  Enables or disables the specified USART peripheral.
 344:../libs/StdPeripheralDriver/src/stm32f10x_usart.c ****   * @param  USARTx: Select the USART or the UART peripheral. 
 345:../libs/StdPeripheralDriver/src/stm32f10x_usart.c ****   *         This parameter can be one of the following values:
 346:../libs/StdPeripheralDriver/src/stm32f10x_usart.c ****   *           USART1, USART2, USART3, UART4 or UART5.
 347:../libs/StdPeripheralDriver/src/stm32f10x_usart.c ****   * @param  NewState: new state of the USARTx peripheral.
 348:../libs/StdPeripheralDriver/src/stm32f10x_usart.c ****   *         This parameter can be: ENABLE or DISABLE.
 349:../libs/StdPeripheralDriver/src/stm32f10x_usart.c ****   * @retval None
 350:../libs/StdPeripheralDriver/src/stm32f10x_usart.c ****   */
 351:../libs/StdPeripheralDriver/src/stm32f10x_usart.c **** void USART_Cmd(USART_TypeDef* USARTx, FunctionalState NewState)
 352:../libs/StdPeripheralDriver/src/stm32f10x_usart.c **** {
 925              		.loc 1 352 0
 926              		.cfi_startproc
 927              		@ args = 0, pretend = 0, frame = 8
 928              		@ frame_needed = 1, uses_anonymous_args = 0
 929 0000 80B5     		push	{r7, lr}
 930              	.LCFI15:
 931              		.cfi_def_cfa_offset 8
 932              		.cfi_offset 7, -8
 933              		.cfi_offset 14, -4
 934 0002 82B0     		sub	sp, sp, #8
 935              	.LCFI16:
 936              		.cfi_def_cfa_offset 16
 937 0004 00AF     		add	r7, sp, #0
 938              	.LCFI17:
 939              		.cfi_def_cfa_register 7
 940 0006 7860     		str	r0, [r7, #4]
 941 0008 0B46     		mov	r3, r1
 942 000a FB70     		strb	r3, [r7, #3]
 353:../libs/StdPeripheralDriver/src/stm32f10x_usart.c ****   /* Check the parameters */
 354:../libs/StdPeripheralDriver/src/stm32f10x_usart.c ****   assert_param(IS_USART_ALL_PERIPH(USARTx));
 943              		.loc 1 354 0
 944 000c 7A68     		ldr	r2, [r7, #4]
 945 000e 204B     		ldr	r3, .L75
 946 0010 9A42     		cmp	r2, r3
 947 0012 0FD0     		beq	.L67
 948              		.loc 1 354 0 is_stmt 0 discriminator 2
 949 0014 7A68     		ldr	r2, [r7, #4]
 950 0016 1F4B     		ldr	r3, .L75+4
 951 0018 9A42     		cmp	r2, r3
 952 001a 0BD0     		beq	.L67
 953              		.loc 1 354 0 discriminator 1
 954 001c 7A68     		ldr	r2, [r7, #4]
 955 001e 1E4B     		ldr	r3, .L75+8
 956 0020 9A42     		cmp	r2, r3
 957 0022 07D0     		beq	.L67
 958              		.loc 1 354 0 discriminator 2
 959 0024 7A68     		ldr	r2, [r7, #4]
 960 0026 1D4B     		ldr	r3, .L75+12
 961 0028 9A42     		cmp	r2, r3
 962 002a 03D0     		beq	.L67
 963              		.loc 1 354 0 discriminator 3
 964 002c 7A68     		ldr	r2, [r7, #4]
 965 002e 1C4B     		ldr	r3, .L75+16
 966 0030 9A42     		cmp	r2, r3
 967 0032 02D1     		bne	.L68
 968              	.L67:
 969              		.loc 1 354 0 discriminator 1
 970 0034 4FF00103 		mov	r3, #1
 971 0038 01E0     		b	.L69
 972              	.L68:
 973              		.loc 1 354 0 discriminator 3
 974 003a 4FF00003 		mov	r3, #0
 975              	.L69:
 976              		.loc 1 354 0 discriminator 4
 977 003e 1846     		mov	r0, r3
 978 0040 FFF7FEFF 		bl	assert_param
 355:../libs/StdPeripheralDriver/src/stm32f10x_usart.c ****   assert_param(IS_FUNCTIONAL_STATE(NewState));
 979              		.loc 1 355 0 is_stmt 1 discriminator 4
 980 0044 FB78     		ldrb	r3, [r7, #3]	@ zero_extendqisi2
 981 0046 002B     		cmp	r3, #0
 982 0048 02D0     		beq	.L70
 983              		.loc 1 355 0 is_stmt 0 discriminator 2
 984 004a FB78     		ldrb	r3, [r7, #3]	@ zero_extendqisi2
 985 004c 012B     		cmp	r3, #1
 986 004e 02D1     		bne	.L71
 987              	.L70:
 988              		.loc 1 355 0 discriminator 1
 989 0050 4FF00103 		mov	r3, #1
 990 0054 01E0     		b	.L72
 991              	.L71:
 992              		.loc 1 355 0 discriminator 3
 993 0056 4FF00003 		mov	r3, #0
 994              	.L72:
 995              		.loc 1 355 0 discriminator 4
 996 005a 1846     		mov	r0, r3
 997 005c FFF7FEFF 		bl	assert_param
 356:../libs/StdPeripheralDriver/src/stm32f10x_usart.c ****   
 357:../libs/StdPeripheralDriver/src/stm32f10x_usart.c ****   if (NewState != DISABLE)
 998              		.loc 1 357 0 is_stmt 1 discriminator 4
 999 0060 FB78     		ldrb	r3, [r7, #3]	@ zero_extendqisi2
 1000 0062 002B     		cmp	r3, #0
 1001 0064 08D0     		beq	.L73
 358:../libs/StdPeripheralDriver/src/stm32f10x_usart.c ****   {
 359:../libs/StdPeripheralDriver/src/stm32f10x_usart.c ****     /* Enable the selected USART by setting the UE bit in the CR1 register */
 360:../libs/StdPeripheralDriver/src/stm32f10x_usart.c ****     USARTx->CR1 |= CR1_UE_Set;
 1002              		.loc 1 360 0
 1003 0066 7B68     		ldr	r3, [r7, #4]
 1004 0068 9B89     		ldrh	r3, [r3, #12]	@ movhi
 1005 006a 9BB2     		uxth	r3, r3
 1006 006c 43F40053 		orr	r3, r3, #8192
 1007 0070 9AB2     		uxth	r2, r3
 1008 0072 7B68     		ldr	r3, [r7, #4]
 1009 0074 9A81     		strh	r2, [r3, #12]	@ movhi
 1010 0076 07E0     		b	.L66
 1011              	.L73:
 361:../libs/StdPeripheralDriver/src/stm32f10x_usart.c ****   }
 362:../libs/StdPeripheralDriver/src/stm32f10x_usart.c ****   else
 363:../libs/StdPeripheralDriver/src/stm32f10x_usart.c ****   {
 364:../libs/StdPeripheralDriver/src/stm32f10x_usart.c ****     /* Disable the selected USART by clearing the UE bit in the CR1 register */
 365:../libs/StdPeripheralDriver/src/stm32f10x_usart.c ****     USARTx->CR1 &= CR1_UE_Reset;
 1012              		.loc 1 365 0
 1013 0078 7B68     		ldr	r3, [r7, #4]
 1014 007a 9B89     		ldrh	r3, [r3, #12]	@ movhi
 1015 007c 9BB2     		uxth	r3, r3
 1016 007e 23F40053 		bic	r3, r3, #8192
 1017 0082 9AB2     		uxth	r2, r3
 1018 0084 7B68     		ldr	r3, [r7, #4]
 1019 0086 9A81     		strh	r2, [r3, #12]	@ movhi
 1020              	.L66:
 366:../libs/StdPeripheralDriver/src/stm32f10x_usart.c ****   }
 367:../libs/StdPeripheralDriver/src/stm32f10x_usart.c **** }
 1021              		.loc 1 367 0
 1022 0088 07F10807 		add	r7, r7, #8
 1023 008c BD46     		mov	sp, r7
 1024 008e 80BD     		pop	{r7, pc}
 1025              	.L76:
 1026              		.align	2
 1027              	.L75:
 1028 0090 00380140 		.word	1073821696
 1029 0094 00440040 		.word	1073759232
 1030 0098 00480040 		.word	1073760256
 1031 009c 004C0040 		.word	1073761280
 1032 00a0 00500040 		.word	1073762304
 1033              		.cfi_endproc
 1034              	.LFE34:
 1036              		.section	.text.USART_ITConfig,"ax",%progbits
 1037              		.align	2
 1038              		.global	USART_ITConfig
 1039              		.thumb
 1040              		.thumb_func
 1042              	USART_ITConfig:
 1043              	.LFB35:
 368:../libs/StdPeripheralDriver/src/stm32f10x_usart.c **** 
 369:../libs/StdPeripheralDriver/src/stm32f10x_usart.c **** /**
 370:../libs/StdPeripheralDriver/src/stm32f10x_usart.c ****   * @brief  Enables or disables the specified USART interrupts.
 371:../libs/StdPeripheralDriver/src/stm32f10x_usart.c ****   * @param  USARTx: Select the USART or the UART peripheral. 
 372:../libs/StdPeripheralDriver/src/stm32f10x_usart.c ****   *   This parameter can be one of the following values:
 373:../libs/StdPeripheralDriver/src/stm32f10x_usart.c ****   *   USART1, USART2, USART3, UART4 or UART5.
 374:../libs/StdPeripheralDriver/src/stm32f10x_usart.c ****   * @param  USART_IT: specifies the USART interrupt sources to be enabled or disabled.
 375:../libs/StdPeripheralDriver/src/stm32f10x_usart.c ****   *   This parameter can be one of the following values:
 376:../libs/StdPeripheralDriver/src/stm32f10x_usart.c ****   *     @arg USART_IT_CTS:  CTS change interrupt (not available for UART4 and UART5)
 377:../libs/StdPeripheralDriver/src/stm32f10x_usart.c ****   *     @arg USART_IT_LBD:  LIN Break detection interrupt
 378:../libs/StdPeripheralDriver/src/stm32f10x_usart.c ****   *     @arg USART_IT_TXE:  Transmit Data Register empty interrupt
 379:../libs/StdPeripheralDriver/src/stm32f10x_usart.c ****   *     @arg USART_IT_TC:   Transmission complete interrupt
 380:../libs/StdPeripheralDriver/src/stm32f10x_usart.c ****   *     @arg USART_IT_RXNE: Receive Data register not empty interrupt
 381:../libs/StdPeripheralDriver/src/stm32f10x_usart.c ****   *     @arg USART_IT_IDLE: Idle line detection interrupt
 382:../libs/StdPeripheralDriver/src/stm32f10x_usart.c ****   *     @arg USART_IT_PE:   Parity Error interrupt
 383:../libs/StdPeripheralDriver/src/stm32f10x_usart.c ****   *     @arg USART_IT_ERR:  Error interrupt(Frame error, noise error, overrun error)
 384:../libs/StdPeripheralDriver/src/stm32f10x_usart.c ****   * @param  NewState: new state of the specified USARTx interrupts.
 385:../libs/StdPeripheralDriver/src/stm32f10x_usart.c ****   *   This parameter can be: ENABLE or DISABLE.
 386:../libs/StdPeripheralDriver/src/stm32f10x_usart.c ****   * @retval None
 387:../libs/StdPeripheralDriver/src/stm32f10x_usart.c ****   */
 388:../libs/StdPeripheralDriver/src/stm32f10x_usart.c **** void USART_ITConfig(USART_TypeDef* USARTx, uint16_t USART_IT, FunctionalState NewState)
 389:../libs/StdPeripheralDriver/src/stm32f10x_usart.c **** {
 1044              		.loc 1 389 0
 1045              		.cfi_startproc
 1046              		@ args = 0, pretend = 0, frame = 24
 1047              		@ frame_needed = 1, uses_anonymous_args = 0
 1048 0000 80B5     		push	{r7, lr}
 1049              	.LCFI18:
 1050              		.cfi_def_cfa_offset 8
 1051              		.cfi_offset 7, -8
 1052              		.cfi_offset 14, -4
 1053 0002 86B0     		sub	sp, sp, #24
 1054              	.LCFI19:
 1055              		.cfi_def_cfa_offset 32
 1056 0004 00AF     		add	r7, sp, #0
 1057              	.LCFI20:
 1058              		.cfi_def_cfa_register 7
 1059 0006 7860     		str	r0, [r7, #4]
 1060 0008 1346     		mov	r3, r2
 1061 000a 0A46     		mov	r2, r1	@ movhi
 1062 000c 7A80     		strh	r2, [r7, #2]	@ movhi
 1063 000e 7B70     		strb	r3, [r7, #1]
 390:../libs/StdPeripheralDriver/src/stm32f10x_usart.c ****   uint32_t usartreg = 0x00, itpos = 0x00, itmask = 0x00;
 1064              		.loc 1 390 0
 1065 0010 4FF00003 		mov	r3, #0
 1066 0014 3B61     		str	r3, [r7, #16]
 1067 0016 4FF00003 		mov	r3, #0
 1068 001a FB60     		str	r3, [r7, #12]
 1069 001c 4FF00003 		mov	r3, #0
 1070 0020 BB60     		str	r3, [r7, #8]
 391:../libs/StdPeripheralDriver/src/stm32f10x_usart.c ****   uint32_t usartxbase = 0x00;
 1071              		.loc 1 391 0
 1072 0022 4FF00003 		mov	r3, #0
 1073 0026 7B61     		str	r3, [r7, #20]
 392:../libs/StdPeripheralDriver/src/stm32f10x_usart.c ****   /* Check the parameters */
 393:../libs/StdPeripheralDriver/src/stm32f10x_usart.c ****   assert_param(IS_USART_ALL_PERIPH(USARTx));
 1074              		.loc 1 393 0
 1075 0028 7A68     		ldr	r2, [r7, #4]
 1076 002a 554B     		ldr	r3, .L96
 1077 002c 9A42     		cmp	r2, r3
 1078 002e 0FD0     		beq	.L78
 1079              		.loc 1 393 0 is_stmt 0 discriminator 2
 1080 0030 7A68     		ldr	r2, [r7, #4]
 1081 0032 544B     		ldr	r3, .L96+4
 1082 0034 9A42     		cmp	r2, r3
 1083 0036 0BD0     		beq	.L78
 1084              		.loc 1 393 0 discriminator 1
 1085 0038 7A68     		ldr	r2, [r7, #4]
 1086 003a 534B     		ldr	r3, .L96+8
 1087 003c 9A42     		cmp	r2, r3
 1088 003e 07D0     		beq	.L78
 1089              		.loc 1 393 0 discriminator 2
 1090 0040 7A68     		ldr	r2, [r7, #4]
 1091 0042 524B     		ldr	r3, .L96+12
 1092 0044 9A42     		cmp	r2, r3
 1093 0046 03D0     		beq	.L78
 1094              		.loc 1 393 0 discriminator 3
 1095 0048 7A68     		ldr	r2, [r7, #4]
 1096 004a 514B     		ldr	r3, .L96+16
 1097 004c 9A42     		cmp	r2, r3
 1098 004e 02D1     		bne	.L79
 1099              	.L78:
 1100              		.loc 1 393 0 discriminator 1
 1101 0050 4FF00103 		mov	r3, #1
 1102 0054 01E0     		b	.L80
 1103              	.L79:
 1104              		.loc 1 393 0 discriminator 3
 1105 0056 4FF00003 		mov	r3, #0
 1106              	.L80:
 1107              		.loc 1 393 0 discriminator 4
 1108 005a 1846     		mov	r0, r3
 1109 005c FFF7FEFF 		bl	assert_param
 394:../libs/StdPeripheralDriver/src/stm32f10x_usart.c ****   assert_param(IS_USART_CONFIG_IT(USART_IT));
 1110              		.loc 1 394 0 is_stmt 1 discriminator 4
 1111 0060 7B88     		ldrh	r3, [r7, #2]
 1112 0062 282B     		cmp	r3, #40
 1113 0064 20D0     		beq	.L81
 1114              		.loc 1 394 0 is_stmt 0 discriminator 2
 1115 0066 7A88     		ldrh	r2, [r7, #2]
 1116 0068 40F22773 		movw	r3, #1831
 1117 006c 9A42     		cmp	r2, r3
 1118 006e 1BD0     		beq	.L81
 1119              		.loc 1 394 0 discriminator 1
 1120 0070 7A88     		ldrh	r2, [r7, #2]
 1121 0072 40F22663 		movw	r3, #1574
 1122 0076 9A42     		cmp	r2, r3
 1123 0078 16D0     		beq	.L81
 1124              		.loc 1 394 0 discriminator 2
 1125 007a 7A88     		ldrh	r2, [r7, #2]
 1126 007c 40F22553 		movw	r3, #1317
 1127 0080 9A42     		cmp	r2, r3
 1128 0082 11D0     		beq	.L81
 1129              		.loc 1 394 0 discriminator 3
 1130 0084 7A88     		ldrh	r2, [r7, #2]
 1131 0086 40F22443 		movw	r3, #1060
 1132 008a 9A42     		cmp	r2, r3
 1133 008c 0CD0     		beq	.L81
 1134              		.loc 1 394 0 discriminator 4
 1135 008e 7A88     		ldrh	r2, [r7, #2]
 1136 0090 40F64603 		movw	r3, #2118
 1137 0094 9A42     		cmp	r2, r3
 1138 0096 07D0     		beq	.L81
 1139              		.loc 1 394 0 discriminator 5
 1140 0098 7A88     		ldrh	r2, [r7, #2]
 1141 009a 40F66A13 		movw	r3, #2410
 1142 009e 9A42     		cmp	r2, r3
 1143 00a0 02D0     		beq	.L81
 1144              		.loc 1 394 0 discriminator 6
 1145 00a2 7B88     		ldrh	r3, [r7, #2]
 1146 00a4 602B     		cmp	r3, #96
 1147 00a6 02D1     		bne	.L82
 1148              	.L81:
 1149              		.loc 1 394 0 discriminator 1
 1150 00a8 4FF00103 		mov	r3, #1
 1151 00ac 01E0     		b	.L83
 1152              	.L82:
 1153              		.loc 1 394 0 discriminator 3
 1154 00ae 4FF00003 		mov	r3, #0
 1155              	.L83:
 1156              		.loc 1 394 0 discriminator 4
 1157 00b2 1846     		mov	r0, r3
 1158 00b4 FFF7FEFF 		bl	assert_param
 395:../libs/StdPeripheralDriver/src/stm32f10x_usart.c ****   assert_param(IS_FUNCTIONAL_STATE(NewState));
 1159              		.loc 1 395 0 is_stmt 1 discriminator 4
 1160 00b8 7B78     		ldrb	r3, [r7, #1]	@ zero_extendqisi2
 1161 00ba 002B     		cmp	r3, #0
 1162 00bc 02D0     		beq	.L84
 1163              		.loc 1 395 0 is_stmt 0 discriminator 2
 1164 00be 7B78     		ldrb	r3, [r7, #1]	@ zero_extendqisi2
 1165 00c0 012B     		cmp	r3, #1
 1166 00c2 02D1     		bne	.L85
 1167              	.L84:
 1168              		.loc 1 395 0 discriminator 1
 1169 00c4 4FF00103 		mov	r3, #1
 1170 00c8 01E0     		b	.L86
 1171              	.L85:
 1172              		.loc 1 395 0 discriminator 3
 1173 00ca 4FF00003 		mov	r3, #0
 1174              	.L86:
 1175              		.loc 1 395 0 discriminator 4
 1176 00ce 1846     		mov	r0, r3
 1177 00d0 FFF7FEFF 		bl	assert_param
 396:../libs/StdPeripheralDriver/src/stm32f10x_usart.c ****   /* The CTS interrupt is not available for UART4 and UART5 */
 397:../libs/StdPeripheralDriver/src/stm32f10x_usart.c ****   if (USART_IT == USART_IT_CTS)
 1178              		.loc 1 397 0 is_stmt 1 discriminator 4
 1179 00d4 7A88     		ldrh	r2, [r7, #2]
 1180 00d6 40F66A13 		movw	r3, #2410
 1181 00da 9A42     		cmp	r2, r3
 1182 00dc 13D1     		bne	.L87
 398:../libs/StdPeripheralDriver/src/stm32f10x_usart.c ****   {
 399:../libs/StdPeripheralDriver/src/stm32f10x_usart.c ****     assert_param(IS_USART_123_PERIPH(USARTx));
 1183              		.loc 1 399 0
 1184 00de 7A68     		ldr	r2, [r7, #4]
 1185 00e0 274B     		ldr	r3, .L96
 1186 00e2 9A42     		cmp	r2, r3
 1187 00e4 07D0     		beq	.L88
 1188              		.loc 1 399 0 is_stmt 0 discriminator 2
 1189 00e6 7A68     		ldr	r2, [r7, #4]
 1190 00e8 264B     		ldr	r3, .L96+4
 1191 00ea 9A42     		cmp	r2, r3
 1192 00ec 03D0     		beq	.L88
 1193              		.loc 1 399 0 discriminator 1
 1194 00ee 7A68     		ldr	r2, [r7, #4]
 1195 00f0 254B     		ldr	r3, .L96+8
 1196 00f2 9A42     		cmp	r2, r3
 1197 00f4 02D1     		bne	.L89
 1198              	.L88:
 1199 00f6 4FF00103 		mov	r3, #1
 1200 00fa 01E0     		b	.L90
 1201              	.L89:
 1202              		.loc 1 399 0 discriminator 3
 1203 00fc 4FF00003 		mov	r3, #0
 1204              	.L90:
 1205              		.loc 1 399 0 discriminator 4
 1206 0100 1846     		mov	r0, r3
 1207 0102 FFF7FEFF 		bl	assert_param
 1208              	.L87:
 400:../libs/StdPeripheralDriver/src/stm32f10x_usart.c ****   }   
 401:../libs/StdPeripheralDriver/src/stm32f10x_usart.c ****   
 402:../libs/StdPeripheralDriver/src/stm32f10x_usart.c ****   usartxbase = (uint32_t)USARTx;
 1209              		.loc 1 402 0 is_stmt 1
 1210 0106 7B68     		ldr	r3, [r7, #4]
 1211 0108 7B61     		str	r3, [r7, #20]
 403:../libs/StdPeripheralDriver/src/stm32f10x_usart.c **** 
 404:../libs/StdPeripheralDriver/src/stm32f10x_usart.c ****   /* Get the USART register index */
 405:../libs/StdPeripheralDriver/src/stm32f10x_usart.c ****   usartreg = (((uint8_t)USART_IT) >> 0x05);
 1212              		.loc 1 405 0
 1213 010a 7B88     		ldrh	r3, [r7, #2]	@ movhi
 1214 010c DBB2     		uxtb	r3, r3
 1215 010e 4FEA5313 		lsr	r3, r3, #5
 1216 0112 DBB2     		uxtb	r3, r3
 1217 0114 3B61     		str	r3, [r7, #16]
 406:../libs/StdPeripheralDriver/src/stm32f10x_usart.c **** 
 407:../libs/StdPeripheralDriver/src/stm32f10x_usart.c ****   /* Get the interrupt position */
 408:../libs/StdPeripheralDriver/src/stm32f10x_usart.c ****   itpos = USART_IT & IT_Mask;
 1218              		.loc 1 408 0
 1219 0116 7B88     		ldrh	r3, [r7, #2]
 1220 0118 03F01F03 		and	r3, r3, #31
 1221 011c FB60     		str	r3, [r7, #12]
 409:../libs/StdPeripheralDriver/src/stm32f10x_usart.c ****   itmask = (((uint32_t)0x01) << itpos);
 1222              		.loc 1 409 0
 1223 011e FB68     		ldr	r3, [r7, #12]
 1224 0120 4FF00102 		mov	r2, #1
 1225 0124 02FA03F3 		lsl	r3, r2, r3
 1226 0128 BB60     		str	r3, [r7, #8]
 410:../libs/StdPeripheralDriver/src/stm32f10x_usart.c ****     
 411:../libs/StdPeripheralDriver/src/stm32f10x_usart.c ****   if (usartreg == 0x01) /* The IT is in CR1 register */
 1227              		.loc 1 411 0
 1228 012a 3B69     		ldr	r3, [r7, #16]
 1229 012c 012B     		cmp	r3, #1
 1230 012e 04D1     		bne	.L91
 412:../libs/StdPeripheralDriver/src/stm32f10x_usart.c ****   {
 413:../libs/StdPeripheralDriver/src/stm32f10x_usart.c ****     usartxbase += 0x0C;
 1231              		.loc 1 413 0
 1232 0130 7B69     		ldr	r3, [r7, #20]
 1233 0132 03F10C03 		add	r3, r3, #12
 1234 0136 7B61     		str	r3, [r7, #20]
 1235 0138 0BE0     		b	.L92
 1236              	.L91:
 414:../libs/StdPeripheralDriver/src/stm32f10x_usart.c ****   }
 415:../libs/StdPeripheralDriver/src/stm32f10x_usart.c ****   else if (usartreg == 0x02) /* The IT is in CR2 register */
 1237              		.loc 1 415 0
 1238 013a 3B69     		ldr	r3, [r7, #16]
 1239 013c 022B     		cmp	r3, #2
 1240 013e 04D1     		bne	.L93
 416:../libs/StdPeripheralDriver/src/stm32f10x_usart.c ****   {
 417:../libs/StdPeripheralDriver/src/stm32f10x_usart.c ****     usartxbase += 0x10;
 1241              		.loc 1 417 0
 1242 0140 7B69     		ldr	r3, [r7, #20]
 1243 0142 03F11003 		add	r3, r3, #16
 1244 0146 7B61     		str	r3, [r7, #20]
 1245 0148 03E0     		b	.L92
 1246              	.L93:
 418:../libs/StdPeripheralDriver/src/stm32f10x_usart.c ****   }
 419:../libs/StdPeripheralDriver/src/stm32f10x_usart.c ****   else /* The IT is in CR3 register */
 420:../libs/StdPeripheralDriver/src/stm32f10x_usart.c ****   {
 421:../libs/StdPeripheralDriver/src/stm32f10x_usart.c ****     usartxbase += 0x14; 
 1247              		.loc 1 421 0
 1248 014a 7B69     		ldr	r3, [r7, #20]
 1249 014c 03F11403 		add	r3, r3, #20
 1250 0150 7B61     		str	r3, [r7, #20]
 1251              	.L92:
 422:../libs/StdPeripheralDriver/src/stm32f10x_usart.c ****   }
 423:../libs/StdPeripheralDriver/src/stm32f10x_usart.c ****   if (NewState != DISABLE)
 1252              		.loc 1 423 0
 1253 0152 7B78     		ldrb	r3, [r7, #1]	@ zero_extendqisi2
 1254 0154 002B     		cmp	r3, #0
 1255 0156 06D0     		beq	.L94
 424:../libs/StdPeripheralDriver/src/stm32f10x_usart.c ****   {
 425:../libs/StdPeripheralDriver/src/stm32f10x_usart.c ****     *(__IO uint32_t*)usartxbase  |= itmask;
 1256              		.loc 1 425 0
 1257 0158 7B69     		ldr	r3, [r7, #20]
 1258 015a 7A69     		ldr	r2, [r7, #20]
 1259 015c 1168     		ldr	r1, [r2, #0]
 1260 015e BA68     		ldr	r2, [r7, #8]
 1261 0160 0A43     		orrs	r2, r2, r1
 1262 0162 1A60     		str	r2, [r3, #0]
 1263 0164 07E0     		b	.L77
 1264              	.L94:
 426:../libs/StdPeripheralDriver/src/stm32f10x_usart.c ****   }
 427:../libs/StdPeripheralDriver/src/stm32f10x_usart.c ****   else
 428:../libs/StdPeripheralDriver/src/stm32f10x_usart.c ****   {
 429:../libs/StdPeripheralDriver/src/stm32f10x_usart.c ****     *(__IO uint32_t*)usartxbase &= ~itmask;
 1265              		.loc 1 429 0
 1266 0166 7B69     		ldr	r3, [r7, #20]
 1267 0168 7A69     		ldr	r2, [r7, #20]
 1268 016a 1168     		ldr	r1, [r2, #0]
 1269 016c BA68     		ldr	r2, [r7, #8]
 1270 016e 6FEA0202 		mvn	r2, r2
 1271 0172 0A40     		ands	r2, r2, r1
 1272 0174 1A60     		str	r2, [r3, #0]
 1273              	.L77:
 430:../libs/StdPeripheralDriver/src/stm32f10x_usart.c ****   }
 431:../libs/StdPeripheralDriver/src/stm32f10x_usart.c **** }
 1274              		.loc 1 431 0
 1275 0176 07F11807 		add	r7, r7, #24
 1276 017a BD46     		mov	sp, r7
 1277 017c 80BD     		pop	{r7, pc}
 1278              	.L97:
 1279 017e 00BF     		.align	2
 1280              	.L96:
 1281 0180 00380140 		.word	1073821696
 1282 0184 00440040 		.word	1073759232
 1283 0188 00480040 		.word	1073760256
 1284 018c 004C0040 		.word	1073761280
 1285 0190 00500040 		.word	1073762304
 1286              		.cfi_endproc
 1287              	.LFE35:
 1289              		.section	.text.USART_DMACmd,"ax",%progbits
 1290              		.align	2
 1291              		.global	USART_DMACmd
 1292              		.thumb
 1293              		.thumb_func
 1295              	USART_DMACmd:
 1296              	.LFB36:
 432:../libs/StdPeripheralDriver/src/stm32f10x_usart.c **** 
 433:../libs/StdPeripheralDriver/src/stm32f10x_usart.c **** /**
 434:../libs/StdPeripheralDriver/src/stm32f10x_usart.c ****   * @brief  Enables or disables the USARTs DMA interface.
 435:../libs/StdPeripheralDriver/src/stm32f10x_usart.c ****   * @param  USARTx: Select the USART or the UART peripheral. 
 436:../libs/StdPeripheralDriver/src/stm32f10x_usart.c ****   *   This parameter can be one of the following values:
 437:../libs/StdPeripheralDriver/src/stm32f10x_usart.c ****   *   USART1, USART2, USART3, UART4 or UART5.
 438:../libs/StdPeripheralDriver/src/stm32f10x_usart.c ****   * @param  USART_DMAReq: specifies the DMA request.
 439:../libs/StdPeripheralDriver/src/stm32f10x_usart.c ****   *   This parameter can be any combination of the following values:
 440:../libs/StdPeripheralDriver/src/stm32f10x_usart.c ****   *     @arg USART_DMAReq_Tx: USART DMA transmit request
 441:../libs/StdPeripheralDriver/src/stm32f10x_usart.c ****   *     @arg USART_DMAReq_Rx: USART DMA receive request
 442:../libs/StdPeripheralDriver/src/stm32f10x_usart.c ****   * @param  NewState: new state of the DMA Request sources.
 443:../libs/StdPeripheralDriver/src/stm32f10x_usart.c ****   *   This parameter can be: ENABLE or DISABLE.
 444:../libs/StdPeripheralDriver/src/stm32f10x_usart.c ****   * @note The DMA mode is not available for UART5 except in the STM32
 445:../libs/StdPeripheralDriver/src/stm32f10x_usart.c ****   *       High density value line devices(STM32F10X_HD_VL).  
 446:../libs/StdPeripheralDriver/src/stm32f10x_usart.c ****   * @retval None
 447:../libs/StdPeripheralDriver/src/stm32f10x_usart.c ****   */
 448:../libs/StdPeripheralDriver/src/stm32f10x_usart.c **** void USART_DMACmd(USART_TypeDef* USARTx, uint16_t USART_DMAReq, FunctionalState NewState)
 449:../libs/StdPeripheralDriver/src/stm32f10x_usart.c **** {
 1297              		.loc 1 449 0
 1298              		.cfi_startproc
 1299              		@ args = 0, pretend = 0, frame = 8
 1300              		@ frame_needed = 1, uses_anonymous_args = 0
 1301 0000 80B5     		push	{r7, lr}
 1302              	.LCFI21:
 1303              		.cfi_def_cfa_offset 8
 1304              		.cfi_offset 7, -8
 1305              		.cfi_offset 14, -4
 1306 0002 82B0     		sub	sp, sp, #8
 1307              	.LCFI22:
 1308              		.cfi_def_cfa_offset 16
 1309 0004 00AF     		add	r7, sp, #0
 1310              	.LCFI23:
 1311              		.cfi_def_cfa_register 7
 1312 0006 7860     		str	r0, [r7, #4]
 1313 0008 1346     		mov	r3, r2
 1314 000a 0A46     		mov	r2, r1	@ movhi
 1315 000c 7A80     		strh	r2, [r7, #2]	@ movhi
 1316 000e 7B70     		strb	r3, [r7, #1]
 450:../libs/StdPeripheralDriver/src/stm32f10x_usart.c ****   /* Check the parameters */
 451:../libs/StdPeripheralDriver/src/stm32f10x_usart.c ****   assert_param(IS_USART_ALL_PERIPH(USARTx));
 1317              		.loc 1 451 0
 1318 0010 7A68     		ldr	r2, [r7, #4]
 1319 0012 2A4B     		ldr	r3, .L109
 1320 0014 9A42     		cmp	r2, r3
 1321 0016 0FD0     		beq	.L99
 1322              		.loc 1 451 0 is_stmt 0 discriminator 2
 1323 0018 7A68     		ldr	r2, [r7, #4]
 1324 001a 294B     		ldr	r3, .L109+4
 1325 001c 9A42     		cmp	r2, r3
 1326 001e 0BD0     		beq	.L99
 1327              		.loc 1 451 0 discriminator 1
 1328 0020 7A68     		ldr	r2, [r7, #4]
 1329 0022 284B     		ldr	r3, .L109+8
 1330 0024 9A42     		cmp	r2, r3
 1331 0026 07D0     		beq	.L99
 1332              		.loc 1 451 0 discriminator 2
 1333 0028 7A68     		ldr	r2, [r7, #4]
 1334 002a 274B     		ldr	r3, .L109+12
 1335 002c 9A42     		cmp	r2, r3
 1336 002e 03D0     		beq	.L99
 1337              		.loc 1 451 0 discriminator 3
 1338 0030 7A68     		ldr	r2, [r7, #4]
 1339 0032 264B     		ldr	r3, .L109+16
 1340 0034 9A42     		cmp	r2, r3
 1341 0036 02D1     		bne	.L100
 1342              	.L99:
 1343              		.loc 1 451 0 discriminator 1
 1344 0038 4FF00103 		mov	r3, #1
 1345 003c 01E0     		b	.L101
 1346              	.L100:
 1347              		.loc 1 451 0 discriminator 3
 1348 003e 4FF00003 		mov	r3, #0
 1349              	.L101:
 1350              		.loc 1 451 0 discriminator 4
 1351 0042 1846     		mov	r0, r3
 1352 0044 FFF7FEFF 		bl	assert_param
 452:../libs/StdPeripheralDriver/src/stm32f10x_usart.c ****   assert_param(IS_USART_DMAREQ(USART_DMAReq));  
 1353              		.loc 1 452 0 is_stmt 1 discriminator 4
 1354 0048 7A88     		ldrh	r2, [r7, #2]
 1355 004a 4FF63F73 		movw	r3, #65343
 1356 004e 1340     		ands	r3, r3, r2
 1357 0050 002B     		cmp	r3, #0
 1358 0052 05D1     		bne	.L102
 1359              		.loc 1 452 0 is_stmt 0 discriminator 1
 1360 0054 7B88     		ldrh	r3, [r7, #2]
 1361 0056 002B     		cmp	r3, #0
 1362 0058 02D0     		beq	.L102
 1363              		.loc 1 452 0 discriminator 3
 1364 005a 4FF00103 		mov	r3, #1
 1365 005e 01E0     		b	.L103
 1366              	.L102:
 1367              		.loc 1 452 0 discriminator 2
 1368 0060 4FF00003 		mov	r3, #0
 1369              	.L103:
 1370              		.loc 1 452 0 discriminator 4
 1371 0064 1846     		mov	r0, r3
 1372 0066 FFF7FEFF 		bl	assert_param
 453:../libs/StdPeripheralDriver/src/stm32f10x_usart.c ****   assert_param(IS_FUNCTIONAL_STATE(NewState)); 
 1373              		.loc 1 453 0 is_stmt 1 discriminator 4
 1374 006a 7B78     		ldrb	r3, [r7, #1]	@ zero_extendqisi2
 1375 006c 002B     		cmp	r3, #0
 1376 006e 02D0     		beq	.L104
 1377              		.loc 1 453 0 is_stmt 0 discriminator 2
 1378 0070 7B78     		ldrb	r3, [r7, #1]	@ zero_extendqisi2
 1379 0072 012B     		cmp	r3, #1
 1380 0074 02D1     		bne	.L105
 1381              	.L104:
 1382              		.loc 1 453 0 discriminator 1
 1383 0076 4FF00103 		mov	r3, #1
 1384 007a 01E0     		b	.L106
 1385              	.L105:
 1386              		.loc 1 453 0 discriminator 3
 1387 007c 4FF00003 		mov	r3, #0
 1388              	.L106:
 1389              		.loc 1 453 0 discriminator 4
 1390 0080 1846     		mov	r0, r3
 1391 0082 FFF7FEFF 		bl	assert_param
 454:../libs/StdPeripheralDriver/src/stm32f10x_usart.c ****   if (NewState != DISABLE)
 1392              		.loc 1 454 0 is_stmt 1 discriminator 4
 1393 0086 7B78     		ldrb	r3, [r7, #1]	@ zero_extendqisi2
 1394 0088 002B     		cmp	r3, #0
 1395 008a 08D0     		beq	.L107
 455:../libs/StdPeripheralDriver/src/stm32f10x_usart.c ****   {
 456:../libs/StdPeripheralDriver/src/stm32f10x_usart.c ****     /* Enable the DMA transfer for selected requests by setting the DMAT and/or
 457:../libs/StdPeripheralDriver/src/stm32f10x_usart.c ****        DMAR bits in the USART CR3 register */
 458:../libs/StdPeripheralDriver/src/stm32f10x_usart.c ****     USARTx->CR3 |= USART_DMAReq;
 1396              		.loc 1 458 0
 1397 008c 7B68     		ldr	r3, [r7, #4]
 1398 008e 9B8A     		ldrh	r3, [r3, #20]	@ movhi
 1399 0090 9AB2     		uxth	r2, r3
 1400 0092 7B88     		ldrh	r3, [r7, #2]	@ movhi
 1401 0094 1343     		orrs	r3, r3, r2
 1402 0096 9AB2     		uxth	r2, r3
 1403 0098 7B68     		ldr	r3, [r7, #4]
 1404 009a 9A82     		strh	r2, [r3, #20]	@ movhi
 1405 009c 0AE0     		b	.L98
 1406              	.L107:
 459:../libs/StdPeripheralDriver/src/stm32f10x_usart.c ****   }
 460:../libs/StdPeripheralDriver/src/stm32f10x_usart.c ****   else
 461:../libs/StdPeripheralDriver/src/stm32f10x_usart.c ****   {
 462:../libs/StdPeripheralDriver/src/stm32f10x_usart.c ****     /* Disable the DMA transfer for selected requests by clearing the DMAT and/or
 463:../libs/StdPeripheralDriver/src/stm32f10x_usart.c ****        DMAR bits in the USART CR3 register */
 464:../libs/StdPeripheralDriver/src/stm32f10x_usart.c ****     USARTx->CR3 &= (uint16_t)~USART_DMAReq;
 1407              		.loc 1 464 0
 1408 009e 7B68     		ldr	r3, [r7, #4]
 1409 00a0 9B8A     		ldrh	r3, [r3, #20]	@ movhi
 1410 00a2 9AB2     		uxth	r2, r3
 1411 00a4 7B88     		ldrh	r3, [r7, #2]	@ movhi
 1412 00a6 6FEA0303 		mvn	r3, r3
 1413 00aa 9BB2     		uxth	r3, r3
 1414 00ac 1340     		ands	r3, r3, r2
 1415 00ae 9AB2     		uxth	r2, r3
 1416 00b0 7B68     		ldr	r3, [r7, #4]
 1417 00b2 9A82     		strh	r2, [r3, #20]	@ movhi
 1418              	.L98:
 465:../libs/StdPeripheralDriver/src/stm32f10x_usart.c ****   }
 466:../libs/StdPeripheralDriver/src/stm32f10x_usart.c **** }
 1419              		.loc 1 466 0
 1420 00b4 07F10807 		add	r7, r7, #8
 1421 00b8 BD46     		mov	sp, r7
 1422 00ba 80BD     		pop	{r7, pc}
 1423              	.L110:
 1424              		.align	2
 1425              	.L109:
 1426 00bc 00380140 		.word	1073821696
 1427 00c0 00440040 		.word	1073759232
 1428 00c4 00480040 		.word	1073760256
 1429 00c8 004C0040 		.word	1073761280
 1430 00cc 00500040 		.word	1073762304
 1431              		.cfi_endproc
 1432              	.LFE36:
 1434              		.section	.text.USART_SetAddress,"ax",%progbits
 1435              		.align	2
 1436              		.global	USART_SetAddress
 1437              		.thumb
 1438              		.thumb_func
 1440              	USART_SetAddress:
 1441              	.LFB37:
 467:../libs/StdPeripheralDriver/src/stm32f10x_usart.c **** 
 468:../libs/StdPeripheralDriver/src/stm32f10x_usart.c **** /**
 469:../libs/StdPeripheralDriver/src/stm32f10x_usart.c ****   * @brief  Sets the address of the USART node.
 470:../libs/StdPeripheralDriver/src/stm32f10x_usart.c ****   * @param  USARTx: Select the USART or the UART peripheral. 
 471:../libs/StdPeripheralDriver/src/stm32f10x_usart.c ****   *   This parameter can be one of the following values:
 472:../libs/StdPeripheralDriver/src/stm32f10x_usart.c ****   *   USART1, USART2, USART3, UART4 or UART5.
 473:../libs/StdPeripheralDriver/src/stm32f10x_usart.c ****   * @param  USART_Address: Indicates the address of the USART node.
 474:../libs/StdPeripheralDriver/src/stm32f10x_usart.c ****   * @retval None
 475:../libs/StdPeripheralDriver/src/stm32f10x_usart.c ****   */
 476:../libs/StdPeripheralDriver/src/stm32f10x_usart.c **** void USART_SetAddress(USART_TypeDef* USARTx, uint8_t USART_Address)
 477:../libs/StdPeripheralDriver/src/stm32f10x_usart.c **** {
 1442              		.loc 1 477 0
 1443              		.cfi_startproc
 1444              		@ args = 0, pretend = 0, frame = 8
 1445              		@ frame_needed = 1, uses_anonymous_args = 0
 1446 0000 80B5     		push	{r7, lr}
 1447              	.LCFI24:
 1448              		.cfi_def_cfa_offset 8
 1449              		.cfi_offset 7, -8
 1450              		.cfi_offset 14, -4
 1451 0002 82B0     		sub	sp, sp, #8
 1452              	.LCFI25:
 1453              		.cfi_def_cfa_offset 16
 1454 0004 00AF     		add	r7, sp, #0
 1455              	.LCFI26:
 1456              		.cfi_def_cfa_register 7
 1457 0006 7860     		str	r0, [r7, #4]
 1458 0008 0B46     		mov	r3, r1
 1459 000a FB70     		strb	r3, [r7, #3]
 478:../libs/StdPeripheralDriver/src/stm32f10x_usart.c ****   /* Check the parameters */
 479:../libs/StdPeripheralDriver/src/stm32f10x_usart.c ****   assert_param(IS_USART_ALL_PERIPH(USARTx));
 1460              		.loc 1 479 0
 1461 000c 7A68     		ldr	r2, [r7, #4]
 1462 000e 1C4B     		ldr	r3, .L115
 1463 0010 9A42     		cmp	r2, r3
 1464 0012 0FD0     		beq	.L112
 1465              		.loc 1 479 0 is_stmt 0 discriminator 2
 1466 0014 7A68     		ldr	r2, [r7, #4]
 1467 0016 1B4B     		ldr	r3, .L115+4
 1468 0018 9A42     		cmp	r2, r3
 1469 001a 0BD0     		beq	.L112
 1470              		.loc 1 479 0 discriminator 1
 1471 001c 7A68     		ldr	r2, [r7, #4]
 1472 001e 1A4B     		ldr	r3, .L115+8
 1473 0020 9A42     		cmp	r2, r3
 1474 0022 07D0     		beq	.L112
 1475              		.loc 1 479 0 discriminator 2
 1476 0024 7A68     		ldr	r2, [r7, #4]
 1477 0026 194B     		ldr	r3, .L115+12
 1478 0028 9A42     		cmp	r2, r3
 1479 002a 03D0     		beq	.L112
 1480              		.loc 1 479 0 discriminator 3
 1481 002c 7A68     		ldr	r2, [r7, #4]
 1482 002e 184B     		ldr	r3, .L115+16
 1483 0030 9A42     		cmp	r2, r3
 1484 0032 02D1     		bne	.L113
 1485              	.L112:
 1486              		.loc 1 479 0 discriminator 1
 1487 0034 4FF00103 		mov	r3, #1
 1488 0038 01E0     		b	.L114
 1489              	.L113:
 1490              		.loc 1 479 0 discriminator 3
 1491 003a 4FF00003 		mov	r3, #0
 1492              	.L114:
 1493              		.loc 1 479 0 discriminator 4
 1494 003e 1846     		mov	r0, r3
 1495 0040 FFF7FEFF 		bl	assert_param
 480:../libs/StdPeripheralDriver/src/stm32f10x_usart.c ****   assert_param(IS_USART_ADDRESS(USART_Address)); 
 1496              		.loc 1 480 0 is_stmt 1 discriminator 4
 1497 0044 FB78     		ldrb	r3, [r7, #3]	@ zero_extendqisi2
 1498 0046 0F2B     		cmp	r3, #15
 1499 0048 8CBF     		ite	hi
 1500 004a 0023     		movhi	r3, #0
 1501 004c 0123     		movls	r3, #1
 1502 004e DBB2     		uxtb	r3, r3
 1503 0050 1846     		mov	r0, r3
 1504 0052 FFF7FEFF 		bl	assert_param
 481:../libs/StdPeripheralDriver/src/stm32f10x_usart.c ****     
 482:../libs/StdPeripheralDriver/src/stm32f10x_usart.c ****   /* Clear the USART address */
 483:../libs/StdPeripheralDriver/src/stm32f10x_usart.c ****   USARTx->CR2 &= CR2_Address_Mask;
 1505              		.loc 1 483 0 discriminator 4
 1506 0056 7B68     		ldr	r3, [r7, #4]
 1507 0058 1B8A     		ldrh	r3, [r3, #16]	@ movhi
 1508 005a 9BB2     		uxth	r3, r3
 1509 005c 23F00F03 		bic	r3, r3, #15
 1510 0060 9AB2     		uxth	r2, r3
 1511 0062 7B68     		ldr	r3, [r7, #4]
 1512 0064 1A82     		strh	r2, [r3, #16]	@ movhi
 484:../libs/StdPeripheralDriver/src/stm32f10x_usart.c ****   /* Set the USART address node */
 485:../libs/StdPeripheralDriver/src/stm32f10x_usart.c ****   USARTx->CR2 |= USART_Address;
 1513              		.loc 1 485 0 discriminator 4
 1514 0066 7B68     		ldr	r3, [r7, #4]
 1515 0068 1B8A     		ldrh	r3, [r3, #16]	@ movhi
 1516 006a 9AB2     		uxth	r2, r3
 1517 006c FB78     		ldrb	r3, [r7, #3]	@ zero_extendqisi2
 1518 006e 9BB2     		uxth	r3, r3
 1519 0070 1343     		orrs	r3, r3, r2
 1520 0072 9AB2     		uxth	r2, r3
 1521 0074 7B68     		ldr	r3, [r7, #4]
 1522 0076 1A82     		strh	r2, [r3, #16]	@ movhi
 486:../libs/StdPeripheralDriver/src/stm32f10x_usart.c **** }
 1523              		.loc 1 486 0 discriminator 4
 1524 0078 07F10807 		add	r7, r7, #8
 1525 007c BD46     		mov	sp, r7
 1526 007e 80BD     		pop	{r7, pc}
 1527              	.L116:
 1528              		.align	2
 1529              	.L115:
 1530 0080 00380140 		.word	1073821696
 1531 0084 00440040 		.word	1073759232
 1532 0088 00480040 		.word	1073760256
 1533 008c 004C0040 		.word	1073761280
 1534 0090 00500040 		.word	1073762304
 1535              		.cfi_endproc
 1536              	.LFE37:
 1538              		.section	.text.USART_WakeUpConfig,"ax",%progbits
 1539              		.align	2
 1540              		.global	USART_WakeUpConfig
 1541              		.thumb
 1542              		.thumb_func
 1544              	USART_WakeUpConfig:
 1545              	.LFB38:
 487:../libs/StdPeripheralDriver/src/stm32f10x_usart.c **** 
 488:../libs/StdPeripheralDriver/src/stm32f10x_usart.c **** /**
 489:../libs/StdPeripheralDriver/src/stm32f10x_usart.c ****   * @brief  Selects the USART WakeUp method.
 490:../libs/StdPeripheralDriver/src/stm32f10x_usart.c ****   * @param  USARTx: Select the USART or the UART peripheral. 
 491:../libs/StdPeripheralDriver/src/stm32f10x_usart.c ****   *   This parameter can be one of the following values:
 492:../libs/StdPeripheralDriver/src/stm32f10x_usart.c ****   *   USART1, USART2, USART3, UART4 or UART5.
 493:../libs/StdPeripheralDriver/src/stm32f10x_usart.c ****   * @param  USART_WakeUp: specifies the USART wakeup method.
 494:../libs/StdPeripheralDriver/src/stm32f10x_usart.c ****   *   This parameter can be one of the following values:
 495:../libs/StdPeripheralDriver/src/stm32f10x_usart.c ****   *     @arg USART_WakeUp_IdleLine: WakeUp by an idle line detection
 496:../libs/StdPeripheralDriver/src/stm32f10x_usart.c ****   *     @arg USART_WakeUp_AddressMark: WakeUp by an address mark
 497:../libs/StdPeripheralDriver/src/stm32f10x_usart.c ****   * @retval None
 498:../libs/StdPeripheralDriver/src/stm32f10x_usart.c ****   */
 499:../libs/StdPeripheralDriver/src/stm32f10x_usart.c **** void USART_WakeUpConfig(USART_TypeDef* USARTx, uint16_t USART_WakeUp)
 500:../libs/StdPeripheralDriver/src/stm32f10x_usart.c **** {
 1546              		.loc 1 500 0
 1547              		.cfi_startproc
 1548              		@ args = 0, pretend = 0, frame = 8
 1549              		@ frame_needed = 1, uses_anonymous_args = 0
 1550 0000 80B5     		push	{r7, lr}
 1551              	.LCFI27:
 1552              		.cfi_def_cfa_offset 8
 1553              		.cfi_offset 7, -8
 1554              		.cfi_offset 14, -4
 1555 0002 82B0     		sub	sp, sp, #8
 1556              	.LCFI28:
 1557              		.cfi_def_cfa_offset 16
 1558 0004 00AF     		add	r7, sp, #0
 1559              	.LCFI29:
 1560              		.cfi_def_cfa_register 7
 1561 0006 7860     		str	r0, [r7, #4]
 1562 0008 0B46     		mov	r3, r1
 1563 000a 7B80     		strh	r3, [r7, #2]	@ movhi
 501:../libs/StdPeripheralDriver/src/stm32f10x_usart.c ****   /* Check the parameters */
 502:../libs/StdPeripheralDriver/src/stm32f10x_usart.c ****   assert_param(IS_USART_ALL_PERIPH(USARTx));
 1564              		.loc 1 502 0
 1565 000c 7A68     		ldr	r2, [r7, #4]
 1566 000e 1F4B     		ldr	r3, .L124
 1567 0010 9A42     		cmp	r2, r3
 1568 0012 0FD0     		beq	.L118
 1569              		.loc 1 502 0 is_stmt 0 discriminator 2
 1570 0014 7A68     		ldr	r2, [r7, #4]
 1571 0016 1E4B     		ldr	r3, .L124+4
 1572 0018 9A42     		cmp	r2, r3
 1573 001a 0BD0     		beq	.L118
 1574              		.loc 1 502 0 discriminator 1
 1575 001c 7A68     		ldr	r2, [r7, #4]
 1576 001e 1D4B     		ldr	r3, .L124+8
 1577 0020 9A42     		cmp	r2, r3
 1578 0022 07D0     		beq	.L118
 1579              		.loc 1 502 0 discriminator 2
 1580 0024 7A68     		ldr	r2, [r7, #4]
 1581 0026 1C4B     		ldr	r3, .L124+12
 1582 0028 9A42     		cmp	r2, r3
 1583 002a 03D0     		beq	.L118
 1584              		.loc 1 502 0 discriminator 3
 1585 002c 7A68     		ldr	r2, [r7, #4]
 1586 002e 1B4B     		ldr	r3, .L124+16
 1587 0030 9A42     		cmp	r2, r3
 1588 0032 02D1     		bne	.L119
 1589              	.L118:
 1590              		.loc 1 502 0 discriminator 1
 1591 0034 4FF00103 		mov	r3, #1
 1592 0038 01E0     		b	.L120
 1593              	.L119:
 1594              		.loc 1 502 0 discriminator 3
 1595 003a 4FF00003 		mov	r3, #0
 1596              	.L120:
 1597              		.loc 1 502 0 discriminator 4
 1598 003e 1846     		mov	r0, r3
 1599 0040 FFF7FEFF 		bl	assert_param
 503:../libs/StdPeripheralDriver/src/stm32f10x_usart.c ****   assert_param(IS_USART_WAKEUP(USART_WakeUp));
 1600              		.loc 1 503 0 is_stmt 1 discriminator 4
 1601 0044 7B88     		ldrh	r3, [r7, #2]
 1602 0046 002B     		cmp	r3, #0
 1603 0048 03D0     		beq	.L121
 1604              		.loc 1 503 0 is_stmt 0 discriminator 2
 1605 004a 7B88     		ldrh	r3, [r7, #2]
 1606 004c B3F5006F 		cmp	r3, #2048
 1607 0050 02D1     		bne	.L122
 1608              	.L121:
 1609              		.loc 1 503 0 discriminator 1
 1610 0052 4FF00103 		mov	r3, #1
 1611 0056 01E0     		b	.L123
 1612              	.L122:
 1613              		.loc 1 503 0 discriminator 3
 1614 0058 4FF00003 		mov	r3, #0
 1615              	.L123:
 1616              		.loc 1 503 0 discriminator 4
 1617 005c 1846     		mov	r0, r3
 1618 005e FFF7FEFF 		bl	assert_param
 504:../libs/StdPeripheralDriver/src/stm32f10x_usart.c ****   
 505:../libs/StdPeripheralDriver/src/stm32f10x_usart.c ****   USARTx->CR1 &= CR1_WAKE_Mask;
 1619              		.loc 1 505 0 is_stmt 1 discriminator 4
 1620 0062 7B68     		ldr	r3, [r7, #4]
 1621 0064 9B89     		ldrh	r3, [r3, #12]	@ movhi
 1622 0066 9BB2     		uxth	r3, r3
 1623 0068 23F40063 		bic	r3, r3, #2048
 1624 006c 9AB2     		uxth	r2, r3
 1625 006e 7B68     		ldr	r3, [r7, #4]
 1626 0070 9A81     		strh	r2, [r3, #12]	@ movhi
 506:../libs/StdPeripheralDriver/src/stm32f10x_usart.c ****   USARTx->CR1 |= USART_WakeUp;
 1627              		.loc 1 506 0 discriminator 4
 1628 0072 7B68     		ldr	r3, [r7, #4]
 1629 0074 9B89     		ldrh	r3, [r3, #12]	@ movhi
 1630 0076 9AB2     		uxth	r2, r3
 1631 0078 7B88     		ldrh	r3, [r7, #2]	@ movhi
 1632 007a 1343     		orrs	r3, r3, r2
 1633 007c 9AB2     		uxth	r2, r3
 1634 007e 7B68     		ldr	r3, [r7, #4]
 1635 0080 9A81     		strh	r2, [r3, #12]	@ movhi
 507:../libs/StdPeripheralDriver/src/stm32f10x_usart.c **** }
 1636              		.loc 1 507 0 discriminator 4
 1637 0082 07F10807 		add	r7, r7, #8
 1638 0086 BD46     		mov	sp, r7
 1639 0088 80BD     		pop	{r7, pc}
 1640              	.L125:
 1641 008a 00BF     		.align	2
 1642              	.L124:
 1643 008c 00380140 		.word	1073821696
 1644 0090 00440040 		.word	1073759232
 1645 0094 00480040 		.word	1073760256
 1646 0098 004C0040 		.word	1073761280
 1647 009c 00500040 		.word	1073762304
 1648              		.cfi_endproc
 1649              	.LFE38:
 1651              		.section	.text.USART_ReceiverWakeUpCmd,"ax",%progbits
 1652              		.align	2
 1653              		.global	USART_ReceiverWakeUpCmd
 1654              		.thumb
 1655              		.thumb_func
 1657              	USART_ReceiverWakeUpCmd:
 1658              	.LFB39:
 508:../libs/StdPeripheralDriver/src/stm32f10x_usart.c **** 
 509:../libs/StdPeripheralDriver/src/stm32f10x_usart.c **** /**
 510:../libs/StdPeripheralDriver/src/stm32f10x_usart.c ****   * @brief  Determines if the USART is in mute mode or not.
 511:../libs/StdPeripheralDriver/src/stm32f10x_usart.c ****   * @param  USARTx: Select the USART or the UART peripheral. 
 512:../libs/StdPeripheralDriver/src/stm32f10x_usart.c ****   *   This parameter can be one of the following values:
 513:../libs/StdPeripheralDriver/src/stm32f10x_usart.c ****   *   USART1, USART2, USART3, UART4 or UART5.
 514:../libs/StdPeripheralDriver/src/stm32f10x_usart.c ****   * @param  NewState: new state of the USART mute mode.
 515:../libs/StdPeripheralDriver/src/stm32f10x_usart.c ****   *   This parameter can be: ENABLE or DISABLE.
 516:../libs/StdPeripheralDriver/src/stm32f10x_usart.c ****   * @retval None
 517:../libs/StdPeripheralDriver/src/stm32f10x_usart.c ****   */
 518:../libs/StdPeripheralDriver/src/stm32f10x_usart.c **** void USART_ReceiverWakeUpCmd(USART_TypeDef* USARTx, FunctionalState NewState)
 519:../libs/StdPeripheralDriver/src/stm32f10x_usart.c **** {
 1659              		.loc 1 519 0
 1660              		.cfi_startproc
 1661              		@ args = 0, pretend = 0, frame = 8
 1662              		@ frame_needed = 1, uses_anonymous_args = 0
 1663 0000 80B5     		push	{r7, lr}
 1664              	.LCFI30:
 1665              		.cfi_def_cfa_offset 8
 1666              		.cfi_offset 7, -8
 1667              		.cfi_offset 14, -4
 1668 0002 82B0     		sub	sp, sp, #8
 1669              	.LCFI31:
 1670              		.cfi_def_cfa_offset 16
 1671 0004 00AF     		add	r7, sp, #0
 1672              	.LCFI32:
 1673              		.cfi_def_cfa_register 7
 1674 0006 7860     		str	r0, [r7, #4]
 1675 0008 0B46     		mov	r3, r1
 1676 000a FB70     		strb	r3, [r7, #3]
 520:../libs/StdPeripheralDriver/src/stm32f10x_usart.c ****   /* Check the parameters */
 521:../libs/StdPeripheralDriver/src/stm32f10x_usart.c ****   assert_param(IS_USART_ALL_PERIPH(USARTx));
 1677              		.loc 1 521 0
 1678 000c 7A68     		ldr	r2, [r7, #4]
 1679 000e 204B     		ldr	r3, .L135
 1680 0010 9A42     		cmp	r2, r3
 1681 0012 0FD0     		beq	.L127
 1682              		.loc 1 521 0 is_stmt 0 discriminator 2
 1683 0014 7A68     		ldr	r2, [r7, #4]
 1684 0016 1F4B     		ldr	r3, .L135+4
 1685 0018 9A42     		cmp	r2, r3
 1686 001a 0BD0     		beq	.L127
 1687              		.loc 1 521 0 discriminator 1
 1688 001c 7A68     		ldr	r2, [r7, #4]
 1689 001e 1E4B     		ldr	r3, .L135+8
 1690 0020 9A42     		cmp	r2, r3
 1691 0022 07D0     		beq	.L127
 1692              		.loc 1 521 0 discriminator 2
 1693 0024 7A68     		ldr	r2, [r7, #4]
 1694 0026 1D4B     		ldr	r3, .L135+12
 1695 0028 9A42     		cmp	r2, r3
 1696 002a 03D0     		beq	.L127
 1697              		.loc 1 521 0 discriminator 3
 1698 002c 7A68     		ldr	r2, [r7, #4]
 1699 002e 1C4B     		ldr	r3, .L135+16
 1700 0030 9A42     		cmp	r2, r3
 1701 0032 02D1     		bne	.L128
 1702              	.L127:
 1703              		.loc 1 521 0 discriminator 1
 1704 0034 4FF00103 		mov	r3, #1
 1705 0038 01E0     		b	.L129
 1706              	.L128:
 1707              		.loc 1 521 0 discriminator 3
 1708 003a 4FF00003 		mov	r3, #0
 1709              	.L129:
 1710              		.loc 1 521 0 discriminator 4
 1711 003e 1846     		mov	r0, r3
 1712 0040 FFF7FEFF 		bl	assert_param
 522:../libs/StdPeripheralDriver/src/stm32f10x_usart.c ****   assert_param(IS_FUNCTIONAL_STATE(NewState)); 
 1713              		.loc 1 522 0 is_stmt 1 discriminator 4
 1714 0044 FB78     		ldrb	r3, [r7, #3]	@ zero_extendqisi2
 1715 0046 002B     		cmp	r3, #0
 1716 0048 02D0     		beq	.L130
 1717              		.loc 1 522 0 is_stmt 0 discriminator 2
 1718 004a FB78     		ldrb	r3, [r7, #3]	@ zero_extendqisi2
 1719 004c 012B     		cmp	r3, #1
 1720 004e 02D1     		bne	.L131
 1721              	.L130:
 1722              		.loc 1 522 0 discriminator 1
 1723 0050 4FF00103 		mov	r3, #1
 1724 0054 01E0     		b	.L132
 1725              	.L131:
 1726              		.loc 1 522 0 discriminator 3
 1727 0056 4FF00003 		mov	r3, #0
 1728              	.L132:
 1729              		.loc 1 522 0 discriminator 4
 1730 005a 1846     		mov	r0, r3
 1731 005c FFF7FEFF 		bl	assert_param
 523:../libs/StdPeripheralDriver/src/stm32f10x_usart.c ****   
 524:../libs/StdPeripheralDriver/src/stm32f10x_usart.c ****   if (NewState != DISABLE)
 1732              		.loc 1 524 0 is_stmt 1 discriminator 4
 1733 0060 FB78     		ldrb	r3, [r7, #3]	@ zero_extendqisi2
 1734 0062 002B     		cmp	r3, #0
 1735 0064 08D0     		beq	.L133
 525:../libs/StdPeripheralDriver/src/stm32f10x_usart.c ****   {
 526:../libs/StdPeripheralDriver/src/stm32f10x_usart.c ****     /* Enable the USART mute mode  by setting the RWU bit in the CR1 register */
 527:../libs/StdPeripheralDriver/src/stm32f10x_usart.c ****     USARTx->CR1 |= CR1_RWU_Set;
 1736              		.loc 1 527 0
 1737 0066 7B68     		ldr	r3, [r7, #4]
 1738 0068 9B89     		ldrh	r3, [r3, #12]	@ movhi
 1739 006a 9BB2     		uxth	r3, r3
 1740 006c 43F00203 		orr	r3, r3, #2
 1741 0070 9AB2     		uxth	r2, r3
 1742 0072 7B68     		ldr	r3, [r7, #4]
 1743 0074 9A81     		strh	r2, [r3, #12]	@ movhi
 1744 0076 07E0     		b	.L126
 1745              	.L133:
 528:../libs/StdPeripheralDriver/src/stm32f10x_usart.c ****   }
 529:../libs/StdPeripheralDriver/src/stm32f10x_usart.c ****   else
 530:../libs/StdPeripheralDriver/src/stm32f10x_usart.c ****   {
 531:../libs/StdPeripheralDriver/src/stm32f10x_usart.c ****     /* Disable the USART mute mode by clearing the RWU bit in the CR1 register */
 532:../libs/StdPeripheralDriver/src/stm32f10x_usart.c ****     USARTx->CR1 &= CR1_RWU_Reset;
 1746              		.loc 1 532 0
 1747 0078 7B68     		ldr	r3, [r7, #4]
 1748 007a 9B89     		ldrh	r3, [r3, #12]	@ movhi
 1749 007c 9BB2     		uxth	r3, r3
 1750 007e 23F00203 		bic	r3, r3, #2
 1751 0082 9AB2     		uxth	r2, r3
 1752 0084 7B68     		ldr	r3, [r7, #4]
 1753 0086 9A81     		strh	r2, [r3, #12]	@ movhi
 1754              	.L126:
 533:../libs/StdPeripheralDriver/src/stm32f10x_usart.c ****   }
 534:../libs/StdPeripheralDriver/src/stm32f10x_usart.c **** }
 1755              		.loc 1 534 0
 1756 0088 07F10807 		add	r7, r7, #8
 1757 008c BD46     		mov	sp, r7
 1758 008e 80BD     		pop	{r7, pc}
 1759              	.L136:
 1760              		.align	2
 1761              	.L135:
 1762 0090 00380140 		.word	1073821696
 1763 0094 00440040 		.word	1073759232
 1764 0098 00480040 		.word	1073760256
 1765 009c 004C0040 		.word	1073761280
 1766 00a0 00500040 		.word	1073762304
 1767              		.cfi_endproc
 1768              	.LFE39:
 1770              		.section	.text.USART_LINBreakDetectLengthConfig,"ax",%progbits
 1771              		.align	2
 1772              		.global	USART_LINBreakDetectLengthConfig
 1773              		.thumb
 1774              		.thumb_func
 1776              	USART_LINBreakDetectLengthConfig:
 1777              	.LFB40:
 535:../libs/StdPeripheralDriver/src/stm32f10x_usart.c **** 
 536:../libs/StdPeripheralDriver/src/stm32f10x_usart.c **** /**
 537:../libs/StdPeripheralDriver/src/stm32f10x_usart.c ****   * @brief  Sets the USART LIN Break detection length.
 538:../libs/StdPeripheralDriver/src/stm32f10x_usart.c ****   * @param  USARTx: Select the USART or the UART peripheral. 
 539:../libs/StdPeripheralDriver/src/stm32f10x_usart.c ****   *   This parameter can be one of the following values:
 540:../libs/StdPeripheralDriver/src/stm32f10x_usart.c ****   *   USART1, USART2, USART3, UART4 or UART5.
 541:../libs/StdPeripheralDriver/src/stm32f10x_usart.c ****   * @param  USART_LINBreakDetectLength: specifies the LIN break detection length.
 542:../libs/StdPeripheralDriver/src/stm32f10x_usart.c ****   *   This parameter can be one of the following values:
 543:../libs/StdPeripheralDriver/src/stm32f10x_usart.c ****   *     @arg USART_LINBreakDetectLength_10b: 10-bit break detection
 544:../libs/StdPeripheralDriver/src/stm32f10x_usart.c ****   *     @arg USART_LINBreakDetectLength_11b: 11-bit break detection
 545:../libs/StdPeripheralDriver/src/stm32f10x_usart.c ****   * @retval None
 546:../libs/StdPeripheralDriver/src/stm32f10x_usart.c ****   */
 547:../libs/StdPeripheralDriver/src/stm32f10x_usart.c **** void USART_LINBreakDetectLengthConfig(USART_TypeDef* USARTx, uint16_t USART_LINBreakDetectLength)
 548:../libs/StdPeripheralDriver/src/stm32f10x_usart.c **** {
 1778              		.loc 1 548 0
 1779              		.cfi_startproc
 1780              		@ args = 0, pretend = 0, frame = 8
 1781              		@ frame_needed = 1, uses_anonymous_args = 0
 1782 0000 80B5     		push	{r7, lr}
 1783              	.LCFI33:
 1784              		.cfi_def_cfa_offset 8
 1785              		.cfi_offset 7, -8
 1786              		.cfi_offset 14, -4
 1787 0002 82B0     		sub	sp, sp, #8
 1788              	.LCFI34:
 1789              		.cfi_def_cfa_offset 16
 1790 0004 00AF     		add	r7, sp, #0
 1791              	.LCFI35:
 1792              		.cfi_def_cfa_register 7
 1793 0006 7860     		str	r0, [r7, #4]
 1794 0008 0B46     		mov	r3, r1
 1795 000a 7B80     		strh	r3, [r7, #2]	@ movhi
 549:../libs/StdPeripheralDriver/src/stm32f10x_usart.c ****   /* Check the parameters */
 550:../libs/StdPeripheralDriver/src/stm32f10x_usart.c ****   assert_param(IS_USART_ALL_PERIPH(USARTx));
 1796              		.loc 1 550 0
 1797 000c 7A68     		ldr	r2, [r7, #4]
 1798 000e 1E4B     		ldr	r3, .L144
 1799 0010 9A42     		cmp	r2, r3
 1800 0012 0FD0     		beq	.L138
 1801              		.loc 1 550 0 is_stmt 0 discriminator 2
 1802 0014 7A68     		ldr	r2, [r7, #4]
 1803 0016 1D4B     		ldr	r3, .L144+4
 1804 0018 9A42     		cmp	r2, r3
 1805 001a 0BD0     		beq	.L138
 1806              		.loc 1 550 0 discriminator 1
 1807 001c 7A68     		ldr	r2, [r7, #4]
 1808 001e 1C4B     		ldr	r3, .L144+8
 1809 0020 9A42     		cmp	r2, r3
 1810 0022 07D0     		beq	.L138
 1811              		.loc 1 550 0 discriminator 2
 1812 0024 7A68     		ldr	r2, [r7, #4]
 1813 0026 1B4B     		ldr	r3, .L144+12
 1814 0028 9A42     		cmp	r2, r3
 1815 002a 03D0     		beq	.L138
 1816              		.loc 1 550 0 discriminator 3
 1817 002c 7A68     		ldr	r2, [r7, #4]
 1818 002e 1A4B     		ldr	r3, .L144+16
 1819 0030 9A42     		cmp	r2, r3
 1820 0032 02D1     		bne	.L139
 1821              	.L138:
 1822              		.loc 1 550 0 discriminator 1
 1823 0034 4FF00103 		mov	r3, #1
 1824 0038 01E0     		b	.L140
 1825              	.L139:
 1826              		.loc 1 550 0 discriminator 3
 1827 003a 4FF00003 		mov	r3, #0
 1828              	.L140:
 1829              		.loc 1 550 0 discriminator 4
 1830 003e 1846     		mov	r0, r3
 1831 0040 FFF7FEFF 		bl	assert_param
 551:../libs/StdPeripheralDriver/src/stm32f10x_usart.c ****   assert_param(IS_USART_LIN_BREAK_DETECT_LENGTH(USART_LINBreakDetectLength));
 1832              		.loc 1 551 0 is_stmt 1 discriminator 4
 1833 0044 7B88     		ldrh	r3, [r7, #2]
 1834 0046 002B     		cmp	r3, #0
 1835 0048 02D0     		beq	.L141
 1836              		.loc 1 551 0 is_stmt 0 discriminator 2
 1837 004a 7B88     		ldrh	r3, [r7, #2]
 1838 004c 202B     		cmp	r3, #32
 1839 004e 02D1     		bne	.L142
 1840              	.L141:
 1841              		.loc 1 551 0 discriminator 1
 1842 0050 4FF00103 		mov	r3, #1
 1843 0054 01E0     		b	.L143
 1844              	.L142:
 1845              		.loc 1 551 0 discriminator 3
 1846 0056 4FF00003 		mov	r3, #0
 1847              	.L143:
 1848              		.loc 1 551 0 discriminator 4
 1849 005a 1846     		mov	r0, r3
 1850 005c FFF7FEFF 		bl	assert_param
 552:../libs/StdPeripheralDriver/src/stm32f10x_usart.c ****   
 553:../libs/StdPeripheralDriver/src/stm32f10x_usart.c ****   USARTx->CR2 &= CR2_LBDL_Mask;
 1851              		.loc 1 553 0 is_stmt 1 discriminator 4
 1852 0060 7B68     		ldr	r3, [r7, #4]
 1853 0062 1B8A     		ldrh	r3, [r3, #16]	@ movhi
 1854 0064 9BB2     		uxth	r3, r3
 1855 0066 23F02003 		bic	r3, r3, #32
 1856 006a 9AB2     		uxth	r2, r3
 1857 006c 7B68     		ldr	r3, [r7, #4]
 1858 006e 1A82     		strh	r2, [r3, #16]	@ movhi
 554:../libs/StdPeripheralDriver/src/stm32f10x_usart.c ****   USARTx->CR2 |= USART_LINBreakDetectLength;  
 1859              		.loc 1 554 0 discriminator 4
 1860 0070 7B68     		ldr	r3, [r7, #4]
 1861 0072 1B8A     		ldrh	r3, [r3, #16]	@ movhi
 1862 0074 9AB2     		uxth	r2, r3
 1863 0076 7B88     		ldrh	r3, [r7, #2]	@ movhi
 1864 0078 1343     		orrs	r3, r3, r2
 1865 007a 9AB2     		uxth	r2, r3
 1866 007c 7B68     		ldr	r3, [r7, #4]
 1867 007e 1A82     		strh	r2, [r3, #16]	@ movhi
 555:../libs/StdPeripheralDriver/src/stm32f10x_usart.c **** }
 1868              		.loc 1 555 0 discriminator 4
 1869 0080 07F10807 		add	r7, r7, #8
 1870 0084 BD46     		mov	sp, r7
 1871 0086 80BD     		pop	{r7, pc}
 1872              	.L145:
 1873              		.align	2
 1874              	.L144:
 1875 0088 00380140 		.word	1073821696
 1876 008c 00440040 		.word	1073759232
 1877 0090 00480040 		.word	1073760256
 1878 0094 004C0040 		.word	1073761280
 1879 0098 00500040 		.word	1073762304
 1880              		.cfi_endproc
 1881              	.LFE40:
 1883              		.section	.text.USART_LINCmd,"ax",%progbits
 1884              		.align	2
 1885              		.global	USART_LINCmd
 1886              		.thumb
 1887              		.thumb_func
 1889              	USART_LINCmd:
 1890              	.LFB41:
 556:../libs/StdPeripheralDriver/src/stm32f10x_usart.c **** 
 557:../libs/StdPeripheralDriver/src/stm32f10x_usart.c **** /**
 558:../libs/StdPeripheralDriver/src/stm32f10x_usart.c ****   * @brief  Enables or disables the USARTs LIN mode.
 559:../libs/StdPeripheralDriver/src/stm32f10x_usart.c ****   * @param  USARTx: Select the USART or the UART peripheral. 
 560:../libs/StdPeripheralDriver/src/stm32f10x_usart.c ****   *   This parameter can be one of the following values:
 561:../libs/StdPeripheralDriver/src/stm32f10x_usart.c ****   *   USART1, USART2, USART3, UART4 or UART5.
 562:../libs/StdPeripheralDriver/src/stm32f10x_usart.c ****   * @param  NewState: new state of the USART LIN mode.
 563:../libs/StdPeripheralDriver/src/stm32f10x_usart.c ****   *   This parameter can be: ENABLE or DISABLE.
 564:../libs/StdPeripheralDriver/src/stm32f10x_usart.c ****   * @retval None
 565:../libs/StdPeripheralDriver/src/stm32f10x_usart.c ****   */
 566:../libs/StdPeripheralDriver/src/stm32f10x_usart.c **** void USART_LINCmd(USART_TypeDef* USARTx, FunctionalState NewState)
 567:../libs/StdPeripheralDriver/src/stm32f10x_usart.c **** {
 1891              		.loc 1 567 0
 1892              		.cfi_startproc
 1893              		@ args = 0, pretend = 0, frame = 8
 1894              		@ frame_needed = 1, uses_anonymous_args = 0
 1895 0000 80B5     		push	{r7, lr}
 1896              	.LCFI36:
 1897              		.cfi_def_cfa_offset 8
 1898              		.cfi_offset 7, -8
 1899              		.cfi_offset 14, -4
 1900 0002 82B0     		sub	sp, sp, #8
 1901              	.LCFI37:
 1902              		.cfi_def_cfa_offset 16
 1903 0004 00AF     		add	r7, sp, #0
 1904              	.LCFI38:
 1905              		.cfi_def_cfa_register 7
 1906 0006 7860     		str	r0, [r7, #4]
 1907 0008 0B46     		mov	r3, r1
 1908 000a FB70     		strb	r3, [r7, #3]
 568:../libs/StdPeripheralDriver/src/stm32f10x_usart.c ****   /* Check the parameters */
 569:../libs/StdPeripheralDriver/src/stm32f10x_usart.c ****   assert_param(IS_USART_ALL_PERIPH(USARTx));
 1909              		.loc 1 569 0
 1910 000c 7A68     		ldr	r2, [r7, #4]
 1911 000e 204B     		ldr	r3, .L155
 1912 0010 9A42     		cmp	r2, r3
 1913 0012 0FD0     		beq	.L147
 1914              		.loc 1 569 0 is_stmt 0 discriminator 2
 1915 0014 7A68     		ldr	r2, [r7, #4]
 1916 0016 1F4B     		ldr	r3, .L155+4
 1917 0018 9A42     		cmp	r2, r3
 1918 001a 0BD0     		beq	.L147
 1919              		.loc 1 569 0 discriminator 1
 1920 001c 7A68     		ldr	r2, [r7, #4]
 1921 001e 1E4B     		ldr	r3, .L155+8
 1922 0020 9A42     		cmp	r2, r3
 1923 0022 07D0     		beq	.L147
 1924              		.loc 1 569 0 discriminator 2
 1925 0024 7A68     		ldr	r2, [r7, #4]
 1926 0026 1D4B     		ldr	r3, .L155+12
 1927 0028 9A42     		cmp	r2, r3
 1928 002a 03D0     		beq	.L147
 1929              		.loc 1 569 0 discriminator 3
 1930 002c 7A68     		ldr	r2, [r7, #4]
 1931 002e 1C4B     		ldr	r3, .L155+16
 1932 0030 9A42     		cmp	r2, r3
 1933 0032 02D1     		bne	.L148
 1934              	.L147:
 1935              		.loc 1 569 0 discriminator 1
 1936 0034 4FF00103 		mov	r3, #1
 1937 0038 01E0     		b	.L149
 1938              	.L148:
 1939              		.loc 1 569 0 discriminator 3
 1940 003a 4FF00003 		mov	r3, #0
 1941              	.L149:
 1942              		.loc 1 569 0 discriminator 4
 1943 003e 1846     		mov	r0, r3
 1944 0040 FFF7FEFF 		bl	assert_param
 570:../libs/StdPeripheralDriver/src/stm32f10x_usart.c ****   assert_param(IS_FUNCTIONAL_STATE(NewState));
 1945              		.loc 1 570 0 is_stmt 1 discriminator 4
 1946 0044 FB78     		ldrb	r3, [r7, #3]	@ zero_extendqisi2
 1947 0046 002B     		cmp	r3, #0
 1948 0048 02D0     		beq	.L150
 1949              		.loc 1 570 0 is_stmt 0 discriminator 2
 1950 004a FB78     		ldrb	r3, [r7, #3]	@ zero_extendqisi2
 1951 004c 012B     		cmp	r3, #1
 1952 004e 02D1     		bne	.L151
 1953              	.L150:
 1954              		.loc 1 570 0 discriminator 1
 1955 0050 4FF00103 		mov	r3, #1
 1956 0054 01E0     		b	.L152
 1957              	.L151:
 1958              		.loc 1 570 0 discriminator 3
 1959 0056 4FF00003 		mov	r3, #0
 1960              	.L152:
 1961              		.loc 1 570 0 discriminator 4
 1962 005a 1846     		mov	r0, r3
 1963 005c FFF7FEFF 		bl	assert_param
 571:../libs/StdPeripheralDriver/src/stm32f10x_usart.c ****   
 572:../libs/StdPeripheralDriver/src/stm32f10x_usart.c ****   if (NewState != DISABLE)
 1964              		.loc 1 572 0 is_stmt 1 discriminator 4
 1965 0060 FB78     		ldrb	r3, [r7, #3]	@ zero_extendqisi2
 1966 0062 002B     		cmp	r3, #0
 1967 0064 08D0     		beq	.L153
 573:../libs/StdPeripheralDriver/src/stm32f10x_usart.c ****   {
 574:../libs/StdPeripheralDriver/src/stm32f10x_usart.c ****     /* Enable the LIN mode by setting the LINEN bit in the CR2 register */
 575:../libs/StdPeripheralDriver/src/stm32f10x_usart.c ****     USARTx->CR2 |= CR2_LINEN_Set;
 1968              		.loc 1 575 0
 1969 0066 7B68     		ldr	r3, [r7, #4]
 1970 0068 1B8A     		ldrh	r3, [r3, #16]	@ movhi
 1971 006a 9BB2     		uxth	r3, r3
 1972 006c 43F48043 		orr	r3, r3, #16384
 1973 0070 9AB2     		uxth	r2, r3
 1974 0072 7B68     		ldr	r3, [r7, #4]
 1975 0074 1A82     		strh	r2, [r3, #16]	@ movhi
 1976 0076 07E0     		b	.L146
 1977              	.L153:
 576:../libs/StdPeripheralDriver/src/stm32f10x_usart.c ****   }
 577:../libs/StdPeripheralDriver/src/stm32f10x_usart.c ****   else
 578:../libs/StdPeripheralDriver/src/stm32f10x_usart.c ****   {
 579:../libs/StdPeripheralDriver/src/stm32f10x_usart.c ****     /* Disable the LIN mode by clearing the LINEN bit in the CR2 register */
 580:../libs/StdPeripheralDriver/src/stm32f10x_usart.c ****     USARTx->CR2 &= CR2_LINEN_Reset;
 1978              		.loc 1 580 0
 1979 0078 7B68     		ldr	r3, [r7, #4]
 1980 007a 1B8A     		ldrh	r3, [r3, #16]	@ movhi
 1981 007c 9BB2     		uxth	r3, r3
 1982 007e 23F48043 		bic	r3, r3, #16384
 1983 0082 9AB2     		uxth	r2, r3
 1984 0084 7B68     		ldr	r3, [r7, #4]
 1985 0086 1A82     		strh	r2, [r3, #16]	@ movhi
 1986              	.L146:
 581:../libs/StdPeripheralDriver/src/stm32f10x_usart.c ****   }
 582:../libs/StdPeripheralDriver/src/stm32f10x_usart.c **** }
 1987              		.loc 1 582 0
 1988 0088 07F10807 		add	r7, r7, #8
 1989 008c BD46     		mov	sp, r7
 1990 008e 80BD     		pop	{r7, pc}
 1991              	.L156:
 1992              		.align	2
 1993              	.L155:
 1994 0090 00380140 		.word	1073821696
 1995 0094 00440040 		.word	1073759232
 1996 0098 00480040 		.word	1073760256
 1997 009c 004C0040 		.word	1073761280
 1998 00a0 00500040 		.word	1073762304
 1999              		.cfi_endproc
 2000              	.LFE41:
 2002              		.section	.text.USART_SendData,"ax",%progbits
 2003              		.align	2
 2004              		.global	USART_SendData
 2005              		.thumb
 2006              		.thumb_func
 2008              	USART_SendData:
 2009              	.LFB42:
 583:../libs/StdPeripheralDriver/src/stm32f10x_usart.c **** 
 584:../libs/StdPeripheralDriver/src/stm32f10x_usart.c **** /**
 585:../libs/StdPeripheralDriver/src/stm32f10x_usart.c ****   * @brief  Transmits single data through the USARTx peripheral.
 586:../libs/StdPeripheralDriver/src/stm32f10x_usart.c ****   * @param  USARTx: Select the USART or the UART peripheral. 
 587:../libs/StdPeripheralDriver/src/stm32f10x_usart.c ****   *   This parameter can be one of the following values:
 588:../libs/StdPeripheralDriver/src/stm32f10x_usart.c ****   *   USART1, USART2, USART3, UART4 or UART5.
 589:../libs/StdPeripheralDriver/src/stm32f10x_usart.c ****   * @param  Data: the data to transmit.
 590:../libs/StdPeripheralDriver/src/stm32f10x_usart.c ****   * @retval None
 591:../libs/StdPeripheralDriver/src/stm32f10x_usart.c ****   */
 592:../libs/StdPeripheralDriver/src/stm32f10x_usart.c **** void USART_SendData(USART_TypeDef* USARTx, uint16_t Data)
 593:../libs/StdPeripheralDriver/src/stm32f10x_usart.c **** {
 2010              		.loc 1 593 0
 2011              		.cfi_startproc
 2012              		@ args = 0, pretend = 0, frame = 8
 2013              		@ frame_needed = 1, uses_anonymous_args = 0
 2014 0000 80B5     		push	{r7, lr}
 2015              	.LCFI39:
 2016              		.cfi_def_cfa_offset 8
 2017              		.cfi_offset 7, -8
 2018              		.cfi_offset 14, -4
 2019 0002 82B0     		sub	sp, sp, #8
 2020              	.LCFI40:
 2021              		.cfi_def_cfa_offset 16
 2022 0004 00AF     		add	r7, sp, #0
 2023              	.LCFI41:
 2024              		.cfi_def_cfa_register 7
 2025 0006 7860     		str	r0, [r7, #4]
 2026 0008 0B46     		mov	r3, r1
 2027 000a 7B80     		strh	r3, [r7, #2]	@ movhi
 594:../libs/StdPeripheralDriver/src/stm32f10x_usart.c ****   /* Check the parameters */
 595:../libs/StdPeripheralDriver/src/stm32f10x_usart.c ****   assert_param(IS_USART_ALL_PERIPH(USARTx));
 2028              		.loc 1 595 0
 2029 000c 7A68     		ldr	r2, [r7, #4]
 2030 000e 194B     		ldr	r3, .L161
 2031 0010 9A42     		cmp	r2, r3
 2032 0012 0FD0     		beq	.L158
 2033              		.loc 1 595 0 is_stmt 0 discriminator 2
 2034 0014 7A68     		ldr	r2, [r7, #4]
 2035 0016 184B     		ldr	r3, .L161+4
 2036 0018 9A42     		cmp	r2, r3
 2037 001a 0BD0     		beq	.L158
 2038              		.loc 1 595 0 discriminator 1
 2039 001c 7A68     		ldr	r2, [r7, #4]
 2040 001e 174B     		ldr	r3, .L161+8
 2041 0020 9A42     		cmp	r2, r3
 2042 0022 07D0     		beq	.L158
 2043              		.loc 1 595 0 discriminator 2
 2044 0024 7A68     		ldr	r2, [r7, #4]
 2045 0026 164B     		ldr	r3, .L161+12
 2046 0028 9A42     		cmp	r2, r3
 2047 002a 03D0     		beq	.L158
 2048              		.loc 1 595 0 discriminator 3
 2049 002c 7A68     		ldr	r2, [r7, #4]
 2050 002e 154B     		ldr	r3, .L161+16
 2051 0030 9A42     		cmp	r2, r3
 2052 0032 02D1     		bne	.L159
 2053              	.L158:
 2054              		.loc 1 595 0 discriminator 1
 2055 0034 4FF00103 		mov	r3, #1
 2056 0038 01E0     		b	.L160
 2057              	.L159:
 2058              		.loc 1 595 0 discriminator 3
 2059 003a 4FF00003 		mov	r3, #0
 2060              	.L160:
 2061              		.loc 1 595 0 discriminator 4
 2062 003e 1846     		mov	r0, r3
 2063 0040 FFF7FEFF 		bl	assert_param
 596:../libs/StdPeripheralDriver/src/stm32f10x_usart.c ****   assert_param(IS_USART_DATA(Data)); 
 2064              		.loc 1 596 0 is_stmt 1 discriminator 4
 2065 0044 7A88     		ldrh	r2, [r7, #2]
 2066 0046 40F2FF13 		movw	r3, #511
 2067 004a 9A42     		cmp	r2, r3
 2068 004c 8CBF     		ite	hi
 2069 004e 0023     		movhi	r3, #0
 2070 0050 0123     		movls	r3, #1
 2071 0052 DBB2     		uxtb	r3, r3
 2072 0054 1846     		mov	r0, r3
 2073 0056 FFF7FEFF 		bl	assert_param
 597:../libs/StdPeripheralDriver/src/stm32f10x_usart.c ****     
 598:../libs/StdPeripheralDriver/src/stm32f10x_usart.c ****   /* Transmit Data */
 599:../libs/StdPeripheralDriver/src/stm32f10x_usart.c ****   USARTx->DR = (Data & (uint16_t)0x01FF);
 2074              		.loc 1 599 0 discriminator 4
 2075 005a 7B88     		ldrh	r3, [r7, #2]	@ movhi
 2076 005c 4FEAC353 		lsl	r3, r3, #23
 2077 0060 4FEAD353 		lsr	r3, r3, #23
 2078 0064 9AB2     		uxth	r2, r3
 2079 0066 7B68     		ldr	r3, [r7, #4]
 2080 0068 9A80     		strh	r2, [r3, #4]	@ movhi
 600:../libs/StdPeripheralDriver/src/stm32f10x_usart.c **** }
 2081              		.loc 1 600 0 discriminator 4
 2082 006a 07F10807 		add	r7, r7, #8
 2083 006e BD46     		mov	sp, r7
 2084 0070 80BD     		pop	{r7, pc}
 2085              	.L162:
 2086 0072 00BF     		.align	2
 2087              	.L161:
 2088 0074 00380140 		.word	1073821696
 2089 0078 00440040 		.word	1073759232
 2090 007c 00480040 		.word	1073760256
 2091 0080 004C0040 		.word	1073761280
 2092 0084 00500040 		.word	1073762304
 2093              		.cfi_endproc
 2094              	.LFE42:
 2096              		.section	.text.USART_ReceiveData,"ax",%progbits
 2097              		.align	2
 2098              		.global	USART_ReceiveData
 2099              		.thumb
 2100              		.thumb_func
 2102              	USART_ReceiveData:
 2103              	.LFB43:
 601:../libs/StdPeripheralDriver/src/stm32f10x_usart.c **** 
 602:../libs/StdPeripheralDriver/src/stm32f10x_usart.c **** /**
 603:../libs/StdPeripheralDriver/src/stm32f10x_usart.c ****   * @brief  Returns the most recent received data by the USARTx peripheral.
 604:../libs/StdPeripheralDriver/src/stm32f10x_usart.c ****   * @param  USARTx: Select the USART or the UART peripheral. 
 605:../libs/StdPeripheralDriver/src/stm32f10x_usart.c ****   *   This parameter can be one of the following values:
 606:../libs/StdPeripheralDriver/src/stm32f10x_usart.c ****   *   USART1, USART2, USART3, UART4 or UART5.
 607:../libs/StdPeripheralDriver/src/stm32f10x_usart.c ****   * @retval The received data.
 608:../libs/StdPeripheralDriver/src/stm32f10x_usart.c ****   */
 609:../libs/StdPeripheralDriver/src/stm32f10x_usart.c **** uint16_t USART_ReceiveData(USART_TypeDef* USARTx)
 610:../libs/StdPeripheralDriver/src/stm32f10x_usart.c **** {
 2104              		.loc 1 610 0
 2105              		.cfi_startproc
 2106              		@ args = 0, pretend = 0, frame = 8
 2107              		@ frame_needed = 1, uses_anonymous_args = 0
 2108 0000 80B5     		push	{r7, lr}
 2109              	.LCFI42:
 2110              		.cfi_def_cfa_offset 8
 2111              		.cfi_offset 7, -8
 2112              		.cfi_offset 14, -4
 2113 0002 82B0     		sub	sp, sp, #8
 2114              	.LCFI43:
 2115              		.cfi_def_cfa_offset 16
 2116 0004 00AF     		add	r7, sp, #0
 2117              	.LCFI44:
 2118              		.cfi_def_cfa_register 7
 2119 0006 7860     		str	r0, [r7, #4]
 611:../libs/StdPeripheralDriver/src/stm32f10x_usart.c ****   /* Check the parameters */
 612:../libs/StdPeripheralDriver/src/stm32f10x_usart.c ****   assert_param(IS_USART_ALL_PERIPH(USARTx));
 2120              		.loc 1 612 0
 2121 0008 7A68     		ldr	r2, [r7, #4]
 2122 000a 144B     		ldr	r3, .L168
 2123 000c 9A42     		cmp	r2, r3
 2124 000e 0FD0     		beq	.L164
 2125              		.loc 1 612 0 is_stmt 0 discriminator 2
 2126 0010 7A68     		ldr	r2, [r7, #4]
 2127 0012 134B     		ldr	r3, .L168+4
 2128 0014 9A42     		cmp	r2, r3
 2129 0016 0BD0     		beq	.L164
 2130              		.loc 1 612 0 discriminator 1
 2131 0018 7A68     		ldr	r2, [r7, #4]
 2132 001a 124B     		ldr	r3, .L168+8
 2133 001c 9A42     		cmp	r2, r3
 2134 001e 07D0     		beq	.L164
 2135              		.loc 1 612 0 discriminator 2
 2136 0020 7A68     		ldr	r2, [r7, #4]
 2137 0022 114B     		ldr	r3, .L168+12
 2138 0024 9A42     		cmp	r2, r3
 2139 0026 03D0     		beq	.L164
 2140              		.loc 1 612 0 discriminator 3
 2141 0028 7A68     		ldr	r2, [r7, #4]
 2142 002a 104B     		ldr	r3, .L168+16
 2143 002c 9A42     		cmp	r2, r3
 2144 002e 02D1     		bne	.L165
 2145              	.L164:
 2146              		.loc 1 612 0 discriminator 1
 2147 0030 4FF00103 		mov	r3, #1
 2148 0034 01E0     		b	.L166
 2149              	.L165:
 2150              		.loc 1 612 0 discriminator 3
 2151 0036 4FF00003 		mov	r3, #0
 2152              	.L166:
 2153              		.loc 1 612 0 discriminator 4
 2154 003a 1846     		mov	r0, r3
 2155 003c FFF7FEFF 		bl	assert_param
 613:../libs/StdPeripheralDriver/src/stm32f10x_usart.c ****   
 614:../libs/StdPeripheralDriver/src/stm32f10x_usart.c ****   /* Receive Data */
 615:../libs/StdPeripheralDriver/src/stm32f10x_usart.c ****   return (uint16_t)(USARTx->DR & (uint16_t)0x01FF);
 2156              		.loc 1 615 0 is_stmt 1 discriminator 4
 2157 0040 7B68     		ldr	r3, [r7, #4]
 2158 0042 9B88     		ldrh	r3, [r3, #4]	@ movhi
 2159 0044 9BB2     		uxth	r3, r3
 2160 0046 4FEAC353 		lsl	r3, r3, #23
 2161 004a 4FEAD353 		lsr	r3, r3, #23
 2162 004e 9BB2     		uxth	r3, r3
 616:../libs/StdPeripheralDriver/src/stm32f10x_usart.c **** }
 2163              		.loc 1 616 0 discriminator 4
 2164 0050 1846     		mov	r0, r3
 2165 0052 07F10807 		add	r7, r7, #8
 2166 0056 BD46     		mov	sp, r7
 2167 0058 80BD     		pop	{r7, pc}
 2168              	.L169:
 2169 005a 00BF     		.align	2
 2170              	.L168:
 2171 005c 00380140 		.word	1073821696
 2172 0060 00440040 		.word	1073759232
 2173 0064 00480040 		.word	1073760256
 2174 0068 004C0040 		.word	1073761280
 2175 006c 00500040 		.word	1073762304
 2176              		.cfi_endproc
 2177              	.LFE43:
 2179              		.section	.text.USART_SendBreak,"ax",%progbits
 2180              		.align	2
 2181              		.global	USART_SendBreak
 2182              		.thumb
 2183              		.thumb_func
 2185              	USART_SendBreak:
 2186              	.LFB44:
 617:../libs/StdPeripheralDriver/src/stm32f10x_usart.c **** 
 618:../libs/StdPeripheralDriver/src/stm32f10x_usart.c **** /**
 619:../libs/StdPeripheralDriver/src/stm32f10x_usart.c ****   * @brief  Transmits break characters.
 620:../libs/StdPeripheralDriver/src/stm32f10x_usart.c ****   * @param  USARTx: Select the USART or the UART peripheral. 
 621:../libs/StdPeripheralDriver/src/stm32f10x_usart.c ****   *   This parameter can be one of the following values:
 622:../libs/StdPeripheralDriver/src/stm32f10x_usart.c ****   *   USART1, USART2, USART3, UART4 or UART5.
 623:../libs/StdPeripheralDriver/src/stm32f10x_usart.c ****   * @retval None
 624:../libs/StdPeripheralDriver/src/stm32f10x_usart.c ****   */
 625:../libs/StdPeripheralDriver/src/stm32f10x_usart.c **** void USART_SendBreak(USART_TypeDef* USARTx)
 626:../libs/StdPeripheralDriver/src/stm32f10x_usart.c **** {
 2187              		.loc 1 626 0
 2188              		.cfi_startproc
 2189              		@ args = 0, pretend = 0, frame = 8
 2190              		@ frame_needed = 1, uses_anonymous_args = 0
 2191 0000 80B5     		push	{r7, lr}
 2192              	.LCFI45:
 2193              		.cfi_def_cfa_offset 8
 2194              		.cfi_offset 7, -8
 2195              		.cfi_offset 14, -4
 2196 0002 82B0     		sub	sp, sp, #8
 2197              	.LCFI46:
 2198              		.cfi_def_cfa_offset 16
 2199 0004 00AF     		add	r7, sp, #0
 2200              	.LCFI47:
 2201              		.cfi_def_cfa_register 7
 2202 0006 7860     		str	r0, [r7, #4]
 627:../libs/StdPeripheralDriver/src/stm32f10x_usart.c ****   /* Check the parameters */
 628:../libs/StdPeripheralDriver/src/stm32f10x_usart.c ****   assert_param(IS_USART_ALL_PERIPH(USARTx));
 2203              		.loc 1 628 0
 2204 0008 7A68     		ldr	r2, [r7, #4]
 2205 000a 134B     		ldr	r3, .L174
 2206 000c 9A42     		cmp	r2, r3
 2207 000e 0FD0     		beq	.L171
 2208              		.loc 1 628 0 is_stmt 0 discriminator 2
 2209 0010 7A68     		ldr	r2, [r7, #4]
 2210 0012 124B     		ldr	r3, .L174+4
 2211 0014 9A42     		cmp	r2, r3
 2212 0016 0BD0     		beq	.L171
 2213              		.loc 1 628 0 discriminator 1
 2214 0018 7A68     		ldr	r2, [r7, #4]
 2215 001a 114B     		ldr	r3, .L174+8
 2216 001c 9A42     		cmp	r2, r3
 2217 001e 07D0     		beq	.L171
 2218              		.loc 1 628 0 discriminator 2
 2219 0020 7A68     		ldr	r2, [r7, #4]
 2220 0022 104B     		ldr	r3, .L174+12
 2221 0024 9A42     		cmp	r2, r3
 2222 0026 03D0     		beq	.L171
 2223              		.loc 1 628 0 discriminator 3
 2224 0028 7A68     		ldr	r2, [r7, #4]
 2225 002a 0F4B     		ldr	r3, .L174+16
 2226 002c 9A42     		cmp	r2, r3
 2227 002e 02D1     		bne	.L172
 2228              	.L171:
 2229              		.loc 1 628 0 discriminator 1
 2230 0030 4FF00103 		mov	r3, #1
 2231 0034 01E0     		b	.L173
 2232              	.L172:
 2233              		.loc 1 628 0 discriminator 3
 2234 0036 4FF00003 		mov	r3, #0
 2235              	.L173:
 2236              		.loc 1 628 0 discriminator 4
 2237 003a 1846     		mov	r0, r3
 2238 003c FFF7FEFF 		bl	assert_param
 629:../libs/StdPeripheralDriver/src/stm32f10x_usart.c ****   
 630:../libs/StdPeripheralDriver/src/stm32f10x_usart.c ****   /* Send break characters */
 631:../libs/StdPeripheralDriver/src/stm32f10x_usart.c ****   USARTx->CR1 |= CR1_SBK_Set;
 2239              		.loc 1 631 0 is_stmt 1 discriminator 4
 2240 0040 7B68     		ldr	r3, [r7, #4]
 2241 0042 9B89     		ldrh	r3, [r3, #12]	@ movhi
 2242 0044 9BB2     		uxth	r3, r3
 2243 0046 43F00103 		orr	r3, r3, #1
 2244 004a 9AB2     		uxth	r2, r3
 2245 004c 7B68     		ldr	r3, [r7, #4]
 2246 004e 9A81     		strh	r2, [r3, #12]	@ movhi
 632:../libs/StdPeripheralDriver/src/stm32f10x_usart.c **** }
 2247              		.loc 1 632 0 discriminator 4
 2248 0050 07F10807 		add	r7, r7, #8
 2249 0054 BD46     		mov	sp, r7
 2250 0056 80BD     		pop	{r7, pc}
 2251              	.L175:
 2252              		.align	2
 2253              	.L174:
 2254 0058 00380140 		.word	1073821696
 2255 005c 00440040 		.word	1073759232
 2256 0060 00480040 		.word	1073760256
 2257 0064 004C0040 		.word	1073761280
 2258 0068 00500040 		.word	1073762304
 2259              		.cfi_endproc
 2260              	.LFE44:
 2262              		.section	.text.USART_SetGuardTime,"ax",%progbits
 2263              		.align	2
 2264              		.global	USART_SetGuardTime
 2265              		.thumb
 2266              		.thumb_func
 2268              	USART_SetGuardTime:
 2269              	.LFB45:
 633:../libs/StdPeripheralDriver/src/stm32f10x_usart.c **** 
 634:../libs/StdPeripheralDriver/src/stm32f10x_usart.c **** /**
 635:../libs/StdPeripheralDriver/src/stm32f10x_usart.c ****   * @brief  Sets the specified USART guard time.
 636:../libs/StdPeripheralDriver/src/stm32f10x_usart.c ****   * @param  USARTx: where x can be 1, 2 or 3 to select the USART peripheral.
 637:../libs/StdPeripheralDriver/src/stm32f10x_usart.c ****   * @param  USART_GuardTime: specifies the guard time.
 638:../libs/StdPeripheralDriver/src/stm32f10x_usart.c ****   * @note The guard time bits are not available for UART4 and UART5.   
 639:../libs/StdPeripheralDriver/src/stm32f10x_usart.c ****   * @retval None
 640:../libs/StdPeripheralDriver/src/stm32f10x_usart.c ****   */
 641:../libs/StdPeripheralDriver/src/stm32f10x_usart.c **** void USART_SetGuardTime(USART_TypeDef* USARTx, uint8_t USART_GuardTime)
 642:../libs/StdPeripheralDriver/src/stm32f10x_usart.c **** {    
 2270              		.loc 1 642 0
 2271              		.cfi_startproc
 2272              		@ args = 0, pretend = 0, frame = 8
 2273              		@ frame_needed = 1, uses_anonymous_args = 0
 2274 0000 80B5     		push	{r7, lr}
 2275              	.LCFI48:
 2276              		.cfi_def_cfa_offset 8
 2277              		.cfi_offset 7, -8
 2278              		.cfi_offset 14, -4
 2279 0002 82B0     		sub	sp, sp, #8
 2280              	.LCFI49:
 2281              		.cfi_def_cfa_offset 16
 2282 0004 00AF     		add	r7, sp, #0
 2283              	.LCFI50:
 2284              		.cfi_def_cfa_register 7
 2285 0006 7860     		str	r0, [r7, #4]
 2286 0008 0B46     		mov	r3, r1
 2287 000a FB70     		strb	r3, [r7, #3]
 643:../libs/StdPeripheralDriver/src/stm32f10x_usart.c ****   /* Check the parameters */
 644:../libs/StdPeripheralDriver/src/stm32f10x_usart.c ****   assert_param(IS_USART_123_PERIPH(USARTx));
 2288              		.loc 1 644 0
 2289 000c 7A68     		ldr	r2, [r7, #4]
 2290 000e 154B     		ldr	r3, .L180
 2291 0010 9A42     		cmp	r2, r3
 2292 0012 07D0     		beq	.L177
 2293              		.loc 1 644 0 is_stmt 0 discriminator 2
 2294 0014 7A68     		ldr	r2, [r7, #4]
 2295 0016 144B     		ldr	r3, .L180+4
 2296 0018 9A42     		cmp	r2, r3
 2297 001a 03D0     		beq	.L177
 2298              		.loc 1 644 0 discriminator 1
 2299 001c 7A68     		ldr	r2, [r7, #4]
 2300 001e 134B     		ldr	r3, .L180+8
 2301 0020 9A42     		cmp	r2, r3
 2302 0022 02D1     		bne	.L178
 2303              	.L177:
 2304 0024 4FF00103 		mov	r3, #1
 2305 0028 01E0     		b	.L179
 2306              	.L178:
 2307              		.loc 1 644 0 discriminator 3
 2308 002a 4FF00003 		mov	r3, #0
 2309              	.L179:
 2310              		.loc 1 644 0 discriminator 4
 2311 002e 1846     		mov	r0, r3
 2312 0030 FFF7FEFF 		bl	assert_param
 645:../libs/StdPeripheralDriver/src/stm32f10x_usart.c ****   
 646:../libs/StdPeripheralDriver/src/stm32f10x_usart.c ****   /* Clear the USART Guard time */
 647:../libs/StdPeripheralDriver/src/stm32f10x_usart.c ****   USARTx->GTPR &= GTPR_LSB_Mask;
 2313              		.loc 1 647 0 is_stmt 1 discriminator 4
 2314 0034 7B68     		ldr	r3, [r7, #4]
 2315 0036 1B8B     		ldrh	r3, [r3, #24]	@ movhi
 2316 0038 9BB2     		uxth	r3, r3
 2317 003a DBB2     		uxtb	r3, r3
 2318 003c 9AB2     		uxth	r2, r3
 2319 003e 7B68     		ldr	r3, [r7, #4]
 2320 0040 1A83     		strh	r2, [r3, #24]	@ movhi
 648:../libs/StdPeripheralDriver/src/stm32f10x_usart.c ****   /* Set the USART guard time */
 649:../libs/StdPeripheralDriver/src/stm32f10x_usart.c ****   USARTx->GTPR |= (uint16_t)((uint16_t)USART_GuardTime << 0x08);
 2321              		.loc 1 649 0 discriminator 4
 2322 0042 7B68     		ldr	r3, [r7, #4]
 2323 0044 1B8B     		ldrh	r3, [r3, #24]	@ movhi
 2324 0046 9AB2     		uxth	r2, r3
 2325 0048 FB78     		ldrb	r3, [r7, #3]	@ zero_extendqisi2
 2326 004a 9BB2     		uxth	r3, r3
 2327 004c 4FEA0323 		lsl	r3, r3, #8
 2328 0050 9BB2     		uxth	r3, r3
 2329 0052 1343     		orrs	r3, r3, r2
 2330 0054 9AB2     		uxth	r2, r3
 2331 0056 7B68     		ldr	r3, [r7, #4]
 2332 0058 1A83     		strh	r2, [r3, #24]	@ movhi
 650:../libs/StdPeripheralDriver/src/stm32f10x_usart.c **** }
 2333              		.loc 1 650 0 discriminator 4
 2334 005a 07F10807 		add	r7, r7, #8
 2335 005e BD46     		mov	sp, r7
 2336 0060 80BD     		pop	{r7, pc}
 2337              	.L181:
 2338 0062 00BF     		.align	2
 2339              	.L180:
 2340 0064 00380140 		.word	1073821696
 2341 0068 00440040 		.word	1073759232
 2342 006c 00480040 		.word	1073760256
 2343              		.cfi_endproc
 2344              	.LFE45:
 2346              		.section	.text.USART_SetPrescaler,"ax",%progbits
 2347              		.align	2
 2348              		.global	USART_SetPrescaler
 2349              		.thumb
 2350              		.thumb_func
 2352              	USART_SetPrescaler:
 2353              	.LFB46:
 651:../libs/StdPeripheralDriver/src/stm32f10x_usart.c **** 
 652:../libs/StdPeripheralDriver/src/stm32f10x_usart.c **** /**
 653:../libs/StdPeripheralDriver/src/stm32f10x_usart.c ****   * @brief  Sets the system clock prescaler.
 654:../libs/StdPeripheralDriver/src/stm32f10x_usart.c ****   * @param  USARTx: Select the USART or the UART peripheral. 
 655:../libs/StdPeripheralDriver/src/stm32f10x_usart.c ****   *   This parameter can be one of the following values:
 656:../libs/StdPeripheralDriver/src/stm32f10x_usart.c ****   *   USART1, USART2, USART3, UART4 or UART5.
 657:../libs/StdPeripheralDriver/src/stm32f10x_usart.c ****   * @param  USART_Prescaler: specifies the prescaler clock.  
 658:../libs/StdPeripheralDriver/src/stm32f10x_usart.c ****   * @note   The function is used for IrDA mode with UART4 and UART5.
 659:../libs/StdPeripheralDriver/src/stm32f10x_usart.c ****   * @retval None
 660:../libs/StdPeripheralDriver/src/stm32f10x_usart.c ****   */
 661:../libs/StdPeripheralDriver/src/stm32f10x_usart.c **** void USART_SetPrescaler(USART_TypeDef* USARTx, uint8_t USART_Prescaler)
 662:../libs/StdPeripheralDriver/src/stm32f10x_usart.c **** { 
 2354              		.loc 1 662 0
 2355              		.cfi_startproc
 2356              		@ args = 0, pretend = 0, frame = 8
 2357              		@ frame_needed = 1, uses_anonymous_args = 0
 2358 0000 80B5     		push	{r7, lr}
 2359              	.LCFI51:
 2360              		.cfi_def_cfa_offset 8
 2361              		.cfi_offset 7, -8
 2362              		.cfi_offset 14, -4
 2363 0002 82B0     		sub	sp, sp, #8
 2364              	.LCFI52:
 2365              		.cfi_def_cfa_offset 16
 2366 0004 00AF     		add	r7, sp, #0
 2367              	.LCFI53:
 2368              		.cfi_def_cfa_register 7
 2369 0006 7860     		str	r0, [r7, #4]
 2370 0008 0B46     		mov	r3, r1
 2371 000a FB70     		strb	r3, [r7, #3]
 663:../libs/StdPeripheralDriver/src/stm32f10x_usart.c ****   /* Check the parameters */
 664:../libs/StdPeripheralDriver/src/stm32f10x_usart.c ****   assert_param(IS_USART_ALL_PERIPH(USARTx));
 2372              		.loc 1 664 0
 2373 000c 7A68     		ldr	r2, [r7, #4]
 2374 000e 184B     		ldr	r3, .L186
 2375 0010 9A42     		cmp	r2, r3
 2376 0012 0FD0     		beq	.L183
 2377              		.loc 1 664 0 is_stmt 0 discriminator 2
 2378 0014 7A68     		ldr	r2, [r7, #4]
 2379 0016 174B     		ldr	r3, .L186+4
 2380 0018 9A42     		cmp	r2, r3
 2381 001a 0BD0     		beq	.L183
 2382              		.loc 1 664 0 discriminator 1
 2383 001c 7A68     		ldr	r2, [r7, #4]
 2384 001e 164B     		ldr	r3, .L186+8
 2385 0020 9A42     		cmp	r2, r3
 2386 0022 07D0     		beq	.L183
 2387              		.loc 1 664 0 discriminator 2
 2388 0024 7A68     		ldr	r2, [r7, #4]
 2389 0026 154B     		ldr	r3, .L186+12
 2390 0028 9A42     		cmp	r2, r3
 2391 002a 03D0     		beq	.L183
 2392              		.loc 1 664 0 discriminator 3
 2393 002c 7A68     		ldr	r2, [r7, #4]
 2394 002e 144B     		ldr	r3, .L186+16
 2395 0030 9A42     		cmp	r2, r3
 2396 0032 02D1     		bne	.L184
 2397              	.L183:
 2398              		.loc 1 664 0 discriminator 1
 2399 0034 4FF00103 		mov	r3, #1
 2400 0038 01E0     		b	.L185
 2401              	.L184:
 2402              		.loc 1 664 0 discriminator 3
 2403 003a 4FF00003 		mov	r3, #0
 2404              	.L185:
 2405              		.loc 1 664 0 discriminator 4
 2406 003e 1846     		mov	r0, r3
 2407 0040 FFF7FEFF 		bl	assert_param
 665:../libs/StdPeripheralDriver/src/stm32f10x_usart.c ****   
 666:../libs/StdPeripheralDriver/src/stm32f10x_usart.c ****   /* Clear the USART prescaler */
 667:../libs/StdPeripheralDriver/src/stm32f10x_usart.c ****   USARTx->GTPR &= GTPR_MSB_Mask;
 2408              		.loc 1 667 0 is_stmt 1 discriminator 4
 2409 0044 7B68     		ldr	r3, [r7, #4]
 2410 0046 1B8B     		ldrh	r3, [r3, #24]	@ movhi
 2411 0048 9BB2     		uxth	r3, r3
 2412 004a 23F0FF03 		bic	r3, r3, #255
 2413 004e 9AB2     		uxth	r2, r3
 2414 0050 7B68     		ldr	r3, [r7, #4]
 2415 0052 1A83     		strh	r2, [r3, #24]	@ movhi
 668:../libs/StdPeripheralDriver/src/stm32f10x_usart.c ****   /* Set the USART prescaler */
 669:../libs/StdPeripheralDriver/src/stm32f10x_usart.c ****   USARTx->GTPR |= USART_Prescaler;
 2416              		.loc 1 669 0 discriminator 4
 2417 0054 7B68     		ldr	r3, [r7, #4]
 2418 0056 1B8B     		ldrh	r3, [r3, #24]	@ movhi
 2419 0058 9AB2     		uxth	r2, r3
 2420 005a FB78     		ldrb	r3, [r7, #3]	@ zero_extendqisi2
 2421 005c 9BB2     		uxth	r3, r3
 2422 005e 1343     		orrs	r3, r3, r2
 2423 0060 9AB2     		uxth	r2, r3
 2424 0062 7B68     		ldr	r3, [r7, #4]
 2425 0064 1A83     		strh	r2, [r3, #24]	@ movhi
 670:../libs/StdPeripheralDriver/src/stm32f10x_usart.c **** }
 2426              		.loc 1 670 0 discriminator 4
 2427 0066 07F10807 		add	r7, r7, #8
 2428 006a BD46     		mov	sp, r7
 2429 006c 80BD     		pop	{r7, pc}
 2430              	.L187:
 2431 006e 00BF     		.align	2
 2432              	.L186:
 2433 0070 00380140 		.word	1073821696
 2434 0074 00440040 		.word	1073759232
 2435 0078 00480040 		.word	1073760256
 2436 007c 004C0040 		.word	1073761280
 2437 0080 00500040 		.word	1073762304
 2438              		.cfi_endproc
 2439              	.LFE46:
 2441              		.section	.text.USART_SmartCardCmd,"ax",%progbits
 2442              		.align	2
 2443              		.global	USART_SmartCardCmd
 2444              		.thumb
 2445              		.thumb_func
 2447              	USART_SmartCardCmd:
 2448              	.LFB47:
 671:../libs/StdPeripheralDriver/src/stm32f10x_usart.c **** 
 672:../libs/StdPeripheralDriver/src/stm32f10x_usart.c **** /**
 673:../libs/StdPeripheralDriver/src/stm32f10x_usart.c ****   * @brief  Enables or disables the USARTs Smart Card mode.
 674:../libs/StdPeripheralDriver/src/stm32f10x_usart.c ****   * @param  USARTx: where x can be 1, 2 or 3 to select the USART peripheral.
 675:../libs/StdPeripheralDriver/src/stm32f10x_usart.c ****   * @param  NewState: new state of the Smart Card mode.
 676:../libs/StdPeripheralDriver/src/stm32f10x_usart.c ****   *   This parameter can be: ENABLE or DISABLE.     
 677:../libs/StdPeripheralDriver/src/stm32f10x_usart.c ****   * @note The Smart Card mode is not available for UART4 and UART5. 
 678:../libs/StdPeripheralDriver/src/stm32f10x_usart.c ****   * @retval None
 679:../libs/StdPeripheralDriver/src/stm32f10x_usart.c ****   */
 680:../libs/StdPeripheralDriver/src/stm32f10x_usart.c **** void USART_SmartCardCmd(USART_TypeDef* USARTx, FunctionalState NewState)
 681:../libs/StdPeripheralDriver/src/stm32f10x_usart.c **** {
 2449              		.loc 1 681 0
 2450              		.cfi_startproc
 2451              		@ args = 0, pretend = 0, frame = 8
 2452              		@ frame_needed = 1, uses_anonymous_args = 0
 2453 0000 80B5     		push	{r7, lr}
 2454              	.LCFI54:
 2455              		.cfi_def_cfa_offset 8
 2456              		.cfi_offset 7, -8
 2457              		.cfi_offset 14, -4
 2458 0002 82B0     		sub	sp, sp, #8
 2459              	.LCFI55:
 2460              		.cfi_def_cfa_offset 16
 2461 0004 00AF     		add	r7, sp, #0
 2462              	.LCFI56:
 2463              		.cfi_def_cfa_register 7
 2464 0006 7860     		str	r0, [r7, #4]
 2465 0008 0B46     		mov	r3, r1
 2466 000a FB70     		strb	r3, [r7, #3]
 682:../libs/StdPeripheralDriver/src/stm32f10x_usart.c ****   /* Check the parameters */
 683:../libs/StdPeripheralDriver/src/stm32f10x_usart.c ****   assert_param(IS_USART_123_PERIPH(USARTx));
 2467              		.loc 1 683 0
 2468 000c 7A68     		ldr	r2, [r7, #4]
 2469 000e 1C4B     		ldr	r3, .L197
 2470 0010 9A42     		cmp	r2, r3
 2471 0012 07D0     		beq	.L189
 2472              		.loc 1 683 0 is_stmt 0 discriminator 2
 2473 0014 7A68     		ldr	r2, [r7, #4]
 2474 0016 1B4B     		ldr	r3, .L197+4
 2475 0018 9A42     		cmp	r2, r3
 2476 001a 03D0     		beq	.L189
 2477              		.loc 1 683 0 discriminator 1
 2478 001c 7A68     		ldr	r2, [r7, #4]
 2479 001e 1A4B     		ldr	r3, .L197+8
 2480 0020 9A42     		cmp	r2, r3
 2481 0022 02D1     		bne	.L190
 2482              	.L189:
 2483 0024 4FF00103 		mov	r3, #1
 2484 0028 01E0     		b	.L191
 2485              	.L190:
 2486              		.loc 1 683 0 discriminator 3
 2487 002a 4FF00003 		mov	r3, #0
 2488              	.L191:
 2489              		.loc 1 683 0 discriminator 4
 2490 002e 1846     		mov	r0, r3
 2491 0030 FFF7FEFF 		bl	assert_param
 684:../libs/StdPeripheralDriver/src/stm32f10x_usart.c ****   assert_param(IS_FUNCTIONAL_STATE(NewState));
 2492              		.loc 1 684 0 is_stmt 1 discriminator 4
 2493 0034 FB78     		ldrb	r3, [r7, #3]	@ zero_extendqisi2
 2494 0036 002B     		cmp	r3, #0
 2495 0038 02D0     		beq	.L192
 2496              		.loc 1 684 0 is_stmt 0 discriminator 2
 2497 003a FB78     		ldrb	r3, [r7, #3]	@ zero_extendqisi2
 2498 003c 012B     		cmp	r3, #1
 2499 003e 02D1     		bne	.L193
 2500              	.L192:
 2501              		.loc 1 684 0 discriminator 1
 2502 0040 4FF00103 		mov	r3, #1
 2503 0044 01E0     		b	.L194
 2504              	.L193:
 2505              		.loc 1 684 0 discriminator 3
 2506 0046 4FF00003 		mov	r3, #0
 2507              	.L194:
 2508              		.loc 1 684 0 discriminator 4
 2509 004a 1846     		mov	r0, r3
 2510 004c FFF7FEFF 		bl	assert_param
 685:../libs/StdPeripheralDriver/src/stm32f10x_usart.c ****   if (NewState != DISABLE)
 2511              		.loc 1 685 0 is_stmt 1 discriminator 4
 2512 0050 FB78     		ldrb	r3, [r7, #3]	@ zero_extendqisi2
 2513 0052 002B     		cmp	r3, #0
 2514 0054 08D0     		beq	.L195
 686:../libs/StdPeripheralDriver/src/stm32f10x_usart.c ****   {
 687:../libs/StdPeripheralDriver/src/stm32f10x_usart.c ****     /* Enable the SC mode by setting the SCEN bit in the CR3 register */
 688:../libs/StdPeripheralDriver/src/stm32f10x_usart.c ****     USARTx->CR3 |= CR3_SCEN_Set;
 2515              		.loc 1 688 0
 2516 0056 7B68     		ldr	r3, [r7, #4]
 2517 0058 9B8A     		ldrh	r3, [r3, #20]	@ movhi
 2518 005a 9BB2     		uxth	r3, r3
 2519 005c 43F02003 		orr	r3, r3, #32
 2520 0060 9AB2     		uxth	r2, r3
 2521 0062 7B68     		ldr	r3, [r7, #4]
 2522 0064 9A82     		strh	r2, [r3, #20]	@ movhi
 2523 0066 07E0     		b	.L188
 2524              	.L195:
 689:../libs/StdPeripheralDriver/src/stm32f10x_usart.c ****   }
 690:../libs/StdPeripheralDriver/src/stm32f10x_usart.c ****   else
 691:../libs/StdPeripheralDriver/src/stm32f10x_usart.c ****   {
 692:../libs/StdPeripheralDriver/src/stm32f10x_usart.c ****     /* Disable the SC mode by clearing the SCEN bit in the CR3 register */
 693:../libs/StdPeripheralDriver/src/stm32f10x_usart.c ****     USARTx->CR3 &= CR3_SCEN_Reset;
 2525              		.loc 1 693 0
 2526 0068 7B68     		ldr	r3, [r7, #4]
 2527 006a 9B8A     		ldrh	r3, [r3, #20]	@ movhi
 2528 006c 9BB2     		uxth	r3, r3
 2529 006e 23F02003 		bic	r3, r3, #32
 2530 0072 9AB2     		uxth	r2, r3
 2531 0074 7B68     		ldr	r3, [r7, #4]
 2532 0076 9A82     		strh	r2, [r3, #20]	@ movhi
 2533              	.L188:
 694:../libs/StdPeripheralDriver/src/stm32f10x_usart.c ****   }
 695:../libs/StdPeripheralDriver/src/stm32f10x_usart.c **** }
 2534              		.loc 1 695 0
 2535 0078 07F10807 		add	r7, r7, #8
 2536 007c BD46     		mov	sp, r7
 2537 007e 80BD     		pop	{r7, pc}
 2538              	.L198:
 2539              		.align	2
 2540              	.L197:
 2541 0080 00380140 		.word	1073821696
 2542 0084 00440040 		.word	1073759232
 2543 0088 00480040 		.word	1073760256
 2544              		.cfi_endproc
 2545              	.LFE47:
 2547              		.section	.text.USART_SmartCardNACKCmd,"ax",%progbits
 2548              		.align	2
 2549              		.global	USART_SmartCardNACKCmd
 2550              		.thumb
 2551              		.thumb_func
 2553              	USART_SmartCardNACKCmd:
 2554              	.LFB48:
 696:../libs/StdPeripheralDriver/src/stm32f10x_usart.c **** 
 697:../libs/StdPeripheralDriver/src/stm32f10x_usart.c **** /**
 698:../libs/StdPeripheralDriver/src/stm32f10x_usart.c ****   * @brief  Enables or disables NACK transmission.
 699:../libs/StdPeripheralDriver/src/stm32f10x_usart.c ****   * @param  USARTx: where x can be 1, 2 or 3 to select the USART peripheral. 
 700:../libs/StdPeripheralDriver/src/stm32f10x_usart.c ****   * @param  NewState: new state of the NACK transmission.
 701:../libs/StdPeripheralDriver/src/stm32f10x_usart.c ****   *   This parameter can be: ENABLE or DISABLE.  
 702:../libs/StdPeripheralDriver/src/stm32f10x_usart.c ****   * @note The Smart Card mode is not available for UART4 and UART5.
 703:../libs/StdPeripheralDriver/src/stm32f10x_usart.c ****   * @retval None
 704:../libs/StdPeripheralDriver/src/stm32f10x_usart.c ****   */
 705:../libs/StdPeripheralDriver/src/stm32f10x_usart.c **** void USART_SmartCardNACKCmd(USART_TypeDef* USARTx, FunctionalState NewState)
 706:../libs/StdPeripheralDriver/src/stm32f10x_usart.c **** {
 2555              		.loc 1 706 0
 2556              		.cfi_startproc
 2557              		@ args = 0, pretend = 0, frame = 8
 2558              		@ frame_needed = 1, uses_anonymous_args = 0
 2559 0000 80B5     		push	{r7, lr}
 2560              	.LCFI57:
 2561              		.cfi_def_cfa_offset 8
 2562              		.cfi_offset 7, -8
 2563              		.cfi_offset 14, -4
 2564 0002 82B0     		sub	sp, sp, #8
 2565              	.LCFI58:
 2566              		.cfi_def_cfa_offset 16
 2567 0004 00AF     		add	r7, sp, #0
 2568              	.LCFI59:
 2569              		.cfi_def_cfa_register 7
 2570 0006 7860     		str	r0, [r7, #4]
 2571 0008 0B46     		mov	r3, r1
 2572 000a FB70     		strb	r3, [r7, #3]
 707:../libs/StdPeripheralDriver/src/stm32f10x_usart.c ****   /* Check the parameters */
 708:../libs/StdPeripheralDriver/src/stm32f10x_usart.c ****   assert_param(IS_USART_123_PERIPH(USARTx));  
 2573              		.loc 1 708 0
 2574 000c 7A68     		ldr	r2, [r7, #4]
 2575 000e 1C4B     		ldr	r3, .L208
 2576 0010 9A42     		cmp	r2, r3
 2577 0012 07D0     		beq	.L200
 2578              		.loc 1 708 0 is_stmt 0 discriminator 2
 2579 0014 7A68     		ldr	r2, [r7, #4]
 2580 0016 1B4B     		ldr	r3, .L208+4
 2581 0018 9A42     		cmp	r2, r3
 2582 001a 03D0     		beq	.L200
 2583              		.loc 1 708 0 discriminator 1
 2584 001c 7A68     		ldr	r2, [r7, #4]
 2585 001e 1A4B     		ldr	r3, .L208+8
 2586 0020 9A42     		cmp	r2, r3
 2587 0022 02D1     		bne	.L201
 2588              	.L200:
 2589 0024 4FF00103 		mov	r3, #1
 2590 0028 01E0     		b	.L202
 2591              	.L201:
 2592              		.loc 1 708 0 discriminator 3
 2593 002a 4FF00003 		mov	r3, #0
 2594              	.L202:
 2595              		.loc 1 708 0 discriminator 4
 2596 002e 1846     		mov	r0, r3
 2597 0030 FFF7FEFF 		bl	assert_param
 709:../libs/StdPeripheralDriver/src/stm32f10x_usart.c ****   assert_param(IS_FUNCTIONAL_STATE(NewState));
 2598              		.loc 1 709 0 is_stmt 1 discriminator 4
 2599 0034 FB78     		ldrb	r3, [r7, #3]	@ zero_extendqisi2
 2600 0036 002B     		cmp	r3, #0
 2601 0038 02D0     		beq	.L203
 2602              		.loc 1 709 0 is_stmt 0 discriminator 2
 2603 003a FB78     		ldrb	r3, [r7, #3]	@ zero_extendqisi2
 2604 003c 012B     		cmp	r3, #1
 2605 003e 02D1     		bne	.L204
 2606              	.L203:
 2607              		.loc 1 709 0 discriminator 1
 2608 0040 4FF00103 		mov	r3, #1
 2609 0044 01E0     		b	.L205
 2610              	.L204:
 2611              		.loc 1 709 0 discriminator 3
 2612 0046 4FF00003 		mov	r3, #0
 2613              	.L205:
 2614              		.loc 1 709 0 discriminator 4
 2615 004a 1846     		mov	r0, r3
 2616 004c FFF7FEFF 		bl	assert_param
 710:../libs/StdPeripheralDriver/src/stm32f10x_usart.c ****   if (NewState != DISABLE)
 2617              		.loc 1 710 0 is_stmt 1 discriminator 4
 2618 0050 FB78     		ldrb	r3, [r7, #3]	@ zero_extendqisi2
 2619 0052 002B     		cmp	r3, #0
 2620 0054 08D0     		beq	.L206
 711:../libs/StdPeripheralDriver/src/stm32f10x_usart.c ****   {
 712:../libs/StdPeripheralDriver/src/stm32f10x_usart.c ****     /* Enable the NACK transmission by setting the NACK bit in the CR3 register */
 713:../libs/StdPeripheralDriver/src/stm32f10x_usart.c ****     USARTx->CR3 |= CR3_NACK_Set;
 2621              		.loc 1 713 0
 2622 0056 7B68     		ldr	r3, [r7, #4]
 2623 0058 9B8A     		ldrh	r3, [r3, #20]	@ movhi
 2624 005a 9BB2     		uxth	r3, r3
 2625 005c 43F01003 		orr	r3, r3, #16
 2626 0060 9AB2     		uxth	r2, r3
 2627 0062 7B68     		ldr	r3, [r7, #4]
 2628 0064 9A82     		strh	r2, [r3, #20]	@ movhi
 2629 0066 07E0     		b	.L199
 2630              	.L206:
 714:../libs/StdPeripheralDriver/src/stm32f10x_usart.c ****   }
 715:../libs/StdPeripheralDriver/src/stm32f10x_usart.c ****   else
 716:../libs/StdPeripheralDriver/src/stm32f10x_usart.c ****   {
 717:../libs/StdPeripheralDriver/src/stm32f10x_usart.c ****     /* Disable the NACK transmission by clearing the NACK bit in the CR3 register */
 718:../libs/StdPeripheralDriver/src/stm32f10x_usart.c ****     USARTx->CR3 &= CR3_NACK_Reset;
 2631              		.loc 1 718 0
 2632 0068 7B68     		ldr	r3, [r7, #4]
 2633 006a 9B8A     		ldrh	r3, [r3, #20]	@ movhi
 2634 006c 9BB2     		uxth	r3, r3
 2635 006e 23F01003 		bic	r3, r3, #16
 2636 0072 9AB2     		uxth	r2, r3
 2637 0074 7B68     		ldr	r3, [r7, #4]
 2638 0076 9A82     		strh	r2, [r3, #20]	@ movhi
 2639              	.L199:
 719:../libs/StdPeripheralDriver/src/stm32f10x_usart.c ****   }
 720:../libs/StdPeripheralDriver/src/stm32f10x_usart.c **** }
 2640              		.loc 1 720 0
 2641 0078 07F10807 		add	r7, r7, #8
 2642 007c BD46     		mov	sp, r7
 2643 007e 80BD     		pop	{r7, pc}
 2644              	.L209:
 2645              		.align	2
 2646              	.L208:
 2647 0080 00380140 		.word	1073821696
 2648 0084 00440040 		.word	1073759232
 2649 0088 00480040 		.word	1073760256
 2650              		.cfi_endproc
 2651              	.LFE48:
 2653              		.section	.text.USART_HalfDuplexCmd,"ax",%progbits
 2654              		.align	2
 2655              		.global	USART_HalfDuplexCmd
 2656              		.thumb
 2657              		.thumb_func
 2659              	USART_HalfDuplexCmd:
 2660              	.LFB49:
 721:../libs/StdPeripheralDriver/src/stm32f10x_usart.c **** 
 722:../libs/StdPeripheralDriver/src/stm32f10x_usart.c **** /**
 723:../libs/StdPeripheralDriver/src/stm32f10x_usart.c ****   * @brief  Enables or disables the USARTs Half Duplex communication.
 724:../libs/StdPeripheralDriver/src/stm32f10x_usart.c ****   * @param  USARTx: Select the USART or the UART peripheral. 
 725:../libs/StdPeripheralDriver/src/stm32f10x_usart.c ****   *   This parameter can be one of the following values:
 726:../libs/StdPeripheralDriver/src/stm32f10x_usart.c ****   *   USART1, USART2, USART3, UART4 or UART5.
 727:../libs/StdPeripheralDriver/src/stm32f10x_usart.c ****   * @param  NewState: new state of the USART Communication.
 728:../libs/StdPeripheralDriver/src/stm32f10x_usart.c ****   *   This parameter can be: ENABLE or DISABLE.
 729:../libs/StdPeripheralDriver/src/stm32f10x_usart.c ****   * @retval None
 730:../libs/StdPeripheralDriver/src/stm32f10x_usart.c ****   */
 731:../libs/StdPeripheralDriver/src/stm32f10x_usart.c **** void USART_HalfDuplexCmd(USART_TypeDef* USARTx, FunctionalState NewState)
 732:../libs/StdPeripheralDriver/src/stm32f10x_usart.c **** {
 2661              		.loc 1 732 0
 2662              		.cfi_startproc
 2663              		@ args = 0, pretend = 0, frame = 8
 2664              		@ frame_needed = 1, uses_anonymous_args = 0
 2665 0000 80B5     		push	{r7, lr}
 2666              	.LCFI60:
 2667              		.cfi_def_cfa_offset 8
 2668              		.cfi_offset 7, -8
 2669              		.cfi_offset 14, -4
 2670 0002 82B0     		sub	sp, sp, #8
 2671              	.LCFI61:
 2672              		.cfi_def_cfa_offset 16
 2673 0004 00AF     		add	r7, sp, #0
 2674              	.LCFI62:
 2675              		.cfi_def_cfa_register 7
 2676 0006 7860     		str	r0, [r7, #4]
 2677 0008 0B46     		mov	r3, r1
 2678 000a FB70     		strb	r3, [r7, #3]
 733:../libs/StdPeripheralDriver/src/stm32f10x_usart.c ****   /* Check the parameters */
 734:../libs/StdPeripheralDriver/src/stm32f10x_usart.c ****   assert_param(IS_USART_ALL_PERIPH(USARTx));
 2679              		.loc 1 734 0
 2680 000c 7A68     		ldr	r2, [r7, #4]
 2681 000e 204B     		ldr	r3, .L219
 2682 0010 9A42     		cmp	r2, r3
 2683 0012 0FD0     		beq	.L211
 2684              		.loc 1 734 0 is_stmt 0 discriminator 2
 2685 0014 7A68     		ldr	r2, [r7, #4]
 2686 0016 1F4B     		ldr	r3, .L219+4
 2687 0018 9A42     		cmp	r2, r3
 2688 001a 0BD0     		beq	.L211
 2689              		.loc 1 734 0 discriminator 1
 2690 001c 7A68     		ldr	r2, [r7, #4]
 2691 001e 1E4B     		ldr	r3, .L219+8
 2692 0020 9A42     		cmp	r2, r3
 2693 0022 07D0     		beq	.L211
 2694              		.loc 1 734 0 discriminator 2
 2695 0024 7A68     		ldr	r2, [r7, #4]
 2696 0026 1D4B     		ldr	r3, .L219+12
 2697 0028 9A42     		cmp	r2, r3
 2698 002a 03D0     		beq	.L211
 2699              		.loc 1 734 0 discriminator 3
 2700 002c 7A68     		ldr	r2, [r7, #4]
 2701 002e 1C4B     		ldr	r3, .L219+16
 2702 0030 9A42     		cmp	r2, r3
 2703 0032 02D1     		bne	.L212
 2704              	.L211:
 2705              		.loc 1 734 0 discriminator 1
 2706 0034 4FF00103 		mov	r3, #1
 2707 0038 01E0     		b	.L213
 2708              	.L212:
 2709              		.loc 1 734 0 discriminator 3
 2710 003a 4FF00003 		mov	r3, #0
 2711              	.L213:
 2712              		.loc 1 734 0 discriminator 4
 2713 003e 1846     		mov	r0, r3
 2714 0040 FFF7FEFF 		bl	assert_param
 735:../libs/StdPeripheralDriver/src/stm32f10x_usart.c ****   assert_param(IS_FUNCTIONAL_STATE(NewState));
 2715              		.loc 1 735 0 is_stmt 1 discriminator 4
 2716 0044 FB78     		ldrb	r3, [r7, #3]	@ zero_extendqisi2
 2717 0046 002B     		cmp	r3, #0
 2718 0048 02D0     		beq	.L214
 2719              		.loc 1 735 0 is_stmt 0 discriminator 2
 2720 004a FB78     		ldrb	r3, [r7, #3]	@ zero_extendqisi2
 2721 004c 012B     		cmp	r3, #1
 2722 004e 02D1     		bne	.L215
 2723              	.L214:
 2724              		.loc 1 735 0 discriminator 1
 2725 0050 4FF00103 		mov	r3, #1
 2726 0054 01E0     		b	.L216
 2727              	.L215:
 2728              		.loc 1 735 0 discriminator 3
 2729 0056 4FF00003 		mov	r3, #0
 2730              	.L216:
 2731              		.loc 1 735 0 discriminator 4
 2732 005a 1846     		mov	r0, r3
 2733 005c FFF7FEFF 		bl	assert_param
 736:../libs/StdPeripheralDriver/src/stm32f10x_usart.c ****   
 737:../libs/StdPeripheralDriver/src/stm32f10x_usart.c ****   if (NewState != DISABLE)
 2734              		.loc 1 737 0 is_stmt 1 discriminator 4
 2735 0060 FB78     		ldrb	r3, [r7, #3]	@ zero_extendqisi2
 2736 0062 002B     		cmp	r3, #0
 2737 0064 08D0     		beq	.L217
 738:../libs/StdPeripheralDriver/src/stm32f10x_usart.c ****   {
 739:../libs/StdPeripheralDriver/src/stm32f10x_usart.c ****     /* Enable the Half-Duplex mode by setting the HDSEL bit in the CR3 register */
 740:../libs/StdPeripheralDriver/src/stm32f10x_usart.c ****     USARTx->CR3 |= CR3_HDSEL_Set;
 2738              		.loc 1 740 0
 2739 0066 7B68     		ldr	r3, [r7, #4]
 2740 0068 9B8A     		ldrh	r3, [r3, #20]	@ movhi
 2741 006a 9BB2     		uxth	r3, r3
 2742 006c 43F00803 		orr	r3, r3, #8
 2743 0070 9AB2     		uxth	r2, r3
 2744 0072 7B68     		ldr	r3, [r7, #4]
 2745 0074 9A82     		strh	r2, [r3, #20]	@ movhi
 2746 0076 07E0     		b	.L210
 2747              	.L217:
 741:../libs/StdPeripheralDriver/src/stm32f10x_usart.c ****   }
 742:../libs/StdPeripheralDriver/src/stm32f10x_usart.c ****   else
 743:../libs/StdPeripheralDriver/src/stm32f10x_usart.c ****   {
 744:../libs/StdPeripheralDriver/src/stm32f10x_usart.c ****     /* Disable the Half-Duplex mode by clearing the HDSEL bit in the CR3 register */
 745:../libs/StdPeripheralDriver/src/stm32f10x_usart.c ****     USARTx->CR3 &= CR3_HDSEL_Reset;
 2748              		.loc 1 745 0
 2749 0078 7B68     		ldr	r3, [r7, #4]
 2750 007a 9B8A     		ldrh	r3, [r3, #20]	@ movhi
 2751 007c 9BB2     		uxth	r3, r3
 2752 007e 23F00803 		bic	r3, r3, #8
 2753 0082 9AB2     		uxth	r2, r3
 2754 0084 7B68     		ldr	r3, [r7, #4]
 2755 0086 9A82     		strh	r2, [r3, #20]	@ movhi
 2756              	.L210:
 746:../libs/StdPeripheralDriver/src/stm32f10x_usart.c ****   }
 747:../libs/StdPeripheralDriver/src/stm32f10x_usart.c **** }
 2757              		.loc 1 747 0
 2758 0088 07F10807 		add	r7, r7, #8
 2759 008c BD46     		mov	sp, r7
 2760 008e 80BD     		pop	{r7, pc}
 2761              	.L220:
 2762              		.align	2
 2763              	.L219:
 2764 0090 00380140 		.word	1073821696
 2765 0094 00440040 		.word	1073759232
 2766 0098 00480040 		.word	1073760256
 2767 009c 004C0040 		.word	1073761280
 2768 00a0 00500040 		.word	1073762304
 2769              		.cfi_endproc
 2770              	.LFE49:
 2772              		.section	.text.USART_OverSampling8Cmd,"ax",%progbits
 2773              		.align	2
 2774              		.global	USART_OverSampling8Cmd
 2775              		.thumb
 2776              		.thumb_func
 2778              	USART_OverSampling8Cmd:
 2779              	.LFB50:
 748:../libs/StdPeripheralDriver/src/stm32f10x_usart.c **** 
 749:../libs/StdPeripheralDriver/src/stm32f10x_usart.c **** 
 750:../libs/StdPeripheralDriver/src/stm32f10x_usart.c **** /**
 751:../libs/StdPeripheralDriver/src/stm32f10x_usart.c ****   * @brief  Enables or disables the USART's 8x oversampling mode.
 752:../libs/StdPeripheralDriver/src/stm32f10x_usart.c ****   * @param  USARTx: Select the USART or the UART peripheral.
 753:../libs/StdPeripheralDriver/src/stm32f10x_usart.c ****   *   This parameter can be one of the following values:
 754:../libs/StdPeripheralDriver/src/stm32f10x_usart.c ****   *   USART1, USART2, USART3, UART4 or UART5.
 755:../libs/StdPeripheralDriver/src/stm32f10x_usart.c ****   * @param  NewState: new state of the USART one bit sampling method.
 756:../libs/StdPeripheralDriver/src/stm32f10x_usart.c ****   *   This parameter can be: ENABLE or DISABLE.
 757:../libs/StdPeripheralDriver/src/stm32f10x_usart.c ****   * @note
 758:../libs/StdPeripheralDriver/src/stm32f10x_usart.c ****   *     This function has to be called before calling USART_Init()
 759:../libs/StdPeripheralDriver/src/stm32f10x_usart.c ****   *     function in order to have correct baudrate Divider value.   
 760:../libs/StdPeripheralDriver/src/stm32f10x_usart.c ****   * @retval None
 761:../libs/StdPeripheralDriver/src/stm32f10x_usart.c ****   */
 762:../libs/StdPeripheralDriver/src/stm32f10x_usart.c **** void USART_OverSampling8Cmd(USART_TypeDef* USARTx, FunctionalState NewState)
 763:../libs/StdPeripheralDriver/src/stm32f10x_usart.c **** {
 2780              		.loc 1 763 0
 2781              		.cfi_startproc
 2782              		@ args = 0, pretend = 0, frame = 8
 2783              		@ frame_needed = 1, uses_anonymous_args = 0
 2784 0000 80B5     		push	{r7, lr}
 2785              	.LCFI63:
 2786              		.cfi_def_cfa_offset 8
 2787              		.cfi_offset 7, -8
 2788              		.cfi_offset 14, -4
 2789 0002 82B0     		sub	sp, sp, #8
 2790              	.LCFI64:
 2791              		.cfi_def_cfa_offset 16
 2792 0004 00AF     		add	r7, sp, #0
 2793              	.LCFI65:
 2794              		.cfi_def_cfa_register 7
 2795 0006 7860     		str	r0, [r7, #4]
 2796 0008 0B46     		mov	r3, r1
 2797 000a FB70     		strb	r3, [r7, #3]
 764:../libs/StdPeripheralDriver/src/stm32f10x_usart.c ****   /* Check the parameters */
 765:../libs/StdPeripheralDriver/src/stm32f10x_usart.c ****   assert_param(IS_USART_ALL_PERIPH(USARTx));
 2798              		.loc 1 765 0
 2799 000c 7A68     		ldr	r2, [r7, #4]
 2800 000e 224B     		ldr	r3, .L230
 2801 0010 9A42     		cmp	r2, r3
 2802 0012 0FD0     		beq	.L222
 2803              		.loc 1 765 0 is_stmt 0 discriminator 2
 2804 0014 7A68     		ldr	r2, [r7, #4]
 2805 0016 214B     		ldr	r3, .L230+4
 2806 0018 9A42     		cmp	r2, r3
 2807 001a 0BD0     		beq	.L222
 2808              		.loc 1 765 0 discriminator 1
 2809 001c 7A68     		ldr	r2, [r7, #4]
 2810 001e 204B     		ldr	r3, .L230+8
 2811 0020 9A42     		cmp	r2, r3
 2812 0022 07D0     		beq	.L222
 2813              		.loc 1 765 0 discriminator 2
 2814 0024 7A68     		ldr	r2, [r7, #4]
 2815 0026 1F4B     		ldr	r3, .L230+12
 2816 0028 9A42     		cmp	r2, r3
 2817 002a 03D0     		beq	.L222
 2818              		.loc 1 765 0 discriminator 3
 2819 002c 7A68     		ldr	r2, [r7, #4]
 2820 002e 1E4B     		ldr	r3, .L230+16
 2821 0030 9A42     		cmp	r2, r3
 2822 0032 02D1     		bne	.L223
 2823              	.L222:
 2824              		.loc 1 765 0 discriminator 1
 2825 0034 4FF00103 		mov	r3, #1
 2826 0038 01E0     		b	.L224
 2827              	.L223:
 2828              		.loc 1 765 0 discriminator 3
 2829 003a 4FF00003 		mov	r3, #0
 2830              	.L224:
 2831              		.loc 1 765 0 discriminator 4
 2832 003e 1846     		mov	r0, r3
 2833 0040 FFF7FEFF 		bl	assert_param
 766:../libs/StdPeripheralDriver/src/stm32f10x_usart.c ****   assert_param(IS_FUNCTIONAL_STATE(NewState));
 2834              		.loc 1 766 0 is_stmt 1 discriminator 4
 2835 0044 FB78     		ldrb	r3, [r7, #3]	@ zero_extendqisi2
 2836 0046 002B     		cmp	r3, #0
 2837 0048 02D0     		beq	.L225
 2838              		.loc 1 766 0 is_stmt 0 discriminator 2
 2839 004a FB78     		ldrb	r3, [r7, #3]	@ zero_extendqisi2
 2840 004c 012B     		cmp	r3, #1
 2841 004e 02D1     		bne	.L226
 2842              	.L225:
 2843              		.loc 1 766 0 discriminator 1
 2844 0050 4FF00103 		mov	r3, #1
 2845 0054 01E0     		b	.L227
 2846              	.L226:
 2847              		.loc 1 766 0 discriminator 3
 2848 0056 4FF00003 		mov	r3, #0
 2849              	.L227:
 2850              		.loc 1 766 0 discriminator 4
 2851 005a 1846     		mov	r0, r3
 2852 005c FFF7FEFF 		bl	assert_param
 767:../libs/StdPeripheralDriver/src/stm32f10x_usart.c ****   
 768:../libs/StdPeripheralDriver/src/stm32f10x_usart.c ****   if (NewState != DISABLE)
 2853              		.loc 1 768 0 is_stmt 1 discriminator 4
 2854 0060 FB78     		ldrb	r3, [r7, #3]	@ zero_extendqisi2
 2855 0062 002B     		cmp	r3, #0
 2856 0064 0AD0     		beq	.L228
 769:../libs/StdPeripheralDriver/src/stm32f10x_usart.c ****   {
 770:../libs/StdPeripheralDriver/src/stm32f10x_usart.c ****     /* Enable the 8x Oversampling mode by setting the OVER8 bit in the CR1 register */
 771:../libs/StdPeripheralDriver/src/stm32f10x_usart.c ****     USARTx->CR1 |= CR1_OVER8_Set;
 2857              		.loc 1 771 0
 2858 0066 7B68     		ldr	r3, [r7, #4]
 2859 0068 9B89     		ldrh	r3, [r3, #12]	@ movhi
 2860 006a 9BB2     		uxth	r3, r3
 2861 006c 6FEA4343 		mvn	r3, r3, lsl #17
 2862 0070 6FEA5343 		mvn	r3, r3, lsr #17
 2863 0074 9AB2     		uxth	r2, r3
 2864 0076 7B68     		ldr	r3, [r7, #4]
 2865 0078 9A81     		strh	r2, [r3, #12]	@ movhi
 2866 007a 09E0     		b	.L221
 2867              	.L228:
 772:../libs/StdPeripheralDriver/src/stm32f10x_usart.c ****   }
 773:../libs/StdPeripheralDriver/src/stm32f10x_usart.c ****   else
 774:../libs/StdPeripheralDriver/src/stm32f10x_usart.c ****   {
 775:../libs/StdPeripheralDriver/src/stm32f10x_usart.c ****     /* Disable the 8x Oversampling mode by clearing the OVER8 bit in the CR1 register */
 776:../libs/StdPeripheralDriver/src/stm32f10x_usart.c ****     USARTx->CR1 &= CR1_OVER8_Reset;
 2868              		.loc 1 776 0
 2869 007c 7B68     		ldr	r3, [r7, #4]
 2870 007e 9B89     		ldrh	r3, [r3, #12]	@ movhi
 2871 0080 9BB2     		uxth	r3, r3
 2872 0082 4FEA4343 		lsl	r3, r3, #17
 2873 0086 4FEA5343 		lsr	r3, r3, #17
 2874 008a 9AB2     		uxth	r2, r3
 2875 008c 7B68     		ldr	r3, [r7, #4]
 2876 008e 9A81     		strh	r2, [r3, #12]	@ movhi
 2877              	.L221:
 777:../libs/StdPeripheralDriver/src/stm32f10x_usart.c ****   }
 778:../libs/StdPeripheralDriver/src/stm32f10x_usart.c **** }
 2878              		.loc 1 778 0
 2879 0090 07F10807 		add	r7, r7, #8
 2880 0094 BD46     		mov	sp, r7
 2881 0096 80BD     		pop	{r7, pc}
 2882              	.L231:
 2883              		.align	2
 2884              	.L230:
 2885 0098 00380140 		.word	1073821696
 2886 009c 00440040 		.word	1073759232
 2887 00a0 00480040 		.word	1073760256
 2888 00a4 004C0040 		.word	1073761280
 2889 00a8 00500040 		.word	1073762304
 2890              		.cfi_endproc
 2891              	.LFE50:
 2893              		.section	.text.USART_OneBitMethodCmd,"ax",%progbits
 2894              		.align	2
 2895              		.global	USART_OneBitMethodCmd
 2896              		.thumb
 2897              		.thumb_func
 2899              	USART_OneBitMethodCmd:
 2900              	.LFB51:
 779:../libs/StdPeripheralDriver/src/stm32f10x_usart.c **** 
 780:../libs/StdPeripheralDriver/src/stm32f10x_usart.c **** /**
 781:../libs/StdPeripheralDriver/src/stm32f10x_usart.c ****   * @brief  Enables or disables the USART's one bit sampling method.
 782:../libs/StdPeripheralDriver/src/stm32f10x_usart.c ****   * @param  USARTx: Select the USART or the UART peripheral.
 783:../libs/StdPeripheralDriver/src/stm32f10x_usart.c ****   *   This parameter can be one of the following values:
 784:../libs/StdPeripheralDriver/src/stm32f10x_usart.c ****   *   USART1, USART2, USART3, UART4 or UART5.
 785:../libs/StdPeripheralDriver/src/stm32f10x_usart.c ****   * @param  NewState: new state of the USART one bit sampling method.
 786:../libs/StdPeripheralDriver/src/stm32f10x_usart.c ****   *   This parameter can be: ENABLE or DISABLE.
 787:../libs/StdPeripheralDriver/src/stm32f10x_usart.c ****   * @retval None
 788:../libs/StdPeripheralDriver/src/stm32f10x_usart.c ****   */
 789:../libs/StdPeripheralDriver/src/stm32f10x_usart.c **** void USART_OneBitMethodCmd(USART_TypeDef* USARTx, FunctionalState NewState)
 790:../libs/StdPeripheralDriver/src/stm32f10x_usart.c **** {
 2901              		.loc 1 790 0
 2902              		.cfi_startproc
 2903              		@ args = 0, pretend = 0, frame = 8
 2904              		@ frame_needed = 1, uses_anonymous_args = 0
 2905 0000 80B5     		push	{r7, lr}
 2906              	.LCFI66:
 2907              		.cfi_def_cfa_offset 8
 2908              		.cfi_offset 7, -8
 2909              		.cfi_offset 14, -4
 2910 0002 82B0     		sub	sp, sp, #8
 2911              	.LCFI67:
 2912              		.cfi_def_cfa_offset 16
 2913 0004 00AF     		add	r7, sp, #0
 2914              	.LCFI68:
 2915              		.cfi_def_cfa_register 7
 2916 0006 7860     		str	r0, [r7, #4]
 2917 0008 0B46     		mov	r3, r1
 2918 000a FB70     		strb	r3, [r7, #3]
 791:../libs/StdPeripheralDriver/src/stm32f10x_usart.c ****   /* Check the parameters */
 792:../libs/StdPeripheralDriver/src/stm32f10x_usart.c ****   assert_param(IS_USART_ALL_PERIPH(USARTx));
 2919              		.loc 1 792 0
 2920 000c 7A68     		ldr	r2, [r7, #4]
 2921 000e 204B     		ldr	r3, .L241
 2922 0010 9A42     		cmp	r2, r3
 2923 0012 0FD0     		beq	.L233
 2924              		.loc 1 792 0 is_stmt 0 discriminator 2
 2925 0014 7A68     		ldr	r2, [r7, #4]
 2926 0016 1F4B     		ldr	r3, .L241+4
 2927 0018 9A42     		cmp	r2, r3
 2928 001a 0BD0     		beq	.L233
 2929              		.loc 1 792 0 discriminator 1
 2930 001c 7A68     		ldr	r2, [r7, #4]
 2931 001e 1E4B     		ldr	r3, .L241+8
 2932 0020 9A42     		cmp	r2, r3
 2933 0022 07D0     		beq	.L233
 2934              		.loc 1 792 0 discriminator 2
 2935 0024 7A68     		ldr	r2, [r7, #4]
 2936 0026 1D4B     		ldr	r3, .L241+12
 2937 0028 9A42     		cmp	r2, r3
 2938 002a 03D0     		beq	.L233
 2939              		.loc 1 792 0 discriminator 3
 2940 002c 7A68     		ldr	r2, [r7, #4]
 2941 002e 1C4B     		ldr	r3, .L241+16
 2942 0030 9A42     		cmp	r2, r3
 2943 0032 02D1     		bne	.L234
 2944              	.L233:
 2945              		.loc 1 792 0 discriminator 1
 2946 0034 4FF00103 		mov	r3, #1
 2947 0038 01E0     		b	.L235
 2948              	.L234:
 2949              		.loc 1 792 0 discriminator 3
 2950 003a 4FF00003 		mov	r3, #0
 2951              	.L235:
 2952              		.loc 1 792 0 discriminator 4
 2953 003e 1846     		mov	r0, r3
 2954 0040 FFF7FEFF 		bl	assert_param
 793:../libs/StdPeripheralDriver/src/stm32f10x_usart.c ****   assert_param(IS_FUNCTIONAL_STATE(NewState));
 2955              		.loc 1 793 0 is_stmt 1 discriminator 4
 2956 0044 FB78     		ldrb	r3, [r7, #3]	@ zero_extendqisi2
 2957 0046 002B     		cmp	r3, #0
 2958 0048 02D0     		beq	.L236
 2959              		.loc 1 793 0 is_stmt 0 discriminator 2
 2960 004a FB78     		ldrb	r3, [r7, #3]	@ zero_extendqisi2
 2961 004c 012B     		cmp	r3, #1
 2962 004e 02D1     		bne	.L237
 2963              	.L236:
 2964              		.loc 1 793 0 discriminator 1
 2965 0050 4FF00103 		mov	r3, #1
 2966 0054 01E0     		b	.L238
 2967              	.L237:
 2968              		.loc 1 793 0 discriminator 3
 2969 0056 4FF00003 		mov	r3, #0
 2970              	.L238:
 2971              		.loc 1 793 0 discriminator 4
 2972 005a 1846     		mov	r0, r3
 2973 005c FFF7FEFF 		bl	assert_param
 794:../libs/StdPeripheralDriver/src/stm32f10x_usart.c ****   
 795:../libs/StdPeripheralDriver/src/stm32f10x_usart.c ****   if (NewState != DISABLE)
 2974              		.loc 1 795 0 is_stmt 1 discriminator 4
 2975 0060 FB78     		ldrb	r3, [r7, #3]	@ zero_extendqisi2
 2976 0062 002B     		cmp	r3, #0
 2977 0064 08D0     		beq	.L239
 796:../libs/StdPeripheralDriver/src/stm32f10x_usart.c ****   {
 797:../libs/StdPeripheralDriver/src/stm32f10x_usart.c ****     /* Enable the one bit method by setting the ONEBITE bit in the CR3 register */
 798:../libs/StdPeripheralDriver/src/stm32f10x_usart.c ****     USARTx->CR3 |= CR3_ONEBITE_Set;
 2978              		.loc 1 798 0
 2979 0066 7B68     		ldr	r3, [r7, #4]
 2980 0068 9B8A     		ldrh	r3, [r3, #20]	@ movhi
 2981 006a 9BB2     		uxth	r3, r3
 2982 006c 43F40063 		orr	r3, r3, #2048
 2983 0070 9AB2     		uxth	r2, r3
 2984 0072 7B68     		ldr	r3, [r7, #4]
 2985 0074 9A82     		strh	r2, [r3, #20]	@ movhi
 2986 0076 07E0     		b	.L232
 2987              	.L239:
 799:../libs/StdPeripheralDriver/src/stm32f10x_usart.c ****   }
 800:../libs/StdPeripheralDriver/src/stm32f10x_usart.c ****   else
 801:../libs/StdPeripheralDriver/src/stm32f10x_usart.c ****   {
 802:../libs/StdPeripheralDriver/src/stm32f10x_usart.c ****     /* Disable tthe one bit method by clearing the ONEBITE bit in the CR3 register */
 803:../libs/StdPeripheralDriver/src/stm32f10x_usart.c ****     USARTx->CR3 &= CR3_ONEBITE_Reset;
 2988              		.loc 1 803 0
 2989 0078 7B68     		ldr	r3, [r7, #4]
 2990 007a 9B8A     		ldrh	r3, [r3, #20]	@ movhi
 2991 007c 9BB2     		uxth	r3, r3
 2992 007e 23F40063 		bic	r3, r3, #2048
 2993 0082 9AB2     		uxth	r2, r3
 2994 0084 7B68     		ldr	r3, [r7, #4]
 2995 0086 9A82     		strh	r2, [r3, #20]	@ movhi
 2996              	.L232:
 804:../libs/StdPeripheralDriver/src/stm32f10x_usart.c ****   }
 805:../libs/StdPeripheralDriver/src/stm32f10x_usart.c **** }
 2997              		.loc 1 805 0
 2998 0088 07F10807 		add	r7, r7, #8
 2999 008c BD46     		mov	sp, r7
 3000 008e 80BD     		pop	{r7, pc}
 3001              	.L242:
 3002              		.align	2
 3003              	.L241:
 3004 0090 00380140 		.word	1073821696
 3005 0094 00440040 		.word	1073759232
 3006 0098 00480040 		.word	1073760256
 3007 009c 004C0040 		.word	1073761280
 3008 00a0 00500040 		.word	1073762304
 3009              		.cfi_endproc
 3010              	.LFE51:
 3012              		.section	.text.USART_IrDAConfig,"ax",%progbits
 3013              		.align	2
 3014              		.global	USART_IrDAConfig
 3015              		.thumb
 3016              		.thumb_func
 3018              	USART_IrDAConfig:
 3019              	.LFB52:
 806:../libs/StdPeripheralDriver/src/stm32f10x_usart.c **** 
 807:../libs/StdPeripheralDriver/src/stm32f10x_usart.c **** /**
 808:../libs/StdPeripheralDriver/src/stm32f10x_usart.c ****   * @brief  Configures the USART's IrDA interface.
 809:../libs/StdPeripheralDriver/src/stm32f10x_usart.c ****   * @param  USARTx: Select the USART or the UART peripheral. 
 810:../libs/StdPeripheralDriver/src/stm32f10x_usart.c ****   *   This parameter can be one of the following values:
 811:../libs/StdPeripheralDriver/src/stm32f10x_usart.c ****   *   USART1, USART2, USART3, UART4 or UART5.
 812:../libs/StdPeripheralDriver/src/stm32f10x_usart.c ****   * @param  USART_IrDAMode: specifies the IrDA mode.
 813:../libs/StdPeripheralDriver/src/stm32f10x_usart.c ****   *   This parameter can be one of the following values:
 814:../libs/StdPeripheralDriver/src/stm32f10x_usart.c ****   *     @arg USART_IrDAMode_LowPower
 815:../libs/StdPeripheralDriver/src/stm32f10x_usart.c ****   *     @arg USART_IrDAMode_Normal
 816:../libs/StdPeripheralDriver/src/stm32f10x_usart.c ****   * @retval None
 817:../libs/StdPeripheralDriver/src/stm32f10x_usart.c ****   */
 818:../libs/StdPeripheralDriver/src/stm32f10x_usart.c **** void USART_IrDAConfig(USART_TypeDef* USARTx, uint16_t USART_IrDAMode)
 819:../libs/StdPeripheralDriver/src/stm32f10x_usart.c **** {
 3020              		.loc 1 819 0
 3021              		.cfi_startproc
 3022              		@ args = 0, pretend = 0, frame = 8
 3023              		@ frame_needed = 1, uses_anonymous_args = 0
 3024 0000 80B5     		push	{r7, lr}
 3025              	.LCFI69:
 3026              		.cfi_def_cfa_offset 8
 3027              		.cfi_offset 7, -8
 3028              		.cfi_offset 14, -4
 3029 0002 82B0     		sub	sp, sp, #8
 3030              	.LCFI70:
 3031              		.cfi_def_cfa_offset 16
 3032 0004 00AF     		add	r7, sp, #0
 3033              	.LCFI71:
 3034              		.cfi_def_cfa_register 7
 3035 0006 7860     		str	r0, [r7, #4]
 3036 0008 0B46     		mov	r3, r1
 3037 000a 7B80     		strh	r3, [r7, #2]	@ movhi
 820:../libs/StdPeripheralDriver/src/stm32f10x_usart.c ****   /* Check the parameters */
 821:../libs/StdPeripheralDriver/src/stm32f10x_usart.c ****   assert_param(IS_USART_ALL_PERIPH(USARTx));
 3038              		.loc 1 821 0
 3039 000c 7A68     		ldr	r2, [r7, #4]
 3040 000e 1E4B     		ldr	r3, .L250
 3041 0010 9A42     		cmp	r2, r3
 3042 0012 0FD0     		beq	.L244
 3043              		.loc 1 821 0 is_stmt 0 discriminator 2
 3044 0014 7A68     		ldr	r2, [r7, #4]
 3045 0016 1D4B     		ldr	r3, .L250+4
 3046 0018 9A42     		cmp	r2, r3
 3047 001a 0BD0     		beq	.L244
 3048              		.loc 1 821 0 discriminator 1
 3049 001c 7A68     		ldr	r2, [r7, #4]
 3050 001e 1C4B     		ldr	r3, .L250+8
 3051 0020 9A42     		cmp	r2, r3
 3052 0022 07D0     		beq	.L244
 3053              		.loc 1 821 0 discriminator 2
 3054 0024 7A68     		ldr	r2, [r7, #4]
 3055 0026 1B4B     		ldr	r3, .L250+12
 3056 0028 9A42     		cmp	r2, r3
 3057 002a 03D0     		beq	.L244
 3058              		.loc 1 821 0 discriminator 3
 3059 002c 7A68     		ldr	r2, [r7, #4]
 3060 002e 1A4B     		ldr	r3, .L250+16
 3061 0030 9A42     		cmp	r2, r3
 3062 0032 02D1     		bne	.L245
 3063              	.L244:
 3064              		.loc 1 821 0 discriminator 1
 3065 0034 4FF00103 		mov	r3, #1
 3066 0038 01E0     		b	.L246
 3067              	.L245:
 3068              		.loc 1 821 0 discriminator 3
 3069 003a 4FF00003 		mov	r3, #0
 3070              	.L246:
 3071              		.loc 1 821 0 discriminator 4
 3072 003e 1846     		mov	r0, r3
 3073 0040 FFF7FEFF 		bl	assert_param
 822:../libs/StdPeripheralDriver/src/stm32f10x_usart.c ****   assert_param(IS_USART_IRDA_MODE(USART_IrDAMode));
 3074              		.loc 1 822 0 is_stmt 1 discriminator 4
 3075 0044 7B88     		ldrh	r3, [r7, #2]
 3076 0046 042B     		cmp	r3, #4
 3077 0048 02D0     		beq	.L247
 3078              		.loc 1 822 0 is_stmt 0 discriminator 2
 3079 004a 7B88     		ldrh	r3, [r7, #2]
 3080 004c 002B     		cmp	r3, #0
 3081 004e 02D1     		bne	.L248
 3082              	.L247:
 3083              		.loc 1 822 0 discriminator 1
 3084 0050 4FF00103 		mov	r3, #1
 3085 0054 01E0     		b	.L249
 3086              	.L248:
 3087              		.loc 1 822 0 discriminator 3
 3088 0056 4FF00003 		mov	r3, #0
 3089              	.L249:
 3090              		.loc 1 822 0 discriminator 4
 3091 005a 1846     		mov	r0, r3
 3092 005c FFF7FEFF 		bl	assert_param
 823:../libs/StdPeripheralDriver/src/stm32f10x_usart.c ****     
 824:../libs/StdPeripheralDriver/src/stm32f10x_usart.c ****   USARTx->CR3 &= CR3_IRLP_Mask;
 3093              		.loc 1 824 0 is_stmt 1 discriminator 4
 3094 0060 7B68     		ldr	r3, [r7, #4]
 3095 0062 9B8A     		ldrh	r3, [r3, #20]	@ movhi
 3096 0064 9BB2     		uxth	r3, r3
 3097 0066 23F00403 		bic	r3, r3, #4
 3098 006a 9AB2     		uxth	r2, r3
 3099 006c 7B68     		ldr	r3, [r7, #4]
 3100 006e 9A82     		strh	r2, [r3, #20]	@ movhi
 825:../libs/StdPeripheralDriver/src/stm32f10x_usart.c ****   USARTx->CR3 |= USART_IrDAMode;
 3101              		.loc 1 825 0 discriminator 4
 3102 0070 7B68     		ldr	r3, [r7, #4]
 3103 0072 9B8A     		ldrh	r3, [r3, #20]	@ movhi
 3104 0074 9AB2     		uxth	r2, r3
 3105 0076 7B88     		ldrh	r3, [r7, #2]	@ movhi
 3106 0078 1343     		orrs	r3, r3, r2
 3107 007a 9AB2     		uxth	r2, r3
 3108 007c 7B68     		ldr	r3, [r7, #4]
 3109 007e 9A82     		strh	r2, [r3, #20]	@ movhi
 826:../libs/StdPeripheralDriver/src/stm32f10x_usart.c **** }
 3110              		.loc 1 826 0 discriminator 4
 3111 0080 07F10807 		add	r7, r7, #8
 3112 0084 BD46     		mov	sp, r7
 3113 0086 80BD     		pop	{r7, pc}
 3114              	.L251:
 3115              		.align	2
 3116              	.L250:
 3117 0088 00380140 		.word	1073821696
 3118 008c 00440040 		.word	1073759232
 3119 0090 00480040 		.word	1073760256
 3120 0094 004C0040 		.word	1073761280
 3121 0098 00500040 		.word	1073762304
 3122              		.cfi_endproc
 3123              	.LFE52:
 3125              		.section	.text.USART_IrDACmd,"ax",%progbits
 3126              		.align	2
 3127              		.global	USART_IrDACmd
 3128              		.thumb
 3129              		.thumb_func
 3131              	USART_IrDACmd:
 3132              	.LFB53:
 827:../libs/StdPeripheralDriver/src/stm32f10x_usart.c **** 
 828:../libs/StdPeripheralDriver/src/stm32f10x_usart.c **** /**
 829:../libs/StdPeripheralDriver/src/stm32f10x_usart.c ****   * @brief  Enables or disables the USART's IrDA interface.
 830:../libs/StdPeripheralDriver/src/stm32f10x_usart.c ****   * @param  USARTx: Select the USART or the UART peripheral. 
 831:../libs/StdPeripheralDriver/src/stm32f10x_usart.c ****   *   This parameter can be one of the following values:
 832:../libs/StdPeripheralDriver/src/stm32f10x_usart.c ****   *   USART1, USART2, USART3, UART4 or UART5.
 833:../libs/StdPeripheralDriver/src/stm32f10x_usart.c ****   * @param  NewState: new state of the IrDA mode.
 834:../libs/StdPeripheralDriver/src/stm32f10x_usart.c ****   *   This parameter can be: ENABLE or DISABLE.
 835:../libs/StdPeripheralDriver/src/stm32f10x_usart.c ****   * @retval None
 836:../libs/StdPeripheralDriver/src/stm32f10x_usart.c ****   */
 837:../libs/StdPeripheralDriver/src/stm32f10x_usart.c **** void USART_IrDACmd(USART_TypeDef* USARTx, FunctionalState NewState)
 838:../libs/StdPeripheralDriver/src/stm32f10x_usart.c **** {
 3133              		.loc 1 838 0
 3134              		.cfi_startproc
 3135              		@ args = 0, pretend = 0, frame = 8
 3136              		@ frame_needed = 1, uses_anonymous_args = 0
 3137 0000 80B5     		push	{r7, lr}
 3138              	.LCFI72:
 3139              		.cfi_def_cfa_offset 8
 3140              		.cfi_offset 7, -8
 3141              		.cfi_offset 14, -4
 3142 0002 82B0     		sub	sp, sp, #8
 3143              	.LCFI73:
 3144              		.cfi_def_cfa_offset 16
 3145 0004 00AF     		add	r7, sp, #0
 3146              	.LCFI74:
 3147              		.cfi_def_cfa_register 7
 3148 0006 7860     		str	r0, [r7, #4]
 3149 0008 0B46     		mov	r3, r1
 3150 000a FB70     		strb	r3, [r7, #3]
 839:../libs/StdPeripheralDriver/src/stm32f10x_usart.c ****   /* Check the parameters */
 840:../libs/StdPeripheralDriver/src/stm32f10x_usart.c ****   assert_param(IS_USART_ALL_PERIPH(USARTx));
 3151              		.loc 1 840 0
 3152 000c 7A68     		ldr	r2, [r7, #4]
 3153 000e 204B     		ldr	r3, .L261
 3154 0010 9A42     		cmp	r2, r3
 3155 0012 0FD0     		beq	.L253
 3156              		.loc 1 840 0 is_stmt 0 discriminator 2
 3157 0014 7A68     		ldr	r2, [r7, #4]
 3158 0016 1F4B     		ldr	r3, .L261+4
 3159 0018 9A42     		cmp	r2, r3
 3160 001a 0BD0     		beq	.L253
 3161              		.loc 1 840 0 discriminator 1
 3162 001c 7A68     		ldr	r2, [r7, #4]
 3163 001e 1E4B     		ldr	r3, .L261+8
 3164 0020 9A42     		cmp	r2, r3
 3165 0022 07D0     		beq	.L253
 3166              		.loc 1 840 0 discriminator 2
 3167 0024 7A68     		ldr	r2, [r7, #4]
 3168 0026 1D4B     		ldr	r3, .L261+12
 3169 0028 9A42     		cmp	r2, r3
 3170 002a 03D0     		beq	.L253
 3171              		.loc 1 840 0 discriminator 3
 3172 002c 7A68     		ldr	r2, [r7, #4]
 3173 002e 1C4B     		ldr	r3, .L261+16
 3174 0030 9A42     		cmp	r2, r3
 3175 0032 02D1     		bne	.L254
 3176              	.L253:
 3177              		.loc 1 840 0 discriminator 1
 3178 0034 4FF00103 		mov	r3, #1
 3179 0038 01E0     		b	.L255
 3180              	.L254:
 3181              		.loc 1 840 0 discriminator 3
 3182 003a 4FF00003 		mov	r3, #0
 3183              	.L255:
 3184              		.loc 1 840 0 discriminator 4
 3185 003e 1846     		mov	r0, r3
 3186 0040 FFF7FEFF 		bl	assert_param
 841:../libs/StdPeripheralDriver/src/stm32f10x_usart.c ****   assert_param(IS_FUNCTIONAL_STATE(NewState));
 3187              		.loc 1 841 0 is_stmt 1 discriminator 4
 3188 0044 FB78     		ldrb	r3, [r7, #3]	@ zero_extendqisi2
 3189 0046 002B     		cmp	r3, #0
 3190 0048 02D0     		beq	.L256
 3191              		.loc 1 841 0 is_stmt 0 discriminator 2
 3192 004a FB78     		ldrb	r3, [r7, #3]	@ zero_extendqisi2
 3193 004c 012B     		cmp	r3, #1
 3194 004e 02D1     		bne	.L257
 3195              	.L256:
 3196              		.loc 1 841 0 discriminator 1
 3197 0050 4FF00103 		mov	r3, #1
 3198 0054 01E0     		b	.L258
 3199              	.L257:
 3200              		.loc 1 841 0 discriminator 3
 3201 0056 4FF00003 		mov	r3, #0
 3202              	.L258:
 3203              		.loc 1 841 0 discriminator 4
 3204 005a 1846     		mov	r0, r3
 3205 005c FFF7FEFF 		bl	assert_param
 842:../libs/StdPeripheralDriver/src/stm32f10x_usart.c ****     
 843:../libs/StdPeripheralDriver/src/stm32f10x_usart.c ****   if (NewState != DISABLE)
 3206              		.loc 1 843 0 is_stmt 1 discriminator 4
 3207 0060 FB78     		ldrb	r3, [r7, #3]	@ zero_extendqisi2
 3208 0062 002B     		cmp	r3, #0
 3209 0064 08D0     		beq	.L259
 844:../libs/StdPeripheralDriver/src/stm32f10x_usart.c ****   {
 845:../libs/StdPeripheralDriver/src/stm32f10x_usart.c ****     /* Enable the IrDA mode by setting the IREN bit in the CR3 register */
 846:../libs/StdPeripheralDriver/src/stm32f10x_usart.c ****     USARTx->CR3 |= CR3_IREN_Set;
 3210              		.loc 1 846 0
 3211 0066 7B68     		ldr	r3, [r7, #4]
 3212 0068 9B8A     		ldrh	r3, [r3, #20]	@ movhi
 3213 006a 9BB2     		uxth	r3, r3
 3214 006c 43F00203 		orr	r3, r3, #2
 3215 0070 9AB2     		uxth	r2, r3
 3216 0072 7B68     		ldr	r3, [r7, #4]
 3217 0074 9A82     		strh	r2, [r3, #20]	@ movhi
 3218 0076 07E0     		b	.L252
 3219              	.L259:
 847:../libs/StdPeripheralDriver/src/stm32f10x_usart.c ****   }
 848:../libs/StdPeripheralDriver/src/stm32f10x_usart.c ****   else
 849:../libs/StdPeripheralDriver/src/stm32f10x_usart.c ****   {
 850:../libs/StdPeripheralDriver/src/stm32f10x_usart.c ****     /* Disable the IrDA mode by clearing the IREN bit in the CR3 register */
 851:../libs/StdPeripheralDriver/src/stm32f10x_usart.c ****     USARTx->CR3 &= CR3_IREN_Reset;
 3220              		.loc 1 851 0
 3221 0078 7B68     		ldr	r3, [r7, #4]
 3222 007a 9B8A     		ldrh	r3, [r3, #20]	@ movhi
 3223 007c 9BB2     		uxth	r3, r3
 3224 007e 23F00203 		bic	r3, r3, #2
 3225 0082 9AB2     		uxth	r2, r3
 3226 0084 7B68     		ldr	r3, [r7, #4]
 3227 0086 9A82     		strh	r2, [r3, #20]	@ movhi
 3228              	.L252:
 852:../libs/StdPeripheralDriver/src/stm32f10x_usart.c ****   }
 853:../libs/StdPeripheralDriver/src/stm32f10x_usart.c **** }
 3229              		.loc 1 853 0
 3230 0088 07F10807 		add	r7, r7, #8
 3231 008c BD46     		mov	sp, r7
 3232 008e 80BD     		pop	{r7, pc}
 3233              	.L262:
 3234              		.align	2
 3235              	.L261:
 3236 0090 00380140 		.word	1073821696
 3237 0094 00440040 		.word	1073759232
 3238 0098 00480040 		.word	1073760256
 3239 009c 004C0040 		.word	1073761280
 3240 00a0 00500040 		.word	1073762304
 3241              		.cfi_endproc
 3242              	.LFE53:
 3244              		.section	.text.USART_GetFlagStatus,"ax",%progbits
 3245              		.align	2
 3246              		.global	USART_GetFlagStatus
 3247              		.thumb
 3248              		.thumb_func
 3250              	USART_GetFlagStatus:
 3251              	.LFB54:
 854:../libs/StdPeripheralDriver/src/stm32f10x_usart.c **** 
 855:../libs/StdPeripheralDriver/src/stm32f10x_usart.c **** /**
 856:../libs/StdPeripheralDriver/src/stm32f10x_usart.c ****   * @brief  Checks whether the specified USART flag is set or not.
 857:../libs/StdPeripheralDriver/src/stm32f10x_usart.c ****   * @param  USARTx: Select the USART or the UART peripheral. 
 858:../libs/StdPeripheralDriver/src/stm32f10x_usart.c ****   *   This parameter can be one of the following values:
 859:../libs/StdPeripheralDriver/src/stm32f10x_usart.c ****   *   USART1, USART2, USART3, UART4 or UART5.
 860:../libs/StdPeripheralDriver/src/stm32f10x_usart.c ****   * @param  USART_FLAG: specifies the flag to check.
 861:../libs/StdPeripheralDriver/src/stm32f10x_usart.c ****   *   This parameter can be one of the following values:
 862:../libs/StdPeripheralDriver/src/stm32f10x_usart.c ****   *     @arg USART_FLAG_CTS:  CTS Change flag (not available for UART4 and UART5)
 863:../libs/StdPeripheralDriver/src/stm32f10x_usart.c ****   *     @arg USART_FLAG_LBD:  LIN Break detection flag
 864:../libs/StdPeripheralDriver/src/stm32f10x_usart.c ****   *     @arg USART_FLAG_TXE:  Transmit data register empty flag
 865:../libs/StdPeripheralDriver/src/stm32f10x_usart.c ****   *     @arg USART_FLAG_TC:   Transmission Complete flag
 866:../libs/StdPeripheralDriver/src/stm32f10x_usart.c ****   *     @arg USART_FLAG_RXNE: Receive data register not empty flag
 867:../libs/StdPeripheralDriver/src/stm32f10x_usart.c ****   *     @arg USART_FLAG_IDLE: Idle Line detection flag
 868:../libs/StdPeripheralDriver/src/stm32f10x_usart.c ****   *     @arg USART_FLAG_ORE:  OverRun Error flag
 869:../libs/StdPeripheralDriver/src/stm32f10x_usart.c ****   *     @arg USART_FLAG_NE:   Noise Error flag
 870:../libs/StdPeripheralDriver/src/stm32f10x_usart.c ****   *     @arg USART_FLAG_FE:   Framing Error flag
 871:../libs/StdPeripheralDriver/src/stm32f10x_usart.c ****   *     @arg USART_FLAG_PE:   Parity Error flag
 872:../libs/StdPeripheralDriver/src/stm32f10x_usart.c ****   * @retval The new state of USART_FLAG (SET or RESET).
 873:../libs/StdPeripheralDriver/src/stm32f10x_usart.c ****   */
 874:../libs/StdPeripheralDriver/src/stm32f10x_usart.c **** FlagStatus USART_GetFlagStatus(USART_TypeDef* USARTx, uint16_t USART_FLAG)
 875:../libs/StdPeripheralDriver/src/stm32f10x_usart.c **** {
 3252              		.loc 1 875 0
 3253              		.cfi_startproc
 3254              		@ args = 0, pretend = 0, frame = 16
 3255              		@ frame_needed = 1, uses_anonymous_args = 0
 3256 0000 80B5     		push	{r7, lr}
 3257              	.LCFI75:
 3258              		.cfi_def_cfa_offset 8
 3259              		.cfi_offset 7, -8
 3260              		.cfi_offset 14, -4
 3261 0002 84B0     		sub	sp, sp, #16
 3262              	.LCFI76:
 3263              		.cfi_def_cfa_offset 24
 3264 0004 00AF     		add	r7, sp, #0
 3265              	.LCFI77:
 3266              		.cfi_def_cfa_register 7
 3267 0006 7860     		str	r0, [r7, #4]
 3268 0008 0B46     		mov	r3, r1
 3269 000a 7B80     		strh	r3, [r7, #2]	@ movhi
 876:../libs/StdPeripheralDriver/src/stm32f10x_usart.c ****   FlagStatus bitstatus = RESET;
 3270              		.loc 1 876 0
 3271 000c 4FF00003 		mov	r3, #0
 3272 0010 FB73     		strb	r3, [r7, #15]
 877:../libs/StdPeripheralDriver/src/stm32f10x_usart.c ****   /* Check the parameters */
 878:../libs/StdPeripheralDriver/src/stm32f10x_usart.c ****   assert_param(IS_USART_ALL_PERIPH(USARTx));
 3273              		.loc 1 878 0
 3274 0012 7A68     		ldr	r2, [r7, #4]
 3275 0014 374B     		ldr	r3, .L277
 3276 0016 9A42     		cmp	r2, r3
 3277 0018 0FD0     		beq	.L264
 3278              		.loc 1 878 0 is_stmt 0 discriminator 2
 3279 001a 7A68     		ldr	r2, [r7, #4]
 3280 001c 364B     		ldr	r3, .L277+4
 3281 001e 9A42     		cmp	r2, r3
 3282 0020 0BD0     		beq	.L264
 3283              		.loc 1 878 0 discriminator 1
 3284 0022 7A68     		ldr	r2, [r7, #4]
 3285 0024 354B     		ldr	r3, .L277+8
 3286 0026 9A42     		cmp	r2, r3
 3287 0028 07D0     		beq	.L264
 3288              		.loc 1 878 0 discriminator 2
 3289 002a 7A68     		ldr	r2, [r7, #4]
 3290 002c 344B     		ldr	r3, .L277+12
 3291 002e 9A42     		cmp	r2, r3
 3292 0030 03D0     		beq	.L264
 3293              		.loc 1 878 0 discriminator 3
 3294 0032 7A68     		ldr	r2, [r7, #4]
 3295 0034 334B     		ldr	r3, .L277+16
 3296 0036 9A42     		cmp	r2, r3
 3297 0038 02D1     		bne	.L265
 3298              	.L264:
 3299              		.loc 1 878 0 discriminator 1
 3300 003a 4FF00103 		mov	r3, #1
 3301 003e 01E0     		b	.L266
 3302              	.L265:
 3303              		.loc 1 878 0 discriminator 3
 3304 0040 4FF00003 		mov	r3, #0
 3305              	.L266:
 3306              		.loc 1 878 0 discriminator 4
 3307 0044 1846     		mov	r0, r3
 3308 0046 FFF7FEFF 		bl	assert_param
 879:../libs/StdPeripheralDriver/src/stm32f10x_usart.c ****   assert_param(IS_USART_FLAG(USART_FLAG));
 3309              		.loc 1 879 0 is_stmt 1 discriminator 4
 3310 004a 7B88     		ldrh	r3, [r7, #2]
 3311 004c 012B     		cmp	r3, #1
 3312 004e 1CD0     		beq	.L267
 3313              		.loc 1 879 0 is_stmt 0 discriminator 2
 3314 0050 7B88     		ldrh	r3, [r7, #2]
 3315 0052 802B     		cmp	r3, #128
 3316 0054 19D0     		beq	.L267
 3317              		.loc 1 879 0 discriminator 1
 3318 0056 7B88     		ldrh	r3, [r7, #2]
 3319 0058 402B     		cmp	r3, #64
 3320 005a 16D0     		beq	.L267
 3321              		.loc 1 879 0 discriminator 2
 3322 005c 7B88     		ldrh	r3, [r7, #2]
 3323 005e 202B     		cmp	r3, #32
 3324 0060 13D0     		beq	.L267
 3325              		.loc 1 879 0 discriminator 3
 3326 0062 7B88     		ldrh	r3, [r7, #2]
 3327 0064 102B     		cmp	r3, #16
 3328 0066 10D0     		beq	.L267
 3329              		.loc 1 879 0 discriminator 4
 3330 0068 7B88     		ldrh	r3, [r7, #2]
 3331 006a B3F5807F 		cmp	r3, #256
 3332 006e 0CD0     		beq	.L267
 3333              		.loc 1 879 0 discriminator 5
 3334 0070 7B88     		ldrh	r3, [r7, #2]
 3335 0072 B3F5007F 		cmp	r3, #512
 3336 0076 08D0     		beq	.L267
 3337              		.loc 1 879 0 discriminator 6
 3338 0078 7B88     		ldrh	r3, [r7, #2]
 3339 007a 082B     		cmp	r3, #8
 3340 007c 05D0     		beq	.L267
 3341              		.loc 1 879 0 discriminator 7
 3342 007e 7B88     		ldrh	r3, [r7, #2]
 3343 0080 042B     		cmp	r3, #4
 3344 0082 02D0     		beq	.L267
 3345              		.loc 1 879 0 discriminator 8
 3346 0084 7B88     		ldrh	r3, [r7, #2]
 3347 0086 022B     		cmp	r3, #2
 3348 0088 02D1     		bne	.L268
 3349              	.L267:
 3350              		.loc 1 879 0 discriminator 1
 3351 008a 4FF00103 		mov	r3, #1
 3352 008e 01E0     		b	.L269
 3353              	.L268:
 3354              		.loc 1 879 0 discriminator 3
 3355 0090 4FF00003 		mov	r3, #0
 3356              	.L269:
 3357              		.loc 1 879 0 discriminator 4
 3358 0094 1846     		mov	r0, r3
 3359 0096 FFF7FEFF 		bl	assert_param
 880:../libs/StdPeripheralDriver/src/stm32f10x_usart.c ****   /* The CTS flag is not available for UART4 and UART5 */
 881:../libs/StdPeripheralDriver/src/stm32f10x_usart.c ****   if (USART_FLAG == USART_FLAG_CTS)
 3360              		.loc 1 881 0 is_stmt 1 discriminator 4
 3361 009a 7B88     		ldrh	r3, [r7, #2]
 3362 009c B3F5007F 		cmp	r3, #512
 3363 00a0 13D1     		bne	.L270
 882:../libs/StdPeripheralDriver/src/stm32f10x_usart.c ****   {
 883:../libs/StdPeripheralDriver/src/stm32f10x_usart.c ****     assert_param(IS_USART_123_PERIPH(USARTx));
 3364              		.loc 1 883 0
 3365 00a2 7A68     		ldr	r2, [r7, #4]
 3366 00a4 134B     		ldr	r3, .L277
 3367 00a6 9A42     		cmp	r2, r3
 3368 00a8 07D0     		beq	.L271
 3369              		.loc 1 883 0 is_stmt 0 discriminator 2
 3370 00aa 7A68     		ldr	r2, [r7, #4]
 3371 00ac 124B     		ldr	r3, .L277+4
 3372 00ae 9A42     		cmp	r2, r3
 3373 00b0 03D0     		beq	.L271
 3374              		.loc 1 883 0 discriminator 1
 3375 00b2 7A68     		ldr	r2, [r7, #4]
 3376 00b4 114B     		ldr	r3, .L277+8
 3377 00b6 9A42     		cmp	r2, r3
 3378 00b8 02D1     		bne	.L272
 3379              	.L271:
 3380 00ba 4FF00103 		mov	r3, #1
 3381 00be 01E0     		b	.L273
 3382              	.L272:
 3383              		.loc 1 883 0 discriminator 3
 3384 00c0 4FF00003 		mov	r3, #0
 3385              	.L273:
 3386              		.loc 1 883 0 discriminator 4
 3387 00c4 1846     		mov	r0, r3
 3388 00c6 FFF7FEFF 		bl	assert_param
 3389              	.L270:
 884:../libs/StdPeripheralDriver/src/stm32f10x_usart.c ****   }  
 885:../libs/StdPeripheralDriver/src/stm32f10x_usart.c ****   
 886:../libs/StdPeripheralDriver/src/stm32f10x_usart.c ****   if ((USARTx->SR & USART_FLAG) != (uint16_t)RESET)
 3390              		.loc 1 886 0 is_stmt 1
 3391 00ca 7B68     		ldr	r3, [r7, #4]
 3392 00cc 1B88     		ldrh	r3, [r3, #0]	@ movhi
 3393 00ce 9AB2     		uxth	r2, r3
 3394 00d0 7B88     		ldrh	r3, [r7, #2]	@ movhi
 3395 00d2 1340     		ands	r3, r3, r2
 3396 00d4 9BB2     		uxth	r3, r3
 3397 00d6 002B     		cmp	r3, #0
 3398 00d8 03D0     		beq	.L274
 887:../libs/StdPeripheralDriver/src/stm32f10x_usart.c ****   {
 888:../libs/StdPeripheralDriver/src/stm32f10x_usart.c ****     bitstatus = SET;
 3399              		.loc 1 888 0
 3400 00da 4FF00103 		mov	r3, #1
 3401 00de FB73     		strb	r3, [r7, #15]
 3402 00e0 02E0     		b	.L275
 3403              	.L274:
 889:../libs/StdPeripheralDriver/src/stm32f10x_usart.c ****   }
 890:../libs/StdPeripheralDriver/src/stm32f10x_usart.c ****   else
 891:../libs/StdPeripheralDriver/src/stm32f10x_usart.c ****   {
 892:../libs/StdPeripheralDriver/src/stm32f10x_usart.c ****     bitstatus = RESET;
 3404              		.loc 1 892 0
 3405 00e2 4FF00003 		mov	r3, #0
 3406 00e6 FB73     		strb	r3, [r7, #15]
 3407              	.L275:
 893:../libs/StdPeripheralDriver/src/stm32f10x_usart.c ****   }
 894:../libs/StdPeripheralDriver/src/stm32f10x_usart.c ****   return bitstatus;
 3408              		.loc 1 894 0
 3409 00e8 FB7B     		ldrb	r3, [r7, #15]	@ zero_extendqisi2
 895:../libs/StdPeripheralDriver/src/stm32f10x_usart.c **** }
 3410              		.loc 1 895 0
 3411 00ea 1846     		mov	r0, r3
 3412 00ec 07F11007 		add	r7, r7, #16
 3413 00f0 BD46     		mov	sp, r7
 3414 00f2 80BD     		pop	{r7, pc}
 3415              	.L278:
 3416              		.align	2
 3417              	.L277:
 3418 00f4 00380140 		.word	1073821696
 3419 00f8 00440040 		.word	1073759232
 3420 00fc 00480040 		.word	1073760256
 3421 0100 004C0040 		.word	1073761280
 3422 0104 00500040 		.word	1073762304
 3423              		.cfi_endproc
 3424              	.LFE54:
 3426              		.section	.text.USART_ClearFlag,"ax",%progbits
 3427              		.align	2
 3428              		.global	USART_ClearFlag
 3429              		.thumb
 3430              		.thumb_func
 3432              	USART_ClearFlag:
 3433              	.LFB55:
 896:../libs/StdPeripheralDriver/src/stm32f10x_usart.c **** 
 897:../libs/StdPeripheralDriver/src/stm32f10x_usart.c **** /**
 898:../libs/StdPeripheralDriver/src/stm32f10x_usart.c ****   * @brief  Clears the USARTx's pending flags.
 899:../libs/StdPeripheralDriver/src/stm32f10x_usart.c ****   * @param  USARTx: Select the USART or the UART peripheral. 
 900:../libs/StdPeripheralDriver/src/stm32f10x_usart.c ****   *   This parameter can be one of the following values:
 901:../libs/StdPeripheralDriver/src/stm32f10x_usart.c ****   *   USART1, USART2, USART3, UART4 or UART5.
 902:../libs/StdPeripheralDriver/src/stm32f10x_usart.c ****   * @param  USART_FLAG: specifies the flag to clear.
 903:../libs/StdPeripheralDriver/src/stm32f10x_usart.c ****   *   This parameter can be any combination of the following values:
 904:../libs/StdPeripheralDriver/src/stm32f10x_usart.c ****   *     @arg USART_FLAG_CTS:  CTS Change flag (not available for UART4 and UART5).
 905:../libs/StdPeripheralDriver/src/stm32f10x_usart.c ****   *     @arg USART_FLAG_LBD:  LIN Break detection flag.
 906:../libs/StdPeripheralDriver/src/stm32f10x_usart.c ****   *     @arg USART_FLAG_TC:   Transmission Complete flag.
 907:../libs/StdPeripheralDriver/src/stm32f10x_usart.c ****   *     @arg USART_FLAG_RXNE: Receive data register not empty flag.
 908:../libs/StdPeripheralDriver/src/stm32f10x_usart.c ****   *   
 909:../libs/StdPeripheralDriver/src/stm32f10x_usart.c ****   * @note
 910:../libs/StdPeripheralDriver/src/stm32f10x_usart.c ****   *   - PE (Parity error), FE (Framing error), NE (Noise error), ORE (OverRun 
 911:../libs/StdPeripheralDriver/src/stm32f10x_usart.c ****   *     error) and IDLE (Idle line detected) flags are cleared by software 
 912:../libs/StdPeripheralDriver/src/stm32f10x_usart.c ****   *     sequence: a read operation to USART_SR register (USART_GetFlagStatus()) 
 913:../libs/StdPeripheralDriver/src/stm32f10x_usart.c ****   *     followed by a read operation to USART_DR register (USART_ReceiveData()).
 914:../libs/StdPeripheralDriver/src/stm32f10x_usart.c ****   *   - RXNE flag can be also cleared by a read to the USART_DR register 
 915:../libs/StdPeripheralDriver/src/stm32f10x_usart.c ****   *     (USART_ReceiveData()).
 916:../libs/StdPeripheralDriver/src/stm32f10x_usart.c ****   *   - TC flag can be also cleared by software sequence: a read operation to 
 917:../libs/StdPeripheralDriver/src/stm32f10x_usart.c ****   *     USART_SR register (USART_GetFlagStatus()) followed by a write operation
 918:../libs/StdPeripheralDriver/src/stm32f10x_usart.c ****   *     to USART_DR register (USART_SendData()).
 919:../libs/StdPeripheralDriver/src/stm32f10x_usart.c ****   *   - TXE flag is cleared only by a write to the USART_DR register 
 920:../libs/StdPeripheralDriver/src/stm32f10x_usart.c ****   *     (USART_SendData()).
 921:../libs/StdPeripheralDriver/src/stm32f10x_usart.c ****   * @retval None
 922:../libs/StdPeripheralDriver/src/stm32f10x_usart.c ****   */
 923:../libs/StdPeripheralDriver/src/stm32f10x_usart.c **** void USART_ClearFlag(USART_TypeDef* USARTx, uint16_t USART_FLAG)
 924:../libs/StdPeripheralDriver/src/stm32f10x_usart.c **** {
 3434              		.loc 1 924 0
 3435              		.cfi_startproc
 3436              		@ args = 0, pretend = 0, frame = 8
 3437              		@ frame_needed = 1, uses_anonymous_args = 0
 3438 0000 80B5     		push	{r7, lr}
 3439              	.LCFI78:
 3440              		.cfi_def_cfa_offset 8
 3441              		.cfi_offset 7, -8
 3442              		.cfi_offset 14, -4
 3443 0002 82B0     		sub	sp, sp, #8
 3444              	.LCFI79:
 3445              		.cfi_def_cfa_offset 16
 3446 0004 00AF     		add	r7, sp, #0
 3447              	.LCFI80:
 3448              		.cfi_def_cfa_register 7
 3449 0006 7860     		str	r0, [r7, #4]
 3450 0008 0B46     		mov	r3, r1
 3451 000a 7B80     		strh	r3, [r7, #2]	@ movhi
 925:../libs/StdPeripheralDriver/src/stm32f10x_usart.c ****   /* Check the parameters */
 926:../libs/StdPeripheralDriver/src/stm32f10x_usart.c ****   assert_param(IS_USART_ALL_PERIPH(USARTx));
 3452              		.loc 1 926 0
 3453 000c 7A68     		ldr	r2, [r7, #4]
 3454 000e 274B     		ldr	r3, .L289
 3455 0010 9A42     		cmp	r2, r3
 3456 0012 0FD0     		beq	.L280
 3457              		.loc 1 926 0 is_stmt 0 discriminator 2
 3458 0014 7A68     		ldr	r2, [r7, #4]
 3459 0016 264B     		ldr	r3, .L289+4
 3460 0018 9A42     		cmp	r2, r3
 3461 001a 0BD0     		beq	.L280
 3462              		.loc 1 926 0 discriminator 1
 3463 001c 7A68     		ldr	r2, [r7, #4]
 3464 001e 254B     		ldr	r3, .L289+8
 3465 0020 9A42     		cmp	r2, r3
 3466 0022 07D0     		beq	.L280
 3467              		.loc 1 926 0 discriminator 2
 3468 0024 7A68     		ldr	r2, [r7, #4]
 3469 0026 244B     		ldr	r3, .L289+12
 3470 0028 9A42     		cmp	r2, r3
 3471 002a 03D0     		beq	.L280
 3472              		.loc 1 926 0 discriminator 3
 3473 002c 7A68     		ldr	r2, [r7, #4]
 3474 002e 234B     		ldr	r3, .L289+16
 3475 0030 9A42     		cmp	r2, r3
 3476 0032 02D1     		bne	.L281
 3477              	.L280:
 3478              		.loc 1 926 0 discriminator 1
 3479 0034 4FF00103 		mov	r3, #1
 3480 0038 01E0     		b	.L282
 3481              	.L281:
 3482              		.loc 1 926 0 discriminator 3
 3483 003a 4FF00003 		mov	r3, #0
 3484              	.L282:
 3485              		.loc 1 926 0 discriminator 4
 3486 003e 1846     		mov	r0, r3
 3487 0040 FFF7FEFF 		bl	assert_param
 927:../libs/StdPeripheralDriver/src/stm32f10x_usart.c ****   assert_param(IS_USART_CLEAR_FLAG(USART_FLAG));
 3488              		.loc 1 927 0 is_stmt 1 discriminator 4
 3489 0044 7A88     		ldrh	r2, [r7, #2]
 3490 0046 4FF69F43 		movw	r3, #64671
 3491 004a 1340     		ands	r3, r3, r2
 3492 004c 002B     		cmp	r3, #0
 3493 004e 05D1     		bne	.L283
 3494              		.loc 1 927 0 is_stmt 0 discriminator 1
 3495 0050 7B88     		ldrh	r3, [r7, #2]
 3496 0052 002B     		cmp	r3, #0
 3497 0054 02D0     		beq	.L283
 3498              		.loc 1 927 0 discriminator 3
 3499 0056 4FF00103 		mov	r3, #1
 3500 005a 01E0     		b	.L284
 3501              	.L283:
 3502              		.loc 1 927 0 discriminator 2
 3503 005c 4FF00003 		mov	r3, #0
 3504              	.L284:
 3505              		.loc 1 927 0 discriminator 4
 3506 0060 1846     		mov	r0, r3
 3507 0062 FFF7FEFF 		bl	assert_param
 928:../libs/StdPeripheralDriver/src/stm32f10x_usart.c ****   /* The CTS flag is not available for UART4 and UART5 */
 929:../libs/StdPeripheralDriver/src/stm32f10x_usart.c ****   if ((USART_FLAG & USART_FLAG_CTS) == USART_FLAG_CTS)
 3508              		.loc 1 929 0 is_stmt 1 discriminator 4
 3509 0066 7B88     		ldrh	r3, [r7, #2]
 3510 0068 03F40073 		and	r3, r3, #512
 3511 006c 002B     		cmp	r3, #0
 3512 006e 13D0     		beq	.L285
 930:../libs/StdPeripheralDriver/src/stm32f10x_usart.c ****   {
 931:../libs/StdPeripheralDriver/src/stm32f10x_usart.c ****     assert_param(IS_USART_123_PERIPH(USARTx));
 3513              		.loc 1 931 0
 3514 0070 7A68     		ldr	r2, [r7, #4]
 3515 0072 0E4B     		ldr	r3, .L289
 3516 0074 9A42     		cmp	r2, r3
 3517 0076 07D0     		beq	.L286
 3518              		.loc 1 931 0 is_stmt 0 discriminator 2
 3519 0078 7A68     		ldr	r2, [r7, #4]
 3520 007a 0D4B     		ldr	r3, .L289+4
 3521 007c 9A42     		cmp	r2, r3
 3522 007e 03D0     		beq	.L286
 3523              		.loc 1 931 0 discriminator 1
 3524 0080 7A68     		ldr	r2, [r7, #4]
 3525 0082 0C4B     		ldr	r3, .L289+8
 3526 0084 9A42     		cmp	r2, r3
 3527 0086 02D1     		bne	.L287
 3528              	.L286:
 3529 0088 4FF00103 		mov	r3, #1
 3530 008c 01E0     		b	.L288
 3531              	.L287:
 3532              		.loc 1 931 0 discriminator 3
 3533 008e 4FF00003 		mov	r3, #0
 3534              	.L288:
 3535              		.loc 1 931 0 discriminator 4
 3536 0092 1846     		mov	r0, r3
 3537 0094 FFF7FEFF 		bl	assert_param
 3538              	.L285:
 932:../libs/StdPeripheralDriver/src/stm32f10x_usart.c ****   } 
 933:../libs/StdPeripheralDriver/src/stm32f10x_usart.c ****    
 934:../libs/StdPeripheralDriver/src/stm32f10x_usart.c ****   USARTx->SR = (uint16_t)~USART_FLAG;
 3539              		.loc 1 934 0 is_stmt 1
 3540 0098 7B88     		ldrh	r3, [r7, #2]	@ movhi
 3541 009a 6FEA0303 		mvn	r3, r3
 3542 009e 9AB2     		uxth	r2, r3
 3543 00a0 7B68     		ldr	r3, [r7, #4]
 3544 00a2 1A80     		strh	r2, [r3, #0]	@ movhi
 935:../libs/StdPeripheralDriver/src/stm32f10x_usart.c **** }
 3545              		.loc 1 935 0
 3546 00a4 07F10807 		add	r7, r7, #8
 3547 00a8 BD46     		mov	sp, r7
 3548 00aa 80BD     		pop	{r7, pc}
 3549              	.L290:
 3550              		.align	2
 3551              	.L289:
 3552 00ac 00380140 		.word	1073821696
 3553 00b0 00440040 		.word	1073759232
 3554 00b4 00480040 		.word	1073760256
 3555 00b8 004C0040 		.word	1073761280
 3556 00bc 00500040 		.word	1073762304
 3557              		.cfi_endproc
 3558              	.LFE55:
 3560              		.section	.text.USART_GetITStatus,"ax",%progbits
 3561              		.align	2
 3562              		.global	USART_GetITStatus
 3563              		.thumb
 3564              		.thumb_func
 3566              	USART_GetITStatus:
 3567              	.LFB56:
 936:../libs/StdPeripheralDriver/src/stm32f10x_usart.c **** 
 937:../libs/StdPeripheralDriver/src/stm32f10x_usart.c **** /**
 938:../libs/StdPeripheralDriver/src/stm32f10x_usart.c ****   * @brief  Checks whether the specified USART interrupt has occurred or not.
 939:../libs/StdPeripheralDriver/src/stm32f10x_usart.c ****   * @param  USARTx: Select the USART or the UART peripheral. 
 940:../libs/StdPeripheralDriver/src/stm32f10x_usart.c ****   *   This parameter can be one of the following values:
 941:../libs/StdPeripheralDriver/src/stm32f10x_usart.c ****   *   USART1, USART2, USART3, UART4 or UART5.
 942:../libs/StdPeripheralDriver/src/stm32f10x_usart.c ****   * @param  USART_IT: specifies the USART interrupt source to check.
 943:../libs/StdPeripheralDriver/src/stm32f10x_usart.c ****   *   This parameter can be one of the following values:
 944:../libs/StdPeripheralDriver/src/stm32f10x_usart.c ****   *     @arg USART_IT_CTS:  CTS change interrupt (not available for UART4 and UART5)
 945:../libs/StdPeripheralDriver/src/stm32f10x_usart.c ****   *     @arg USART_IT_LBD:  LIN Break detection interrupt
 946:../libs/StdPeripheralDriver/src/stm32f10x_usart.c ****   *     @arg USART_IT_TXE:  Tansmit Data Register empty interrupt
 947:../libs/StdPeripheralDriver/src/stm32f10x_usart.c ****   *     @arg USART_IT_TC:   Transmission complete interrupt
 948:../libs/StdPeripheralDriver/src/stm32f10x_usart.c ****   *     @arg USART_IT_RXNE: Receive Data register not empty interrupt
 949:../libs/StdPeripheralDriver/src/stm32f10x_usart.c ****   *     @arg USART_IT_IDLE: Idle line detection interrupt
 950:../libs/StdPeripheralDriver/src/stm32f10x_usart.c ****   *     @arg USART_IT_ORE:  OverRun Error interrupt
 951:../libs/StdPeripheralDriver/src/stm32f10x_usart.c ****   *     @arg USART_IT_NE:   Noise Error interrupt
 952:../libs/StdPeripheralDriver/src/stm32f10x_usart.c ****   *     @arg USART_IT_FE:   Framing Error interrupt
 953:../libs/StdPeripheralDriver/src/stm32f10x_usart.c ****   *     @arg USART_IT_PE:   Parity Error interrupt
 954:../libs/StdPeripheralDriver/src/stm32f10x_usart.c ****   * @retval The new state of USART_IT (SET or RESET).
 955:../libs/StdPeripheralDriver/src/stm32f10x_usart.c ****   */
 956:../libs/StdPeripheralDriver/src/stm32f10x_usart.c **** ITStatus USART_GetITStatus(USART_TypeDef* USARTx, uint16_t USART_IT)
 957:../libs/StdPeripheralDriver/src/stm32f10x_usart.c **** {
 3568              		.loc 1 957 0
 3569              		.cfi_startproc
 3570              		@ args = 0, pretend = 0, frame = 24
 3571              		@ frame_needed = 1, uses_anonymous_args = 0
 3572 0000 80B5     		push	{r7, lr}
 3573              	.LCFI81:
 3574              		.cfi_def_cfa_offset 8
 3575              		.cfi_offset 7, -8
 3576              		.cfi_offset 14, -4
 3577 0002 86B0     		sub	sp, sp, #24
 3578              	.LCFI82:
 3579              		.cfi_def_cfa_offset 32
 3580 0004 00AF     		add	r7, sp, #0
 3581              	.LCFI83:
 3582              		.cfi_def_cfa_register 7
 3583 0006 7860     		str	r0, [r7, #4]
 3584 0008 0B46     		mov	r3, r1
 3585 000a 7B80     		strh	r3, [r7, #2]	@ movhi
 958:../libs/StdPeripheralDriver/src/stm32f10x_usart.c ****   uint32_t bitpos = 0x00, itmask = 0x00, usartreg = 0x00;
 3586              		.loc 1 958 0
 3587 000c 4FF00003 		mov	r3, #0
 3588 0010 FB60     		str	r3, [r7, #12]
 3589 0012 4FF00003 		mov	r3, #0
 3590 0016 7B61     		str	r3, [r7, #20]
 3591 0018 4FF00003 		mov	r3, #0
 3592 001c BB60     		str	r3, [r7, #8]
 959:../libs/StdPeripheralDriver/src/stm32f10x_usart.c ****   ITStatus bitstatus = RESET;
 3593              		.loc 1 959 0
 3594 001e 4FF00003 		mov	r3, #0
 3595 0022 FB74     		strb	r3, [r7, #19]
 960:../libs/StdPeripheralDriver/src/stm32f10x_usart.c ****   /* Check the parameters */
 961:../libs/StdPeripheralDriver/src/stm32f10x_usart.c ****   assert_param(IS_USART_ALL_PERIPH(USARTx));
 3596              		.loc 1 961 0
 3597 0024 7A68     		ldr	r2, [r7, #4]
 3598 0026 5B4B     		ldr	r3, .L308
 3599 0028 9A42     		cmp	r2, r3
 3600 002a 0FD0     		beq	.L292
 3601              		.loc 1 961 0 is_stmt 0 discriminator 2
 3602 002c 7A68     		ldr	r2, [r7, #4]
 3603 002e 5A4B     		ldr	r3, .L308+4
 3604 0030 9A42     		cmp	r2, r3
 3605 0032 0BD0     		beq	.L292
 3606              		.loc 1 961 0 discriminator 1
 3607 0034 7A68     		ldr	r2, [r7, #4]
 3608 0036 594B     		ldr	r3, .L308+8
 3609 0038 9A42     		cmp	r2, r3
 3610 003a 07D0     		beq	.L292
 3611              		.loc 1 961 0 discriminator 2
 3612 003c 7A68     		ldr	r2, [r7, #4]
 3613 003e 584B     		ldr	r3, .L308+12
 3614 0040 9A42     		cmp	r2, r3
 3615 0042 03D0     		beq	.L292
 3616              		.loc 1 961 0 discriminator 3
 3617 0044 7A68     		ldr	r2, [r7, #4]
 3618 0046 574B     		ldr	r3, .L308+16
 3619 0048 9A42     		cmp	r2, r3
 3620 004a 02D1     		bne	.L293
 3621              	.L292:
 3622              		.loc 1 961 0 discriminator 1
 3623 004c 4FF00103 		mov	r3, #1
 3624 0050 01E0     		b	.L294
 3625              	.L293:
 3626              		.loc 1 961 0 discriminator 3
 3627 0052 4FF00003 		mov	r3, #0
 3628              	.L294:
 3629              		.loc 1 961 0 discriminator 4
 3630 0056 1846     		mov	r0, r3
 3631 0058 FFF7FEFF 		bl	assert_param
 962:../libs/StdPeripheralDriver/src/stm32f10x_usart.c ****   assert_param(IS_USART_GET_IT(USART_IT));
 3632              		.loc 1 962 0 is_stmt 1 discriminator 4
 3633 005c 7B88     		ldrh	r3, [r7, #2]
 3634 005e 282B     		cmp	r3, #40
 3635 0060 29D0     		beq	.L295
 3636              		.loc 1 962 0 is_stmt 0 discriminator 2
 3637 0062 7A88     		ldrh	r2, [r7, #2]
 3638 0064 40F22773 		movw	r3, #1831
 3639 0068 9A42     		cmp	r2, r3
 3640 006a 24D0     		beq	.L295
 3641              		.loc 1 962 0 discriminator 1
 3642 006c 7A88     		ldrh	r2, [r7, #2]
 3643 006e 40F22663 		movw	r3, #1574
 3644 0072 9A42     		cmp	r2, r3
 3645 0074 1FD0     		beq	.L295
 3646              		.loc 1 962 0 discriminator 2
 3647 0076 7A88     		ldrh	r2, [r7, #2]
 3648 0078 40F22553 		movw	r3, #1317
 3649 007c 9A42     		cmp	r2, r3
 3650 007e 1AD0     		beq	.L295
 3651              		.loc 1 962 0 discriminator 3
 3652 0080 7A88     		ldrh	r2, [r7, #2]
 3653 0082 40F22443 		movw	r3, #1060
 3654 0086 9A42     		cmp	r2, r3
 3655 0088 15D0     		beq	.L295
 3656              		.loc 1 962 0 discriminator 4
 3657 008a 7A88     		ldrh	r2, [r7, #2]
 3658 008c 40F64603 		movw	r3, #2118
 3659 0090 9A42     		cmp	r2, r3
 3660 0092 10D0     		beq	.L295
 3661              		.loc 1 962 0 discriminator 5
 3662 0094 7A88     		ldrh	r2, [r7, #2]
 3663 0096 40F66A13 		movw	r3, #2410
 3664 009a 9A42     		cmp	r2, r3
 3665 009c 0BD0     		beq	.L295
 3666              		.loc 1 962 0 discriminator 6
 3667 009e 7B88     		ldrh	r3, [r7, #2]
 3668 00a0 B3F5587F 		cmp	r3, #864
 3669 00a4 07D0     		beq	.L295
 3670              		.loc 1 962 0 discriminator 7
 3671 00a6 7B88     		ldrh	r3, [r7, #2]
 3672 00a8 B3F5187F 		cmp	r3, #608
 3673 00ac 03D0     		beq	.L295
 3674              		.loc 1 962 0 discriminator 8
 3675 00ae 7B88     		ldrh	r3, [r7, #2]
 3676 00b0 B3F5B07F 		cmp	r3, #352
 3677 00b4 02D1     		bne	.L296
 3678              	.L295:
 3679              		.loc 1 962 0 discriminator 1
 3680 00b6 4FF00103 		mov	r3, #1
 3681 00ba 01E0     		b	.L297
 3682              	.L296:
 3683              		.loc 1 962 0 discriminator 3
 3684 00bc 4FF00003 		mov	r3, #0
 3685              	.L297:
 3686              		.loc 1 962 0 discriminator 4
 3687 00c0 1846     		mov	r0, r3
 3688 00c2 FFF7FEFF 		bl	assert_param
 963:../libs/StdPeripheralDriver/src/stm32f10x_usart.c ****   /* The CTS interrupt is not available for UART4 and UART5 */ 
 964:../libs/StdPeripheralDriver/src/stm32f10x_usart.c ****   if (USART_IT == USART_IT_CTS)
 3689              		.loc 1 964 0 is_stmt 1 discriminator 4
 3690 00c6 7A88     		ldrh	r2, [r7, #2]
 3691 00c8 40F66A13 		movw	r3, #2410
 3692 00cc 9A42     		cmp	r2, r3
 3693 00ce 13D1     		bne	.L298
 965:../libs/StdPeripheralDriver/src/stm32f10x_usart.c ****   {
 966:../libs/StdPeripheralDriver/src/stm32f10x_usart.c ****     assert_param(IS_USART_123_PERIPH(USARTx));
 3694              		.loc 1 966 0
 3695 00d0 7A68     		ldr	r2, [r7, #4]
 3696 00d2 304B     		ldr	r3, .L308
 3697 00d4 9A42     		cmp	r2, r3
 3698 00d6 07D0     		beq	.L299
 3699              		.loc 1 966 0 is_stmt 0 discriminator 2
 3700 00d8 7A68     		ldr	r2, [r7, #4]
 3701 00da 2F4B     		ldr	r3, .L308+4
 3702 00dc 9A42     		cmp	r2, r3
 3703 00de 03D0     		beq	.L299
 3704              		.loc 1 966 0 discriminator 1
 3705 00e0 7A68     		ldr	r2, [r7, #4]
 3706 00e2 2E4B     		ldr	r3, .L308+8
 3707 00e4 9A42     		cmp	r2, r3
 3708 00e6 02D1     		bne	.L300
 3709              	.L299:
 3710 00e8 4FF00103 		mov	r3, #1
 3711 00ec 01E0     		b	.L301
 3712              	.L300:
 3713              		.loc 1 966 0 discriminator 3
 3714 00ee 4FF00003 		mov	r3, #0
 3715              	.L301:
 3716              		.loc 1 966 0 discriminator 4
 3717 00f2 1846     		mov	r0, r3
 3718 00f4 FFF7FEFF 		bl	assert_param
 3719              	.L298:
 967:../libs/StdPeripheralDriver/src/stm32f10x_usart.c ****   }   
 968:../libs/StdPeripheralDriver/src/stm32f10x_usart.c ****   
 969:../libs/StdPeripheralDriver/src/stm32f10x_usart.c ****   /* Get the USART register index */
 970:../libs/StdPeripheralDriver/src/stm32f10x_usart.c ****   usartreg = (((uint8_t)USART_IT) >> 0x05);
 3720              		.loc 1 970 0 is_stmt 1
 3721 00f8 7B88     		ldrh	r3, [r7, #2]	@ movhi
 3722 00fa DBB2     		uxtb	r3, r3
 3723 00fc 4FEA5313 		lsr	r3, r3, #5
 3724 0100 DBB2     		uxtb	r3, r3
 3725 0102 BB60     		str	r3, [r7, #8]
 971:../libs/StdPeripheralDriver/src/stm32f10x_usart.c ****   /* Get the interrupt position */
 972:../libs/StdPeripheralDriver/src/stm32f10x_usart.c ****   itmask = USART_IT & IT_Mask;
 3726              		.loc 1 972 0
 3727 0104 7B88     		ldrh	r3, [r7, #2]
 3728 0106 03F01F03 		and	r3, r3, #31
 3729 010a 7B61     		str	r3, [r7, #20]
 973:../libs/StdPeripheralDriver/src/stm32f10x_usart.c ****   itmask = (uint32_t)0x01 << itmask;
 3730              		.loc 1 973 0
 3731 010c 7B69     		ldr	r3, [r7, #20]
 3732 010e 4FF00102 		mov	r2, #1
 3733 0112 02FA03F3 		lsl	r3, r2, r3
 3734 0116 7B61     		str	r3, [r7, #20]
 974:../libs/StdPeripheralDriver/src/stm32f10x_usart.c ****   
 975:../libs/StdPeripheralDriver/src/stm32f10x_usart.c ****   if (usartreg == 0x01) /* The IT  is in CR1 register */
 3735              		.loc 1 975 0
 3736 0118 BB68     		ldr	r3, [r7, #8]
 3737 011a 012B     		cmp	r3, #1
 3738 011c 06D1     		bne	.L302
 976:../libs/StdPeripheralDriver/src/stm32f10x_usart.c ****   {
 977:../libs/StdPeripheralDriver/src/stm32f10x_usart.c ****     itmask &= USARTx->CR1;
 3739              		.loc 1 977 0
 3740 011e 7B68     		ldr	r3, [r7, #4]
 3741 0120 9B89     		ldrh	r3, [r3, #12]	@ movhi
 3742 0122 9BB2     		uxth	r3, r3
 3743 0124 7A69     		ldr	r2, [r7, #20]
 3744 0126 1340     		ands	r3, r3, r2
 3745 0128 7B61     		str	r3, [r7, #20]
 3746 012a 0FE0     		b	.L303
 3747              	.L302:
 978:../libs/StdPeripheralDriver/src/stm32f10x_usart.c ****   }
 979:../libs/StdPeripheralDriver/src/stm32f10x_usart.c ****   else if (usartreg == 0x02) /* The IT  is in CR2 register */
 3748              		.loc 1 979 0
 3749 012c BB68     		ldr	r3, [r7, #8]
 3750 012e 022B     		cmp	r3, #2
 3751 0130 06D1     		bne	.L304
 980:../libs/StdPeripheralDriver/src/stm32f10x_usart.c ****   {
 981:../libs/StdPeripheralDriver/src/stm32f10x_usart.c ****     itmask &= USARTx->CR2;
 3752              		.loc 1 981 0
 3753 0132 7B68     		ldr	r3, [r7, #4]
 3754 0134 1B8A     		ldrh	r3, [r3, #16]	@ movhi
 3755 0136 9BB2     		uxth	r3, r3
 3756 0138 7A69     		ldr	r2, [r7, #20]
 3757 013a 1340     		ands	r3, r3, r2
 3758 013c 7B61     		str	r3, [r7, #20]
 3759 013e 05E0     		b	.L303
 3760              	.L304:
 982:../libs/StdPeripheralDriver/src/stm32f10x_usart.c ****   }
 983:../libs/StdPeripheralDriver/src/stm32f10x_usart.c ****   else /* The IT  is in CR3 register */
 984:../libs/StdPeripheralDriver/src/stm32f10x_usart.c ****   {
 985:../libs/StdPeripheralDriver/src/stm32f10x_usart.c ****     itmask &= USARTx->CR3;
 3761              		.loc 1 985 0
 3762 0140 7B68     		ldr	r3, [r7, #4]
 3763 0142 9B8A     		ldrh	r3, [r3, #20]	@ movhi
 3764 0144 9BB2     		uxth	r3, r3
 3765 0146 7A69     		ldr	r2, [r7, #20]
 3766 0148 1340     		ands	r3, r3, r2
 3767 014a 7B61     		str	r3, [r7, #20]
 3768              	.L303:
 986:../libs/StdPeripheralDriver/src/stm32f10x_usart.c ****   }
 987:../libs/StdPeripheralDriver/src/stm32f10x_usart.c ****   
 988:../libs/StdPeripheralDriver/src/stm32f10x_usart.c ****   bitpos = USART_IT >> 0x08;
 3769              		.loc 1 988 0
 3770 014c 7B88     		ldrh	r3, [r7, #2]
 3771 014e 4FEA1323 		lsr	r3, r3, #8
 3772 0152 9BB2     		uxth	r3, r3
 3773 0154 FB60     		str	r3, [r7, #12]
 989:../libs/StdPeripheralDriver/src/stm32f10x_usart.c ****   bitpos = (uint32_t)0x01 << bitpos;
 3774              		.loc 1 989 0
 3775 0156 FB68     		ldr	r3, [r7, #12]
 3776 0158 4FF00102 		mov	r2, #1
 3777 015c 02FA03F3 		lsl	r3, r2, r3
 3778 0160 FB60     		str	r3, [r7, #12]
 990:../libs/StdPeripheralDriver/src/stm32f10x_usart.c ****   bitpos &= USARTx->SR;
 3779              		.loc 1 990 0
 3780 0162 7B68     		ldr	r3, [r7, #4]
 3781 0164 1B88     		ldrh	r3, [r3, #0]	@ movhi
 3782 0166 9BB2     		uxth	r3, r3
 3783 0168 FA68     		ldr	r2, [r7, #12]
 3784 016a 1340     		ands	r3, r3, r2
 3785 016c FB60     		str	r3, [r7, #12]
 991:../libs/StdPeripheralDriver/src/stm32f10x_usart.c ****   if ((itmask != (uint16_t)RESET)&&(bitpos != (uint16_t)RESET))
 3786              		.loc 1 991 0
 3787 016e 7B69     		ldr	r3, [r7, #20]
 3788 0170 002B     		cmp	r3, #0
 3789 0172 06D0     		beq	.L305
 3790              		.loc 1 991 0 is_stmt 0 discriminator 1
 3791 0174 FB68     		ldr	r3, [r7, #12]
 3792 0176 002B     		cmp	r3, #0
 3793 0178 03D0     		beq	.L305
 992:../libs/StdPeripheralDriver/src/stm32f10x_usart.c ****   {
 993:../libs/StdPeripheralDriver/src/stm32f10x_usart.c ****     bitstatus = SET;
 3794              		.loc 1 993 0 is_stmt 1
 3795 017a 4FF00103 		mov	r3, #1
 3796 017e FB74     		strb	r3, [r7, #19]
 3797 0180 02E0     		b	.L306
 3798              	.L305:
 994:../libs/StdPeripheralDriver/src/stm32f10x_usart.c ****   }
 995:../libs/StdPeripheralDriver/src/stm32f10x_usart.c ****   else
 996:../libs/StdPeripheralDriver/src/stm32f10x_usart.c ****   {
 997:../libs/StdPeripheralDriver/src/stm32f10x_usart.c ****     bitstatus = RESET;
 3799              		.loc 1 997 0
 3800 0182 4FF00003 		mov	r3, #0
 3801 0186 FB74     		strb	r3, [r7, #19]
 3802              	.L306:
 998:../libs/StdPeripheralDriver/src/stm32f10x_usart.c ****   }
 999:../libs/StdPeripheralDriver/src/stm32f10x_usart.c ****   
1000:../libs/StdPeripheralDriver/src/stm32f10x_usart.c ****   return bitstatus;  
 3803              		.loc 1 1000 0
 3804 0188 FB7C     		ldrb	r3, [r7, #19]	@ zero_extendqisi2
1001:../libs/StdPeripheralDriver/src/stm32f10x_usart.c **** }
 3805              		.loc 1 1001 0
 3806 018a 1846     		mov	r0, r3
 3807 018c 07F11807 		add	r7, r7, #24
 3808 0190 BD46     		mov	sp, r7
 3809 0192 80BD     		pop	{r7, pc}
 3810              	.L309:
 3811              		.align	2
 3812              	.L308:
 3813 0194 00380140 		.word	1073821696
 3814 0198 00440040 		.word	1073759232
 3815 019c 00480040 		.word	1073760256
 3816 01a0 004C0040 		.word	1073761280
 3817 01a4 00500040 		.word	1073762304
 3818              		.cfi_endproc
 3819              	.LFE56:
 3821              		.section	.text.USART_ClearITPendingBit,"ax",%progbits
 3822              		.align	2
 3823              		.global	USART_ClearITPendingBit
 3824              		.thumb
 3825              		.thumb_func
 3827              	USART_ClearITPendingBit:
 3828              	.LFB57:
1002:../libs/StdPeripheralDriver/src/stm32f10x_usart.c **** 
1003:../libs/StdPeripheralDriver/src/stm32f10x_usart.c **** /**
1004:../libs/StdPeripheralDriver/src/stm32f10x_usart.c ****   * @brief  Clears the USARTx's interrupt pending bits.
1005:../libs/StdPeripheralDriver/src/stm32f10x_usart.c ****   * @param  USARTx: Select the USART or the UART peripheral. 
1006:../libs/StdPeripheralDriver/src/stm32f10x_usart.c ****   *   This parameter can be one of the following values:
1007:../libs/StdPeripheralDriver/src/stm32f10x_usart.c ****   *   USART1, USART2, USART3, UART4 or UART5.
1008:../libs/StdPeripheralDriver/src/stm32f10x_usart.c ****   * @param  USART_IT: specifies the interrupt pending bit to clear.
1009:../libs/StdPeripheralDriver/src/stm32f10x_usart.c ****   *   This parameter can be one of the following values:
1010:../libs/StdPeripheralDriver/src/stm32f10x_usart.c ****   *     @arg USART_IT_CTS:  CTS change interrupt (not available for UART4 and UART5)
1011:../libs/StdPeripheralDriver/src/stm32f10x_usart.c ****   *     @arg USART_IT_LBD:  LIN Break detection interrupt
1012:../libs/StdPeripheralDriver/src/stm32f10x_usart.c ****   *     @arg USART_IT_TC:   Transmission complete interrupt. 
1013:../libs/StdPeripheralDriver/src/stm32f10x_usart.c ****   *     @arg USART_IT_RXNE: Receive Data register not empty interrupt.
1014:../libs/StdPeripheralDriver/src/stm32f10x_usart.c ****   *   
1015:../libs/StdPeripheralDriver/src/stm32f10x_usart.c ****   * @note
1016:../libs/StdPeripheralDriver/src/stm32f10x_usart.c ****   *   - PE (Parity error), FE (Framing error), NE (Noise error), ORE (OverRun 
1017:../libs/StdPeripheralDriver/src/stm32f10x_usart.c ****   *     error) and IDLE (Idle line detected) pending bits are cleared by 
1018:../libs/StdPeripheralDriver/src/stm32f10x_usart.c ****   *     software sequence: a read operation to USART_SR register 
1019:../libs/StdPeripheralDriver/src/stm32f10x_usart.c ****   *     (USART_GetITStatus()) followed by a read operation to USART_DR register 
1020:../libs/StdPeripheralDriver/src/stm32f10x_usart.c ****   *     (USART_ReceiveData()).
1021:../libs/StdPeripheralDriver/src/stm32f10x_usart.c ****   *   - RXNE pending bit can be also cleared by a read to the USART_DR register 
1022:../libs/StdPeripheralDriver/src/stm32f10x_usart.c ****   *     (USART_ReceiveData()).
1023:../libs/StdPeripheralDriver/src/stm32f10x_usart.c ****   *   - TC pending bit can be also cleared by software sequence: a read 
1024:../libs/StdPeripheralDriver/src/stm32f10x_usart.c ****   *     operation to USART_SR register (USART_GetITStatus()) followed by a write 
1025:../libs/StdPeripheralDriver/src/stm32f10x_usart.c ****   *     operation to USART_DR register (USART_SendData()).
1026:../libs/StdPeripheralDriver/src/stm32f10x_usart.c ****   *   - TXE pending bit is cleared only by a write to the USART_DR register 
1027:../libs/StdPeripheralDriver/src/stm32f10x_usart.c ****   *     (USART_SendData()).
1028:../libs/StdPeripheralDriver/src/stm32f10x_usart.c ****   * @retval None
1029:../libs/StdPeripheralDriver/src/stm32f10x_usart.c ****   */
1030:../libs/StdPeripheralDriver/src/stm32f10x_usart.c **** void USART_ClearITPendingBit(USART_TypeDef* USARTx, uint16_t USART_IT)
1031:../libs/StdPeripheralDriver/src/stm32f10x_usart.c **** {
 3829              		.loc 1 1031 0
 3830              		.cfi_startproc
 3831              		@ args = 0, pretend = 0, frame = 16
 3832              		@ frame_needed = 1, uses_anonymous_args = 0
 3833 0000 80B5     		push	{r7, lr}
 3834              	.LCFI84:
 3835              		.cfi_def_cfa_offset 8
 3836              		.cfi_offset 7, -8
 3837              		.cfi_offset 14, -4
 3838 0002 84B0     		sub	sp, sp, #16
 3839              	.LCFI85:
 3840              		.cfi_def_cfa_offset 24
 3841 0004 00AF     		add	r7, sp, #0
 3842              	.LCFI86:
 3843              		.cfi_def_cfa_register 7
 3844 0006 7860     		str	r0, [r7, #4]
 3845 0008 0B46     		mov	r3, r1
 3846 000a 7B80     		strh	r3, [r7, #2]	@ movhi
1032:../libs/StdPeripheralDriver/src/stm32f10x_usart.c ****   uint16_t bitpos = 0x00, itmask = 0x00;
 3847              		.loc 1 1032 0
 3848 000c 4FF00003 		mov	r3, #0
 3849 0010 FB81     		strh	r3, [r7, #14]	@ movhi
 3850 0012 4FF00003 		mov	r3, #0
 3851 0016 BB81     		strh	r3, [r7, #12]	@ movhi
1033:../libs/StdPeripheralDriver/src/stm32f10x_usart.c ****   /* Check the parameters */
1034:../libs/StdPeripheralDriver/src/stm32f10x_usart.c ****   assert_param(IS_USART_ALL_PERIPH(USARTx));
 3852              		.loc 1 1034 0
 3853 0018 7A68     		ldr	r2, [r7, #4]
 3854 001a 324B     		ldr	r3, .L321
 3855 001c 9A42     		cmp	r2, r3
 3856 001e 0FD0     		beq	.L311
 3857              		.loc 1 1034 0 is_stmt 0 discriminator 2
 3858 0020 7A68     		ldr	r2, [r7, #4]
 3859 0022 314B     		ldr	r3, .L321+4
 3860 0024 9A42     		cmp	r2, r3
 3861 0026 0BD0     		beq	.L311
 3862              		.loc 1 1034 0 discriminator 1
 3863 0028 7A68     		ldr	r2, [r7, #4]
 3864 002a 304B     		ldr	r3, .L321+8
 3865 002c 9A42     		cmp	r2, r3
 3866 002e 07D0     		beq	.L311
 3867              		.loc 1 1034 0 discriminator 2
 3868 0030 7A68     		ldr	r2, [r7, #4]
 3869 0032 2F4B     		ldr	r3, .L321+12
 3870 0034 9A42     		cmp	r2, r3
 3871 0036 03D0     		beq	.L311
 3872              		.loc 1 1034 0 discriminator 3
 3873 0038 7A68     		ldr	r2, [r7, #4]
 3874 003a 2E4B     		ldr	r3, .L321+16
 3875 003c 9A42     		cmp	r2, r3
 3876 003e 02D1     		bne	.L312
 3877              	.L311:
 3878              		.loc 1 1034 0 discriminator 1
 3879 0040 4FF00103 		mov	r3, #1
 3880 0044 01E0     		b	.L313
 3881              	.L312:
 3882              		.loc 1 1034 0 discriminator 3
 3883 0046 4FF00003 		mov	r3, #0
 3884              	.L313:
 3885              		.loc 1 1034 0 discriminator 4
 3886 004a 1846     		mov	r0, r3
 3887 004c FFF7FEFF 		bl	assert_param
1035:../libs/StdPeripheralDriver/src/stm32f10x_usart.c ****   assert_param(IS_USART_CLEAR_IT(USART_IT));
 3888              		.loc 1 1035 0 is_stmt 1 discriminator 4
 3889 0050 7A88     		ldrh	r2, [r7, #2]
 3890 0052 40F22663 		movw	r3, #1574
 3891 0056 9A42     		cmp	r2, r3
 3892 0058 0ED0     		beq	.L314
 3893              		.loc 1 1035 0 is_stmt 0 discriminator 2
 3894 005a 7A88     		ldrh	r2, [r7, #2]
 3895 005c 40F22553 		movw	r3, #1317
 3896 0060 9A42     		cmp	r2, r3
 3897 0062 09D0     		beq	.L314
 3898              		.loc 1 1035 0 discriminator 1
 3899 0064 7A88     		ldrh	r2, [r7, #2]
 3900 0066 40F64603 		movw	r3, #2118
 3901 006a 9A42     		cmp	r2, r3
 3902 006c 04D0     		beq	.L314
 3903              		.loc 1 1035 0 discriminator 2
 3904 006e 7A88     		ldrh	r2, [r7, #2]
 3905 0070 40F66A13 		movw	r3, #2410
 3906 0074 9A42     		cmp	r2, r3
 3907 0076 02D1     		bne	.L315
 3908              	.L314:
 3909              		.loc 1 1035 0 discriminator 1
 3910 0078 4FF00103 		mov	r3, #1
 3911 007c 01E0     		b	.L316
 3912              	.L315:
 3913              		.loc 1 1035 0 discriminator 3
 3914 007e 4FF00003 		mov	r3, #0
 3915              	.L316:
 3916              		.loc 1 1035 0 discriminator 4
 3917 0082 1846     		mov	r0, r3
 3918 0084 FFF7FEFF 		bl	assert_param
1036:../libs/StdPeripheralDriver/src/stm32f10x_usart.c ****   /* The CTS interrupt is not available for UART4 and UART5 */
1037:../libs/StdPeripheralDriver/src/stm32f10x_usart.c ****   if (USART_IT == USART_IT_CTS)
 3919              		.loc 1 1037 0 is_stmt 1 discriminator 4
 3920 0088 7A88     		ldrh	r2, [r7, #2]
 3921 008a 40F66A13 		movw	r3, #2410
 3922 008e 9A42     		cmp	r2, r3
 3923 0090 13D1     		bne	.L317
1038:../libs/StdPeripheralDriver/src/stm32f10x_usart.c ****   {
1039:../libs/StdPeripheralDriver/src/stm32f10x_usart.c ****     assert_param(IS_USART_123_PERIPH(USARTx));
 3924              		.loc 1 1039 0
 3925 0092 7A68     		ldr	r2, [r7, #4]
 3926 0094 134B     		ldr	r3, .L321
 3927 0096 9A42     		cmp	r2, r3
 3928 0098 07D0     		beq	.L318
 3929              		.loc 1 1039 0 is_stmt 0 discriminator 2
 3930 009a 7A68     		ldr	r2, [r7, #4]
 3931 009c 124B     		ldr	r3, .L321+4
 3932 009e 9A42     		cmp	r2, r3
 3933 00a0 03D0     		beq	.L318
 3934              		.loc 1 1039 0 discriminator 1
 3935 00a2 7A68     		ldr	r2, [r7, #4]
 3936 00a4 114B     		ldr	r3, .L321+8
 3937 00a6 9A42     		cmp	r2, r3
 3938 00a8 02D1     		bne	.L319
 3939              	.L318:
 3940 00aa 4FF00103 		mov	r3, #1
 3941 00ae 01E0     		b	.L320
 3942              	.L319:
 3943              		.loc 1 1039 0 discriminator 3
 3944 00b0 4FF00003 		mov	r3, #0
 3945              	.L320:
 3946              		.loc 1 1039 0 discriminator 4
 3947 00b4 1846     		mov	r0, r3
 3948 00b6 FFF7FEFF 		bl	assert_param
 3949              	.L317:
1040:../libs/StdPeripheralDriver/src/stm32f10x_usart.c ****   }   
1041:../libs/StdPeripheralDriver/src/stm32f10x_usart.c ****   
1042:../libs/StdPeripheralDriver/src/stm32f10x_usart.c ****   bitpos = USART_IT >> 0x08;
 3950              		.loc 1 1042 0 is_stmt 1
 3951 00ba 7B88     		ldrh	r3, [r7, #2]
 3952 00bc 4FEA1323 		lsr	r3, r3, #8
 3953 00c0 FB81     		strh	r3, [r7, #14]	@ movhi
1043:../libs/StdPeripheralDriver/src/stm32f10x_usart.c ****   itmask = ((uint16_t)0x01 << (uint16_t)bitpos);
 3954              		.loc 1 1043 0
 3955 00c2 FB89     		ldrh	r3, [r7, #14]
 3956 00c4 4FF00102 		mov	r2, #1
 3957 00c8 02FA03F3 		lsl	r3, r2, r3
 3958 00cc BB81     		strh	r3, [r7, #12]	@ movhi
1044:../libs/StdPeripheralDriver/src/stm32f10x_usart.c ****   USARTx->SR = (uint16_t)~itmask;
 3959              		.loc 1 1044 0
 3960 00ce BB89     		ldrh	r3, [r7, #12]	@ movhi
 3961 00d0 6FEA0303 		mvn	r3, r3
 3962 00d4 9AB2     		uxth	r2, r3
 3963 00d6 7B68     		ldr	r3, [r7, #4]
 3964 00d8 1A80     		strh	r2, [r3, #0]	@ movhi
1045:../libs/StdPeripheralDriver/src/stm32f10x_usart.c **** }
 3965              		.loc 1 1045 0
 3966 00da 07F11007 		add	r7, r7, #16
 3967 00de BD46     		mov	sp, r7
 3968 00e0 80BD     		pop	{r7, pc}
 3969              	.L322:
 3970 00e2 00BF     		.align	2
 3971              	.L321:
 3972 00e4 00380140 		.word	1073821696
 3973 00e8 00440040 		.word	1073759232
 3974 00ec 00480040 		.word	1073760256
 3975 00f0 004C0040 		.word	1073761280
 3976 00f4 00500040 		.word	1073762304
 3977              		.cfi_endproc
 3978              	.LFE57:
 3980              		.text
 3981              	.Letext0:
 3982              		.file 2 "d:\\programs\\stm programs\\codebench\\bin\\../lib/gcc/arm-none-eabi/4.7.3/../../../../ar
 3983              		.file 3 "D:\\PROGRAMMING\\stm\\stm-discovery_test_project\\libs\\CMSIS/stm32f10x.h"
 3984              		.file 4 "D:\\PROGRAMMING\\stm\\stm-discovery_test_project\\libs\\StdPeripheralDriver\\inc/stm32f10
 3985              		.file 5 "D:\\PROGRAMMING\\stm\\stm-discovery_test_project\\libs\\StdPeripheralDriver\\inc/stm32f10
 3986              		.file 6 "D:\\PROGRAMMING\\stm\\stm-discovery_test_project\\libs\\CMSIS/core_cm3.h"
DEFINED SYMBOLS
                            *ABS*:00000000 stm32f10x_usart.c
C:\Users\6262~1\AppData\Local\Temp\cc1Q8a1b.s:19     .text.USART_DeInit:00000000 $t
C:\Users\6262~1\AppData\Local\Temp\cc1Q8a1b.s:24     .text.USART_DeInit:00000000 USART_DeInit
C:\Users\6262~1\AppData\Local\Temp\cc1Q8a1b.s:160    .text.USART_DeInit:000000f0 $d
C:\Users\6262~1\AppData\Local\Temp\cc1Q8a1b.s:169    .text.USART_Init:00000000 $t
C:\Users\6262~1\AppData\Local\Temp\cc1Q8a1b.s:174    .text.USART_Init:00000000 USART_Init
C:\Users\6262~1\AppData\Local\Temp\cc1Q8a1b.s:544    .text.USART_Init:00000260 $d
C:\Users\6262~1\AppData\Local\Temp\cc1Q8a1b.s:552    .text.USART_Init:00000278 $t
C:\Users\6262~1\AppData\Local\Temp\cc1Q8a1b.s:624    .text.USART_Init:00000318 $d
C:\Users\6262~1\AppData\Local\Temp\cc1Q8a1b.s:629    .text.USART_StructInit:00000000 $t
C:\Users\6262~1\AppData\Local\Temp\cc1Q8a1b.s:634    .text.USART_StructInit:00000000 USART_StructInit
C:\Users\6262~1\AppData\Local\Temp\cc1Q8a1b.s:685    .text.USART_ClockInit:00000000 $t
C:\Users\6262~1\AppData\Local\Temp\cc1Q8a1b.s:690    .text.USART_ClockInit:00000000 USART_ClockInit
C:\Users\6262~1\AppData\Local\Temp\cc1Q8a1b.s:863    .text.USART_ClockInit:00000104 $d
C:\Users\6262~1\AppData\Local\Temp\cc1Q8a1b.s:870    .text.USART_ClockStructInit:00000000 $t
C:\Users\6262~1\AppData\Local\Temp\cc1Q8a1b.s:875    .text.USART_ClockStructInit:00000000 USART_ClockStructInit
C:\Users\6262~1\AppData\Local\Temp\cc1Q8a1b.s:918    .text.USART_Cmd:00000000 $t
C:\Users\6262~1\AppData\Local\Temp\cc1Q8a1b.s:923    .text.USART_Cmd:00000000 USART_Cmd
C:\Users\6262~1\AppData\Local\Temp\cc1Q8a1b.s:1028   .text.USART_Cmd:00000090 $d
C:\Users\6262~1\AppData\Local\Temp\cc1Q8a1b.s:1037   .text.USART_ITConfig:00000000 $t
C:\Users\6262~1\AppData\Local\Temp\cc1Q8a1b.s:1042   .text.USART_ITConfig:00000000 USART_ITConfig
C:\Users\6262~1\AppData\Local\Temp\cc1Q8a1b.s:1281   .text.USART_ITConfig:00000180 $d
C:\Users\6262~1\AppData\Local\Temp\cc1Q8a1b.s:1290   .text.USART_DMACmd:00000000 $t
C:\Users\6262~1\AppData\Local\Temp\cc1Q8a1b.s:1295   .text.USART_DMACmd:00000000 USART_DMACmd
C:\Users\6262~1\AppData\Local\Temp\cc1Q8a1b.s:1426   .text.USART_DMACmd:000000bc $d
C:\Users\6262~1\AppData\Local\Temp\cc1Q8a1b.s:1435   .text.USART_SetAddress:00000000 $t
C:\Users\6262~1\AppData\Local\Temp\cc1Q8a1b.s:1440   .text.USART_SetAddress:00000000 USART_SetAddress
C:\Users\6262~1\AppData\Local\Temp\cc1Q8a1b.s:1530   .text.USART_SetAddress:00000080 $d
C:\Users\6262~1\AppData\Local\Temp\cc1Q8a1b.s:1539   .text.USART_WakeUpConfig:00000000 $t
C:\Users\6262~1\AppData\Local\Temp\cc1Q8a1b.s:1544   .text.USART_WakeUpConfig:00000000 USART_WakeUpConfig
C:\Users\6262~1\AppData\Local\Temp\cc1Q8a1b.s:1643   .text.USART_WakeUpConfig:0000008c $d
C:\Users\6262~1\AppData\Local\Temp\cc1Q8a1b.s:1652   .text.USART_ReceiverWakeUpCmd:00000000 $t
C:\Users\6262~1\AppData\Local\Temp\cc1Q8a1b.s:1657   .text.USART_ReceiverWakeUpCmd:00000000 USART_ReceiverWakeUpCmd
C:\Users\6262~1\AppData\Local\Temp\cc1Q8a1b.s:1762   .text.USART_ReceiverWakeUpCmd:00000090 $d
C:\Users\6262~1\AppData\Local\Temp\cc1Q8a1b.s:1771   .text.USART_LINBreakDetectLengthConfig:00000000 $t
C:\Users\6262~1\AppData\Local\Temp\cc1Q8a1b.s:1776   .text.USART_LINBreakDetectLengthConfig:00000000 USART_LINBreakDetectLengthConfig
C:\Users\6262~1\AppData\Local\Temp\cc1Q8a1b.s:1875   .text.USART_LINBreakDetectLengthConfig:00000088 $d
C:\Users\6262~1\AppData\Local\Temp\cc1Q8a1b.s:1884   .text.USART_LINCmd:00000000 $t
C:\Users\6262~1\AppData\Local\Temp\cc1Q8a1b.s:1889   .text.USART_LINCmd:00000000 USART_LINCmd
C:\Users\6262~1\AppData\Local\Temp\cc1Q8a1b.s:1994   .text.USART_LINCmd:00000090 $d
C:\Users\6262~1\AppData\Local\Temp\cc1Q8a1b.s:2003   .text.USART_SendData:00000000 $t
C:\Users\6262~1\AppData\Local\Temp\cc1Q8a1b.s:2008   .text.USART_SendData:00000000 USART_SendData
C:\Users\6262~1\AppData\Local\Temp\cc1Q8a1b.s:2088   .text.USART_SendData:00000074 $d
C:\Users\6262~1\AppData\Local\Temp\cc1Q8a1b.s:2097   .text.USART_ReceiveData:00000000 $t
C:\Users\6262~1\AppData\Local\Temp\cc1Q8a1b.s:2102   .text.USART_ReceiveData:00000000 USART_ReceiveData
C:\Users\6262~1\AppData\Local\Temp\cc1Q8a1b.s:2171   .text.USART_ReceiveData:0000005c $d
C:\Users\6262~1\AppData\Local\Temp\cc1Q8a1b.s:2180   .text.USART_SendBreak:00000000 $t
C:\Users\6262~1\AppData\Local\Temp\cc1Q8a1b.s:2185   .text.USART_SendBreak:00000000 USART_SendBreak
C:\Users\6262~1\AppData\Local\Temp\cc1Q8a1b.s:2254   .text.USART_SendBreak:00000058 $d
C:\Users\6262~1\AppData\Local\Temp\cc1Q8a1b.s:2263   .text.USART_SetGuardTime:00000000 $t
C:\Users\6262~1\AppData\Local\Temp\cc1Q8a1b.s:2268   .text.USART_SetGuardTime:00000000 USART_SetGuardTime
C:\Users\6262~1\AppData\Local\Temp\cc1Q8a1b.s:2340   .text.USART_SetGuardTime:00000064 $d
C:\Users\6262~1\AppData\Local\Temp\cc1Q8a1b.s:2347   .text.USART_SetPrescaler:00000000 $t
C:\Users\6262~1\AppData\Local\Temp\cc1Q8a1b.s:2352   .text.USART_SetPrescaler:00000000 USART_SetPrescaler
C:\Users\6262~1\AppData\Local\Temp\cc1Q8a1b.s:2433   .text.USART_SetPrescaler:00000070 $d
C:\Users\6262~1\AppData\Local\Temp\cc1Q8a1b.s:2442   .text.USART_SmartCardCmd:00000000 $t
C:\Users\6262~1\AppData\Local\Temp\cc1Q8a1b.s:2447   .text.USART_SmartCardCmd:00000000 USART_SmartCardCmd
C:\Users\6262~1\AppData\Local\Temp\cc1Q8a1b.s:2541   .text.USART_SmartCardCmd:00000080 $d
C:\Users\6262~1\AppData\Local\Temp\cc1Q8a1b.s:2548   .text.USART_SmartCardNACKCmd:00000000 $t
C:\Users\6262~1\AppData\Local\Temp\cc1Q8a1b.s:2553   .text.USART_SmartCardNACKCmd:00000000 USART_SmartCardNACKCmd
C:\Users\6262~1\AppData\Local\Temp\cc1Q8a1b.s:2647   .text.USART_SmartCardNACKCmd:00000080 $d
C:\Users\6262~1\AppData\Local\Temp\cc1Q8a1b.s:2654   .text.USART_HalfDuplexCmd:00000000 $t
C:\Users\6262~1\AppData\Local\Temp\cc1Q8a1b.s:2659   .text.USART_HalfDuplexCmd:00000000 USART_HalfDuplexCmd
C:\Users\6262~1\AppData\Local\Temp\cc1Q8a1b.s:2764   .text.USART_HalfDuplexCmd:00000090 $d
C:\Users\6262~1\AppData\Local\Temp\cc1Q8a1b.s:2773   .text.USART_OverSampling8Cmd:00000000 $t
C:\Users\6262~1\AppData\Local\Temp\cc1Q8a1b.s:2778   .text.USART_OverSampling8Cmd:00000000 USART_OverSampling8Cmd
C:\Users\6262~1\AppData\Local\Temp\cc1Q8a1b.s:2885   .text.USART_OverSampling8Cmd:00000098 $d
C:\Users\6262~1\AppData\Local\Temp\cc1Q8a1b.s:2894   .text.USART_OneBitMethodCmd:00000000 $t
C:\Users\6262~1\AppData\Local\Temp\cc1Q8a1b.s:2899   .text.USART_OneBitMethodCmd:00000000 USART_OneBitMethodCmd
C:\Users\6262~1\AppData\Local\Temp\cc1Q8a1b.s:3004   .text.USART_OneBitMethodCmd:00000090 $d
C:\Users\6262~1\AppData\Local\Temp\cc1Q8a1b.s:3013   .text.USART_IrDAConfig:00000000 $t
C:\Users\6262~1\AppData\Local\Temp\cc1Q8a1b.s:3018   .text.USART_IrDAConfig:00000000 USART_IrDAConfig
C:\Users\6262~1\AppData\Local\Temp\cc1Q8a1b.s:3117   .text.USART_IrDAConfig:00000088 $d
C:\Users\6262~1\AppData\Local\Temp\cc1Q8a1b.s:3126   .text.USART_IrDACmd:00000000 $t
C:\Users\6262~1\AppData\Local\Temp\cc1Q8a1b.s:3131   .text.USART_IrDACmd:00000000 USART_IrDACmd
C:\Users\6262~1\AppData\Local\Temp\cc1Q8a1b.s:3236   .text.USART_IrDACmd:00000090 $d
C:\Users\6262~1\AppData\Local\Temp\cc1Q8a1b.s:3245   .text.USART_GetFlagStatus:00000000 $t
C:\Users\6262~1\AppData\Local\Temp\cc1Q8a1b.s:3250   .text.USART_GetFlagStatus:00000000 USART_GetFlagStatus
C:\Users\6262~1\AppData\Local\Temp\cc1Q8a1b.s:3418   .text.USART_GetFlagStatus:000000f4 $d
C:\Users\6262~1\AppData\Local\Temp\cc1Q8a1b.s:3427   .text.USART_ClearFlag:00000000 $t
C:\Users\6262~1\AppData\Local\Temp\cc1Q8a1b.s:3432   .text.USART_ClearFlag:00000000 USART_ClearFlag
C:\Users\6262~1\AppData\Local\Temp\cc1Q8a1b.s:3552   .text.USART_ClearFlag:000000ac $d
C:\Users\6262~1\AppData\Local\Temp\cc1Q8a1b.s:3561   .text.USART_GetITStatus:00000000 $t
C:\Users\6262~1\AppData\Local\Temp\cc1Q8a1b.s:3566   .text.USART_GetITStatus:00000000 USART_GetITStatus
C:\Users\6262~1\AppData\Local\Temp\cc1Q8a1b.s:3813   .text.USART_GetITStatus:00000194 $d
C:\Users\6262~1\AppData\Local\Temp\cc1Q8a1b.s:3822   .text.USART_ClearITPendingBit:00000000 $t
C:\Users\6262~1\AppData\Local\Temp\cc1Q8a1b.s:3827   .text.USART_ClearITPendingBit:00000000 USART_ClearITPendingBit
C:\Users\6262~1\AppData\Local\Temp\cc1Q8a1b.s:3972   .text.USART_ClearITPendingBit:000000e4 $d
                     .debug_frame:00000010 $d
                           .group:00000000 wm4.1.a89c7a2b9e0955e95368adfe2cbc52f6
                           .group:00000000 wm4.stm32f10x.h.51.b859cb68ed44ee02c916b41cb8c68f1c
                           .group:00000000 wm4.core_cm3.h.25.d35e9a9b04ec4aaebae9bf79fff061f9
                           .group:00000000 wm4.stdint.h.10.90b695f550ca6cc3fb08fa83baf01e05
                           .group:00000000 wm4.core_cm3.h.113.b286929a54d33b4c8909a7132437b244
                           .group:00000000 wm4.stm32f10x.h.522.a925aafc848b1f088438cf0e9b167b78
                           .group:00000000 wm4.stm32f10x.h.8304.f7d8ad90959e99679b3257267c3aadfe
                           .group:00000000 wm4.stm32f10x_usart.h.107.8846ccd7e61ab380957a621cc3460139
                           .group:00000000 wm4.stm32f10x_rcc.h.25.fe8897e7491f2eb0cff54551d08eb765

UNDEFINED SYMBOLS
assert_param
RCC_APB2PeriphResetCmd
RCC_APB1PeriphResetCmd
RCC_GetClocksFreq
